; ModuleID = 'anchor_spl.163986ce-cgu.0'
source_filename = "anchor_spl.163986ce-cgu.0"
target datalayout = "e-m:e-p:64:64-i64:64-n32:64-S128"
target triple = "bpfel"

%"anchor_lang::prelude::Pubkey" = type { [32 x i8] }
%"std::result::Result<token::InitializeMint, anchor_lang::error::Error>" = type { i64, [14 x i64] }
%"std::result::Result<std::convert::Infallible, anchor_lang::error::Error>::Err" = type { %"anchor_lang::error::Error" }
%"anchor_lang::error::Error" = type { i64, [13 x i64] }
%"std::result::Result<token::InitializeMint, anchor_lang::error::Error>::Err" = type { [1 x i64], %"anchor_lang::error::Error" }
%"std::result::Result<token::ThawAccount, anchor_lang::error::Error>" = type { i64, [18 x i64] }
%"std::result::Result<token::ThawAccount, anchor_lang::error::Error>::Err" = type { [1 x i64], %"anchor_lang::error::Error" }
%"std::result::Result<token::InitializeAccount, anchor_lang::error::Error>" = type { i64, [24 x i64] }
%"std::result::Result<token::InitializeAccount, anchor_lang::error::Error>::Err" = type { [1 x i64], %"anchor_lang::error::Error" }
%"std::result::Result<token::CloseAccount, anchor_lang::error::Error>" = type { i64, [18 x i64] }
%"std::result::Result<token::CloseAccount, anchor_lang::error::Error>::Err" = type { [1 x i64], %"anchor_lang::error::Error" }
%"std::result::Result<token::Burn, anchor_lang::error::Error>" = type { i64, [18 x i64] }
%"std::result::Result<token::Burn, anchor_lang::error::Error>::Err" = type { [1 x i64], %"anchor_lang::error::Error" }
%"std::result::Result<token::Transfer, anchor_lang::error::Error>" = type { i64, [18 x i64] }
%"std::result::Result<token::Transfer, anchor_lang::error::Error>::Err" = type { [1 x i64], %"anchor_lang::error::Error" }
%"std::result::Result<token::FreezeAccount, anchor_lang::error::Error>" = type { i64, [18 x i64] }
%"std::result::Result<token::FreezeAccount, anchor_lang::error::Error>::Err" = type { [1 x i64], %"anchor_lang::error::Error" }
%"std::result::Result<associated_token::Create, anchor_lang::error::Error>" = type { i64, [42 x i64] }
%"std::result::Result<associated_token::Create, anchor_lang::error::Error>::Err" = type { [1 x i64], %"anchor_lang::error::Error" }
%"std::result::Result<token::SetAuthority, anchor_lang::error::Error>" = type { i64, [14 x i64] }
%"std::result::Result<token::SetAuthority, anchor_lang::error::Error>::Err" = type { [1 x i64], %"anchor_lang::error::Error" }
%"std::result::Result<anchor_lang::prelude::Pubkey, anchor_lang::error::Error>" = type { i8, [119 x i8] }
%"std::result::Result<std::convert::Infallible, anchor_lang::prelude::ProgramError>::Err" = type { %"anchor_lang::prelude::ProgramError" }
%"anchor_lang::prelude::ProgramError" = type { i32, [7 x i32] }
%"std::result::Result<anchor_lang::prelude::Pubkey, anchor_lang::error::Error>::Err" = type { [1 x i64], %"anchor_lang::error::Error" }
%"std::result::Result<token::Approve, anchor_lang::error::Error>" = type { i64, [18 x i64] }
%"std::result::Result<token::Approve, anchor_lang::error::Error>::Err" = type { [1 x i64], %"anchor_lang::error::Error" }
%"std::result::Result<u64, anchor_lang::error::Error>" = type { i64, [14 x i64] }
%"std::result::Result<u64, anchor_lang::error::Error>::Err" = type { [1 x i64], %"anchor_lang::error::Error" }
%"std::result::Result<token::MintTo, anchor_lang::error::Error>" = type { i64, [18 x i64] }
%"std::result::Result<token::MintTo, anchor_lang::error::Error>::Err" = type { [1 x i64], %"anchor_lang::error::Error" }
%"token::TokenAccount" = type { %"spl_token::state::Account" }
%"spl_token::state::Account" = type { %"anchor_lang::prelude::Pubkey", %"anchor_lang::prelude::Pubkey", i64, %"solana_program::program_option::COption<anchor_lang::prelude::Pubkey>", i8, [3 x i8], { i32, i64 }, i64, %"solana_program::program_option::COption<anchor_lang::prelude::Pubkey>", [1 x i32] }
%"solana_program::program_option::COption<anchor_lang::prelude::Pubkey>" = type { i32, [8 x i32] }
%"token::Mint" = type { %"spl_token::state::Mint" }
%"spl_token::state::Mint" = type { %"solana_program::program_option::COption<anchor_lang::prelude::Pubkey>", [1 x i32], i64, i8, i8, [2 x i8], %"solana_program::program_option::COption<anchor_lang::prelude::Pubkey>" }
%"token::Burn" = type { %"anchor_lang::prelude::AccountInfo", %"anchor_lang::prelude::AccountInfo", %"anchor_lang::prelude::AccountInfo" }
%"anchor_lang::prelude::AccountInfo" = type { %"anchor_lang::prelude::Pubkey"*, i64*, i64*, %"anchor_lang::prelude::Pubkey"*, i64, i8, i8, i8, [5 x i8] }
%"token::MintTo" = type { %"anchor_lang::prelude::AccountInfo", %"anchor_lang::prelude::AccountInfo", %"anchor_lang::prelude::AccountInfo" }
%"token::Approve" = type { %"anchor_lang::prelude::AccountInfo", %"anchor_lang::prelude::AccountInfo", %"anchor_lang::prelude::AccountInfo" }
%"token::Transfer" = type { %"anchor_lang::prelude::AccountInfo", %"anchor_lang::prelude::AccountInfo", %"anchor_lang::prelude::AccountInfo" }
%"token::ThawAccount" = type { %"anchor_lang::prelude::AccountInfo", %"anchor_lang::prelude::AccountInfo", %"anchor_lang::prelude::AccountInfo" }
%"token::CloseAccount" = type { %"anchor_lang::prelude::AccountInfo", %"anchor_lang::prelude::AccountInfo", %"anchor_lang::prelude::AccountInfo" }
%"token::SetAuthority" = type { %"anchor_lang::prelude::AccountInfo", %"anchor_lang::prelude::AccountInfo" }
%"token::FreezeAccount" = type { %"anchor_lang::prelude::AccountInfo", %"anchor_lang::prelude::AccountInfo", %"anchor_lang::prelude::AccountInfo" }
%"token::InitializeMint" = type { %"anchor_lang::prelude::AccountInfo", %"anchor_lang::prelude::AccountInfo" }
%"token::InitializeAccount" = type { %"anchor_lang::prelude::AccountInfo", %"anchor_lang::prelude::AccountInfo", %"anchor_lang::prelude::AccountInfo", %"anchor_lang::prelude::AccountInfo" }
%"anchor_lang::context::CpiContext<token::Burn>" = type { %"token::Burn", %"std::vec::Vec<anchor_lang::prelude::AccountInfo>", %"anchor_lang::prelude::AccountInfo", { [0 x { [0 x { [0 x i8]*, i64 }]*, i64 }]*, i64 } }
%"std::vec::Vec<anchor_lang::prelude::AccountInfo>" = type { { i64*, i64 }, i64 }
%"anchor_lang::context::CpiContext<token::MintTo>" = type { %"token::MintTo", %"std::vec::Vec<anchor_lang::prelude::AccountInfo>", %"anchor_lang::prelude::AccountInfo", { [0 x { [0 x { [0 x i8]*, i64 }]*, i64 }]*, i64 } }
%"anchor_lang::context::CpiContext<token::Approve>" = type { %"token::Approve", %"std::vec::Vec<anchor_lang::prelude::AccountInfo>", %"anchor_lang::prelude::AccountInfo", { [0 x { [0 x { [0 x i8]*, i64 }]*, i64 }]*, i64 } }
%"anchor_lang::context::CpiContext<token::Transfer>" = type { %"token::Transfer", %"std::vec::Vec<anchor_lang::prelude::AccountInfo>", %"anchor_lang::prelude::AccountInfo", { [0 x { [0 x { [0 x i8]*, i64 }]*, i64 }]*, i64 } }
%"anchor_lang::context::CpiContext<token::ThawAccount>" = type { %"token::ThawAccount", %"std::vec::Vec<anchor_lang::prelude::AccountInfo>", %"anchor_lang::prelude::AccountInfo", { [0 x { [0 x { [0 x i8]*, i64 }]*, i64 }]*, i64 } }
%"anchor_lang::context::CpiContext<token::CloseAccount>" = type { %"token::CloseAccount", %"std::vec::Vec<anchor_lang::prelude::AccountInfo>", %"anchor_lang::prelude::AccountInfo", { [0 x { [0 x { [0 x i8]*, i64 }]*, i64 }]*, i64 } }
%"anchor_lang::context::CpiContext<token::SetAuthority>" = type { %"token::SetAuthority", %"std::vec::Vec<anchor_lang::prelude::AccountInfo>", %"anchor_lang::prelude::AccountInfo", { [0 x { [0 x { [0 x i8]*, i64 }]*, i64 }]*, i64 } }
%"anchor_lang::context::CpiContext<token::FreezeAccount>" = type { %"token::FreezeAccount", %"std::vec::Vec<anchor_lang::prelude::AccountInfo>", %"anchor_lang::prelude::AccountInfo", { [0 x { [0 x { [0 x i8]*, i64 }]*, i64 }]*, i64 } }
%"anchor_lang::context::CpiContext<token::InitializeMint>" = type { %"token::InitializeMint", %"std::vec::Vec<anchor_lang::prelude::AccountInfo>", %"anchor_lang::prelude::AccountInfo", { [0 x { [0 x { [0 x i8]*, i64 }]*, i64 }]*, i64 } }
%"anchor_lang::context::CpiContext<token::InitializeAccount>" = type { %"token::InitializeAccount", %"std::vec::Vec<anchor_lang::prelude::AccountInfo>", %"anchor_lang::prelude::AccountInfo", { [0 x { [0 x { [0 x i8]*, i64 }]*, i64 }]*, i64 } }
%"std::option::Option<anchor_lang::prelude::Pubkey>" = type { i8, [32 x i8] }
%"std::option::Option<anchor_lang::prelude::Pubkey>::Some" = type { [1 x i8], %"anchor_lang::prelude::Pubkey" }
%"std::result::Result<token::TokenAccount, anchor_lang::prelude::ProgramError>" = type { i64, [22 x i64] }
%"std::result::Result<spl_token::state::Account, anchor_lang::prelude::ProgramError>" = type { i64, [22 x i64] }
%"std::result::Result<spl_token::state::Account, anchor_lang::prelude::ProgramError>::Ok" = type { [1 x i64], %"spl_token::state::Account" }
%"std::result::Result<spl_token::state::Account, anchor_lang::prelude::ProgramError>::Err" = type { [1 x i64], %"anchor_lang::prelude::ProgramError" }
%"std::result::Result<token::TokenAccount, anchor_lang::prelude::ProgramError>::Err" = type { [1 x i64], %"anchor_lang::prelude::ProgramError" }
%"std::result::Result<token::TokenAccount, anchor_lang::prelude::ProgramError>::Ok" = type { [1 x i64], %"token::TokenAccount" }
%"std::result::Result<token::Mint, anchor_lang::prelude::ProgramError>" = type { i64, [11 x i64] }
%"std::result::Result<spl_token::state::Mint, anchor_lang::prelude::ProgramError>" = type { i64, [11 x i64] }
%"std::result::Result<spl_token::state::Mint, anchor_lang::prelude::ProgramError>::Ok" = type { [1 x i64], %"spl_token::state::Mint" }
%"std::result::Result<spl_token::state::Mint, anchor_lang::prelude::ProgramError>::Err" = type { [1 x i64], %"anchor_lang::prelude::ProgramError" }
%"std::result::Result<token::Mint, anchor_lang::prelude::ProgramError>::Err" = type { [1 x i64], %"anchor_lang::prelude::ProgramError" }
%"std::result::Result<token::Mint, anchor_lang::prelude::ProgramError>::Ok" = type { [1 x i64], %"token::Mint" }
%"std::result::Result<anchor_lang::prelude::AccountInfo, anchor_lang::error::Error>" = type { i64, [14 x i64] }
%"[closure@/home/seaceved/.cargo/registry/src/github.com-1ecc6299db9ec823/anchor-spl-0.22.0/src/token.rs:273:10: 273:18]" = type {}
%"std::result::Result<anchor_lang::prelude::AccountInfo, anchor_lang::error::Error>::Ok" = type { [1 x i64], %"anchor_lang::prelude::AccountInfo" }
%"std::result::Result<anchor_lang::prelude::AccountInfo, anchor_lang::error::Error>::Err" = type { [1 x i64], %"anchor_lang::error::Error" }
%"[closure@/home/seaceved/.cargo/registry/src/github.com-1ecc6299db9ec823/anchor-spl-0.22.0/src/token.rs:288:10: 288:18]" = type {}
%"[closure@/home/seaceved/.cargo/registry/src/github.com-1ecc6299db9ec823/anchor-spl-0.22.0/src/token.rs:288:10: 288:18].0" = type {}
%"[closure@/home/seaceved/.cargo/registry/src/github.com-1ecc6299db9ec823/anchor-spl-0.22.0/src/token.rs:245:10: 245:18]" = type {}
%"[closure@/home/seaceved/.cargo/registry/src/github.com-1ecc6299db9ec823/anchor-spl-0.22.0/src/token.rs:281:10: 281:18]" = type {}
%"[closure@/home/seaceved/.cargo/registry/src/github.com-1ecc6299db9ec823/anchor-spl-0.22.0/src/token.rs:288:10: 288:18].1" = type {}
%"[closure@/home/seaceved/.cargo/registry/src/github.com-1ecc6299db9ec823/anchor-spl-0.22.0/src/token.rs:252:10: 252:18]" = type {}
%"std::result::Result<token::TokenAccount, anchor_lang::error::Error>" = type { i64, [22 x i64] }
%"std::result::Result<token::TokenAccount, anchor_lang::error::Error>::Ok" = type { [1 x i64], %"token::TokenAccount" }
%"std::result::Result<token::TokenAccount, anchor_lang::error::Error>::Err" = type { [1 x i64], %"anchor_lang::error::Error" }
%"[closure@/home/seaceved/.cargo/registry/src/github.com-1ecc6299db9ec823/anchor-spl-0.22.0/src/associated_token.rs:29:10: 29:18]" = type {}
%"[closure@/home/seaceved/.cargo/registry/src/github.com-1ecc6299db9ec823/anchor-spl-0.22.0/src/token.rs:302:10: 302:18]" = type {}
%"[closure@/home/seaceved/.cargo/registry/src/github.com-1ecc6299db9ec823/anchor-spl-0.22.0/src/token.rs:252:10: 252:18].2" = type {}
%"std::result::Result<token::Mint, anchor_lang::error::Error>" = type { i64, [14 x i64] }
%"std::result::Result<token::Mint, anchor_lang::error::Error>::Ok" = type { [1 x i64], %"token::Mint" }
%"std::result::Result<token::Mint, anchor_lang::error::Error>::Err" = type { [1 x i64], %"anchor_lang::error::Error" }
%"[closure@/home/seaceved/.cargo/registry/src/github.com-1ecc6299db9ec823/anchor-spl-0.22.0/src/token.rs:308:10: 308:18]" = type {}
%"[closure@/home/seaceved/.cargo/registry/src/github.com-1ecc6299db9ec823/anchor-spl-0.22.0/src/token.rs:266:10: 266:18]" = type {}
%"[closure@/home/seaceved/.cargo/registry/src/github.com-1ecc6299db9ec823/anchor-spl-0.22.0/src/token.rs:295:10: 295:18]" = type {}
%"[closure@/home/seaceved/.cargo/registry/src/github.com-1ecc6299db9ec823/anchor-spl-0.22.0/src/associated_token.rs:29:10: 29:18].3" = type {}
%"[closure@/home/seaceved/.cargo/registry/src/github.com-1ecc6299db9ec823/anchor-spl-0.22.0/src/token.rs:266:10: 266:18].4" = type {}
%"[closure@/home/seaceved/.cargo/registry/src/github.com-1ecc6299db9ec823/anchor-spl-0.22.0/src/token.rs:295:10: 295:18].5" = type {}
%"[closure@/home/seaceved/.cargo/registry/src/github.com-1ecc6299db9ec823/anchor-spl-0.22.0/src/associated_token.rs:29:10: 29:18].6" = type {}
%"[closure@/home/seaceved/.cargo/registry/src/github.com-1ecc6299db9ec823/anchor-spl-0.22.0/src/token.rs:259:10: 259:18]" = type {}
%"[closure@/home/seaceved/.cargo/registry/src/github.com-1ecc6299db9ec823/anchor-spl-0.22.0/src/associated_token.rs:29:10: 29:18].7" = type {}
%"[closure@/home/seaceved/.cargo/registry/src/github.com-1ecc6299db9ec823/anchor-spl-0.22.0/src/token.rs:259:10: 259:18].8" = type {}
%"[closure@/home/seaceved/.cargo/registry/src/github.com-1ecc6299db9ec823/anchor-spl-0.22.0/src/associated_token.rs:29:10: 29:18].9" = type {}
%"[closure@/home/seaceved/.cargo/registry/src/github.com-1ecc6299db9ec823/anchor-spl-0.22.0/src/associated_token.rs:29:10: 29:18].10" = type {}
%"[closure@/home/seaceved/.cargo/registry/src/github.com-1ecc6299db9ec823/anchor-spl-0.22.0/src/token.rs:273:10: 273:18].11" = type {}
%"[closure@/home/seaceved/.cargo/registry/src/github.com-1ecc6299db9ec823/anchor-spl-0.22.0/src/token.rs:295:10: 295:18].12" = type {}
%"std::result::Result<(), anchor_lang::error::Error>" = type { i64, [13 x i64] }
%"std::result::Result<(), anchor_lang::prelude::ProgramError>" = type { i32, [7 x i32] }
%"std::result::Result<(), anchor_lang::error::Error>::Ok" = type { {} }
%"std::result::Result<(), anchor_lang::prelude::ProgramError>::Err" = type { %"anchor_lang::prelude::ProgramError" }
%"std::result::Result<(), anchor_lang::error::Error>::Err" = type { %"anchor_lang::error::Error" }
%"[closure@/home/seaceved/.cargo/registry/src/github.com-1ecc6299db9ec823/anchor-spl-0.22.0/src/token.rs:281:10: 281:18].13" = type {}
%"[closure@/home/seaceved/.cargo/registry/src/github.com-1ecc6299db9ec823/anchor-spl-0.22.0/src/token.rs:302:10: 302:18].14" = type {}
%"[closure@/home/seaceved/.cargo/registry/src/github.com-1ecc6299db9ec823/anchor-spl-0.22.0/src/token.rs:245:10: 245:18].15" = type {}
%"[closure@/home/seaceved/.cargo/registry/src/github.com-1ecc6299db9ec823/anchor-spl-0.22.0/src/token.rs:308:10: 308:18].16" = type {}
%"[closure@/home/seaceved/.cargo/registry/src/github.com-1ecc6299db9ec823/anchor-spl-0.22.0/src/token.rs:252:10: 252:18].17" = type {}
%"[closure@/home/seaceved/.cargo/registry/src/github.com-1ecc6299db9ec823/anchor-spl-0.22.0/src/token.rs:259:10: 259:18].18" = type {}
%"[closure@/home/seaceved/.cargo/registry/src/github.com-1ecc6299db9ec823/anchor-spl-0.22.0/src/token.rs:281:10: 281:18].19" = type {}
%"[closure@/home/seaceved/.cargo/registry/src/github.com-1ecc6299db9ec823/anchor-spl-0.22.0/src/token.rs:273:10: 273:18].20" = type {}
%"[closure@/home/seaceved/.cargo/registry/src/github.com-1ecc6299db9ec823/anchor-spl-0.22.0/src/token.rs:266:10: 266:18].21" = type {}
%"[closure@/home/seaceved/.cargo/registry/src/github.com-1ecc6299db9ec823/anchor-spl-0.22.0/src/token.rs:273:10: 273:18].22" = type {}
%"[closure@/home/seaceved/.cargo/registry/src/github.com-1ecc6299db9ec823/anchor-spl-0.22.0/src/associated_token.rs:29:10: 29:18].23" = type {}
%"[closure@/home/seaceved/.cargo/registry/src/github.com-1ecc6299db9ec823/anchor-spl-0.22.0/src/token.rs:245:10: 245:18].24" = type {}
%"anchor_lang::context::CpiContext<associated_token::Create>" = type { %"associated_token::Create", %"std::vec::Vec<anchor_lang::prelude::AccountInfo>", %"anchor_lang::prelude::AccountInfo", { [0 x { [0 x { [0 x i8]*, i64 }]*, i64 }]*, i64 } }
%"associated_token::Create" = type { %"anchor_lang::prelude::AccountInfo", %"anchor_lang::prelude::AccountInfo", %"anchor_lang::prelude::AccountInfo", %"anchor_lang::prelude::AccountInfo", %"anchor_lang::prelude::AccountInfo", %"anchor_lang::prelude::AccountInfo", %"anchor_lang::prelude::AccountInfo" }
%"solana_program::instruction::Instruction" = type { %"std::vec::Vec<anchor_lang::prelude::AccountMeta>", %"std::vec::Vec<u8>", %"anchor_lang::prelude::Pubkey" }
%"std::vec::Vec<anchor_lang::prelude::AccountMeta>" = type { { i8*, i64 }, i64 }
%"std::vec::Vec<u8>" = type { { i8*, i64 }, i64 }
%"std::result::Result<solana_program::instruction::Instruction, anchor_lang::prelude::ProgramError>" = type { i64, [10 x i64] }
%"std::ops::ControlFlow<std::result::Result<std::convert::Infallible, anchor_lang::prelude::ProgramError>, solana_program::instruction::Instruction>" = type { i64, [10 x i64] }
%"std::ops::ControlFlow<std::result::Result<std::convert::Infallible, anchor_lang::prelude::ProgramError>, solana_program::instruction::Instruction>::Continue" = type { [1 x i64], %"solana_program::instruction::Instruction" }
%"std::ops::ControlFlow<std::result::Result<std::convert::Infallible, anchor_lang::prelude::ProgramError>, solana_program::instruction::Instruction>::Break" = type { [1 x i64], %"std::result::Result<std::convert::Infallible, anchor_lang::prelude::ProgramError>::Err" }
%"std::result::Result<std::cell::Ref<&mut [u8]>, anchor_lang::prelude::ProgramError>" = type { i64, [4 x i64] }
%"std::ops::ControlFlow<std::result::Result<std::convert::Infallible, anchor_lang::prelude::ProgramError>, std::cell::Ref<&mut [u8]>>" = type { i64, [4 x i64] }
%"std::ops::ControlFlow<std::result::Result<std::convert::Infallible, anchor_lang::prelude::ProgramError>, std::cell::Ref<&mut [u8]>>::Continue" = type { [1 x i64], { i64*, i64* } }
%"std::ops::ControlFlow<std::result::Result<std::convert::Infallible, anchor_lang::prelude::ProgramError>, std::cell::Ref<&mut [u8]>>::Break" = type { [1 x i64], %"std::result::Result<std::convert::Infallible, anchor_lang::prelude::ProgramError>::Err" }
%"std::panic::Location" = type { { [0 x i8]*, i64 }, i32, i32 }
%"std::result::Result<u64, anchor_lang::error::Error>::Ok" = type { [1 x i64], i64 }
%"std::result::Result<anchor_lang::prelude::Pubkey, anchor_lang::error::Error>::Ok" = type { [1 x i8], %"anchor_lang::prelude::Pubkey" }
%"std::collections::BTreeMap<std::string::String, u8>" = type { { i64, i64* }, i64 }
%"std::ops::ControlFlow<std::result::Result<std::convert::Infallible, anchor_lang::error::Error>, anchor_lang::prelude::AccountInfo>" = type { i64, [14 x i64] }
%"std::ops::ControlFlow<std::result::Result<std::convert::Infallible, anchor_lang::error::Error>, anchor_lang::prelude::AccountInfo>::Continue" = type { [1 x i64], %"anchor_lang::prelude::AccountInfo" }
%"std::ops::ControlFlow<std::result::Result<std::convert::Infallible, anchor_lang::error::Error>, anchor_lang::prelude::AccountInfo>::Break" = type { [1 x i64], %"std::result::Result<std::convert::Infallible, anchor_lang::error::Error>::Err" }
%"std::result::Result<associated_token::Create, anchor_lang::error::Error>::Ok" = type { [1 x i64], %"associated_token::Create" }
%"associated_token::__client_accounts_create::Create" = type { %"anchor_lang::prelude::Pubkey", %"anchor_lang::prelude::Pubkey", %"anchor_lang::prelude::Pubkey", %"anchor_lang::prelude::Pubkey", %"anchor_lang::prelude::Pubkey", %"anchor_lang::prelude::Pubkey", %"anchor_lang::prelude::Pubkey" }
%"anchor_lang::prelude::AccountMeta" = type { %"anchor_lang::prelude::Pubkey", i8, i8 }
%"associated_token::__cpi_client_accounts_create::Create" = type { %"anchor_lang::prelude::AccountInfo", %"anchor_lang::prelude::AccountInfo", %"anchor_lang::prelude::AccountInfo", %"anchor_lang::prelude::AccountInfo", %"anchor_lang::prelude::AccountInfo", %"anchor_lang::prelude::AccountInfo", %"anchor_lang::prelude::AccountInfo" }
%"std::result::Result<token::Transfer, anchor_lang::error::Error>::Ok" = type { [1 x i64], %"token::Transfer" }
%"token::__client_accounts_transfer::Transfer" = type { %"anchor_lang::prelude::Pubkey", %"anchor_lang::prelude::Pubkey", %"anchor_lang::prelude::Pubkey" }
%"token::__cpi_client_accounts_transfer::Transfer" = type { %"anchor_lang::prelude::AccountInfo", %"anchor_lang::prelude::AccountInfo", %"anchor_lang::prelude::AccountInfo" }
%"std::result::Result<token::MintTo, anchor_lang::error::Error>::Ok" = type { [1 x i64], %"token::MintTo" }
%"token::__client_accounts_mint_to::MintTo" = type { %"anchor_lang::prelude::Pubkey", %"anchor_lang::prelude::Pubkey", %"anchor_lang::prelude::Pubkey" }
%"token::__cpi_client_accounts_mint_to::MintTo" = type { %"anchor_lang::prelude::AccountInfo", %"anchor_lang::prelude::AccountInfo", %"anchor_lang::prelude::AccountInfo" }
%"std::result::Result<token::Burn, anchor_lang::error::Error>::Ok" = type { [1 x i64], %"token::Burn" }
%"token::__client_accounts_burn::Burn" = type { %"anchor_lang::prelude::Pubkey", %"anchor_lang::prelude::Pubkey", %"anchor_lang::prelude::Pubkey" }
%"token::__cpi_client_accounts_burn::Burn" = type { %"anchor_lang::prelude::AccountInfo", %"anchor_lang::prelude::AccountInfo", %"anchor_lang::prelude::AccountInfo" }
%"std::result::Result<token::Approve, anchor_lang::error::Error>::Ok" = type { [1 x i64], %"token::Approve" }
%"token::__client_accounts_approve::Approve" = type { %"anchor_lang::prelude::Pubkey", %"anchor_lang::prelude::Pubkey", %"anchor_lang::prelude::Pubkey" }
%"token::__cpi_client_accounts_approve::Approve" = type { %"anchor_lang::prelude::AccountInfo", %"anchor_lang::prelude::AccountInfo", %"anchor_lang::prelude::AccountInfo" }
%"std::result::Result<token::InitializeAccount, anchor_lang::error::Error>::Ok" = type { [1 x i64], %"token::InitializeAccount" }
%"token::__client_accounts_initialize_account::InitializeAccount" = type { %"anchor_lang::prelude::Pubkey", %"anchor_lang::prelude::Pubkey", %"anchor_lang::prelude::Pubkey", %"anchor_lang::prelude::Pubkey" }
%"token::__cpi_client_accounts_initialize_account::InitializeAccount" = type { %"anchor_lang::prelude::AccountInfo", %"anchor_lang::prelude::AccountInfo", %"anchor_lang::prelude::AccountInfo", %"anchor_lang::prelude::AccountInfo" }
%"std::result::Result<token::CloseAccount, anchor_lang::error::Error>::Ok" = type { [1 x i64], %"token::CloseAccount" }
%"token::__client_accounts_close_account::CloseAccount" = type { %"anchor_lang::prelude::Pubkey", %"anchor_lang::prelude::Pubkey", %"anchor_lang::prelude::Pubkey" }
%"token::__cpi_client_accounts_close_account::CloseAccount" = type { %"anchor_lang::prelude::AccountInfo", %"anchor_lang::prelude::AccountInfo", %"anchor_lang::prelude::AccountInfo" }
%"std::result::Result<token::FreezeAccount, anchor_lang::error::Error>::Ok" = type { [1 x i64], %"token::FreezeAccount" }
%"token::__client_accounts_freeze_account::FreezeAccount" = type { %"anchor_lang::prelude::Pubkey", %"anchor_lang::prelude::Pubkey", %"anchor_lang::prelude::Pubkey" }
%"token::__cpi_client_accounts_freeze_account::FreezeAccount" = type { %"anchor_lang::prelude::AccountInfo", %"anchor_lang::prelude::AccountInfo", %"anchor_lang::prelude::AccountInfo" }
%"std::result::Result<token::ThawAccount, anchor_lang::error::Error>::Ok" = type { [1 x i64], %"token::ThawAccount" }
%"token::__client_accounts_thaw_account::ThawAccount" = type { %"anchor_lang::prelude::Pubkey", %"anchor_lang::prelude::Pubkey", %"anchor_lang::prelude::Pubkey" }
%"token::__cpi_client_accounts_thaw_account::ThawAccount" = type { %"anchor_lang::prelude::AccountInfo", %"anchor_lang::prelude::AccountInfo", %"anchor_lang::prelude::AccountInfo" }
%"std::result::Result<token::InitializeMint, anchor_lang::error::Error>::Ok" = type { [1 x i64], %"token::InitializeMint" }
%"token::__client_accounts_initialize_mint::InitializeMint" = type { %"anchor_lang::prelude::Pubkey", %"anchor_lang::prelude::Pubkey" }
%"token::__cpi_client_accounts_initialize_mint::InitializeMint" = type { %"anchor_lang::prelude::AccountInfo", %"anchor_lang::prelude::AccountInfo" }
%"std::result::Result<token::SetAuthority, anchor_lang::error::Error>::Ok" = type { [1 x i64], %"token::SetAuthority" }
%"token::__client_accounts_set_authority::SetAuthority" = type { %"anchor_lang::prelude::Pubkey", %"anchor_lang::prelude::Pubkey" }
%"token::__cpi_client_accounts_set_authority::SetAuthority" = type { %"anchor_lang::prelude::AccountInfo", %"anchor_lang::prelude::AccountInfo" }

@_ZN28spl_associated_token_account2ID17h17ec760e971ebda0E = external global %"anchor_lang::prelude::Pubkey"
@_ZN9spl_token2ID17h0204629c641bd722E = external global %"anchor_lang::prelude::Pubkey"
@alloc155 = private unnamed_addr constant <{ [0 x i8] }> zeroinitializer, align 8
@alloc375 = private unnamed_addr constant <{ [93 x i8] }> <{ [93 x i8] c"/home/seaceved/.cargo/registry/src/github.com-1ecc6299db9ec823/anchor-spl-0.22.0/src/token.rs" }>, align 1
@alloc372 = private unnamed_addr constant <{ i8*, [16 x i8] }> <{ i8* getelementptr inbounds (<{ [93 x i8] }>, <{ [93 x i8] }>* @alloc375, i32 0, i32 0, i32 0), [16 x i8] c"]\00\00\00\00\00\00\00\89\01\00\00'\00\00\00" }>, align 8
@alloc374 = private unnamed_addr constant <{ i8*, [16 x i8] }> <{ i8* getelementptr inbounds (<{ [93 x i8] }>, <{ [93 x i8] }>* @alloc375, i32 0, i32 0, i32 0), [16 x i8] c"]\00\00\00\00\00\00\00\90\01\00\00%\00\00\00" }>, align 8
@alloc376 = private unnamed_addr constant <{ i8*, [16 x i8] }> <{ i8* getelementptr inbounds (<{ [93 x i8] }>, <{ [93 x i8] }>* @alloc375, i32 0, i32 0, i32 0), [16 x i8] c"]\00\00\00\00\00\00\00\97\01\00\00&\00\00\00" }>, align 8
@alloc378 = private unnamed_addr constant <{ [5 x i8] }> <{ [5 x i8] c"payer" }>, align 1
@alloc379 = private unnamed_addr constant <{ [16 x i8] }> <{ [16 x i8] c"associated_token" }>, align 1
@alloc409 = private unnamed_addr constant <{ [9 x i8] }> <{ [9 x i8] c"authority" }>, align 1
@alloc410 = private unnamed_addr constant <{ [4 x i8] }> <{ [4 x i8] c"mint" }>, align 1
@alloc382 = private unnamed_addr constant <{ [14 x i8] }> <{ [14 x i8] c"system_program" }>, align 1
@alloc383 = private unnamed_addr constant <{ [13 x i8] }> <{ [13 x i8] c"token_program" }>, align 1
@alloc411 = private unnamed_addr constant <{ [4 x i8] }> <{ [4 x i8] c"rent" }>, align 1
@_ZN10anchor_spl4mint3srm2ID17h322e4877e8958892E = constant <{ [32 x i8] }> <{ [32 x i8] c"\06\83\10\86\1A\982}\05PWM\84A\8A\A6\E1\0C3R\DD\AA\7F\D7\F5\81R\CC\EE\B28\87" }>, align 1, !dbg !0
@_ZN10anchor_spl4mint4usdc2ID17h80cfe134fba4d55dE = constant <{ [32 x i8] }> <{ [32 x i8] c"\C6\FAz\F3\BE\DB\AD:=e\F3j\AB\C9t1\B1\BB\E4\C2\D2\F6\E0\E4|\A6\02\03E/]a" }>, align 1, !dbg !17
@alloc385 = private unnamed_addr constant <{ [4 x i8] }> <{ [4 x i8] c"from" }>, align 1
@alloc394 = private unnamed_addr constant <{ [2 x i8] }> <{ [2 x i8] c"to" }>, align 1
@alloc395 = private unnamed_addr constant <{ [8 x i8] }> <{ [8 x i8] c"delegate" }>, align 1
@alloc407 = private unnamed_addr constant <{ [7 x i8] }> <{ [7 x i8] c"account" }>, align 1
@alloc402 = private unnamed_addr constant <{ [11 x i8] }> <{ [11 x i8] c"destination" }>, align 1
@alloc412 = private unnamed_addr constant <{ [17 x i8] }> <{ [17 x i8] c"current_authority" }>, align 1
@alloc413 = private unnamed_addr constant <{ [15 x i8] }> <{ [15 x i8] c"account_or_mint" }>, align 1

; <core::result::Result<T,F> as core::ops::try_trait::FromResidual<core::result::Result<core::convert::Infallible,E>>>::from_residual
; Function Attrs: inlinehint nounwind
define void @"_ZN153_$LT$core..result..Result$LT$T$C$F$GT$$u20$as$u20$core..ops..try_trait..FromResidual$LT$core..result..Result$LT$core..convert..Infallible$C$E$GT$$GT$$GT$13from_residual17h256c6c4e4a07137bE"(%"std::result::Result<token::InitializeMint, anchor_lang::error::Error>"* noalias nocapture sret(%"std::result::Result<token::InitializeMint, anchor_lang::error::Error>") dereferenceable(120) %0, %"std::result::Result<std::convert::Infallible, anchor_lang::error::Error>::Err"* noalias nocapture dereferenceable(112) %residual) unnamed_addr #0 !dbg !40 {
start:
  %_4 = alloca %"anchor_lang::error::Error", align 8
  %_3 = alloca %"anchor_lang::error::Error", align 8
  %e = alloca %"anchor_lang::error::Error", align 8
  call void @llvm.dbg.declare(metadata %"std::result::Result<std::convert::Infallible, anchor_lang::error::Error>::Err"* %residual, metadata !320, metadata !DIExpression()), !dbg !325
  call void @llvm.dbg.declare(metadata %"anchor_lang::error::Error"* %e, metadata !321, metadata !DIExpression()), !dbg !326
  %1 = bitcast %"std::result::Result<std::convert::Infallible, anchor_lang::error::Error>::Err"* %residual to %"anchor_lang::error::Error"*, !dbg !327
  %2 = bitcast %"anchor_lang::error::Error"* %e to i8*, !dbg !327
  %3 = bitcast %"anchor_lang::error::Error"* %1 to i8*, !dbg !327
  call void @llvm.memcpy.p0i8.p0i8.i64(i8* align 8 %2, i8* align 8 %3, i64 112, i1 false), !dbg !327
  %4 = bitcast %"anchor_lang::error::Error"* %_4 to i8*, !dbg !328
  %5 = bitcast %"anchor_lang::error::Error"* %e to i8*, !dbg !328
  call void @llvm.memcpy.p0i8.p0i8.i64(i8* align 8 %4, i8* align 8 %5, i64 112, i1 false), !dbg !328
; call <T as core::convert::From<T>>::from
  call void @"_ZN50_$LT$T$u20$as$u20$core..convert..From$LT$T$GT$$GT$4from17h9a2677fb2c717861E"(%"anchor_lang::error::Error"* noalias nocapture sret(%"anchor_lang::error::Error") dereferenceable(112) %_3, %"anchor_lang::error::Error"* noalias nocapture dereferenceable(112) %_4), !dbg !329
  br label %bb1, !dbg !329

bb1:                                              ; preds = %start
  %6 = bitcast %"std::result::Result<token::InitializeMint, anchor_lang::error::Error>"* %0 to %"std::result::Result<token::InitializeMint, anchor_lang::error::Error>::Err"*, !dbg !330
  %7 = getelementptr inbounds %"std::result::Result<token::InitializeMint, anchor_lang::error::Error>::Err", %"std::result::Result<token::InitializeMint, anchor_lang::error::Error>::Err"* %6, i32 0, i32 1, !dbg !330
  %8 = bitcast %"anchor_lang::error::Error"* %7 to i8*, !dbg !330
  %9 = bitcast %"anchor_lang::error::Error"* %_3 to i8*, !dbg !330
  call void @llvm.memcpy.p0i8.p0i8.i64(i8* align 8 %8, i8* align 8 %9, i64 112, i1 false), !dbg !330
  %10 = bitcast %"std::result::Result<token::InitializeMint, anchor_lang::error::Error>"* %0 to i64*, !dbg !330
  store i64 1, i64* %10, align 8, !dbg !330
  ret void, !dbg !331
}

; <core::result::Result<T,F> as core::ops::try_trait::FromResidual<core::result::Result<core::convert::Infallible,E>>>::from_residual
; Function Attrs: inlinehint nounwind
define void @"_ZN153_$LT$core..result..Result$LT$T$C$F$GT$$u20$as$u20$core..ops..try_trait..FromResidual$LT$core..result..Result$LT$core..convert..Infallible$C$E$GT$$GT$$GT$13from_residual17h404314469b87fdc0E"(%"std::result::Result<token::ThawAccount, anchor_lang::error::Error>"* noalias nocapture sret(%"std::result::Result<token::ThawAccount, anchor_lang::error::Error>") dereferenceable(152) %0, %"std::result::Result<std::convert::Infallible, anchor_lang::error::Error>::Err"* noalias nocapture dereferenceable(112) %residual) unnamed_addr #0 !dbg !332 {
start:
  %_4 = alloca %"anchor_lang::error::Error", align 8
  %_3 = alloca %"anchor_lang::error::Error", align 8
  %e = alloca %"anchor_lang::error::Error", align 8
  call void @llvm.dbg.declare(metadata %"std::result::Result<std::convert::Infallible, anchor_lang::error::Error>::Err"* %residual, metadata !355, metadata !DIExpression()), !dbg !359
  call void @llvm.dbg.declare(metadata %"anchor_lang::error::Error"* %e, metadata !356, metadata !DIExpression()), !dbg !360
  %1 = bitcast %"std::result::Result<std::convert::Infallible, anchor_lang::error::Error>::Err"* %residual to %"anchor_lang::error::Error"*, !dbg !361
  %2 = bitcast %"anchor_lang::error::Error"* %e to i8*, !dbg !361
  %3 = bitcast %"anchor_lang::error::Error"* %1 to i8*, !dbg !361
  call void @llvm.memcpy.p0i8.p0i8.i64(i8* align 8 %2, i8* align 8 %3, i64 112, i1 false), !dbg !361
  %4 = bitcast %"anchor_lang::error::Error"* %_4 to i8*, !dbg !362
  %5 = bitcast %"anchor_lang::error::Error"* %e to i8*, !dbg !362
  call void @llvm.memcpy.p0i8.p0i8.i64(i8* align 8 %4, i8* align 8 %5, i64 112, i1 false), !dbg !362
; call <T as core::convert::From<T>>::from
  call void @"_ZN50_$LT$T$u20$as$u20$core..convert..From$LT$T$GT$$GT$4from17h9a2677fb2c717861E"(%"anchor_lang::error::Error"* noalias nocapture sret(%"anchor_lang::error::Error") dereferenceable(112) %_3, %"anchor_lang::error::Error"* noalias nocapture dereferenceable(112) %_4), !dbg !363
  br label %bb1, !dbg !363

bb1:                                              ; preds = %start
  %6 = bitcast %"std::result::Result<token::ThawAccount, anchor_lang::error::Error>"* %0 to %"std::result::Result<token::ThawAccount, anchor_lang::error::Error>::Err"*, !dbg !364
  %7 = getelementptr inbounds %"std::result::Result<token::ThawAccount, anchor_lang::error::Error>::Err", %"std::result::Result<token::ThawAccount, anchor_lang::error::Error>::Err"* %6, i32 0, i32 1, !dbg !364
  %8 = bitcast %"anchor_lang::error::Error"* %7 to i8*, !dbg !364
  %9 = bitcast %"anchor_lang::error::Error"* %_3 to i8*, !dbg !364
  call void @llvm.memcpy.p0i8.p0i8.i64(i8* align 8 %8, i8* align 8 %9, i64 112, i1 false), !dbg !364
  %10 = bitcast %"std::result::Result<token::ThawAccount, anchor_lang::error::Error>"* %0 to i64*, !dbg !364
  store i64 1, i64* %10, align 8, !dbg !364
  ret void, !dbg !365
}

; <core::result::Result<T,F> as core::ops::try_trait::FromResidual<core::result::Result<core::convert::Infallible,E>>>::from_residual
; Function Attrs: inlinehint nounwind
define void @"_ZN153_$LT$core..result..Result$LT$T$C$F$GT$$u20$as$u20$core..ops..try_trait..FromResidual$LT$core..result..Result$LT$core..convert..Infallible$C$E$GT$$GT$$GT$13from_residual17h594c13fc32211908E"(%"std::result::Result<token::InitializeAccount, anchor_lang::error::Error>"* noalias nocapture sret(%"std::result::Result<token::InitializeAccount, anchor_lang::error::Error>") dereferenceable(200) %0, %"std::result::Result<std::convert::Infallible, anchor_lang::error::Error>::Err"* noalias nocapture dereferenceable(112) %residual) unnamed_addr #0 !dbg !366 {
start:
  %_4 = alloca %"anchor_lang::error::Error", align 8
  %_3 = alloca %"anchor_lang::error::Error", align 8
  %e = alloca %"anchor_lang::error::Error", align 8
  call void @llvm.dbg.declare(metadata %"std::result::Result<std::convert::Infallible, anchor_lang::error::Error>::Err"* %residual, metadata !390, metadata !DIExpression()), !dbg !394
  call void @llvm.dbg.declare(metadata %"anchor_lang::error::Error"* %e, metadata !391, metadata !DIExpression()), !dbg !395
  %1 = bitcast %"std::result::Result<std::convert::Infallible, anchor_lang::error::Error>::Err"* %residual to %"anchor_lang::error::Error"*, !dbg !396
  %2 = bitcast %"anchor_lang::error::Error"* %e to i8*, !dbg !396
  %3 = bitcast %"anchor_lang::error::Error"* %1 to i8*, !dbg !396
  call void @llvm.memcpy.p0i8.p0i8.i64(i8* align 8 %2, i8* align 8 %3, i64 112, i1 false), !dbg !396
  %4 = bitcast %"anchor_lang::error::Error"* %_4 to i8*, !dbg !397
  %5 = bitcast %"anchor_lang::error::Error"* %e to i8*, !dbg !397
  call void @llvm.memcpy.p0i8.p0i8.i64(i8* align 8 %4, i8* align 8 %5, i64 112, i1 false), !dbg !397
; call <T as core::convert::From<T>>::from
  call void @"_ZN50_$LT$T$u20$as$u20$core..convert..From$LT$T$GT$$GT$4from17h9a2677fb2c717861E"(%"anchor_lang::error::Error"* noalias nocapture sret(%"anchor_lang::error::Error") dereferenceable(112) %_3, %"anchor_lang::error::Error"* noalias nocapture dereferenceable(112) %_4), !dbg !398
  br label %bb1, !dbg !398

bb1:                                              ; preds = %start
  %6 = bitcast %"std::result::Result<token::InitializeAccount, anchor_lang::error::Error>"* %0 to %"std::result::Result<token::InitializeAccount, anchor_lang::error::Error>::Err"*, !dbg !399
  %7 = getelementptr inbounds %"std::result::Result<token::InitializeAccount, anchor_lang::error::Error>::Err", %"std::result::Result<token::InitializeAccount, anchor_lang::error::Error>::Err"* %6, i32 0, i32 1, !dbg !399
  %8 = bitcast %"anchor_lang::error::Error"* %7 to i8*, !dbg !399
  %9 = bitcast %"anchor_lang::error::Error"* %_3 to i8*, !dbg !399
  call void @llvm.memcpy.p0i8.p0i8.i64(i8* align 8 %8, i8* align 8 %9, i64 112, i1 false), !dbg !399
  %10 = bitcast %"std::result::Result<token::InitializeAccount, anchor_lang::error::Error>"* %0 to i64*, !dbg !399
  store i64 1, i64* %10, align 8, !dbg !399
  ret void, !dbg !400
}

; <core::result::Result<T,F> as core::ops::try_trait::FromResidual<core::result::Result<core::convert::Infallible,E>>>::from_residual
; Function Attrs: inlinehint nounwind
define void @"_ZN153_$LT$core..result..Result$LT$T$C$F$GT$$u20$as$u20$core..ops..try_trait..FromResidual$LT$core..result..Result$LT$core..convert..Infallible$C$E$GT$$GT$$GT$13from_residual17h5c19f241e895117dE"(%"std::result::Result<token::CloseAccount, anchor_lang::error::Error>"* noalias nocapture sret(%"std::result::Result<token::CloseAccount, anchor_lang::error::Error>") dereferenceable(152) %0, %"std::result::Result<std::convert::Infallible, anchor_lang::error::Error>::Err"* noalias nocapture dereferenceable(112) %residual) unnamed_addr #0 !dbg !401 {
start:
  %_4 = alloca %"anchor_lang::error::Error", align 8
  %_3 = alloca %"anchor_lang::error::Error", align 8
  %e = alloca %"anchor_lang::error::Error", align 8
  call void @llvm.dbg.declare(metadata %"std::result::Result<std::convert::Infallible, anchor_lang::error::Error>::Err"* %residual, metadata !424, metadata !DIExpression()), !dbg !428
  call void @llvm.dbg.declare(metadata %"anchor_lang::error::Error"* %e, metadata !425, metadata !DIExpression()), !dbg !429
  %1 = bitcast %"std::result::Result<std::convert::Infallible, anchor_lang::error::Error>::Err"* %residual to %"anchor_lang::error::Error"*, !dbg !430
  %2 = bitcast %"anchor_lang::error::Error"* %e to i8*, !dbg !430
  %3 = bitcast %"anchor_lang::error::Error"* %1 to i8*, !dbg !430
  call void @llvm.memcpy.p0i8.p0i8.i64(i8* align 8 %2, i8* align 8 %3, i64 112, i1 false), !dbg !430
  %4 = bitcast %"anchor_lang::error::Error"* %_4 to i8*, !dbg !431
  %5 = bitcast %"anchor_lang::error::Error"* %e to i8*, !dbg !431
  call void @llvm.memcpy.p0i8.p0i8.i64(i8* align 8 %4, i8* align 8 %5, i64 112, i1 false), !dbg !431
; call <T as core::convert::From<T>>::from
  call void @"_ZN50_$LT$T$u20$as$u20$core..convert..From$LT$T$GT$$GT$4from17h9a2677fb2c717861E"(%"anchor_lang::error::Error"* noalias nocapture sret(%"anchor_lang::error::Error") dereferenceable(112) %_3, %"anchor_lang::error::Error"* noalias nocapture dereferenceable(112) %_4), !dbg !432
  br label %bb1, !dbg !432

bb1:                                              ; preds = %start
  %6 = bitcast %"std::result::Result<token::CloseAccount, anchor_lang::error::Error>"* %0 to %"std::result::Result<token::CloseAccount, anchor_lang::error::Error>::Err"*, !dbg !433
  %7 = getelementptr inbounds %"std::result::Result<token::CloseAccount, anchor_lang::error::Error>::Err", %"std::result::Result<token::CloseAccount, anchor_lang::error::Error>::Err"* %6, i32 0, i32 1, !dbg !433
  %8 = bitcast %"anchor_lang::error::Error"* %7 to i8*, !dbg !433
  %9 = bitcast %"anchor_lang::error::Error"* %_3 to i8*, !dbg !433
  call void @llvm.memcpy.p0i8.p0i8.i64(i8* align 8 %8, i8* align 8 %9, i64 112, i1 false), !dbg !433
  %10 = bitcast %"std::result::Result<token::CloseAccount, anchor_lang::error::Error>"* %0 to i64*, !dbg !433
  store i64 1, i64* %10, align 8, !dbg !433
  ret void, !dbg !434
}

; <core::result::Result<T,F> as core::ops::try_trait::FromResidual<core::result::Result<core::convert::Infallible,E>>>::from_residual
; Function Attrs: inlinehint nounwind
define void @"_ZN153_$LT$core..result..Result$LT$T$C$F$GT$$u20$as$u20$core..ops..try_trait..FromResidual$LT$core..result..Result$LT$core..convert..Infallible$C$E$GT$$GT$$GT$13from_residual17h61accb0cd94a32fcE"(%"std::result::Result<token::Burn, anchor_lang::error::Error>"* noalias nocapture sret(%"std::result::Result<token::Burn, anchor_lang::error::Error>") dereferenceable(152) %0, %"std::result::Result<std::convert::Infallible, anchor_lang::error::Error>::Err"* noalias nocapture dereferenceable(112) %residual) unnamed_addr #0 !dbg !435 {
start:
  %_4 = alloca %"anchor_lang::error::Error", align 8
  %_3 = alloca %"anchor_lang::error::Error", align 8
  %e = alloca %"anchor_lang::error::Error", align 8
  call void @llvm.dbg.declare(metadata %"std::result::Result<std::convert::Infallible, anchor_lang::error::Error>::Err"* %residual, metadata !458, metadata !DIExpression()), !dbg !462
  call void @llvm.dbg.declare(metadata %"anchor_lang::error::Error"* %e, metadata !459, metadata !DIExpression()), !dbg !463
  %1 = bitcast %"std::result::Result<std::convert::Infallible, anchor_lang::error::Error>::Err"* %residual to %"anchor_lang::error::Error"*, !dbg !464
  %2 = bitcast %"anchor_lang::error::Error"* %e to i8*, !dbg !464
  %3 = bitcast %"anchor_lang::error::Error"* %1 to i8*, !dbg !464
  call void @llvm.memcpy.p0i8.p0i8.i64(i8* align 8 %2, i8* align 8 %3, i64 112, i1 false), !dbg !464
  %4 = bitcast %"anchor_lang::error::Error"* %_4 to i8*, !dbg !465
  %5 = bitcast %"anchor_lang::error::Error"* %e to i8*, !dbg !465
  call void @llvm.memcpy.p0i8.p0i8.i64(i8* align 8 %4, i8* align 8 %5, i64 112, i1 false), !dbg !465
; call <T as core::convert::From<T>>::from
  call void @"_ZN50_$LT$T$u20$as$u20$core..convert..From$LT$T$GT$$GT$4from17h9a2677fb2c717861E"(%"anchor_lang::error::Error"* noalias nocapture sret(%"anchor_lang::error::Error") dereferenceable(112) %_3, %"anchor_lang::error::Error"* noalias nocapture dereferenceable(112) %_4), !dbg !466
  br label %bb1, !dbg !466

bb1:                                              ; preds = %start
  %6 = bitcast %"std::result::Result<token::Burn, anchor_lang::error::Error>"* %0 to %"std::result::Result<token::Burn, anchor_lang::error::Error>::Err"*, !dbg !467
  %7 = getelementptr inbounds %"std::result::Result<token::Burn, anchor_lang::error::Error>::Err", %"std::result::Result<token::Burn, anchor_lang::error::Error>::Err"* %6, i32 0, i32 1, !dbg !467
  %8 = bitcast %"anchor_lang::error::Error"* %7 to i8*, !dbg !467
  %9 = bitcast %"anchor_lang::error::Error"* %_3 to i8*, !dbg !467
  call void @llvm.memcpy.p0i8.p0i8.i64(i8* align 8 %8, i8* align 8 %9, i64 112, i1 false), !dbg !467
  %10 = bitcast %"std::result::Result<token::Burn, anchor_lang::error::Error>"* %0 to i64*, !dbg !467
  store i64 1, i64* %10, align 8, !dbg !467
  ret void, !dbg !468
}

; <core::result::Result<T,F> as core::ops::try_trait::FromResidual<core::result::Result<core::convert::Infallible,E>>>::from_residual
; Function Attrs: inlinehint nounwind
define void @"_ZN153_$LT$core..result..Result$LT$T$C$F$GT$$u20$as$u20$core..ops..try_trait..FromResidual$LT$core..result..Result$LT$core..convert..Infallible$C$E$GT$$GT$$GT$13from_residual17h6f84fac8587710a3E"(%"std::result::Result<token::Transfer, anchor_lang::error::Error>"* noalias nocapture sret(%"std::result::Result<token::Transfer, anchor_lang::error::Error>") dereferenceable(152) %0, %"std::result::Result<std::convert::Infallible, anchor_lang::error::Error>::Err"* noalias nocapture dereferenceable(112) %residual) unnamed_addr #0 !dbg !469 {
start:
  %_4 = alloca %"anchor_lang::error::Error", align 8
  %_3 = alloca %"anchor_lang::error::Error", align 8
  %e = alloca %"anchor_lang::error::Error", align 8
  call void @llvm.dbg.declare(metadata %"std::result::Result<std::convert::Infallible, anchor_lang::error::Error>::Err"* %residual, metadata !492, metadata !DIExpression()), !dbg !496
  call void @llvm.dbg.declare(metadata %"anchor_lang::error::Error"* %e, metadata !493, metadata !DIExpression()), !dbg !497
  %1 = bitcast %"std::result::Result<std::convert::Infallible, anchor_lang::error::Error>::Err"* %residual to %"anchor_lang::error::Error"*, !dbg !498
  %2 = bitcast %"anchor_lang::error::Error"* %e to i8*, !dbg !498
  %3 = bitcast %"anchor_lang::error::Error"* %1 to i8*, !dbg !498
  call void @llvm.memcpy.p0i8.p0i8.i64(i8* align 8 %2, i8* align 8 %3, i64 112, i1 false), !dbg !498
  %4 = bitcast %"anchor_lang::error::Error"* %_4 to i8*, !dbg !499
  %5 = bitcast %"anchor_lang::error::Error"* %e to i8*, !dbg !499
  call void @llvm.memcpy.p0i8.p0i8.i64(i8* align 8 %4, i8* align 8 %5, i64 112, i1 false), !dbg !499
; call <T as core::convert::From<T>>::from
  call void @"_ZN50_$LT$T$u20$as$u20$core..convert..From$LT$T$GT$$GT$4from17h9a2677fb2c717861E"(%"anchor_lang::error::Error"* noalias nocapture sret(%"anchor_lang::error::Error") dereferenceable(112) %_3, %"anchor_lang::error::Error"* noalias nocapture dereferenceable(112) %_4), !dbg !500
  br label %bb1, !dbg !500

bb1:                                              ; preds = %start
  %6 = bitcast %"std::result::Result<token::Transfer, anchor_lang::error::Error>"* %0 to %"std::result::Result<token::Transfer, anchor_lang::error::Error>::Err"*, !dbg !501
  %7 = getelementptr inbounds %"std::result::Result<token::Transfer, anchor_lang::error::Error>::Err", %"std::result::Result<token::Transfer, anchor_lang::error::Error>::Err"* %6, i32 0, i32 1, !dbg !501
  %8 = bitcast %"anchor_lang::error::Error"* %7 to i8*, !dbg !501
  %9 = bitcast %"anchor_lang::error::Error"* %_3 to i8*, !dbg !501
  call void @llvm.memcpy.p0i8.p0i8.i64(i8* align 8 %8, i8* align 8 %9, i64 112, i1 false), !dbg !501
  %10 = bitcast %"std::result::Result<token::Transfer, anchor_lang::error::Error>"* %0 to i64*, !dbg !501
  store i64 1, i64* %10, align 8, !dbg !501
  ret void, !dbg !502
}

; <core::result::Result<T,F> as core::ops::try_trait::FromResidual<core::result::Result<core::convert::Infallible,E>>>::from_residual
; Function Attrs: inlinehint nounwind
define void @"_ZN153_$LT$core..result..Result$LT$T$C$F$GT$$u20$as$u20$core..ops..try_trait..FromResidual$LT$core..result..Result$LT$core..convert..Infallible$C$E$GT$$GT$$GT$13from_residual17h9fb7a0a7870ba266E"(%"std::result::Result<token::FreezeAccount, anchor_lang::error::Error>"* noalias nocapture sret(%"std::result::Result<token::FreezeAccount, anchor_lang::error::Error>") dereferenceable(152) %0, %"std::result::Result<std::convert::Infallible, anchor_lang::error::Error>::Err"* noalias nocapture dereferenceable(112) %residual) unnamed_addr #0 !dbg !503 {
start:
  %_4 = alloca %"anchor_lang::error::Error", align 8
  %_3 = alloca %"anchor_lang::error::Error", align 8
  %e = alloca %"anchor_lang::error::Error", align 8
  call void @llvm.dbg.declare(metadata %"std::result::Result<std::convert::Infallible, anchor_lang::error::Error>::Err"* %residual, metadata !526, metadata !DIExpression()), !dbg !530
  call void @llvm.dbg.declare(metadata %"anchor_lang::error::Error"* %e, metadata !527, metadata !DIExpression()), !dbg !531
  %1 = bitcast %"std::result::Result<std::convert::Infallible, anchor_lang::error::Error>::Err"* %residual to %"anchor_lang::error::Error"*, !dbg !532
  %2 = bitcast %"anchor_lang::error::Error"* %e to i8*, !dbg !532
  %3 = bitcast %"anchor_lang::error::Error"* %1 to i8*, !dbg !532
  call void @llvm.memcpy.p0i8.p0i8.i64(i8* align 8 %2, i8* align 8 %3, i64 112, i1 false), !dbg !532
  %4 = bitcast %"anchor_lang::error::Error"* %_4 to i8*, !dbg !533
  %5 = bitcast %"anchor_lang::error::Error"* %e to i8*, !dbg !533
  call void @llvm.memcpy.p0i8.p0i8.i64(i8* align 8 %4, i8* align 8 %5, i64 112, i1 false), !dbg !533
; call <T as core::convert::From<T>>::from
  call void @"_ZN50_$LT$T$u20$as$u20$core..convert..From$LT$T$GT$$GT$4from17h9a2677fb2c717861E"(%"anchor_lang::error::Error"* noalias nocapture sret(%"anchor_lang::error::Error") dereferenceable(112) %_3, %"anchor_lang::error::Error"* noalias nocapture dereferenceable(112) %_4), !dbg !534
  br label %bb1, !dbg !534

bb1:                                              ; preds = %start
  %6 = bitcast %"std::result::Result<token::FreezeAccount, anchor_lang::error::Error>"* %0 to %"std::result::Result<token::FreezeAccount, anchor_lang::error::Error>::Err"*, !dbg !535
  %7 = getelementptr inbounds %"std::result::Result<token::FreezeAccount, anchor_lang::error::Error>::Err", %"std::result::Result<token::FreezeAccount, anchor_lang::error::Error>::Err"* %6, i32 0, i32 1, !dbg !535
  %8 = bitcast %"anchor_lang::error::Error"* %7 to i8*, !dbg !535
  %9 = bitcast %"anchor_lang::error::Error"* %_3 to i8*, !dbg !535
  call void @llvm.memcpy.p0i8.p0i8.i64(i8* align 8 %8, i8* align 8 %9, i64 112, i1 false), !dbg !535
  %10 = bitcast %"std::result::Result<token::FreezeAccount, anchor_lang::error::Error>"* %0 to i64*, !dbg !535
  store i64 1, i64* %10, align 8, !dbg !535
  ret void, !dbg !536
}

; <core::result::Result<T,F> as core::ops::try_trait::FromResidual<core::result::Result<core::convert::Infallible,E>>>::from_residual
; Function Attrs: inlinehint nounwind
define void @"_ZN153_$LT$core..result..Result$LT$T$C$F$GT$$u20$as$u20$core..ops..try_trait..FromResidual$LT$core..result..Result$LT$core..convert..Infallible$C$E$GT$$GT$$GT$13from_residual17ha16b7673fbc06921E"(%"std::result::Result<associated_token::Create, anchor_lang::error::Error>"* noalias nocapture sret(%"std::result::Result<associated_token::Create, anchor_lang::error::Error>") dereferenceable(344) %0, %"std::result::Result<std::convert::Infallible, anchor_lang::error::Error>::Err"* noalias nocapture dereferenceable(112) %residual) unnamed_addr #0 !dbg !537 {
start:
  %_4 = alloca %"anchor_lang::error::Error", align 8
  %_3 = alloca %"anchor_lang::error::Error", align 8
  %e = alloca %"anchor_lang::error::Error", align 8
  call void @llvm.dbg.declare(metadata %"std::result::Result<std::convert::Infallible, anchor_lang::error::Error>::Err"* %residual, metadata !565, metadata !DIExpression()), !dbg !569
  call void @llvm.dbg.declare(metadata %"anchor_lang::error::Error"* %e, metadata !566, metadata !DIExpression()), !dbg !570
  %1 = bitcast %"std::result::Result<std::convert::Infallible, anchor_lang::error::Error>::Err"* %residual to %"anchor_lang::error::Error"*, !dbg !571
  %2 = bitcast %"anchor_lang::error::Error"* %e to i8*, !dbg !571
  %3 = bitcast %"anchor_lang::error::Error"* %1 to i8*, !dbg !571
  call void @llvm.memcpy.p0i8.p0i8.i64(i8* align 8 %2, i8* align 8 %3, i64 112, i1 false), !dbg !571
  %4 = bitcast %"anchor_lang::error::Error"* %_4 to i8*, !dbg !572
  %5 = bitcast %"anchor_lang::error::Error"* %e to i8*, !dbg !572
  call void @llvm.memcpy.p0i8.p0i8.i64(i8* align 8 %4, i8* align 8 %5, i64 112, i1 false), !dbg !572
; call <T as core::convert::From<T>>::from
  call void @"_ZN50_$LT$T$u20$as$u20$core..convert..From$LT$T$GT$$GT$4from17h9a2677fb2c717861E"(%"anchor_lang::error::Error"* noalias nocapture sret(%"anchor_lang::error::Error") dereferenceable(112) %_3, %"anchor_lang::error::Error"* noalias nocapture dereferenceable(112) %_4), !dbg !573
  br label %bb1, !dbg !573

bb1:                                              ; preds = %start
  %6 = bitcast %"std::result::Result<associated_token::Create, anchor_lang::error::Error>"* %0 to %"std::result::Result<associated_token::Create, anchor_lang::error::Error>::Err"*, !dbg !574
  %7 = getelementptr inbounds %"std::result::Result<associated_token::Create, anchor_lang::error::Error>::Err", %"std::result::Result<associated_token::Create, anchor_lang::error::Error>::Err"* %6, i32 0, i32 1, !dbg !574
  %8 = bitcast %"anchor_lang::error::Error"* %7 to i8*, !dbg !574
  %9 = bitcast %"anchor_lang::error::Error"* %_3 to i8*, !dbg !574
  call void @llvm.memcpy.p0i8.p0i8.i64(i8* align 8 %8, i8* align 8 %9, i64 112, i1 false), !dbg !574
  %10 = bitcast %"std::result::Result<associated_token::Create, anchor_lang::error::Error>"* %0 to i64*, !dbg !574
  store i64 1, i64* %10, align 8, !dbg !574
  ret void, !dbg !575
}

; <core::result::Result<T,F> as core::ops::try_trait::FromResidual<core::result::Result<core::convert::Infallible,E>>>::from_residual
; Function Attrs: inlinehint nounwind
define void @"_ZN153_$LT$core..result..Result$LT$T$C$F$GT$$u20$as$u20$core..ops..try_trait..FromResidual$LT$core..result..Result$LT$core..convert..Infallible$C$E$GT$$GT$$GT$13from_residual17ha3c27982fe08e894E"(%"std::result::Result<token::SetAuthority, anchor_lang::error::Error>"* noalias nocapture sret(%"std::result::Result<token::SetAuthority, anchor_lang::error::Error>") dereferenceable(120) %0, %"std::result::Result<std::convert::Infallible, anchor_lang::error::Error>::Err"* noalias nocapture dereferenceable(112) %residual) unnamed_addr #0 !dbg !576 {
start:
  %_4 = alloca %"anchor_lang::error::Error", align 8
  %_3 = alloca %"anchor_lang::error::Error", align 8
  %e = alloca %"anchor_lang::error::Error", align 8
  call void @llvm.dbg.declare(metadata %"std::result::Result<std::convert::Infallible, anchor_lang::error::Error>::Err"* %residual, metadata !598, metadata !DIExpression()), !dbg !602
  call void @llvm.dbg.declare(metadata %"anchor_lang::error::Error"* %e, metadata !599, metadata !DIExpression()), !dbg !603
  %1 = bitcast %"std::result::Result<std::convert::Infallible, anchor_lang::error::Error>::Err"* %residual to %"anchor_lang::error::Error"*, !dbg !604
  %2 = bitcast %"anchor_lang::error::Error"* %e to i8*, !dbg !604
  %3 = bitcast %"anchor_lang::error::Error"* %1 to i8*, !dbg !604
  call void @llvm.memcpy.p0i8.p0i8.i64(i8* align 8 %2, i8* align 8 %3, i64 112, i1 false), !dbg !604
  %4 = bitcast %"anchor_lang::error::Error"* %_4 to i8*, !dbg !605
  %5 = bitcast %"anchor_lang::error::Error"* %e to i8*, !dbg !605
  call void @llvm.memcpy.p0i8.p0i8.i64(i8* align 8 %4, i8* align 8 %5, i64 112, i1 false), !dbg !605
; call <T as core::convert::From<T>>::from
  call void @"_ZN50_$LT$T$u20$as$u20$core..convert..From$LT$T$GT$$GT$4from17h9a2677fb2c717861E"(%"anchor_lang::error::Error"* noalias nocapture sret(%"anchor_lang::error::Error") dereferenceable(112) %_3, %"anchor_lang::error::Error"* noalias nocapture dereferenceable(112) %_4), !dbg !606
  br label %bb1, !dbg !606

bb1:                                              ; preds = %start
  %6 = bitcast %"std::result::Result<token::SetAuthority, anchor_lang::error::Error>"* %0 to %"std::result::Result<token::SetAuthority, anchor_lang::error::Error>::Err"*, !dbg !607
  %7 = getelementptr inbounds %"std::result::Result<token::SetAuthority, anchor_lang::error::Error>::Err", %"std::result::Result<token::SetAuthority, anchor_lang::error::Error>::Err"* %6, i32 0, i32 1, !dbg !607
  %8 = bitcast %"anchor_lang::error::Error"* %7 to i8*, !dbg !607
  %9 = bitcast %"anchor_lang::error::Error"* %_3 to i8*, !dbg !607
  call void @llvm.memcpy.p0i8.p0i8.i64(i8* align 8 %8, i8* align 8 %9, i64 112, i1 false), !dbg !607
  %10 = bitcast %"std::result::Result<token::SetAuthority, anchor_lang::error::Error>"* %0 to i64*, !dbg !607
  store i64 1, i64* %10, align 8, !dbg !607
  ret void, !dbg !608
}

; <core::result::Result<T,F> as core::ops::try_trait::FromResidual<core::result::Result<core::convert::Infallible,E>>>::from_residual
; Function Attrs: inlinehint nounwind
define void @"_ZN153_$LT$core..result..Result$LT$T$C$F$GT$$u20$as$u20$core..ops..try_trait..FromResidual$LT$core..result..Result$LT$core..convert..Infallible$C$E$GT$$GT$$GT$13from_residual17hb71b4156051a00bcE"(%"std::result::Result<anchor_lang::prelude::Pubkey, anchor_lang::error::Error>"* noalias nocapture sret(%"std::result::Result<anchor_lang::prelude::Pubkey, anchor_lang::error::Error>") dereferenceable(120) %0, %"std::result::Result<std::convert::Infallible, anchor_lang::prelude::ProgramError>::Err"* noalias nocapture dereferenceable(32) %residual) unnamed_addr #0 !dbg !609 {
start:
  %_4 = alloca %"anchor_lang::prelude::ProgramError", align 8
  %_3 = alloca %"anchor_lang::error::Error", align 8
  %e = alloca %"anchor_lang::prelude::ProgramError", align 8
  call void @llvm.dbg.declare(metadata %"std::result::Result<std::convert::Infallible, anchor_lang::prelude::ProgramError>::Err"* %residual, metadata !638, metadata !DIExpression()), !dbg !642
  call void @llvm.dbg.declare(metadata %"anchor_lang::prelude::ProgramError"* %e, metadata !639, metadata !DIExpression()), !dbg !643
  %1 = bitcast %"std::result::Result<std::convert::Infallible, anchor_lang::prelude::ProgramError>::Err"* %residual to %"anchor_lang::prelude::ProgramError"*, !dbg !644
  %2 = bitcast %"anchor_lang::prelude::ProgramError"* %e to i8*, !dbg !644
  %3 = bitcast %"anchor_lang::prelude::ProgramError"* %1 to i8*, !dbg !644
  call void @llvm.memcpy.p0i8.p0i8.i64(i8* align 8 %2, i8* align 8 %3, i64 32, i1 false), !dbg !644
  %4 = bitcast %"anchor_lang::prelude::ProgramError"* %_4 to i8*, !dbg !645
  %5 = bitcast %"anchor_lang::prelude::ProgramError"* %e to i8*, !dbg !645
  call void @llvm.memcpy.p0i8.p0i8.i64(i8* align 8 %4, i8* align 8 %5, i64 32, i1 false), !dbg !645
; call <anchor_lang::error::Error as core::convert::From<solana_program::program_error::ProgramError>>::from
  call void @"_ZN116_$LT$anchor_lang..error..Error$u20$as$u20$core..convert..From$LT$solana_program..program_error..ProgramError$GT$$GT$4from17h7f48df912f6b0361E"(%"anchor_lang::error::Error"* noalias nocapture sret(%"anchor_lang::error::Error") dereferenceable(112) %_3, %"anchor_lang::prelude::ProgramError"* noalias nocapture dereferenceable(32) %_4), !dbg !646
  br label %bb1, !dbg !646

bb1:                                              ; preds = %start
  %6 = bitcast %"std::result::Result<anchor_lang::prelude::Pubkey, anchor_lang::error::Error>"* %0 to %"std::result::Result<anchor_lang::prelude::Pubkey, anchor_lang::error::Error>::Err"*, !dbg !647
  %7 = getelementptr inbounds %"std::result::Result<anchor_lang::prelude::Pubkey, anchor_lang::error::Error>::Err", %"std::result::Result<anchor_lang::prelude::Pubkey, anchor_lang::error::Error>::Err"* %6, i32 0, i32 1, !dbg !647
  %8 = bitcast %"anchor_lang::error::Error"* %7 to i8*, !dbg !647
  %9 = bitcast %"anchor_lang::error::Error"* %_3 to i8*, !dbg !647
  call void @llvm.memcpy.p0i8.p0i8.i64(i8* align 8 %8, i8* align 8 %9, i64 112, i1 false), !dbg !647
  %10 = bitcast %"std::result::Result<anchor_lang::prelude::Pubkey, anchor_lang::error::Error>"* %0 to i8*, !dbg !647
  store i8 1, i8* %10, align 8, !dbg !647
  ret void, !dbg !648
}

; <core::result::Result<T,F> as core::ops::try_trait::FromResidual<core::result::Result<core::convert::Infallible,E>>>::from_residual
; Function Attrs: inlinehint nounwind
define void @"_ZN153_$LT$core..result..Result$LT$T$C$F$GT$$u20$as$u20$core..ops..try_trait..FromResidual$LT$core..result..Result$LT$core..convert..Infallible$C$E$GT$$GT$$GT$13from_residual17hda45a330c1856932E"(%"std::result::Result<token::Approve, anchor_lang::error::Error>"* noalias nocapture sret(%"std::result::Result<token::Approve, anchor_lang::error::Error>") dereferenceable(152) %0, %"std::result::Result<std::convert::Infallible, anchor_lang::error::Error>::Err"* noalias nocapture dereferenceable(112) %residual) unnamed_addr #0 !dbg !649 {
start:
  %_4 = alloca %"anchor_lang::error::Error", align 8
  %_3 = alloca %"anchor_lang::error::Error", align 8
  %e = alloca %"anchor_lang::error::Error", align 8
  call void @llvm.dbg.declare(metadata %"std::result::Result<std::convert::Infallible, anchor_lang::error::Error>::Err"* %residual, metadata !672, metadata !DIExpression()), !dbg !676
  call void @llvm.dbg.declare(metadata %"anchor_lang::error::Error"* %e, metadata !673, metadata !DIExpression()), !dbg !677
  %1 = bitcast %"std::result::Result<std::convert::Infallible, anchor_lang::error::Error>::Err"* %residual to %"anchor_lang::error::Error"*, !dbg !678
  %2 = bitcast %"anchor_lang::error::Error"* %e to i8*, !dbg !678
  %3 = bitcast %"anchor_lang::error::Error"* %1 to i8*, !dbg !678
  call void @llvm.memcpy.p0i8.p0i8.i64(i8* align 8 %2, i8* align 8 %3, i64 112, i1 false), !dbg !678
  %4 = bitcast %"anchor_lang::error::Error"* %_4 to i8*, !dbg !679
  %5 = bitcast %"anchor_lang::error::Error"* %e to i8*, !dbg !679
  call void @llvm.memcpy.p0i8.p0i8.i64(i8* align 8 %4, i8* align 8 %5, i64 112, i1 false), !dbg !679
; call <T as core::convert::From<T>>::from
  call void @"_ZN50_$LT$T$u20$as$u20$core..convert..From$LT$T$GT$$GT$4from17h9a2677fb2c717861E"(%"anchor_lang::error::Error"* noalias nocapture sret(%"anchor_lang::error::Error") dereferenceable(112) %_3, %"anchor_lang::error::Error"* noalias nocapture dereferenceable(112) %_4), !dbg !680
  br label %bb1, !dbg !680

bb1:                                              ; preds = %start
  %6 = bitcast %"std::result::Result<token::Approve, anchor_lang::error::Error>"* %0 to %"std::result::Result<token::Approve, anchor_lang::error::Error>::Err"*, !dbg !681
  %7 = getelementptr inbounds %"std::result::Result<token::Approve, anchor_lang::error::Error>::Err", %"std::result::Result<token::Approve, anchor_lang::error::Error>::Err"* %6, i32 0, i32 1, !dbg !681
  %8 = bitcast %"anchor_lang::error::Error"* %7 to i8*, !dbg !681
  %9 = bitcast %"anchor_lang::error::Error"* %_3 to i8*, !dbg !681
  call void @llvm.memcpy.p0i8.p0i8.i64(i8* align 8 %8, i8* align 8 %9, i64 112, i1 false), !dbg !681
  %10 = bitcast %"std::result::Result<token::Approve, anchor_lang::error::Error>"* %0 to i64*, !dbg !681
  store i64 1, i64* %10, align 8, !dbg !681
  ret void, !dbg !682
}

; <core::result::Result<T,F> as core::ops::try_trait::FromResidual<core::result::Result<core::convert::Infallible,E>>>::from_residual
; Function Attrs: inlinehint nounwind
define void @"_ZN153_$LT$core..result..Result$LT$T$C$F$GT$$u20$as$u20$core..ops..try_trait..FromResidual$LT$core..result..Result$LT$core..convert..Infallible$C$E$GT$$GT$$GT$13from_residual17he793323dc67f2408E"(%"std::result::Result<u64, anchor_lang::error::Error>"* noalias nocapture sret(%"std::result::Result<u64, anchor_lang::error::Error>") dereferenceable(120) %0, %"std::result::Result<std::convert::Infallible, anchor_lang::prelude::ProgramError>::Err"* noalias nocapture dereferenceable(32) %residual) unnamed_addr #0 !dbg !683 {
start:
  %_4 = alloca %"anchor_lang::prelude::ProgramError", align 8
  %_3 = alloca %"anchor_lang::error::Error", align 8
  %e = alloca %"anchor_lang::prelude::ProgramError", align 8
  call void @llvm.dbg.declare(metadata %"std::result::Result<std::convert::Infallible, anchor_lang::prelude::ProgramError>::Err"* %residual, metadata !701, metadata !DIExpression()), !dbg !705
  call void @llvm.dbg.declare(metadata %"anchor_lang::prelude::ProgramError"* %e, metadata !702, metadata !DIExpression()), !dbg !706
  %1 = bitcast %"std::result::Result<std::convert::Infallible, anchor_lang::prelude::ProgramError>::Err"* %residual to %"anchor_lang::prelude::ProgramError"*, !dbg !707
  %2 = bitcast %"anchor_lang::prelude::ProgramError"* %e to i8*, !dbg !707
  %3 = bitcast %"anchor_lang::prelude::ProgramError"* %1 to i8*, !dbg !707
  call void @llvm.memcpy.p0i8.p0i8.i64(i8* align 8 %2, i8* align 8 %3, i64 32, i1 false), !dbg !707
  %4 = bitcast %"anchor_lang::prelude::ProgramError"* %_4 to i8*, !dbg !708
  %5 = bitcast %"anchor_lang::prelude::ProgramError"* %e to i8*, !dbg !708
  call void @llvm.memcpy.p0i8.p0i8.i64(i8* align 8 %4, i8* align 8 %5, i64 32, i1 false), !dbg !708
; call <anchor_lang::error::Error as core::convert::From<solana_program::program_error::ProgramError>>::from
  call void @"_ZN116_$LT$anchor_lang..error..Error$u20$as$u20$core..convert..From$LT$solana_program..program_error..ProgramError$GT$$GT$4from17h7f48df912f6b0361E"(%"anchor_lang::error::Error"* noalias nocapture sret(%"anchor_lang::error::Error") dereferenceable(112) %_3, %"anchor_lang::prelude::ProgramError"* noalias nocapture dereferenceable(32) %_4), !dbg !709
  br label %bb1, !dbg !709

bb1:                                              ; preds = %start
  %6 = bitcast %"std::result::Result<u64, anchor_lang::error::Error>"* %0 to %"std::result::Result<u64, anchor_lang::error::Error>::Err"*, !dbg !710
  %7 = getelementptr inbounds %"std::result::Result<u64, anchor_lang::error::Error>::Err", %"std::result::Result<u64, anchor_lang::error::Error>::Err"* %6, i32 0, i32 1, !dbg !710
  %8 = bitcast %"anchor_lang::error::Error"* %7 to i8*, !dbg !710
  %9 = bitcast %"anchor_lang::error::Error"* %_3 to i8*, !dbg !710
  call void @llvm.memcpy.p0i8.p0i8.i64(i8* align 8 %8, i8* align 8 %9, i64 112, i1 false), !dbg !710
  %10 = bitcast %"std::result::Result<u64, anchor_lang::error::Error>"* %0 to i64*, !dbg !710
  store i64 1, i64* %10, align 8, !dbg !710
  ret void, !dbg !711
}

; <core::result::Result<T,F> as core::ops::try_trait::FromResidual<core::result::Result<core::convert::Infallible,E>>>::from_residual
; Function Attrs: inlinehint nounwind
define void @"_ZN153_$LT$core..result..Result$LT$T$C$F$GT$$u20$as$u20$core..ops..try_trait..FromResidual$LT$core..result..Result$LT$core..convert..Infallible$C$E$GT$$GT$$GT$13from_residual17he7a3443cd75b5b24E"(%"std::result::Result<token::MintTo, anchor_lang::error::Error>"* noalias nocapture sret(%"std::result::Result<token::MintTo, anchor_lang::error::Error>") dereferenceable(152) %0, %"std::result::Result<std::convert::Infallible, anchor_lang::error::Error>::Err"* noalias nocapture dereferenceable(112) %residual) unnamed_addr #0 !dbg !712 {
start:
  %_4 = alloca %"anchor_lang::error::Error", align 8
  %_3 = alloca %"anchor_lang::error::Error", align 8
  %e = alloca %"anchor_lang::error::Error", align 8
  call void @llvm.dbg.declare(metadata %"std::result::Result<std::convert::Infallible, anchor_lang::error::Error>::Err"* %residual, metadata !735, metadata !DIExpression()), !dbg !739
  call void @llvm.dbg.declare(metadata %"anchor_lang::error::Error"* %e, metadata !736, metadata !DIExpression()), !dbg !740
  %1 = bitcast %"std::result::Result<std::convert::Infallible, anchor_lang::error::Error>::Err"* %residual to %"anchor_lang::error::Error"*, !dbg !741
  %2 = bitcast %"anchor_lang::error::Error"* %e to i8*, !dbg !741
  %3 = bitcast %"anchor_lang::error::Error"* %1 to i8*, !dbg !741
  call void @llvm.memcpy.p0i8.p0i8.i64(i8* align 8 %2, i8* align 8 %3, i64 112, i1 false), !dbg !741
  %4 = bitcast %"anchor_lang::error::Error"* %_4 to i8*, !dbg !742
  %5 = bitcast %"anchor_lang::error::Error"* %e to i8*, !dbg !742
  call void @llvm.memcpy.p0i8.p0i8.i64(i8* align 8 %4, i8* align 8 %5, i64 112, i1 false), !dbg !742
; call <T as core::convert::From<T>>::from
  call void @"_ZN50_$LT$T$u20$as$u20$core..convert..From$LT$T$GT$$GT$4from17h9a2677fb2c717861E"(%"anchor_lang::error::Error"* noalias nocapture sret(%"anchor_lang::error::Error") dereferenceable(112) %_3, %"anchor_lang::error::Error"* noalias nocapture dereferenceable(112) %_4), !dbg !743
  br label %bb1, !dbg !743

bb1:                                              ; preds = %start
  %6 = bitcast %"std::result::Result<token::MintTo, anchor_lang::error::Error>"* %0 to %"std::result::Result<token::MintTo, anchor_lang::error::Error>::Err"*, !dbg !744
  %7 = getelementptr inbounds %"std::result::Result<token::MintTo, anchor_lang::error::Error>::Err", %"std::result::Result<token::MintTo, anchor_lang::error::Error>::Err"* %6, i32 0, i32 1, !dbg !744
  %8 = bitcast %"anchor_lang::error::Error"* %7 to i8*, !dbg !744
  %9 = bitcast %"anchor_lang::error::Error"* %_3 to i8*, !dbg !744
  call void @llvm.memcpy.p0i8.p0i8.i64(i8* align 8 %8, i8* align 8 %9, i64 112, i1 false), !dbg !744
  %10 = bitcast %"std::result::Result<token::MintTo, anchor_lang::error::Error>"* %0 to i64*, !dbg !744
  store i64 1, i64* %10, align 8, !dbg !744
  ret void, !dbg !745
}

; core::num::<impl u64>::from_le_bytes
; Function Attrs: inlinehint nounwind
define internal i64 @"_ZN4core3num21_$LT$impl$u20$u64$GT$13from_le_bytes17h559083492c1896a4E"(i64 %0) unnamed_addr #0 !dbg !746 {
start:
  %x.dbg.spill.i = alloca i64, align 8
  %_3 = alloca [8 x i8], align 1
  %1 = alloca i64, align 8
  %bytes = alloca [8 x i8], align 1
  store i64 %0, i64* %1, align 8
  %2 = bitcast [8 x i8]* %bytes to i8*
  %3 = bitcast i64* %1 to i8*
  call void @llvm.memcpy.p0i8.p0i8.i64(i8* align 1 %2, i8* align 8 %3, i64 8, i1 false)
  call void @llvm.dbg.declare(metadata [8 x i8]* %bytes, metadata !756, metadata !DIExpression()), !dbg !757
  %4 = bitcast [8 x i8]* %_3 to i8*, !dbg !758
  %5 = bitcast [8 x i8]* %bytes to i8*, !dbg !758
  call void @llvm.memcpy.p0i8.p0i8.i64(i8* align 1 %4, i8* align 1 %5, i64 8, i1 false), !dbg !758
  %6 = bitcast [8 x i8]* %_3 to i64*, !dbg !759
  %7 = load i64, i64* %6, align 1, !dbg !759
; call core::num::<impl u64>::from_ne_bytes
  %_2 = call i64 @"_ZN4core3num21_$LT$impl$u20$u64$GT$13from_ne_bytes17hef4f32df3c5ca574E"(i64 %7), !dbg !759
  br label %bb1, !dbg !759

bb1:                                              ; preds = %start
  store i64 %_2, i64* %x.dbg.spill.i, align 8
  call void @llvm.dbg.declare(metadata i64* %x.dbg.spill.i, metadata !760, metadata !DIExpression()), !dbg !765
  br label %bb2, !dbg !767

bb2:                                              ; preds = %bb1
  ret i64 %_2, !dbg !768
}

; core::num::<impl u64>::from_ne_bytes
; Function Attrs: inlinehint nounwind
define internal i64 @"_ZN4core3num21_$LT$impl$u20$u64$GT$13from_ne_bytes17hef4f32df3c5ca574E"(i64 %0) unnamed_addr #0 !dbg !769 {
start:
  %1 = alloca i64, align 8
  %_2 = alloca [8 x i8], align 1
  %2 = alloca i64, align 8
  %bytes = alloca [8 x i8], align 1
  store i64 %0, i64* %2, align 8
  %3 = bitcast [8 x i8]* %bytes to i8*
  %4 = bitcast i64* %2 to i8*
  call void @llvm.memcpy.p0i8.p0i8.i64(i8* align 1 %3, i8* align 8 %4, i64 8, i1 false)
  call void @llvm.dbg.declare(metadata [8 x i8]* %bytes, metadata !771, metadata !DIExpression()), !dbg !772
  %5 = bitcast [8 x i8]* %_2 to i8*, !dbg !773
  %6 = bitcast [8 x i8]* %bytes to i8*, !dbg !773
  call void @llvm.memcpy.p0i8.p0i8.i64(i8* align 1 %5, i8* align 1 %6, i64 8, i1 false), !dbg !773
  %7 = bitcast i64* %1 to [8 x i8]*, !dbg !774
  %8 = bitcast [8 x i8]* %7 to i8*, !dbg !774
  %9 = bitcast [8 x i8]* %_2 to i8*, !dbg !774
  call void @llvm.memcpy.p0i8.p0i8.i64(i8* align 1 %8, i8* align 1 %9, i64 8, i1 false), !dbg !774
  %10 = load i64, i64* %1, align 8, !dbg !774
  br label %bb1, !dbg !774

bb1:                                              ; preds = %start
  ret i64 %10, !dbg !775
}

; core::ops::function::FnOnce::call_once
; Function Attrs: inlinehint nounwind
define internal void @_ZN4core3ops8function6FnOnce9call_once17h15a7b3c9a61fc059E(%"token::TokenAccount"* noalias nocapture sret(%"token::TokenAccount") dereferenceable(176) %0, %"spl_token::state::Account"* noalias nocapture dereferenceable(176) %1) unnamed_addr #0 !dbg !776 {
start:
  %_1.dbg.spill = alloca {}, align 1
  %_2 = alloca { %"spl_token::state::Account" }, align 8
  %2 = bitcast { %"spl_token::state::Account" }* %_2 to %"spl_token::state::Account"*
  %3 = bitcast %"spl_token::state::Account"* %2 to i8*
  %4 = bitcast %"spl_token::state::Account"* %1 to i8*
  call void @llvm.memcpy.p0i8.p0i8.i64(i8* align 8 %3, i8* align 8 %4, i64 176, i1 false)
  call void @llvm.dbg.declare(metadata {}* %_1.dbg.spill, metadata !824, metadata !DIExpression()), !dbg !832
  call void @llvm.dbg.declare(metadata { %"spl_token::state::Account" }* %_2, metadata !825, metadata !DIExpression()), !dbg !832
  %5 = bitcast { %"spl_token::state::Account" }* %_2 to %"spl_token::state::Account"*, !dbg !832
; call anchor_spl::token::TokenAccount
  call void @_ZN10anchor_spl5token12TokenAccount17hd2298369f7b22621E(%"token::TokenAccount"* noalias nocapture sret(%"token::TokenAccount") dereferenceable(176) %0, %"spl_token::state::Account"* noalias nocapture dereferenceable(176) %5), !dbg !832
  br label %bb1, !dbg !832

bb1:                                              ; preds = %start
  ret void, !dbg !832
}

; core::ops::function::FnOnce::call_once
; Function Attrs: inlinehint nounwind
define internal void @_ZN4core3ops8function6FnOnce9call_once17h431c2d96cdd326f2E(%"anchor_lang::error::Error"* noalias nocapture sret(%"anchor_lang::error::Error") dereferenceable(112) %0, %"anchor_lang::prelude::ProgramError"* noalias nocapture dereferenceable(32) %1) unnamed_addr #0 !dbg !833 {
start:
  %_1.dbg.spill = alloca {}, align 1
  %_2 = alloca { %"anchor_lang::prelude::ProgramError" }, align 8
  %2 = bitcast { %"anchor_lang::prelude::ProgramError" }* %_2 to %"anchor_lang::prelude::ProgramError"*
  %3 = bitcast %"anchor_lang::prelude::ProgramError"* %2 to i8*
  %4 = bitcast %"anchor_lang::prelude::ProgramError"* %1 to i8*
  call void @llvm.memcpy.p0i8.p0i8.i64(i8* align 8 %3, i8* align 8 %4, i64 32, i1 false)
  call void @llvm.dbg.declare(metadata {}* %_1.dbg.spill, metadata !840, metadata !DIExpression()), !dbg !848
  call void @llvm.dbg.declare(metadata { %"anchor_lang::prelude::ProgramError" }* %_2, metadata !841, metadata !DIExpression()), !dbg !848
  %5 = bitcast { %"anchor_lang::prelude::ProgramError" }* %_2 to %"anchor_lang::prelude::ProgramError"*, !dbg !848
; call <T as core::convert::Into<U>>::into
  call void @"_ZN50_$LT$T$u20$as$u20$core..convert..Into$LT$U$GT$$GT$4into17h3d1c7ebb2915e41fE"(%"anchor_lang::error::Error"* noalias nocapture sret(%"anchor_lang::error::Error") dereferenceable(112) %0, %"anchor_lang::prelude::ProgramError"* noalias nocapture dereferenceable(32) %5), !dbg !848
  br label %bb1, !dbg !848

bb1:                                              ; preds = %start
  ret void, !dbg !848
}

; core::ops::function::FnOnce::call_once
; Function Attrs: inlinehint nounwind
define internal void @_ZN4core3ops8function6FnOnce9call_once17h480cdf64702e7129E(%"token::Mint"* noalias nocapture sret(%"token::Mint") dereferenceable(88) %0, %"spl_token::state::Mint"* noalias nocapture dereferenceable(88) %1) unnamed_addr #0 !dbg !849 {
start:
  %_1.dbg.spill = alloca {}, align 1
  %_2 = alloca { %"spl_token::state::Mint" }, align 8
  %2 = bitcast { %"spl_token::state::Mint" }* %_2 to %"spl_token::state::Mint"*
  %3 = bitcast %"spl_token::state::Mint"* %2 to i8*
  %4 = bitcast %"spl_token::state::Mint"* %1 to i8*
  call void @llvm.memcpy.p0i8.p0i8.i64(i8* align 8 %3, i8* align 8 %4, i64 88, i1 false)
  call void @llvm.dbg.declare(metadata {}* %_1.dbg.spill, metadata !866, metadata !DIExpression()), !dbg !874
  call void @llvm.dbg.declare(metadata { %"spl_token::state::Mint" }* %_2, metadata !867, metadata !DIExpression()), !dbg !874
  %5 = bitcast { %"spl_token::state::Mint" }* %_2 to %"spl_token::state::Mint"*, !dbg !874
; call anchor_spl::token::Mint
  call void @_ZN10anchor_spl5token4Mint17hf520a2873f5b164bE(%"token::Mint"* noalias nocapture sret(%"token::Mint") dereferenceable(88) %0, %"spl_token::state::Mint"* noalias nocapture dereferenceable(88) %5), !dbg !874
  br label %bb1, !dbg !874

bb1:                                              ; preds = %start
  ret void, !dbg !874
}

; core::ptr::drop_in_place<anchor_spl::token::Burn>
; Function Attrs: nounwind
define void @"_ZN4core3ptr44drop_in_place$LT$anchor_spl..token..Burn$GT$17he7dbe8793372a032E"(%"token::Burn"* %_1) unnamed_addr #1 !dbg !875 {
start:
  %_1.dbg.spill = alloca %"token::Burn"*, align 8
  store %"token::Burn"* %_1, %"token::Burn"** %_1.dbg.spill, align 8
  call void @llvm.dbg.declare(metadata %"token::Burn"** %_1.dbg.spill, metadata !881, metadata !DIExpression()), !dbg !883
  %0 = bitcast %"token::Burn"* %_1 to %"anchor_lang::prelude::AccountInfo"*, !dbg !883
; call core::ptr::drop_in_place<solana_program::account_info::AccountInfo>
  call void @"_ZN4core3ptr62drop_in_place$LT$solana_program..account_info..AccountInfo$GT$17h10233615d59e7eedE"(%"anchor_lang::prelude::AccountInfo"* %0), !dbg !883
  br label %bb3, !dbg !883

bb3:                                              ; preds = %start
  %1 = getelementptr inbounds %"token::Burn", %"token::Burn"* %_1, i32 0, i32 1, !dbg !883
; call core::ptr::drop_in_place<solana_program::account_info::AccountInfo>
  call void @"_ZN4core3ptr62drop_in_place$LT$solana_program..account_info..AccountInfo$GT$17h10233615d59e7eedE"(%"anchor_lang::prelude::AccountInfo"* %1), !dbg !883
  br label %bb2, !dbg !883

bb2:                                              ; preds = %bb3
  %2 = getelementptr inbounds %"token::Burn", %"token::Burn"* %_1, i32 0, i32 2, !dbg !883
; call core::ptr::drop_in_place<solana_program::account_info::AccountInfo>
  call void @"_ZN4core3ptr62drop_in_place$LT$solana_program..account_info..AccountInfo$GT$17h10233615d59e7eedE"(%"anchor_lang::prelude::AccountInfo"* %2), !dbg !883
  br label %bb1, !dbg !883

bb1:                                              ; preds = %bb2
  ret void, !dbg !883
}

; core::ptr::drop_in_place<anchor_spl::token::MintTo>
; Function Attrs: nounwind
define void @"_ZN4core3ptr46drop_in_place$LT$anchor_spl..token..MintTo$GT$17h3abd7b07f7098473E"(%"token::MintTo"* %_1) unnamed_addr #1 !dbg !884 {
start:
  %_1.dbg.spill = alloca %"token::MintTo"*, align 8
  store %"token::MintTo"* %_1, %"token::MintTo"** %_1.dbg.spill, align 8
  call void @llvm.dbg.declare(metadata %"token::MintTo"** %_1.dbg.spill, metadata !889, metadata !DIExpression()), !dbg !891
  %0 = bitcast %"token::MintTo"* %_1 to %"anchor_lang::prelude::AccountInfo"*, !dbg !891
; call core::ptr::drop_in_place<solana_program::account_info::AccountInfo>
  call void @"_ZN4core3ptr62drop_in_place$LT$solana_program..account_info..AccountInfo$GT$17h10233615d59e7eedE"(%"anchor_lang::prelude::AccountInfo"* %0), !dbg !891
  br label %bb3, !dbg !891

bb3:                                              ; preds = %start
  %1 = getelementptr inbounds %"token::MintTo", %"token::MintTo"* %_1, i32 0, i32 1, !dbg !891
; call core::ptr::drop_in_place<solana_program::account_info::AccountInfo>
  call void @"_ZN4core3ptr62drop_in_place$LT$solana_program..account_info..AccountInfo$GT$17h10233615d59e7eedE"(%"anchor_lang::prelude::AccountInfo"* %1), !dbg !891
  br label %bb2, !dbg !891

bb2:                                              ; preds = %bb3
  %2 = getelementptr inbounds %"token::MintTo", %"token::MintTo"* %_1, i32 0, i32 2, !dbg !891
; call core::ptr::drop_in_place<solana_program::account_info::AccountInfo>
  call void @"_ZN4core3ptr62drop_in_place$LT$solana_program..account_info..AccountInfo$GT$17h10233615d59e7eedE"(%"anchor_lang::prelude::AccountInfo"* %2), !dbg !891
  br label %bb1, !dbg !891

bb1:                                              ; preds = %bb2
  ret void, !dbg !891
}

; core::ptr::drop_in_place<anchor_spl::token::Approve>
; Function Attrs: nounwind
define void @"_ZN4core3ptr47drop_in_place$LT$anchor_spl..token..Approve$GT$17hdc864dfa60c6813cE"(%"token::Approve"* %_1) unnamed_addr #1 !dbg !892 {
start:
  %_1.dbg.spill = alloca %"token::Approve"*, align 8
  store %"token::Approve"* %_1, %"token::Approve"** %_1.dbg.spill, align 8
  call void @llvm.dbg.declare(metadata %"token::Approve"** %_1.dbg.spill, metadata !897, metadata !DIExpression()), !dbg !899
  %0 = bitcast %"token::Approve"* %_1 to %"anchor_lang::prelude::AccountInfo"*, !dbg !899
; call core::ptr::drop_in_place<solana_program::account_info::AccountInfo>
  call void @"_ZN4core3ptr62drop_in_place$LT$solana_program..account_info..AccountInfo$GT$17h10233615d59e7eedE"(%"anchor_lang::prelude::AccountInfo"* %0), !dbg !899
  br label %bb3, !dbg !899

bb3:                                              ; preds = %start
  %1 = getelementptr inbounds %"token::Approve", %"token::Approve"* %_1, i32 0, i32 1, !dbg !899
; call core::ptr::drop_in_place<solana_program::account_info::AccountInfo>
  call void @"_ZN4core3ptr62drop_in_place$LT$solana_program..account_info..AccountInfo$GT$17h10233615d59e7eedE"(%"anchor_lang::prelude::AccountInfo"* %1), !dbg !899
  br label %bb2, !dbg !899

bb2:                                              ; preds = %bb3
  %2 = getelementptr inbounds %"token::Approve", %"token::Approve"* %_1, i32 0, i32 2, !dbg !899
; call core::ptr::drop_in_place<solana_program::account_info::AccountInfo>
  call void @"_ZN4core3ptr62drop_in_place$LT$solana_program..account_info..AccountInfo$GT$17h10233615d59e7eedE"(%"anchor_lang::prelude::AccountInfo"* %2), !dbg !899
  br label %bb1, !dbg !899

bb1:                                              ; preds = %bb2
  ret void, !dbg !899
}

; core::ptr::drop_in_place<anchor_spl::token::Transfer>
; Function Attrs: nounwind
define void @"_ZN4core3ptr48drop_in_place$LT$anchor_spl..token..Transfer$GT$17h37fe83328cfb6becE"(%"token::Transfer"* %_1) unnamed_addr #1 !dbg !900 {
start:
  %_1.dbg.spill = alloca %"token::Transfer"*, align 8
  store %"token::Transfer"* %_1, %"token::Transfer"** %_1.dbg.spill, align 8
  call void @llvm.dbg.declare(metadata %"token::Transfer"** %_1.dbg.spill, metadata !905, metadata !DIExpression()), !dbg !907
  %0 = bitcast %"token::Transfer"* %_1 to %"anchor_lang::prelude::AccountInfo"*, !dbg !907
; call core::ptr::drop_in_place<solana_program::account_info::AccountInfo>
  call void @"_ZN4core3ptr62drop_in_place$LT$solana_program..account_info..AccountInfo$GT$17h10233615d59e7eedE"(%"anchor_lang::prelude::AccountInfo"* %0), !dbg !907
  br label %bb3, !dbg !907

bb3:                                              ; preds = %start
  %1 = getelementptr inbounds %"token::Transfer", %"token::Transfer"* %_1, i32 0, i32 1, !dbg !907
; call core::ptr::drop_in_place<solana_program::account_info::AccountInfo>
  call void @"_ZN4core3ptr62drop_in_place$LT$solana_program..account_info..AccountInfo$GT$17h10233615d59e7eedE"(%"anchor_lang::prelude::AccountInfo"* %1), !dbg !907
  br label %bb2, !dbg !907

bb2:                                              ; preds = %bb3
  %2 = getelementptr inbounds %"token::Transfer", %"token::Transfer"* %_1, i32 0, i32 2, !dbg !907
; call core::ptr::drop_in_place<solana_program::account_info::AccountInfo>
  call void @"_ZN4core3ptr62drop_in_place$LT$solana_program..account_info..AccountInfo$GT$17h10233615d59e7eedE"(%"anchor_lang::prelude::AccountInfo"* %2), !dbg !907
  br label %bb1, !dbg !907

bb1:                                              ; preds = %bb2
  ret void, !dbg !907
}

; core::ptr::drop_in_place<anchor_spl::token::ThawAccount>
; Function Attrs: nounwind
define void @"_ZN4core3ptr51drop_in_place$LT$anchor_spl..token..ThawAccount$GT$17ha20537808751e995E"(%"token::ThawAccount"* %_1) unnamed_addr #1 !dbg !908 {
start:
  %_1.dbg.spill = alloca %"token::ThawAccount"*, align 8
  store %"token::ThawAccount"* %_1, %"token::ThawAccount"** %_1.dbg.spill, align 8
  call void @llvm.dbg.declare(metadata %"token::ThawAccount"** %_1.dbg.spill, metadata !913, metadata !DIExpression()), !dbg !915
  %0 = bitcast %"token::ThawAccount"* %_1 to %"anchor_lang::prelude::AccountInfo"*, !dbg !915
; call core::ptr::drop_in_place<solana_program::account_info::AccountInfo>
  call void @"_ZN4core3ptr62drop_in_place$LT$solana_program..account_info..AccountInfo$GT$17h10233615d59e7eedE"(%"anchor_lang::prelude::AccountInfo"* %0), !dbg !915
  br label %bb3, !dbg !915

bb3:                                              ; preds = %start
  %1 = getelementptr inbounds %"token::ThawAccount", %"token::ThawAccount"* %_1, i32 0, i32 1, !dbg !915
; call core::ptr::drop_in_place<solana_program::account_info::AccountInfo>
  call void @"_ZN4core3ptr62drop_in_place$LT$solana_program..account_info..AccountInfo$GT$17h10233615d59e7eedE"(%"anchor_lang::prelude::AccountInfo"* %1), !dbg !915
  br label %bb2, !dbg !915

bb2:                                              ; preds = %bb3
  %2 = getelementptr inbounds %"token::ThawAccount", %"token::ThawAccount"* %_1, i32 0, i32 2, !dbg !915
; call core::ptr::drop_in_place<solana_program::account_info::AccountInfo>
  call void @"_ZN4core3ptr62drop_in_place$LT$solana_program..account_info..AccountInfo$GT$17h10233615d59e7eedE"(%"anchor_lang::prelude::AccountInfo"* %2), !dbg !915
  br label %bb1, !dbg !915

bb1:                                              ; preds = %bb2
  ret void, !dbg !915
}

; core::ptr::drop_in_place<anchor_spl::token::CloseAccount>
; Function Attrs: nounwind
define void @"_ZN4core3ptr52drop_in_place$LT$anchor_spl..token..CloseAccount$GT$17h4064e411d798ab2dE"(%"token::CloseAccount"* %_1) unnamed_addr #1 !dbg !916 {
start:
  %_1.dbg.spill = alloca %"token::CloseAccount"*, align 8
  store %"token::CloseAccount"* %_1, %"token::CloseAccount"** %_1.dbg.spill, align 8
  call void @llvm.dbg.declare(metadata %"token::CloseAccount"** %_1.dbg.spill, metadata !921, metadata !DIExpression()), !dbg !923
  %0 = bitcast %"token::CloseAccount"* %_1 to %"anchor_lang::prelude::AccountInfo"*, !dbg !923
; call core::ptr::drop_in_place<solana_program::account_info::AccountInfo>
  call void @"_ZN4core3ptr62drop_in_place$LT$solana_program..account_info..AccountInfo$GT$17h10233615d59e7eedE"(%"anchor_lang::prelude::AccountInfo"* %0), !dbg !923
  br label %bb3, !dbg !923

bb3:                                              ; preds = %start
  %1 = getelementptr inbounds %"token::CloseAccount", %"token::CloseAccount"* %_1, i32 0, i32 1, !dbg !923
; call core::ptr::drop_in_place<solana_program::account_info::AccountInfo>
  call void @"_ZN4core3ptr62drop_in_place$LT$solana_program..account_info..AccountInfo$GT$17h10233615d59e7eedE"(%"anchor_lang::prelude::AccountInfo"* %1), !dbg !923
  br label %bb2, !dbg !923

bb2:                                              ; preds = %bb3
  %2 = getelementptr inbounds %"token::CloseAccount", %"token::CloseAccount"* %_1, i32 0, i32 2, !dbg !923
; call core::ptr::drop_in_place<solana_program::account_info::AccountInfo>
  call void @"_ZN4core3ptr62drop_in_place$LT$solana_program..account_info..AccountInfo$GT$17h10233615d59e7eedE"(%"anchor_lang::prelude::AccountInfo"* %2), !dbg !923
  br label %bb1, !dbg !923

bb1:                                              ; preds = %bb2
  ret void, !dbg !923
}

; core::ptr::drop_in_place<anchor_spl::token::SetAuthority>
; Function Attrs: nounwind
define void @"_ZN4core3ptr52drop_in_place$LT$anchor_spl..token..SetAuthority$GT$17h4c6f836b38e9f604E"(%"token::SetAuthority"* %_1) unnamed_addr #1 !dbg !924 {
start:
  %_1.dbg.spill = alloca %"token::SetAuthority"*, align 8
  store %"token::SetAuthority"* %_1, %"token::SetAuthority"** %_1.dbg.spill, align 8
  call void @llvm.dbg.declare(metadata %"token::SetAuthority"** %_1.dbg.spill, metadata !929, metadata !DIExpression()), !dbg !931
  %0 = bitcast %"token::SetAuthority"* %_1 to %"anchor_lang::prelude::AccountInfo"*, !dbg !931
; call core::ptr::drop_in_place<solana_program::account_info::AccountInfo>
  call void @"_ZN4core3ptr62drop_in_place$LT$solana_program..account_info..AccountInfo$GT$17h10233615d59e7eedE"(%"anchor_lang::prelude::AccountInfo"* %0), !dbg !931
  br label %bb2, !dbg !931

bb2:                                              ; preds = %start
  %1 = getelementptr inbounds %"token::SetAuthority", %"token::SetAuthority"* %_1, i32 0, i32 1, !dbg !931
; call core::ptr::drop_in_place<solana_program::account_info::AccountInfo>
  call void @"_ZN4core3ptr62drop_in_place$LT$solana_program..account_info..AccountInfo$GT$17h10233615d59e7eedE"(%"anchor_lang::prelude::AccountInfo"* %1), !dbg !931
  br label %bb1, !dbg !931

bb1:                                              ; preds = %bb2
  ret void, !dbg !931
}

; core::ptr::drop_in_place<anchor_spl::token::FreezeAccount>
; Function Attrs: nounwind
define void @"_ZN4core3ptr53drop_in_place$LT$anchor_spl..token..FreezeAccount$GT$17h3513f41bc8848e4eE"(%"token::FreezeAccount"* %_1) unnamed_addr #1 !dbg !932 {
start:
  %_1.dbg.spill = alloca %"token::FreezeAccount"*, align 8
  store %"token::FreezeAccount"* %_1, %"token::FreezeAccount"** %_1.dbg.spill, align 8
  call void @llvm.dbg.declare(metadata %"token::FreezeAccount"** %_1.dbg.spill, metadata !937, metadata !DIExpression()), !dbg !939
  %0 = bitcast %"token::FreezeAccount"* %_1 to %"anchor_lang::prelude::AccountInfo"*, !dbg !939
; call core::ptr::drop_in_place<solana_program::account_info::AccountInfo>
  call void @"_ZN4core3ptr62drop_in_place$LT$solana_program..account_info..AccountInfo$GT$17h10233615d59e7eedE"(%"anchor_lang::prelude::AccountInfo"* %0), !dbg !939
  br label %bb3, !dbg !939

bb3:                                              ; preds = %start
  %1 = getelementptr inbounds %"token::FreezeAccount", %"token::FreezeAccount"* %_1, i32 0, i32 1, !dbg !939
; call core::ptr::drop_in_place<solana_program::account_info::AccountInfo>
  call void @"_ZN4core3ptr62drop_in_place$LT$solana_program..account_info..AccountInfo$GT$17h10233615d59e7eedE"(%"anchor_lang::prelude::AccountInfo"* %1), !dbg !939
  br label %bb2, !dbg !939

bb2:                                              ; preds = %bb3
  %2 = getelementptr inbounds %"token::FreezeAccount", %"token::FreezeAccount"* %_1, i32 0, i32 2, !dbg !939
; call core::ptr::drop_in_place<solana_program::account_info::AccountInfo>
  call void @"_ZN4core3ptr62drop_in_place$LT$solana_program..account_info..AccountInfo$GT$17h10233615d59e7eedE"(%"anchor_lang::prelude::AccountInfo"* %2), !dbg !939
  br label %bb1, !dbg !939

bb1:                                              ; preds = %bb2
  ret void, !dbg !939
}

; core::ptr::drop_in_place<anchor_spl::token::InitializeMint>
; Function Attrs: nounwind
define void @"_ZN4core3ptr54drop_in_place$LT$anchor_spl..token..InitializeMint$GT$17h4880e1dc04ef47a3E"(%"token::InitializeMint"* %_1) unnamed_addr #1 !dbg !940 {
start:
  %_1.dbg.spill = alloca %"token::InitializeMint"*, align 8
  store %"token::InitializeMint"* %_1, %"token::InitializeMint"** %_1.dbg.spill, align 8
  call void @llvm.dbg.declare(metadata %"token::InitializeMint"** %_1.dbg.spill, metadata !945, metadata !DIExpression()), !dbg !947
  %0 = bitcast %"token::InitializeMint"* %_1 to %"anchor_lang::prelude::AccountInfo"*, !dbg !947
; call core::ptr::drop_in_place<solana_program::account_info::AccountInfo>
  call void @"_ZN4core3ptr62drop_in_place$LT$solana_program..account_info..AccountInfo$GT$17h10233615d59e7eedE"(%"anchor_lang::prelude::AccountInfo"* %0), !dbg !947
  br label %bb2, !dbg !947

bb2:                                              ; preds = %start
  %1 = getelementptr inbounds %"token::InitializeMint", %"token::InitializeMint"* %_1, i32 0, i32 1, !dbg !947
; call core::ptr::drop_in_place<solana_program::account_info::AccountInfo>
  call void @"_ZN4core3ptr62drop_in_place$LT$solana_program..account_info..AccountInfo$GT$17h10233615d59e7eedE"(%"anchor_lang::prelude::AccountInfo"* %1), !dbg !947
  br label %bb1, !dbg !947

bb1:                                              ; preds = %bb2
  ret void, !dbg !947
}

; core::ptr::drop_in_place<anchor_spl::token::InitializeAccount>
; Function Attrs: nounwind
define void @"_ZN4core3ptr57drop_in_place$LT$anchor_spl..token..InitializeAccount$GT$17h38afd97c3c81b012E"(%"token::InitializeAccount"* %_1) unnamed_addr #1 !dbg !948 {
start:
  %_1.dbg.spill = alloca %"token::InitializeAccount"*, align 8
  store %"token::InitializeAccount"* %_1, %"token::InitializeAccount"** %_1.dbg.spill, align 8
  call void @llvm.dbg.declare(metadata %"token::InitializeAccount"** %_1.dbg.spill, metadata !953, metadata !DIExpression()), !dbg !955
  %0 = bitcast %"token::InitializeAccount"* %_1 to %"anchor_lang::prelude::AccountInfo"*, !dbg !955
; call core::ptr::drop_in_place<solana_program::account_info::AccountInfo>
  call void @"_ZN4core3ptr62drop_in_place$LT$solana_program..account_info..AccountInfo$GT$17h10233615d59e7eedE"(%"anchor_lang::prelude::AccountInfo"* %0), !dbg !955
  br label %bb4, !dbg !955

bb4:                                              ; preds = %start
  %1 = getelementptr inbounds %"token::InitializeAccount", %"token::InitializeAccount"* %_1, i32 0, i32 1, !dbg !955
; call core::ptr::drop_in_place<solana_program::account_info::AccountInfo>
  call void @"_ZN4core3ptr62drop_in_place$LT$solana_program..account_info..AccountInfo$GT$17h10233615d59e7eedE"(%"anchor_lang::prelude::AccountInfo"* %1), !dbg !955
  br label %bb3, !dbg !955

bb3:                                              ; preds = %bb4
  %2 = getelementptr inbounds %"token::InitializeAccount", %"token::InitializeAccount"* %_1, i32 0, i32 2, !dbg !955
; call core::ptr::drop_in_place<solana_program::account_info::AccountInfo>
  call void @"_ZN4core3ptr62drop_in_place$LT$solana_program..account_info..AccountInfo$GT$17h10233615d59e7eedE"(%"anchor_lang::prelude::AccountInfo"* %2), !dbg !955
  br label %bb2, !dbg !955

bb2:                                              ; preds = %bb3
  %3 = getelementptr inbounds %"token::InitializeAccount", %"token::InitializeAccount"* %_1, i32 0, i32 3, !dbg !955
; call core::ptr::drop_in_place<solana_program::account_info::AccountInfo>
  call void @"_ZN4core3ptr62drop_in_place$LT$solana_program..account_info..AccountInfo$GT$17h10233615d59e7eedE"(%"anchor_lang::prelude::AccountInfo"* %3), !dbg !955
  br label %bb1, !dbg !955

bb1:                                              ; preds = %bb2
  ret void, !dbg !955
}

; core::ptr::drop_in_place<[solana_program::account_info::AccountInfo; 4]>
; Function Attrs: nounwind
define void @"_ZN4core3ptr83drop_in_place$LT$$u5b$solana_program..account_info..AccountInfo$u3b$$u20$4$u5d$$GT$17h5e9fd1b5e30a7b92E"([4 x %"anchor_lang::prelude::AccountInfo"]* %_1) unnamed_addr #1 !dbg !956 {
start:
  %_1.dbg.spill = alloca [4 x %"anchor_lang::prelude::AccountInfo"]*, align 8
  %_9 = alloca %"anchor_lang::prelude::AccountInfo"*, align 8
  %_4 = alloca i64, align 8
  store [4 x %"anchor_lang::prelude::AccountInfo"]* %_1, [4 x %"anchor_lang::prelude::AccountInfo"]** %_1.dbg.spill, align 8
  call void @llvm.dbg.declare(metadata [4 x %"anchor_lang::prelude::AccountInfo"]** %_1.dbg.spill, metadata !964, metadata !DIExpression()), !dbg !967
  br i1 false, label %bb4, label %bb7, !dbg !967

bb4:                                              ; preds = %start
  store i64 0, i64* %_4, align 8, !dbg !967
  br label %bb3, !dbg !967

bb7:                                              ; preds = %start
  %0 = bitcast [4 x %"anchor_lang::prelude::AccountInfo"]* %_1 to %"anchor_lang::prelude::AccountInfo"*, !dbg !967
  store %"anchor_lang::prelude::AccountInfo"* %0, %"anchor_lang::prelude::AccountInfo"** %_9, align 8, !dbg !967
  %1 = load %"anchor_lang::prelude::AccountInfo"*, %"anchor_lang::prelude::AccountInfo"** %_9, align 8, !dbg !967
  %_10 = getelementptr inbounds %"anchor_lang::prelude::AccountInfo", %"anchor_lang::prelude::AccountInfo"* %1, i64 4, !dbg !967
  br label %bb6, !dbg !967

bb6:                                              ; preds = %bb5, %bb7
  %2 = load %"anchor_lang::prelude::AccountInfo"*, %"anchor_lang::prelude::AccountInfo"** %_9, align 8, !dbg !967
  %_14 = icmp eq %"anchor_lang::prelude::AccountInfo"* %2, %_10, !dbg !967
  br i1 %_14, label %bb1, label %bb5, !dbg !967

bb5:                                              ; preds = %bb6
  %_13 = load %"anchor_lang::prelude::AccountInfo"*, %"anchor_lang::prelude::AccountInfo"** %_9, align 8, !dbg !967
  %3 = load %"anchor_lang::prelude::AccountInfo"*, %"anchor_lang::prelude::AccountInfo"** %_9, align 8, !dbg !967
  %4 = getelementptr inbounds %"anchor_lang::prelude::AccountInfo", %"anchor_lang::prelude::AccountInfo"* %3, i64 1, !dbg !967
  store %"anchor_lang::prelude::AccountInfo"* %4, %"anchor_lang::prelude::AccountInfo"** %_9, align 8, !dbg !967
; call core::ptr::drop_in_place<solana_program::account_info::AccountInfo>
  call void @"_ZN4core3ptr62drop_in_place$LT$solana_program..account_info..AccountInfo$GT$17h10233615d59e7eedE"(%"anchor_lang::prelude::AccountInfo"* %_13), !dbg !967
  br label %bb6, !dbg !967

bb1:                                              ; preds = %bb3, %bb6
  ret void, !dbg !967

bb3:                                              ; preds = %bb2, %bb4
  %5 = load i64, i64* %_4, align 8, !dbg !967
  %_8 = icmp eq i64 %5, 4, !dbg !967
  br i1 %_8, label %bb1, label %bb2, !dbg !967

bb2:                                              ; preds = %bb3
  %6 = load i64, i64* %_4, align 8, !dbg !967
  %_7 = getelementptr inbounds [4 x %"anchor_lang::prelude::AccountInfo"], [4 x %"anchor_lang::prelude::AccountInfo"]* %_1, i64 0, i64 %6, !dbg !967
  %7 = load i64, i64* %_4, align 8, !dbg !967
  %8 = add i64 %7, 1, !dbg !967
  store i64 %8, i64* %_4, align 8, !dbg !967
; call core::ptr::drop_in_place<solana_program::account_info::AccountInfo>
  call void @"_ZN4core3ptr62drop_in_place$LT$solana_program..account_info..AccountInfo$GT$17h10233615d59e7eedE"(%"anchor_lang::prelude::AccountInfo"* %_7), !dbg !967
  br label %bb3, !dbg !967
}

; core::ptr::drop_in_place<[solana_program::account_info::AccountInfo; 7]>
; Function Attrs: nounwind
define void @"_ZN4core3ptr83drop_in_place$LT$$u5b$solana_program..account_info..AccountInfo$u3b$$u20$7$u5d$$GT$17h55365ad513e6181cE"([7 x %"anchor_lang::prelude::AccountInfo"]* %_1) unnamed_addr #1 !dbg !968 {
start:
  %_1.dbg.spill = alloca [7 x %"anchor_lang::prelude::AccountInfo"]*, align 8
  %_9 = alloca %"anchor_lang::prelude::AccountInfo"*, align 8
  %_4 = alloca i64, align 8
  store [7 x %"anchor_lang::prelude::AccountInfo"]* %_1, [7 x %"anchor_lang::prelude::AccountInfo"]** %_1.dbg.spill, align 8
  call void @llvm.dbg.declare(metadata [7 x %"anchor_lang::prelude::AccountInfo"]** %_1.dbg.spill, metadata !976, metadata !DIExpression()), !dbg !979
  br i1 false, label %bb4, label %bb7, !dbg !979

bb4:                                              ; preds = %start
  store i64 0, i64* %_4, align 8, !dbg !979
  br label %bb3, !dbg !979

bb7:                                              ; preds = %start
  %0 = bitcast [7 x %"anchor_lang::prelude::AccountInfo"]* %_1 to %"anchor_lang::prelude::AccountInfo"*, !dbg !979
  store %"anchor_lang::prelude::AccountInfo"* %0, %"anchor_lang::prelude::AccountInfo"** %_9, align 8, !dbg !979
  %1 = load %"anchor_lang::prelude::AccountInfo"*, %"anchor_lang::prelude::AccountInfo"** %_9, align 8, !dbg !979
  %_10 = getelementptr inbounds %"anchor_lang::prelude::AccountInfo", %"anchor_lang::prelude::AccountInfo"* %1, i64 7, !dbg !979
  br label %bb6, !dbg !979

bb6:                                              ; preds = %bb5, %bb7
  %2 = load %"anchor_lang::prelude::AccountInfo"*, %"anchor_lang::prelude::AccountInfo"** %_9, align 8, !dbg !979
  %_14 = icmp eq %"anchor_lang::prelude::AccountInfo"* %2, %_10, !dbg !979
  br i1 %_14, label %bb1, label %bb5, !dbg !979

bb5:                                              ; preds = %bb6
  %_13 = load %"anchor_lang::prelude::AccountInfo"*, %"anchor_lang::prelude::AccountInfo"** %_9, align 8, !dbg !979
  %3 = load %"anchor_lang::prelude::AccountInfo"*, %"anchor_lang::prelude::AccountInfo"** %_9, align 8, !dbg !979
  %4 = getelementptr inbounds %"anchor_lang::prelude::AccountInfo", %"anchor_lang::prelude::AccountInfo"* %3, i64 1, !dbg !979
  store %"anchor_lang::prelude::AccountInfo"* %4, %"anchor_lang::prelude::AccountInfo"** %_9, align 8, !dbg !979
; call core::ptr::drop_in_place<solana_program::account_info::AccountInfo>
  call void @"_ZN4core3ptr62drop_in_place$LT$solana_program..account_info..AccountInfo$GT$17h10233615d59e7eedE"(%"anchor_lang::prelude::AccountInfo"* %_13), !dbg !979
  br label %bb6, !dbg !979

bb1:                                              ; preds = %bb3, %bb6
  ret void, !dbg !979

bb3:                                              ; preds = %bb2, %bb4
  %5 = load i64, i64* %_4, align 8, !dbg !979
  %_8 = icmp eq i64 %5, 7, !dbg !979
  br i1 %_8, label %bb1, label %bb2, !dbg !979

bb2:                                              ; preds = %bb3
  %6 = load i64, i64* %_4, align 8, !dbg !979
  %_7 = getelementptr inbounds [7 x %"anchor_lang::prelude::AccountInfo"], [7 x %"anchor_lang::prelude::AccountInfo"]* %_1, i64 0, i64 %6, !dbg !979
  %7 = load i64, i64* %_4, align 8, !dbg !979
  %8 = add i64 %7, 1, !dbg !979
  store i64 %8, i64* %_4, align 8, !dbg !979
; call core::ptr::drop_in_place<solana_program::account_info::AccountInfo>
  call void @"_ZN4core3ptr62drop_in_place$LT$solana_program..account_info..AccountInfo$GT$17h10233615d59e7eedE"(%"anchor_lang::prelude::AccountInfo"* %_7), !dbg !979
  br label %bb3, !dbg !979
}

; core::ptr::drop_in_place<anchor_lang::context::CpiContext<anchor_spl::token::Burn>>
; Function Attrs: nounwind
define void @"_ZN4core3ptr84drop_in_place$LT$anchor_lang..context..CpiContext$LT$anchor_spl..token..Burn$GT$$GT$17h7119bbe49c0ebed3E"(%"anchor_lang::context::CpiContext<token::Burn>"* %_1) unnamed_addr #1 !dbg !980 {
start:
  %_1.dbg.spill = alloca %"anchor_lang::context::CpiContext<token::Burn>"*, align 8
  store %"anchor_lang::context::CpiContext<token::Burn>"* %_1, %"anchor_lang::context::CpiContext<token::Burn>"** %_1.dbg.spill, align 8
  call void @llvm.dbg.declare(metadata %"anchor_lang::context::CpiContext<token::Burn>"** %_1.dbg.spill, metadata !1024, metadata !DIExpression()), !dbg !1027
  %0 = bitcast %"anchor_lang::context::CpiContext<token::Burn>"* %_1 to %"token::Burn"*, !dbg !1027
; call core::ptr::drop_in_place<anchor_spl::token::Burn>
  call void @"_ZN4core3ptr44drop_in_place$LT$anchor_spl..token..Burn$GT$17he7dbe8793372a032E"(%"token::Burn"* %0), !dbg !1027
  br label %bb3, !dbg !1027

bb3:                                              ; preds = %start
  %1 = getelementptr inbounds %"anchor_lang::context::CpiContext<token::Burn>", %"anchor_lang::context::CpiContext<token::Burn>"* %_1, i32 0, i32 1, !dbg !1027
; call core::ptr::drop_in_place<alloc::vec::Vec<solana_program::account_info::AccountInfo>>
  call void @"_ZN4core3ptr85drop_in_place$LT$alloc..vec..Vec$LT$solana_program..account_info..AccountInfo$GT$$GT$17h3f65060db2378d0dE"(%"std::vec::Vec<anchor_lang::prelude::AccountInfo>"* %1), !dbg !1027
  br label %bb2, !dbg !1027

bb2:                                              ; preds = %bb3
  %2 = getelementptr inbounds %"anchor_lang::context::CpiContext<token::Burn>", %"anchor_lang::context::CpiContext<token::Burn>"* %_1, i32 0, i32 2, !dbg !1027
; call core::ptr::drop_in_place<solana_program::account_info::AccountInfo>
  call void @"_ZN4core3ptr62drop_in_place$LT$solana_program..account_info..AccountInfo$GT$17h10233615d59e7eedE"(%"anchor_lang::prelude::AccountInfo"* %2), !dbg !1027
  br label %bb1, !dbg !1027

bb1:                                              ; preds = %bb2
  ret void, !dbg !1027
}

; core::ptr::drop_in_place<alloc::vec::Vec<solana_program::account_info::AccountInfo>>
; Function Attrs: nounwind
define void @"_ZN4core3ptr85drop_in_place$LT$alloc..vec..Vec$LT$solana_program..account_info..AccountInfo$GT$$GT$17h3f65060db2378d0dE"(%"std::vec::Vec<anchor_lang::prelude::AccountInfo>"* %_1) unnamed_addr #1 !dbg !1028 {
start:
  %_1.dbg.spill = alloca %"std::vec::Vec<anchor_lang::prelude::AccountInfo>"*, align 8
  store %"std::vec::Vec<anchor_lang::prelude::AccountInfo>"* %_1, %"std::vec::Vec<anchor_lang::prelude::AccountInfo>"** %_1.dbg.spill, align 8
  call void @llvm.dbg.declare(metadata %"std::vec::Vec<anchor_lang::prelude::AccountInfo>"** %_1.dbg.spill, metadata !1033, metadata !DIExpression()), !dbg !1036
; call <alloc::vec::Vec<T,A> as core::ops::drop::Drop>::drop
  call void @"_ZN70_$LT$alloc..vec..Vec$LT$T$C$A$GT$$u20$as$u20$core..ops..drop..Drop$GT$4drop17h21cb6d1a16e9c96cE"(%"std::vec::Vec<anchor_lang::prelude::AccountInfo>"* align 8 dereferenceable(24) %_1), !dbg !1036
  br label %bb2, !dbg !1036

bb2:                                              ; preds = %start
  %0 = bitcast %"std::vec::Vec<anchor_lang::prelude::AccountInfo>"* %_1 to { i64*, i64 }*, !dbg !1036
; call core::ptr::drop_in_place<alloc::raw_vec::RawVec<solana_program::account_info::AccountInfo>>
  call void @"_ZN4core3ptr92drop_in_place$LT$alloc..raw_vec..RawVec$LT$solana_program..account_info..AccountInfo$GT$$GT$17h54edb506a6a51ef5E"({ i64*, i64 }* %0), !dbg !1036
  br label %bb1, !dbg !1036

bb1:                                              ; preds = %bb2
  ret void, !dbg !1036
}

; core::ptr::drop_in_place<anchor_lang::context::CpiContext<anchor_spl::token::MintTo>>
; Function Attrs: nounwind
define void @"_ZN4core3ptr86drop_in_place$LT$anchor_lang..context..CpiContext$LT$anchor_spl..token..MintTo$GT$$GT$17hf9b76525827e60dcE"(%"anchor_lang::context::CpiContext<token::MintTo>"* %_1) unnamed_addr #1 !dbg !1037 {
start:
  %_1.dbg.spill = alloca %"anchor_lang::context::CpiContext<token::MintTo>"*, align 8
  store %"anchor_lang::context::CpiContext<token::MintTo>"* %_1, %"anchor_lang::context::CpiContext<token::MintTo>"** %_1.dbg.spill, align 8
  call void @llvm.dbg.declare(metadata %"anchor_lang::context::CpiContext<token::MintTo>"** %_1.dbg.spill, metadata !1048, metadata !DIExpression()), !dbg !1051
  %0 = bitcast %"anchor_lang::context::CpiContext<token::MintTo>"* %_1 to %"token::MintTo"*, !dbg !1051
; call core::ptr::drop_in_place<anchor_spl::token::MintTo>
  call void @"_ZN4core3ptr46drop_in_place$LT$anchor_spl..token..MintTo$GT$17h3abd7b07f7098473E"(%"token::MintTo"* %0), !dbg !1051
  br label %bb3, !dbg !1051

bb3:                                              ; preds = %start
  %1 = getelementptr inbounds %"anchor_lang::context::CpiContext<token::MintTo>", %"anchor_lang::context::CpiContext<token::MintTo>"* %_1, i32 0, i32 1, !dbg !1051
; call core::ptr::drop_in_place<alloc::vec::Vec<solana_program::account_info::AccountInfo>>
  call void @"_ZN4core3ptr85drop_in_place$LT$alloc..vec..Vec$LT$solana_program..account_info..AccountInfo$GT$$GT$17h3f65060db2378d0dE"(%"std::vec::Vec<anchor_lang::prelude::AccountInfo>"* %1), !dbg !1051
  br label %bb2, !dbg !1051

bb2:                                              ; preds = %bb3
  %2 = getelementptr inbounds %"anchor_lang::context::CpiContext<token::MintTo>", %"anchor_lang::context::CpiContext<token::MintTo>"* %_1, i32 0, i32 2, !dbg !1051
; call core::ptr::drop_in_place<solana_program::account_info::AccountInfo>
  call void @"_ZN4core3ptr62drop_in_place$LT$solana_program..account_info..AccountInfo$GT$17h10233615d59e7eedE"(%"anchor_lang::prelude::AccountInfo"* %2), !dbg !1051
  br label %bb1, !dbg !1051

bb1:                                              ; preds = %bb2
  ret void, !dbg !1051
}

; core::ptr::drop_in_place<anchor_lang::context::CpiContext<anchor_spl::token::Approve>>
; Function Attrs: nounwind
define void @"_ZN4core3ptr87drop_in_place$LT$anchor_lang..context..CpiContext$LT$anchor_spl..token..Approve$GT$$GT$17h8c06b9cd57e5fd8eE"(%"anchor_lang::context::CpiContext<token::Approve>"* %_1) unnamed_addr #1 !dbg !1052 {
start:
  %_1.dbg.spill = alloca %"anchor_lang::context::CpiContext<token::Approve>"*, align 8
  store %"anchor_lang::context::CpiContext<token::Approve>"* %_1, %"anchor_lang::context::CpiContext<token::Approve>"** %_1.dbg.spill, align 8
  call void @llvm.dbg.declare(metadata %"anchor_lang::context::CpiContext<token::Approve>"** %_1.dbg.spill, metadata !1063, metadata !DIExpression()), !dbg !1066
  %0 = bitcast %"anchor_lang::context::CpiContext<token::Approve>"* %_1 to %"token::Approve"*, !dbg !1066
; call core::ptr::drop_in_place<anchor_spl::token::Approve>
  call void @"_ZN4core3ptr47drop_in_place$LT$anchor_spl..token..Approve$GT$17hdc864dfa60c6813cE"(%"token::Approve"* %0), !dbg !1066
  br label %bb3, !dbg !1066

bb3:                                              ; preds = %start
  %1 = getelementptr inbounds %"anchor_lang::context::CpiContext<token::Approve>", %"anchor_lang::context::CpiContext<token::Approve>"* %_1, i32 0, i32 1, !dbg !1066
; call core::ptr::drop_in_place<alloc::vec::Vec<solana_program::account_info::AccountInfo>>
  call void @"_ZN4core3ptr85drop_in_place$LT$alloc..vec..Vec$LT$solana_program..account_info..AccountInfo$GT$$GT$17h3f65060db2378d0dE"(%"std::vec::Vec<anchor_lang::prelude::AccountInfo>"* %1), !dbg !1066
  br label %bb2, !dbg !1066

bb2:                                              ; preds = %bb3
  %2 = getelementptr inbounds %"anchor_lang::context::CpiContext<token::Approve>", %"anchor_lang::context::CpiContext<token::Approve>"* %_1, i32 0, i32 2, !dbg !1066
; call core::ptr::drop_in_place<solana_program::account_info::AccountInfo>
  call void @"_ZN4core3ptr62drop_in_place$LT$solana_program..account_info..AccountInfo$GT$17h10233615d59e7eedE"(%"anchor_lang::prelude::AccountInfo"* %2), !dbg !1066
  br label %bb1, !dbg !1066

bb1:                                              ; preds = %bb2
  ret void, !dbg !1066
}

; core::ptr::drop_in_place<anchor_lang::context::CpiContext<anchor_spl::token::Transfer>>
; Function Attrs: nounwind
define void @"_ZN4core3ptr88drop_in_place$LT$anchor_lang..context..CpiContext$LT$anchor_spl..token..Transfer$GT$$GT$17h56793a4cc194e31dE"(%"anchor_lang::context::CpiContext<token::Transfer>"* %_1) unnamed_addr #1 !dbg !1067 {
start:
  %_1.dbg.spill = alloca %"anchor_lang::context::CpiContext<token::Transfer>"*, align 8
  store %"anchor_lang::context::CpiContext<token::Transfer>"* %_1, %"anchor_lang::context::CpiContext<token::Transfer>"** %_1.dbg.spill, align 8
  call void @llvm.dbg.declare(metadata %"anchor_lang::context::CpiContext<token::Transfer>"** %_1.dbg.spill, metadata !1078, metadata !DIExpression()), !dbg !1081
  %0 = bitcast %"anchor_lang::context::CpiContext<token::Transfer>"* %_1 to %"token::Transfer"*, !dbg !1081
; call core::ptr::drop_in_place<anchor_spl::token::Transfer>
  call void @"_ZN4core3ptr48drop_in_place$LT$anchor_spl..token..Transfer$GT$17h37fe83328cfb6becE"(%"token::Transfer"* %0), !dbg !1081
  br label %bb3, !dbg !1081

bb3:                                              ; preds = %start
  %1 = getelementptr inbounds %"anchor_lang::context::CpiContext<token::Transfer>", %"anchor_lang::context::CpiContext<token::Transfer>"* %_1, i32 0, i32 1, !dbg !1081
; call core::ptr::drop_in_place<alloc::vec::Vec<solana_program::account_info::AccountInfo>>
  call void @"_ZN4core3ptr85drop_in_place$LT$alloc..vec..Vec$LT$solana_program..account_info..AccountInfo$GT$$GT$17h3f65060db2378d0dE"(%"std::vec::Vec<anchor_lang::prelude::AccountInfo>"* %1), !dbg !1081
  br label %bb2, !dbg !1081

bb2:                                              ; preds = %bb3
  %2 = getelementptr inbounds %"anchor_lang::context::CpiContext<token::Transfer>", %"anchor_lang::context::CpiContext<token::Transfer>"* %_1, i32 0, i32 2, !dbg !1081
; call core::ptr::drop_in_place<solana_program::account_info::AccountInfo>
  call void @"_ZN4core3ptr62drop_in_place$LT$solana_program..account_info..AccountInfo$GT$17h10233615d59e7eedE"(%"anchor_lang::prelude::AccountInfo"* %2), !dbg !1081
  br label %bb1, !dbg !1081

bb1:                                              ; preds = %bb2
  ret void, !dbg !1081
}

; core::ptr::drop_in_place<anchor_lang::context::CpiContext<anchor_spl::token::ThawAccount>>
; Function Attrs: nounwind
define void @"_ZN4core3ptr91drop_in_place$LT$anchor_lang..context..CpiContext$LT$anchor_spl..token..ThawAccount$GT$$GT$17h64f042ecf9a64ba4E"(%"anchor_lang::context::CpiContext<token::ThawAccount>"* %_1) unnamed_addr #1 !dbg !1082 {
start:
  %_1.dbg.spill = alloca %"anchor_lang::context::CpiContext<token::ThawAccount>"*, align 8
  store %"anchor_lang::context::CpiContext<token::ThawAccount>"* %_1, %"anchor_lang::context::CpiContext<token::ThawAccount>"** %_1.dbg.spill, align 8
  call void @llvm.dbg.declare(metadata %"anchor_lang::context::CpiContext<token::ThawAccount>"** %_1.dbg.spill, metadata !1093, metadata !DIExpression()), !dbg !1096
  %0 = bitcast %"anchor_lang::context::CpiContext<token::ThawAccount>"* %_1 to %"token::ThawAccount"*, !dbg !1096
; call core::ptr::drop_in_place<anchor_spl::token::ThawAccount>
  call void @"_ZN4core3ptr51drop_in_place$LT$anchor_spl..token..ThawAccount$GT$17ha20537808751e995E"(%"token::ThawAccount"* %0), !dbg !1096
  br label %bb3, !dbg !1096

bb3:                                              ; preds = %start
  %1 = getelementptr inbounds %"anchor_lang::context::CpiContext<token::ThawAccount>", %"anchor_lang::context::CpiContext<token::ThawAccount>"* %_1, i32 0, i32 1, !dbg !1096
; call core::ptr::drop_in_place<alloc::vec::Vec<solana_program::account_info::AccountInfo>>
  call void @"_ZN4core3ptr85drop_in_place$LT$alloc..vec..Vec$LT$solana_program..account_info..AccountInfo$GT$$GT$17h3f65060db2378d0dE"(%"std::vec::Vec<anchor_lang::prelude::AccountInfo>"* %1), !dbg !1096
  br label %bb2, !dbg !1096

bb2:                                              ; preds = %bb3
  %2 = getelementptr inbounds %"anchor_lang::context::CpiContext<token::ThawAccount>", %"anchor_lang::context::CpiContext<token::ThawAccount>"* %_1, i32 0, i32 2, !dbg !1096
; call core::ptr::drop_in_place<solana_program::account_info::AccountInfo>
  call void @"_ZN4core3ptr62drop_in_place$LT$solana_program..account_info..AccountInfo$GT$17h10233615d59e7eedE"(%"anchor_lang::prelude::AccountInfo"* %2), !dbg !1096
  br label %bb1, !dbg !1096

bb1:                                              ; preds = %bb2
  ret void, !dbg !1096
}

; core::ptr::drop_in_place<anchor_lang::context::CpiContext<anchor_spl::token::CloseAccount>>
; Function Attrs: nounwind
define void @"_ZN4core3ptr92drop_in_place$LT$anchor_lang..context..CpiContext$LT$anchor_spl..token..CloseAccount$GT$$GT$17h8ee610a0879bd5f0E"(%"anchor_lang::context::CpiContext<token::CloseAccount>"* %_1) unnamed_addr #1 !dbg !1097 {
start:
  %_1.dbg.spill = alloca %"anchor_lang::context::CpiContext<token::CloseAccount>"*, align 8
  store %"anchor_lang::context::CpiContext<token::CloseAccount>"* %_1, %"anchor_lang::context::CpiContext<token::CloseAccount>"** %_1.dbg.spill, align 8
  call void @llvm.dbg.declare(metadata %"anchor_lang::context::CpiContext<token::CloseAccount>"** %_1.dbg.spill, metadata !1108, metadata !DIExpression()), !dbg !1111
  %0 = bitcast %"anchor_lang::context::CpiContext<token::CloseAccount>"* %_1 to %"token::CloseAccount"*, !dbg !1111
; call core::ptr::drop_in_place<anchor_spl::token::CloseAccount>
  call void @"_ZN4core3ptr52drop_in_place$LT$anchor_spl..token..CloseAccount$GT$17h4064e411d798ab2dE"(%"token::CloseAccount"* %0), !dbg !1111
  br label %bb3, !dbg !1111

bb3:                                              ; preds = %start
  %1 = getelementptr inbounds %"anchor_lang::context::CpiContext<token::CloseAccount>", %"anchor_lang::context::CpiContext<token::CloseAccount>"* %_1, i32 0, i32 1, !dbg !1111
; call core::ptr::drop_in_place<alloc::vec::Vec<solana_program::account_info::AccountInfo>>
  call void @"_ZN4core3ptr85drop_in_place$LT$alloc..vec..Vec$LT$solana_program..account_info..AccountInfo$GT$$GT$17h3f65060db2378d0dE"(%"std::vec::Vec<anchor_lang::prelude::AccountInfo>"* %1), !dbg !1111
  br label %bb2, !dbg !1111

bb2:                                              ; preds = %bb3
  %2 = getelementptr inbounds %"anchor_lang::context::CpiContext<token::CloseAccount>", %"anchor_lang::context::CpiContext<token::CloseAccount>"* %_1, i32 0, i32 2, !dbg !1111
; call core::ptr::drop_in_place<solana_program::account_info::AccountInfo>
  call void @"_ZN4core3ptr62drop_in_place$LT$solana_program..account_info..AccountInfo$GT$17h10233615d59e7eedE"(%"anchor_lang::prelude::AccountInfo"* %2), !dbg !1111
  br label %bb1, !dbg !1111

bb1:                                              ; preds = %bb2
  ret void, !dbg !1111
}

; core::ptr::drop_in_place<anchor_lang::context::CpiContext<anchor_spl::token::SetAuthority>>
; Function Attrs: nounwind
define void @"_ZN4core3ptr92drop_in_place$LT$anchor_lang..context..CpiContext$LT$anchor_spl..token..SetAuthority$GT$$GT$17h5d2e2d6e227673d7E"(%"anchor_lang::context::CpiContext<token::SetAuthority>"* %_1) unnamed_addr #1 !dbg !1112 {
start:
  %_1.dbg.spill = alloca %"anchor_lang::context::CpiContext<token::SetAuthority>"*, align 8
  store %"anchor_lang::context::CpiContext<token::SetAuthority>"* %_1, %"anchor_lang::context::CpiContext<token::SetAuthority>"** %_1.dbg.spill, align 8
  call void @llvm.dbg.declare(metadata %"anchor_lang::context::CpiContext<token::SetAuthority>"** %_1.dbg.spill, metadata !1123, metadata !DIExpression()), !dbg !1126
  %0 = bitcast %"anchor_lang::context::CpiContext<token::SetAuthority>"* %_1 to %"token::SetAuthority"*, !dbg !1126
; call core::ptr::drop_in_place<anchor_spl::token::SetAuthority>
  call void @"_ZN4core3ptr52drop_in_place$LT$anchor_spl..token..SetAuthority$GT$17h4c6f836b38e9f604E"(%"token::SetAuthority"* %0), !dbg !1126
  br label %bb3, !dbg !1126

bb3:                                              ; preds = %start
  %1 = getelementptr inbounds %"anchor_lang::context::CpiContext<token::SetAuthority>", %"anchor_lang::context::CpiContext<token::SetAuthority>"* %_1, i32 0, i32 1, !dbg !1126
; call core::ptr::drop_in_place<alloc::vec::Vec<solana_program::account_info::AccountInfo>>
  call void @"_ZN4core3ptr85drop_in_place$LT$alloc..vec..Vec$LT$solana_program..account_info..AccountInfo$GT$$GT$17h3f65060db2378d0dE"(%"std::vec::Vec<anchor_lang::prelude::AccountInfo>"* %1), !dbg !1126
  br label %bb2, !dbg !1126

bb2:                                              ; preds = %bb3
  %2 = getelementptr inbounds %"anchor_lang::context::CpiContext<token::SetAuthority>", %"anchor_lang::context::CpiContext<token::SetAuthority>"* %_1, i32 0, i32 2, !dbg !1126
; call core::ptr::drop_in_place<solana_program::account_info::AccountInfo>
  call void @"_ZN4core3ptr62drop_in_place$LT$solana_program..account_info..AccountInfo$GT$17h10233615d59e7eedE"(%"anchor_lang::prelude::AccountInfo"* %2), !dbg !1126
  br label %bb1, !dbg !1126

bb1:                                              ; preds = %bb2
  ret void, !dbg !1126
}

; core::ptr::drop_in_place<anchor_lang::context::CpiContext<anchor_spl::token::FreezeAccount>>
; Function Attrs: nounwind
define void @"_ZN4core3ptr93drop_in_place$LT$anchor_lang..context..CpiContext$LT$anchor_spl..token..FreezeAccount$GT$$GT$17h2e7ed85d26cc917eE"(%"anchor_lang::context::CpiContext<token::FreezeAccount>"* %_1) unnamed_addr #1 !dbg !1127 {
start:
  %_1.dbg.spill = alloca %"anchor_lang::context::CpiContext<token::FreezeAccount>"*, align 8
  store %"anchor_lang::context::CpiContext<token::FreezeAccount>"* %_1, %"anchor_lang::context::CpiContext<token::FreezeAccount>"** %_1.dbg.spill, align 8
  call void @llvm.dbg.declare(metadata %"anchor_lang::context::CpiContext<token::FreezeAccount>"** %_1.dbg.spill, metadata !1138, metadata !DIExpression()), !dbg !1141
  %0 = bitcast %"anchor_lang::context::CpiContext<token::FreezeAccount>"* %_1 to %"token::FreezeAccount"*, !dbg !1141
; call core::ptr::drop_in_place<anchor_spl::token::FreezeAccount>
  call void @"_ZN4core3ptr53drop_in_place$LT$anchor_spl..token..FreezeAccount$GT$17h3513f41bc8848e4eE"(%"token::FreezeAccount"* %0), !dbg !1141
  br label %bb3, !dbg !1141

bb3:                                              ; preds = %start
  %1 = getelementptr inbounds %"anchor_lang::context::CpiContext<token::FreezeAccount>", %"anchor_lang::context::CpiContext<token::FreezeAccount>"* %_1, i32 0, i32 1, !dbg !1141
; call core::ptr::drop_in_place<alloc::vec::Vec<solana_program::account_info::AccountInfo>>
  call void @"_ZN4core3ptr85drop_in_place$LT$alloc..vec..Vec$LT$solana_program..account_info..AccountInfo$GT$$GT$17h3f65060db2378d0dE"(%"std::vec::Vec<anchor_lang::prelude::AccountInfo>"* %1), !dbg !1141
  br label %bb2, !dbg !1141

bb2:                                              ; preds = %bb3
  %2 = getelementptr inbounds %"anchor_lang::context::CpiContext<token::FreezeAccount>", %"anchor_lang::context::CpiContext<token::FreezeAccount>"* %_1, i32 0, i32 2, !dbg !1141
; call core::ptr::drop_in_place<solana_program::account_info::AccountInfo>
  call void @"_ZN4core3ptr62drop_in_place$LT$solana_program..account_info..AccountInfo$GT$17h10233615d59e7eedE"(%"anchor_lang::prelude::AccountInfo"* %2), !dbg !1141
  br label %bb1, !dbg !1141

bb1:                                              ; preds = %bb2
  ret void, !dbg !1141
}

; core::ptr::drop_in_place<anchor_lang::context::CpiContext<anchor_spl::token::InitializeMint>>
; Function Attrs: nounwind
define void @"_ZN4core3ptr94drop_in_place$LT$anchor_lang..context..CpiContext$LT$anchor_spl..token..InitializeMint$GT$$GT$17hf1526543e6fdceecE"(%"anchor_lang::context::CpiContext<token::InitializeMint>"* %_1) unnamed_addr #1 !dbg !1142 {
start:
  %_1.dbg.spill = alloca %"anchor_lang::context::CpiContext<token::InitializeMint>"*, align 8
  store %"anchor_lang::context::CpiContext<token::InitializeMint>"* %_1, %"anchor_lang::context::CpiContext<token::InitializeMint>"** %_1.dbg.spill, align 8
  call void @llvm.dbg.declare(metadata %"anchor_lang::context::CpiContext<token::InitializeMint>"** %_1.dbg.spill, metadata !1153, metadata !DIExpression()), !dbg !1156
  %0 = bitcast %"anchor_lang::context::CpiContext<token::InitializeMint>"* %_1 to %"token::InitializeMint"*, !dbg !1156
; call core::ptr::drop_in_place<anchor_spl::token::InitializeMint>
  call void @"_ZN4core3ptr54drop_in_place$LT$anchor_spl..token..InitializeMint$GT$17h4880e1dc04ef47a3E"(%"token::InitializeMint"* %0), !dbg !1156
  br label %bb3, !dbg !1156

bb3:                                              ; preds = %start
  %1 = getelementptr inbounds %"anchor_lang::context::CpiContext<token::InitializeMint>", %"anchor_lang::context::CpiContext<token::InitializeMint>"* %_1, i32 0, i32 1, !dbg !1156
; call core::ptr::drop_in_place<alloc::vec::Vec<solana_program::account_info::AccountInfo>>
  call void @"_ZN4core3ptr85drop_in_place$LT$alloc..vec..Vec$LT$solana_program..account_info..AccountInfo$GT$$GT$17h3f65060db2378d0dE"(%"std::vec::Vec<anchor_lang::prelude::AccountInfo>"* %1), !dbg !1156
  br label %bb2, !dbg !1156

bb2:                                              ; preds = %bb3
  %2 = getelementptr inbounds %"anchor_lang::context::CpiContext<token::InitializeMint>", %"anchor_lang::context::CpiContext<token::InitializeMint>"* %_1, i32 0, i32 2, !dbg !1156
; call core::ptr::drop_in_place<solana_program::account_info::AccountInfo>
  call void @"_ZN4core3ptr62drop_in_place$LT$solana_program..account_info..AccountInfo$GT$17h10233615d59e7eedE"(%"anchor_lang::prelude::AccountInfo"* %2), !dbg !1156
  br label %bb1, !dbg !1156

bb1:                                              ; preds = %bb2
  ret void, !dbg !1156
}

; core::ptr::drop_in_place<anchor_lang::context::CpiContext<anchor_spl::token::InitializeAccount>>
; Function Attrs: nounwind
define void @"_ZN4core3ptr97drop_in_place$LT$anchor_lang..context..CpiContext$LT$anchor_spl..token..InitializeAccount$GT$$GT$17h3620ea136f7b20a6E"(%"anchor_lang::context::CpiContext<token::InitializeAccount>"* %_1) unnamed_addr #1 !dbg !1157 {
start:
  %_1.dbg.spill = alloca %"anchor_lang::context::CpiContext<token::InitializeAccount>"*, align 8
  store %"anchor_lang::context::CpiContext<token::InitializeAccount>"* %_1, %"anchor_lang::context::CpiContext<token::InitializeAccount>"** %_1.dbg.spill, align 8
  call void @llvm.dbg.declare(metadata %"anchor_lang::context::CpiContext<token::InitializeAccount>"** %_1.dbg.spill, metadata !1168, metadata !DIExpression()), !dbg !1171
  %0 = bitcast %"anchor_lang::context::CpiContext<token::InitializeAccount>"* %_1 to %"token::InitializeAccount"*, !dbg !1171
; call core::ptr::drop_in_place<anchor_spl::token::InitializeAccount>
  call void @"_ZN4core3ptr57drop_in_place$LT$anchor_spl..token..InitializeAccount$GT$17h38afd97c3c81b012E"(%"token::InitializeAccount"* %0), !dbg !1171
  br label %bb3, !dbg !1171

bb3:                                              ; preds = %start
  %1 = getelementptr inbounds %"anchor_lang::context::CpiContext<token::InitializeAccount>", %"anchor_lang::context::CpiContext<token::InitializeAccount>"* %_1, i32 0, i32 1, !dbg !1171
; call core::ptr::drop_in_place<alloc::vec::Vec<solana_program::account_info::AccountInfo>>
  call void @"_ZN4core3ptr85drop_in_place$LT$alloc..vec..Vec$LT$solana_program..account_info..AccountInfo$GT$$GT$17h3f65060db2378d0dE"(%"std::vec::Vec<anchor_lang::prelude::AccountInfo>"* %1), !dbg !1171
  br label %bb2, !dbg !1171

bb2:                                              ; preds = %bb3
  %2 = getelementptr inbounds %"anchor_lang::context::CpiContext<token::InitializeAccount>", %"anchor_lang::context::CpiContext<token::InitializeAccount>"* %_1, i32 0, i32 2, !dbg !1171
; call core::ptr::drop_in_place<solana_program::account_info::AccountInfo>
  call void @"_ZN4core3ptr62drop_in_place$LT$solana_program..account_info..AccountInfo$GT$17h10233615d59e7eedE"(%"anchor_lang::prelude::AccountInfo"* %2), !dbg !1171
  br label %bb1, !dbg !1171

bb1:                                              ; preds = %bb2
  ret void, !dbg !1171
}

; core::clone::impls::<impl core::clone::Clone for u64>::clone
; Function Attrs: inlinehint nounwind
define internal i64 @"_ZN4core5clone5impls52_$LT$impl$u20$core..clone..Clone$u20$for$u20$u64$GT$5clone17h18940951513bfb0fE"(i64* align 8 dereferenceable(8) %self) unnamed_addr #0 !dbg !1172 {
start:
  %self.dbg.spill = alloca i64*, align 8
  store i64* %self, i64** %self.dbg.spill, align 8
  call void @llvm.dbg.declare(metadata i64** %self.dbg.spill, metadata !1181, metadata !DIExpression()), !dbg !1182
  %0 = load i64, i64* %self, align 8, !dbg !1183
  ret i64 %0, !dbg !1184
}

; core::clone::impls::<impl core::clone::Clone for bool>::clone
; Function Attrs: inlinehint nounwind
define internal zeroext i1 @"_ZN4core5clone5impls53_$LT$impl$u20$core..clone..Clone$u20$for$u20$bool$GT$5clone17hd6d9903a15a4c72eE"(i8* align 1 dereferenceable(1) %self) unnamed_addr #0 !dbg !1185 {
start:
  %self.dbg.spill = alloca i8*, align 8
  store i8* %self, i8** %self.dbg.spill, align 8
  call void @llvm.dbg.declare(metadata i8** %self.dbg.spill, metadata !1191, metadata !DIExpression()), !dbg !1192
  %0 = load i8, i8* %self, align 1, !dbg !1193, !range !1194
  %1 = trunc i8 %0 to i1, !dbg !1193
  ret i1 %1, !dbg !1195
}

; core::option::Option<T>::as_ref
; Function Attrs: inlinehint nounwind
define align 1 dereferenceable_or_null(32) i8* @"_ZN4core6option15Option$LT$T$GT$6as_ref17h970bece9704d5771E"(%"std::option::Option<anchor_lang::prelude::Pubkey>"* align 1 dereferenceable(33) %self) unnamed_addr #0 !dbg !1196 {
start:
  %x.dbg.spill = alloca %"anchor_lang::prelude::Pubkey"*, align 8
  %self.dbg.spill = alloca %"std::option::Option<anchor_lang::prelude::Pubkey>"*, align 8
  %0 = alloca i8*, align 8
  store %"std::option::Option<anchor_lang::prelude::Pubkey>"* %self, %"std::option::Option<anchor_lang::prelude::Pubkey>"** %self.dbg.spill, align 8
  call void @llvm.dbg.declare(metadata %"std::option::Option<anchor_lang::prelude::Pubkey>"** %self.dbg.spill, metadata !1225, metadata !DIExpression()), !dbg !1228
  %1 = bitcast %"std::option::Option<anchor_lang::prelude::Pubkey>"* %self to i8*, !dbg !1229
  %2 = load i8, i8* %1, align 1, !dbg !1229, !range !1194
  %3 = trunc i8 %2 to i1, !dbg !1229
  %_2 = zext i1 %3 to i64, !dbg !1229
  switch i64 %_2, label %bb2 [
    i64 0, label %bb1
    i64 1, label %bb3
  ], !dbg !1230

bb2:                                              ; preds = %start
  unreachable, !dbg !1229

bb1:                                              ; preds = %start
  %4 = bitcast i8** %0 to {}**, !dbg !1231
  store {}* null, {}** %4, align 8, !dbg !1231
  br label %bb4, !dbg !1231

bb3:                                              ; preds = %start
  %5 = bitcast %"std::option::Option<anchor_lang::prelude::Pubkey>"* %self to %"std::option::Option<anchor_lang::prelude::Pubkey>::Some"*, !dbg !1232
  %x = getelementptr inbounds %"std::option::Option<anchor_lang::prelude::Pubkey>::Some", %"std::option::Option<anchor_lang::prelude::Pubkey>::Some"* %5, i32 0, i32 1, !dbg !1232
  store %"anchor_lang::prelude::Pubkey"* %x, %"anchor_lang::prelude::Pubkey"** %x.dbg.spill, align 8, !dbg !1232
  call void @llvm.dbg.declare(metadata %"anchor_lang::prelude::Pubkey"** %x.dbg.spill, metadata !1226, metadata !DIExpression()), !dbg !1233
  %6 = bitcast i8** %0 to %"anchor_lang::prelude::Pubkey"**, !dbg !1234
  store %"anchor_lang::prelude::Pubkey"* %x, %"anchor_lang::prelude::Pubkey"** %6, align 8, !dbg !1234
  br label %bb4, !dbg !1235

bb4:                                              ; preds = %bb1, %bb3
  %7 = load i8*, i8** %0, align 8, !dbg !1236
  ret i8* %7, !dbg !1236
}

; core::option::Option<T>::is_some
; Function Attrs: inlinehint nounwind
define zeroext i1 @"_ZN4core6option15Option$LT$T$GT$7is_some17hefa7de9ca7347ffeE"(%"std::option::Option<anchor_lang::prelude::Pubkey>"* align 1 dereferenceable(33) %self) unnamed_addr #0 !dbg !1237 {
start:
  %self.dbg.spill = alloca %"std::option::Option<anchor_lang::prelude::Pubkey>"*, align 8
  %0 = alloca i8, align 1
  store %"std::option::Option<anchor_lang::prelude::Pubkey>"* %self, %"std::option::Option<anchor_lang::prelude::Pubkey>"** %self.dbg.spill, align 8
  call void @llvm.dbg.declare(metadata %"std::option::Option<anchor_lang::prelude::Pubkey>"** %self.dbg.spill, metadata !1241, metadata !DIExpression()), !dbg !1242
  %1 = bitcast %"std::option::Option<anchor_lang::prelude::Pubkey>"* %self to i8*, !dbg !1243
  %2 = load i8, i8* %1, align 1, !dbg !1243, !range !1194
  %3 = trunc i8 %2 to i1, !dbg !1243
  %_2 = zext i1 %3 to i64, !dbg !1243
  %4 = icmp eq i64 %_2, 1, !dbg !1244
  br i1 %4, label %bb2, label %bb1, !dbg !1244

bb2:                                              ; preds = %start
  store i8 1, i8* %0, align 1, !dbg !1244
  br label %bb3, !dbg !1244

bb1:                                              ; preds = %start
  store i8 0, i8* %0, align 1, !dbg !1244
  br label %bb3, !dbg !1244

bb3:                                              ; preds = %bb2, %bb1
  %5 = load i8, i8* %0, align 1, !dbg !1245, !range !1194
  %6 = trunc i8 %5 to i1, !dbg !1245
  ret i1 %6, !dbg !1245
}

; core::result::Result<T,E>::map
; Function Attrs: inlinehint nounwind
define void @"_ZN4core6result19Result$LT$T$C$E$GT$3map17ha4e017d1d77a3486E"(%"std::result::Result<token::TokenAccount, anchor_lang::prelude::ProgramError>"* noalias nocapture sret(%"std::result::Result<token::TokenAccount, anchor_lang::prelude::ProgramError>") dereferenceable(184) %0, %"std::result::Result<spl_token::state::Account, anchor_lang::prelude::ProgramError>"* noalias nocapture dereferenceable(184) %self) unnamed_addr #0 !dbg !1246 {
start:
  %op.dbg.spill = alloca {}, align 1
  %_11 = alloca i8, align 1
  %_10 = alloca %"anchor_lang::prelude::ProgramError", align 8
  %e = alloca %"anchor_lang::prelude::ProgramError", align 8
  %_8 = alloca %"spl_token::state::Account", align 8
  %_7 = alloca { %"spl_token::state::Account" }, align 8
  %_5 = alloca %"token::TokenAccount", align 8
  %t = alloca %"spl_token::state::Account", align 8
  call void @llvm.dbg.declare(metadata %"std::result::Result<spl_token::state::Account, anchor_lang::prelude::ProgramError>"* %self, metadata !1278, metadata !DIExpression()), !dbg !1287
  call void @llvm.dbg.declare(metadata {}* %op.dbg.spill, metadata !1279, metadata !DIExpression()), !dbg !1288
  call void @llvm.dbg.declare(metadata %"spl_token::state::Account"* %t, metadata !1280, metadata !DIExpression()), !dbg !1289
  call void @llvm.dbg.declare(metadata %"anchor_lang::prelude::ProgramError"* %e, metadata !1282, metadata !DIExpression()), !dbg !1290
  store i8 0, i8* %_11, align 1, !dbg !1291
  store i8 1, i8* %_11, align 1, !dbg !1291
  %1 = bitcast %"std::result::Result<spl_token::state::Account, anchor_lang::prelude::ProgramError>"* %self to i64*, !dbg !1291
  %_3 = load i64, i64* %1, align 8, !dbg !1291, !range !1292
  switch i64 %_3, label %bb2 [
    i64 0, label %bb3
    i64 1, label %bb1
  ], !dbg !1293

bb2:                                              ; preds = %start
  unreachable, !dbg !1291

bb3:                                              ; preds = %start
  %2 = bitcast %"std::result::Result<spl_token::state::Account, anchor_lang::prelude::ProgramError>"* %self to %"std::result::Result<spl_token::state::Account, anchor_lang::prelude::ProgramError>::Ok"*, !dbg !1294
  %3 = getelementptr inbounds %"std::result::Result<spl_token::state::Account, anchor_lang::prelude::ProgramError>::Ok", %"std::result::Result<spl_token::state::Account, anchor_lang::prelude::ProgramError>::Ok"* %2, i32 0, i32 1, !dbg !1294
  %4 = bitcast %"spl_token::state::Account"* %t to i8*, !dbg !1294
  %5 = bitcast %"spl_token::state::Account"* %3 to i8*, !dbg !1294
  call void @llvm.memcpy.p0i8.p0i8.i64(i8* align 8 %4, i8* align 8 %5, i64 176, i1 false), !dbg !1294
  store i8 0, i8* %_11, align 1, !dbg !1295
  %6 = bitcast %"spl_token::state::Account"* %_8 to i8*, !dbg !1296
  %7 = bitcast %"spl_token::state::Account"* %t to i8*, !dbg !1296
  call void @llvm.memcpy.p0i8.p0i8.i64(i8* align 8 %6, i8* align 8 %7, i64 176, i1 false), !dbg !1296
  %8 = bitcast { %"spl_token::state::Account" }* %_7 to %"spl_token::state::Account"*, !dbg !1295
  %9 = bitcast %"spl_token::state::Account"* %8 to i8*, !dbg !1295
  %10 = bitcast %"spl_token::state::Account"* %_8 to i8*, !dbg !1295
  call void @llvm.memcpy.p0i8.p0i8.i64(i8* align 8 %9, i8* align 8 %10, i64 176, i1 false), !dbg !1295
  %11 = bitcast { %"spl_token::state::Account" }* %_7 to %"spl_token::state::Account"*, !dbg !1295
; call core::ops::function::FnOnce::call_once
  call void @_ZN4core3ops8function6FnOnce9call_once17h15a7b3c9a61fc059E(%"token::TokenAccount"* noalias nocapture sret(%"token::TokenAccount") dereferenceable(176) %_5, %"spl_token::state::Account"* noalias nocapture dereferenceable(176) %11), !dbg !1295
  br label %bb4, !dbg !1295

bb1:                                              ; preds = %start
  %12 = bitcast %"std::result::Result<spl_token::state::Account, anchor_lang::prelude::ProgramError>"* %self to %"std::result::Result<spl_token::state::Account, anchor_lang::prelude::ProgramError>::Err"*, !dbg !1297
  %13 = getelementptr inbounds %"std::result::Result<spl_token::state::Account, anchor_lang::prelude::ProgramError>::Err", %"std::result::Result<spl_token::state::Account, anchor_lang::prelude::ProgramError>::Err"* %12, i32 0, i32 1, !dbg !1297
  %14 = bitcast %"anchor_lang::prelude::ProgramError"* %e to i8*, !dbg !1297
  %15 = bitcast %"anchor_lang::prelude::ProgramError"* %13 to i8*, !dbg !1297
  call void @llvm.memcpy.p0i8.p0i8.i64(i8* align 8 %14, i8* align 8 %15, i64 32, i1 false), !dbg !1297
  %16 = bitcast %"anchor_lang::prelude::ProgramError"* %_10 to i8*, !dbg !1298
  %17 = bitcast %"anchor_lang::prelude::ProgramError"* %e to i8*, !dbg !1298
  call void @llvm.memcpy.p0i8.p0i8.i64(i8* align 8 %16, i8* align 8 %17, i64 32, i1 false), !dbg !1298
  %18 = bitcast %"std::result::Result<token::TokenAccount, anchor_lang::prelude::ProgramError>"* %0 to %"std::result::Result<token::TokenAccount, anchor_lang::prelude::ProgramError>::Err"*, !dbg !1299
  %19 = getelementptr inbounds %"std::result::Result<token::TokenAccount, anchor_lang::prelude::ProgramError>::Err", %"std::result::Result<token::TokenAccount, anchor_lang::prelude::ProgramError>::Err"* %18, i32 0, i32 1, !dbg !1299
  %20 = bitcast %"anchor_lang::prelude::ProgramError"* %19 to i8*, !dbg !1299
  %21 = bitcast %"anchor_lang::prelude::ProgramError"* %_10 to i8*, !dbg !1299
  call void @llvm.memcpy.p0i8.p0i8.i64(i8* align 8 %20, i8* align 8 %21, i64 32, i1 false), !dbg !1299
  %22 = bitcast %"std::result::Result<token::TokenAccount, anchor_lang::prelude::ProgramError>"* %0 to i64*, !dbg !1299
  store i64 1, i64* %22, align 8, !dbg !1299
  br label %bb5, !dbg !1300

bb5:                                              ; preds = %bb4, %bb1
  %23 = load i8, i8* %_11, align 1, !dbg !1301, !range !1194
  %24 = trunc i8 %23 to i1, !dbg !1301
  br i1 %24, label %bb7, label %bb6, !dbg !1301

bb4:                                              ; preds = %bb3
  %25 = bitcast %"std::result::Result<token::TokenAccount, anchor_lang::prelude::ProgramError>"* %0 to %"std::result::Result<token::TokenAccount, anchor_lang::prelude::ProgramError>::Ok"*, !dbg !1302
  %26 = getelementptr inbounds %"std::result::Result<token::TokenAccount, anchor_lang::prelude::ProgramError>::Ok", %"std::result::Result<token::TokenAccount, anchor_lang::prelude::ProgramError>::Ok"* %25, i32 0, i32 1, !dbg !1302
  %27 = bitcast %"token::TokenAccount"* %26 to i8*, !dbg !1302
  %28 = bitcast %"token::TokenAccount"* %_5 to i8*, !dbg !1302
  call void @llvm.memcpy.p0i8.p0i8.i64(i8* align 8 %27, i8* align 8 %28, i64 176, i1 false), !dbg !1302
  %29 = bitcast %"std::result::Result<token::TokenAccount, anchor_lang::prelude::ProgramError>"* %0 to i64*, !dbg !1302
  store i64 0, i64* %29, align 8, !dbg !1302
  br label %bb5, !dbg !1303

bb6:                                              ; preds = %bb7, %bb5
  ret void, !dbg !1304

bb7:                                              ; preds = %bb5
  br label %bb6, !dbg !1301
}

; core::result::Result<T,E>::map
; Function Attrs: inlinehint nounwind
define void @"_ZN4core6result19Result$LT$T$C$E$GT$3map17hb1cad63b636dd641E"(%"std::result::Result<token::Mint, anchor_lang::prelude::ProgramError>"* noalias nocapture sret(%"std::result::Result<token::Mint, anchor_lang::prelude::ProgramError>") dereferenceable(96) %0, %"std::result::Result<spl_token::state::Mint, anchor_lang::prelude::ProgramError>"* noalias nocapture dereferenceable(96) %self) unnamed_addr #0 !dbg !1305 {
start:
  %op.dbg.spill = alloca {}, align 1
  %_11 = alloca i8, align 1
  %_10 = alloca %"anchor_lang::prelude::ProgramError", align 8
  %e = alloca %"anchor_lang::prelude::ProgramError", align 8
  %_8 = alloca %"spl_token::state::Mint", align 8
  %_7 = alloca { %"spl_token::state::Mint" }, align 8
  %_5 = alloca %"token::Mint", align 8
  %t = alloca %"spl_token::state::Mint", align 8
  call void @llvm.dbg.declare(metadata %"std::result::Result<spl_token::state::Mint, anchor_lang::prelude::ProgramError>"* %self, metadata !1337, metadata !DIExpression()), !dbg !1346
  call void @llvm.dbg.declare(metadata {}* %op.dbg.spill, metadata !1338, metadata !DIExpression()), !dbg !1347
  call void @llvm.dbg.declare(metadata %"spl_token::state::Mint"* %t, metadata !1339, metadata !DIExpression()), !dbg !1348
  call void @llvm.dbg.declare(metadata %"anchor_lang::prelude::ProgramError"* %e, metadata !1341, metadata !DIExpression()), !dbg !1349
  store i8 0, i8* %_11, align 1, !dbg !1350
  store i8 1, i8* %_11, align 1, !dbg !1350
  %1 = bitcast %"std::result::Result<spl_token::state::Mint, anchor_lang::prelude::ProgramError>"* %self to i64*, !dbg !1350
  %_3 = load i64, i64* %1, align 8, !dbg !1350, !range !1292
  switch i64 %_3, label %bb2 [
    i64 0, label %bb3
    i64 1, label %bb1
  ], !dbg !1351

bb2:                                              ; preds = %start
  unreachable, !dbg !1350

bb3:                                              ; preds = %start
  %2 = bitcast %"std::result::Result<spl_token::state::Mint, anchor_lang::prelude::ProgramError>"* %self to %"std::result::Result<spl_token::state::Mint, anchor_lang::prelude::ProgramError>::Ok"*, !dbg !1352
  %3 = getelementptr inbounds %"std::result::Result<spl_token::state::Mint, anchor_lang::prelude::ProgramError>::Ok", %"std::result::Result<spl_token::state::Mint, anchor_lang::prelude::ProgramError>::Ok"* %2, i32 0, i32 1, !dbg !1352
  %4 = bitcast %"spl_token::state::Mint"* %t to i8*, !dbg !1352
  %5 = bitcast %"spl_token::state::Mint"* %3 to i8*, !dbg !1352
  call void @llvm.memcpy.p0i8.p0i8.i64(i8* align 8 %4, i8* align 8 %5, i64 88, i1 false), !dbg !1352
  store i8 0, i8* %_11, align 1, !dbg !1353
  %6 = bitcast %"spl_token::state::Mint"* %_8 to i8*, !dbg !1354
  %7 = bitcast %"spl_token::state::Mint"* %t to i8*, !dbg !1354
  call void @llvm.memcpy.p0i8.p0i8.i64(i8* align 8 %6, i8* align 8 %7, i64 88, i1 false), !dbg !1354
  %8 = bitcast { %"spl_token::state::Mint" }* %_7 to %"spl_token::state::Mint"*, !dbg !1353
  %9 = bitcast %"spl_token::state::Mint"* %8 to i8*, !dbg !1353
  %10 = bitcast %"spl_token::state::Mint"* %_8 to i8*, !dbg !1353
  call void @llvm.memcpy.p0i8.p0i8.i64(i8* align 8 %9, i8* align 8 %10, i64 88, i1 false), !dbg !1353
  %11 = bitcast { %"spl_token::state::Mint" }* %_7 to %"spl_token::state::Mint"*, !dbg !1353
; call core::ops::function::FnOnce::call_once
  call void @_ZN4core3ops8function6FnOnce9call_once17h480cdf64702e7129E(%"token::Mint"* noalias nocapture sret(%"token::Mint") dereferenceable(88) %_5, %"spl_token::state::Mint"* noalias nocapture dereferenceable(88) %11), !dbg !1353
  br label %bb4, !dbg !1353

bb1:                                              ; preds = %start
  %12 = bitcast %"std::result::Result<spl_token::state::Mint, anchor_lang::prelude::ProgramError>"* %self to %"std::result::Result<spl_token::state::Mint, anchor_lang::prelude::ProgramError>::Err"*, !dbg !1355
  %13 = getelementptr inbounds %"std::result::Result<spl_token::state::Mint, anchor_lang::prelude::ProgramError>::Err", %"std::result::Result<spl_token::state::Mint, anchor_lang::prelude::ProgramError>::Err"* %12, i32 0, i32 1, !dbg !1355
  %14 = bitcast %"anchor_lang::prelude::ProgramError"* %e to i8*, !dbg !1355
  %15 = bitcast %"anchor_lang::prelude::ProgramError"* %13 to i8*, !dbg !1355
  call void @llvm.memcpy.p0i8.p0i8.i64(i8* align 8 %14, i8* align 8 %15, i64 32, i1 false), !dbg !1355
  %16 = bitcast %"anchor_lang::prelude::ProgramError"* %_10 to i8*, !dbg !1356
  %17 = bitcast %"anchor_lang::prelude::ProgramError"* %e to i8*, !dbg !1356
  call void @llvm.memcpy.p0i8.p0i8.i64(i8* align 8 %16, i8* align 8 %17, i64 32, i1 false), !dbg !1356
  %18 = bitcast %"std::result::Result<token::Mint, anchor_lang::prelude::ProgramError>"* %0 to %"std::result::Result<token::Mint, anchor_lang::prelude::ProgramError>::Err"*, !dbg !1357
  %19 = getelementptr inbounds %"std::result::Result<token::Mint, anchor_lang::prelude::ProgramError>::Err", %"std::result::Result<token::Mint, anchor_lang::prelude::ProgramError>::Err"* %18, i32 0, i32 1, !dbg !1357
  %20 = bitcast %"anchor_lang::prelude::ProgramError"* %19 to i8*, !dbg !1357
  %21 = bitcast %"anchor_lang::prelude::ProgramError"* %_10 to i8*, !dbg !1357
  call void @llvm.memcpy.p0i8.p0i8.i64(i8* align 8 %20, i8* align 8 %21, i64 32, i1 false), !dbg !1357
  %22 = bitcast %"std::result::Result<token::Mint, anchor_lang::prelude::ProgramError>"* %0 to i64*, !dbg !1357
  store i64 1, i64* %22, align 8, !dbg !1357
  br label %bb5, !dbg !1358

bb5:                                              ; preds = %bb4, %bb1
  %23 = load i8, i8* %_11, align 1, !dbg !1359, !range !1194
  %24 = trunc i8 %23 to i1, !dbg !1359
  br i1 %24, label %bb7, label %bb6, !dbg !1359

bb4:                                              ; preds = %bb3
  %25 = bitcast %"std::result::Result<token::Mint, anchor_lang::prelude::ProgramError>"* %0 to %"std::result::Result<token::Mint, anchor_lang::prelude::ProgramError>::Ok"*, !dbg !1360
  %26 = getelementptr inbounds %"std::result::Result<token::Mint, anchor_lang::prelude::ProgramError>::Ok", %"std::result::Result<token::Mint, anchor_lang::prelude::ProgramError>::Ok"* %25, i32 0, i32 1, !dbg !1360
  %27 = bitcast %"token::Mint"* %26 to i8*, !dbg !1360
  %28 = bitcast %"token::Mint"* %_5 to i8*, !dbg !1360
  call void @llvm.memcpy.p0i8.p0i8.i64(i8* align 8 %27, i8* align 8 %28, i64 88, i1 false), !dbg !1360
  %29 = bitcast %"std::result::Result<token::Mint, anchor_lang::prelude::ProgramError>"* %0 to i64*, !dbg !1360
  store i64 0, i64* %29, align 8, !dbg !1360
  br label %bb5, !dbg !1361

bb6:                                              ; preds = %bb7, %bb5
  ret void, !dbg !1362

bb7:                                              ; preds = %bb5
  br label %bb6, !dbg !1359
}

; core::result::Result<T,E>::map_err
; Function Attrs: inlinehint nounwind
define void @"_ZN4core6result19Result$LT$T$C$E$GT$7map_err17h03087fbf4e7ff2d9E"(%"std::result::Result<anchor_lang::prelude::AccountInfo, anchor_lang::error::Error>"* noalias nocapture sret(%"std::result::Result<anchor_lang::prelude::AccountInfo, anchor_lang::error::Error>") dereferenceable(120) %0, %"std::result::Result<anchor_lang::prelude::AccountInfo, anchor_lang::error::Error>"* noalias nocapture dereferenceable(120) %self) unnamed_addr #0 !dbg !1363 {
start:
  %op.dbg.spill = alloca %"[closure@/home/seaceved/.cargo/registry/src/github.com-1ecc6299db9ec823/anchor-spl-0.22.0/src/token.rs:273:10: 273:18]", align 1
  %_11 = alloca i8, align 1
  %_10 = alloca %"anchor_lang::error::Error", align 8
  %_9 = alloca { %"anchor_lang::error::Error" }, align 8
  %_7 = alloca %"anchor_lang::error::Error", align 8
  %e = alloca %"anchor_lang::error::Error", align 8
  %_5 = alloca %"anchor_lang::prelude::AccountInfo", align 8
  %t = alloca %"anchor_lang::prelude::AccountInfo", align 8
  call void @llvm.dbg.declare(metadata %"std::result::Result<anchor_lang::prelude::AccountInfo, anchor_lang::error::Error>"* %self, metadata !1383, metadata !DIExpression()), !dbg !1391
  call void @llvm.dbg.declare(metadata %"[closure@/home/seaceved/.cargo/registry/src/github.com-1ecc6299db9ec823/anchor-spl-0.22.0/src/token.rs:273:10: 273:18]"* %op.dbg.spill, metadata !1384, metadata !DIExpression()), !dbg !1392
  call void @llvm.dbg.declare(metadata %"anchor_lang::prelude::AccountInfo"* %t, metadata !1385, metadata !DIExpression()), !dbg !1393
  call void @llvm.dbg.declare(metadata %"anchor_lang::error::Error"* %e, metadata !1387, metadata !DIExpression()), !dbg !1394
  store i8 0, i8* %_11, align 1, !dbg !1395
  store i8 1, i8* %_11, align 1, !dbg !1395
  %1 = bitcast %"std::result::Result<anchor_lang::prelude::AccountInfo, anchor_lang::error::Error>"* %self to i64*, !dbg !1395
  %_3 = load i64, i64* %1, align 8, !dbg !1395, !range !1292
  switch i64 %_3, label %bb2 [
    i64 0, label %bb3
    i64 1, label %bb1
  ], !dbg !1396

bb2:                                              ; preds = %start
  unreachable, !dbg !1395

bb3:                                              ; preds = %start
  %2 = bitcast %"std::result::Result<anchor_lang::prelude::AccountInfo, anchor_lang::error::Error>"* %self to %"std::result::Result<anchor_lang::prelude::AccountInfo, anchor_lang::error::Error>::Ok"*, !dbg !1397
  %3 = getelementptr inbounds %"std::result::Result<anchor_lang::prelude::AccountInfo, anchor_lang::error::Error>::Ok", %"std::result::Result<anchor_lang::prelude::AccountInfo, anchor_lang::error::Error>::Ok"* %2, i32 0, i32 1, !dbg !1397
  %4 = bitcast %"anchor_lang::prelude::AccountInfo"* %t to i8*, !dbg !1397
  %5 = bitcast %"anchor_lang::prelude::AccountInfo"* %3 to i8*, !dbg !1397
  call void @llvm.memcpy.p0i8.p0i8.i64(i8* align 8 %4, i8* align 8 %5, i64 48, i1 false), !dbg !1397
  %6 = bitcast %"anchor_lang::prelude::AccountInfo"* %_5 to i8*, !dbg !1398
  %7 = bitcast %"anchor_lang::prelude::AccountInfo"* %t to i8*, !dbg !1398
  call void @llvm.memcpy.p0i8.p0i8.i64(i8* align 8 %6, i8* align 8 %7, i64 48, i1 false), !dbg !1398
  %8 = bitcast %"std::result::Result<anchor_lang::prelude::AccountInfo, anchor_lang::error::Error>"* %0 to %"std::result::Result<anchor_lang::prelude::AccountInfo, anchor_lang::error::Error>::Ok"*, !dbg !1399
  %9 = getelementptr inbounds %"std::result::Result<anchor_lang::prelude::AccountInfo, anchor_lang::error::Error>::Ok", %"std::result::Result<anchor_lang::prelude::AccountInfo, anchor_lang::error::Error>::Ok"* %8, i32 0, i32 1, !dbg !1399
  %10 = bitcast %"anchor_lang::prelude::AccountInfo"* %9 to i8*, !dbg !1399
  %11 = bitcast %"anchor_lang::prelude::AccountInfo"* %_5 to i8*, !dbg !1399
  call void @llvm.memcpy.p0i8.p0i8.i64(i8* align 8 %10, i8* align 8 %11, i64 48, i1 false), !dbg !1399
  %12 = bitcast %"std::result::Result<anchor_lang::prelude::AccountInfo, anchor_lang::error::Error>"* %0 to i64*, !dbg !1399
  store i64 0, i64* %12, align 8, !dbg !1399
  br label %bb5, !dbg !1400

bb1:                                              ; preds = %start
  %13 = bitcast %"std::result::Result<anchor_lang::prelude::AccountInfo, anchor_lang::error::Error>"* %self to %"std::result::Result<anchor_lang::prelude::AccountInfo, anchor_lang::error::Error>::Err"*, !dbg !1401
  %14 = getelementptr inbounds %"std::result::Result<anchor_lang::prelude::AccountInfo, anchor_lang::error::Error>::Err", %"std::result::Result<anchor_lang::prelude::AccountInfo, anchor_lang::error::Error>::Err"* %13, i32 0, i32 1, !dbg !1401
  %15 = bitcast %"anchor_lang::error::Error"* %e to i8*, !dbg !1401
  %16 = bitcast %"anchor_lang::error::Error"* %14 to i8*, !dbg !1401
  call void @llvm.memcpy.p0i8.p0i8.i64(i8* align 8 %15, i8* align 8 %16, i64 112, i1 false), !dbg !1401
  store i8 0, i8* %_11, align 1, !dbg !1402
  %17 = bitcast %"anchor_lang::error::Error"* %_10 to i8*, !dbg !1403
  %18 = bitcast %"anchor_lang::error::Error"* %e to i8*, !dbg !1403
  call void @llvm.memcpy.p0i8.p0i8.i64(i8* align 8 %17, i8* align 8 %18, i64 112, i1 false), !dbg !1403
  %19 = bitcast { %"anchor_lang::error::Error" }* %_9 to %"anchor_lang::error::Error"*, !dbg !1402
  %20 = bitcast %"anchor_lang::error::Error"* %19 to i8*, !dbg !1402
  %21 = bitcast %"anchor_lang::error::Error"* %_10 to i8*, !dbg !1402
  call void @llvm.memcpy.p0i8.p0i8.i64(i8* align 8 %20, i8* align 8 %21, i64 112, i1 false), !dbg !1402
  %22 = bitcast { %"anchor_lang::error::Error" }* %_9 to %"anchor_lang::error::Error"*, !dbg !1402
; call <anchor_spl::token::InitializeAccount as anchor_lang::Accounts>::try_accounts::{{closure}}
  call void @"_ZN78_$LT$anchor_spl..token..InitializeAccount$u20$as$u20$anchor_lang..Accounts$GT$12try_accounts28_$u7b$$u7b$closure$u7d$$u7d$17h35a85ace99e9bcb8E"(%"anchor_lang::error::Error"* noalias nocapture sret(%"anchor_lang::error::Error") dereferenceable(112) %_7, %"anchor_lang::error::Error"* noalias nocapture dereferenceable(112) %22), !dbg !1402
  br label %bb4, !dbg !1402

bb4:                                              ; preds = %bb1
  %23 = bitcast %"std::result::Result<anchor_lang::prelude::AccountInfo, anchor_lang::error::Error>"* %0 to %"std::result::Result<anchor_lang::prelude::AccountInfo, anchor_lang::error::Error>::Err"*, !dbg !1404
  %24 = getelementptr inbounds %"std::result::Result<anchor_lang::prelude::AccountInfo, anchor_lang::error::Error>::Err", %"std::result::Result<anchor_lang::prelude::AccountInfo, anchor_lang::error::Error>::Err"* %23, i32 0, i32 1, !dbg !1404
  %25 = bitcast %"anchor_lang::error::Error"* %24 to i8*, !dbg !1404
  %26 = bitcast %"anchor_lang::error::Error"* %_7 to i8*, !dbg !1404
  call void @llvm.memcpy.p0i8.p0i8.i64(i8* align 8 %25, i8* align 8 %26, i64 112, i1 false), !dbg !1404
  %27 = bitcast %"std::result::Result<anchor_lang::prelude::AccountInfo, anchor_lang::error::Error>"* %0 to i64*, !dbg !1404
  store i64 1, i64* %27, align 8, !dbg !1404
  br label %bb5, !dbg !1405

bb5:                                              ; preds = %bb3, %bb4
  %28 = load i8, i8* %_11, align 1, !dbg !1406, !range !1194
  %29 = trunc i8 %28 to i1, !dbg !1406
  br i1 %29, label %bb7, label %bb6, !dbg !1406

bb6:                                              ; preds = %bb7, %bb5
  ret void, !dbg !1407

bb7:                                              ; preds = %bb5
  br label %bb6, !dbg !1406
}

; core::result::Result<T,E>::map_err
; Function Attrs: inlinehint nounwind
define void @"_ZN4core6result19Result$LT$T$C$E$GT$7map_err17h0395a2219ce64d99E"(%"std::result::Result<anchor_lang::prelude::AccountInfo, anchor_lang::error::Error>"* noalias nocapture sret(%"std::result::Result<anchor_lang::prelude::AccountInfo, anchor_lang::error::Error>") dereferenceable(120) %0, %"std::result::Result<anchor_lang::prelude::AccountInfo, anchor_lang::error::Error>"* noalias nocapture dereferenceable(120) %self) unnamed_addr #0 !dbg !1408 {
start:
  %op.dbg.spill = alloca %"[closure@/home/seaceved/.cargo/registry/src/github.com-1ecc6299db9ec823/anchor-spl-0.22.0/src/token.rs:288:10: 288:18]", align 1
  %_11 = alloca i8, align 1
  %_10 = alloca %"anchor_lang::error::Error", align 8
  %_9 = alloca { %"anchor_lang::error::Error" }, align 8
  %_7 = alloca %"anchor_lang::error::Error", align 8
  %e = alloca %"anchor_lang::error::Error", align 8
  %_5 = alloca %"anchor_lang::prelude::AccountInfo", align 8
  %t = alloca %"anchor_lang::prelude::AccountInfo", align 8
  call void @llvm.dbg.declare(metadata %"std::result::Result<anchor_lang::prelude::AccountInfo, anchor_lang::error::Error>"* %self, metadata !1415, metadata !DIExpression()), !dbg !1423
  call void @llvm.dbg.declare(metadata %"[closure@/home/seaceved/.cargo/registry/src/github.com-1ecc6299db9ec823/anchor-spl-0.22.0/src/token.rs:288:10: 288:18]"* %op.dbg.spill, metadata !1416, metadata !DIExpression()), !dbg !1424
  call void @llvm.dbg.declare(metadata %"anchor_lang::prelude::AccountInfo"* %t, metadata !1417, metadata !DIExpression()), !dbg !1425
  call void @llvm.dbg.declare(metadata %"anchor_lang::error::Error"* %e, metadata !1419, metadata !DIExpression()), !dbg !1426
  store i8 0, i8* %_11, align 1, !dbg !1427
  store i8 1, i8* %_11, align 1, !dbg !1427
  %1 = bitcast %"std::result::Result<anchor_lang::prelude::AccountInfo, anchor_lang::error::Error>"* %self to i64*, !dbg !1427
  %_3 = load i64, i64* %1, align 8, !dbg !1427, !range !1292
  switch i64 %_3, label %bb2 [
    i64 0, label %bb3
    i64 1, label %bb1
  ], !dbg !1428

bb2:                                              ; preds = %start
  unreachable, !dbg !1427

bb3:                                              ; preds = %start
  %2 = bitcast %"std::result::Result<anchor_lang::prelude::AccountInfo, anchor_lang::error::Error>"* %self to %"std::result::Result<anchor_lang::prelude::AccountInfo, anchor_lang::error::Error>::Ok"*, !dbg !1429
  %3 = getelementptr inbounds %"std::result::Result<anchor_lang::prelude::AccountInfo, anchor_lang::error::Error>::Ok", %"std::result::Result<anchor_lang::prelude::AccountInfo, anchor_lang::error::Error>::Ok"* %2, i32 0, i32 1, !dbg !1429
  %4 = bitcast %"anchor_lang::prelude::AccountInfo"* %t to i8*, !dbg !1429
  %5 = bitcast %"anchor_lang::prelude::AccountInfo"* %3 to i8*, !dbg !1429
  call void @llvm.memcpy.p0i8.p0i8.i64(i8* align 8 %4, i8* align 8 %5, i64 48, i1 false), !dbg !1429
  %6 = bitcast %"anchor_lang::prelude::AccountInfo"* %_5 to i8*, !dbg !1430
  %7 = bitcast %"anchor_lang::prelude::AccountInfo"* %t to i8*, !dbg !1430
  call void @llvm.memcpy.p0i8.p0i8.i64(i8* align 8 %6, i8* align 8 %7, i64 48, i1 false), !dbg !1430
  %8 = bitcast %"std::result::Result<anchor_lang::prelude::AccountInfo, anchor_lang::error::Error>"* %0 to %"std::result::Result<anchor_lang::prelude::AccountInfo, anchor_lang::error::Error>::Ok"*, !dbg !1431
  %9 = getelementptr inbounds %"std::result::Result<anchor_lang::prelude::AccountInfo, anchor_lang::error::Error>::Ok", %"std::result::Result<anchor_lang::prelude::AccountInfo, anchor_lang::error::Error>::Ok"* %8, i32 0, i32 1, !dbg !1431
  %10 = bitcast %"anchor_lang::prelude::AccountInfo"* %9 to i8*, !dbg !1431
  %11 = bitcast %"anchor_lang::prelude::AccountInfo"* %_5 to i8*, !dbg !1431
  call void @llvm.memcpy.p0i8.p0i8.i64(i8* align 8 %10, i8* align 8 %11, i64 48, i1 false), !dbg !1431
  %12 = bitcast %"std::result::Result<anchor_lang::prelude::AccountInfo, anchor_lang::error::Error>"* %0 to i64*, !dbg !1431
  store i64 0, i64* %12, align 8, !dbg !1431
  br label %bb5, !dbg !1432

bb1:                                              ; preds = %start
  %13 = bitcast %"std::result::Result<anchor_lang::prelude::AccountInfo, anchor_lang::error::Error>"* %self to %"std::result::Result<anchor_lang::prelude::AccountInfo, anchor_lang::error::Error>::Err"*, !dbg !1433
  %14 = getelementptr inbounds %"std::result::Result<anchor_lang::prelude::AccountInfo, anchor_lang::error::Error>::Err", %"std::result::Result<anchor_lang::prelude::AccountInfo, anchor_lang::error::Error>::Err"* %13, i32 0, i32 1, !dbg !1433
  %15 = bitcast %"anchor_lang::error::Error"* %e to i8*, !dbg !1433
  %16 = bitcast %"anchor_lang::error::Error"* %14 to i8*, !dbg !1433
  call void @llvm.memcpy.p0i8.p0i8.i64(i8* align 8 %15, i8* align 8 %16, i64 112, i1 false), !dbg !1433
  store i8 0, i8* %_11, align 1, !dbg !1434
  %17 = bitcast %"anchor_lang::error::Error"* %_10 to i8*, !dbg !1435
  %18 = bitcast %"anchor_lang::error::Error"* %e to i8*, !dbg !1435
  call void @llvm.memcpy.p0i8.p0i8.i64(i8* align 8 %17, i8* align 8 %18, i64 112, i1 false), !dbg !1435
  %19 = bitcast { %"anchor_lang::error::Error" }* %_9 to %"anchor_lang::error::Error"*, !dbg !1434
  %20 = bitcast %"anchor_lang::error::Error"* %19 to i8*, !dbg !1434
  %21 = bitcast %"anchor_lang::error::Error"* %_10 to i8*, !dbg !1434
  call void @llvm.memcpy.p0i8.p0i8.i64(i8* align 8 %20, i8* align 8 %21, i64 112, i1 false), !dbg !1434
  %22 = bitcast { %"anchor_lang::error::Error" }* %_9 to %"anchor_lang::error::Error"*, !dbg !1434
; call <anchor_spl::token::FreezeAccount as anchor_lang::Accounts>::try_accounts::{{closure}}
  call void @"_ZN74_$LT$anchor_spl..token..FreezeAccount$u20$as$u20$anchor_lang..Accounts$GT$12try_accounts28_$u7b$$u7b$closure$u7d$$u7d$17hf2cbd38df18a2b42E"(%"anchor_lang::error::Error"* noalias nocapture sret(%"anchor_lang::error::Error") dereferenceable(112) %_7, %"anchor_lang::error::Error"* noalias nocapture dereferenceable(112) %22), !dbg !1434
  br label %bb4, !dbg !1434

bb4:                                              ; preds = %bb1
  %23 = bitcast %"std::result::Result<anchor_lang::prelude::AccountInfo, anchor_lang::error::Error>"* %0 to %"std::result::Result<anchor_lang::prelude::AccountInfo, anchor_lang::error::Error>::Err"*, !dbg !1436
  %24 = getelementptr inbounds %"std::result::Result<anchor_lang::prelude::AccountInfo, anchor_lang::error::Error>::Err", %"std::result::Result<anchor_lang::prelude::AccountInfo, anchor_lang::error::Error>::Err"* %23, i32 0, i32 1, !dbg !1436
  %25 = bitcast %"anchor_lang::error::Error"* %24 to i8*, !dbg !1436
  %26 = bitcast %"anchor_lang::error::Error"* %_7 to i8*, !dbg !1436
  call void @llvm.memcpy.p0i8.p0i8.i64(i8* align 8 %25, i8* align 8 %26, i64 112, i1 false), !dbg !1436
  %27 = bitcast %"std::result::Result<anchor_lang::prelude::AccountInfo, anchor_lang::error::Error>"* %0 to i64*, !dbg !1436
  store i64 1, i64* %27, align 8, !dbg !1436
  br label %bb5, !dbg !1437

bb5:                                              ; preds = %bb3, %bb4
  %28 = load i8, i8* %_11, align 1, !dbg !1438, !range !1194
  %29 = trunc i8 %28 to i1, !dbg !1438
  br i1 %29, label %bb7, label %bb6, !dbg !1438

bb6:                                              ; preds = %bb7, %bb5
  ret void, !dbg !1439

bb7:                                              ; preds = %bb5
  br label %bb6, !dbg !1438
}

; core::result::Result<T,E>::map_err
; Function Attrs: inlinehint nounwind
define void @"_ZN4core6result19Result$LT$T$C$E$GT$7map_err17h140c78e94421cf55E"(%"std::result::Result<anchor_lang::prelude::AccountInfo, anchor_lang::error::Error>"* noalias nocapture sret(%"std::result::Result<anchor_lang::prelude::AccountInfo, anchor_lang::error::Error>") dereferenceable(120) %0, %"std::result::Result<anchor_lang::prelude::AccountInfo, anchor_lang::error::Error>"* noalias nocapture dereferenceable(120) %self) unnamed_addr #0 !dbg !1440 {
start:
  %op.dbg.spill = alloca %"[closure@/home/seaceved/.cargo/registry/src/github.com-1ecc6299db9ec823/anchor-spl-0.22.0/src/token.rs:288:10: 288:18].0", align 1
  %_11 = alloca i8, align 1
  %_10 = alloca %"anchor_lang::error::Error", align 8
  %_9 = alloca { %"anchor_lang::error::Error" }, align 8
  %_7 = alloca %"anchor_lang::error::Error", align 8
  %e = alloca %"anchor_lang::error::Error", align 8
  %_5 = alloca %"anchor_lang::prelude::AccountInfo", align 8
  %t = alloca %"anchor_lang::prelude::AccountInfo", align 8
  call void @llvm.dbg.declare(metadata %"std::result::Result<anchor_lang::prelude::AccountInfo, anchor_lang::error::Error>"* %self, metadata !1445, metadata !DIExpression()), !dbg !1453
  call void @llvm.dbg.declare(metadata %"[closure@/home/seaceved/.cargo/registry/src/github.com-1ecc6299db9ec823/anchor-spl-0.22.0/src/token.rs:288:10: 288:18].0"* %op.dbg.spill, metadata !1446, metadata !DIExpression()), !dbg !1454
  call void @llvm.dbg.declare(metadata %"anchor_lang::prelude::AccountInfo"* %t, metadata !1447, metadata !DIExpression()), !dbg !1455
  call void @llvm.dbg.declare(metadata %"anchor_lang::error::Error"* %e, metadata !1449, metadata !DIExpression()), !dbg !1456
  store i8 0, i8* %_11, align 1, !dbg !1457
  store i8 1, i8* %_11, align 1, !dbg !1457
  %1 = bitcast %"std::result::Result<anchor_lang::prelude::AccountInfo, anchor_lang::error::Error>"* %self to i64*, !dbg !1457
  %_3 = load i64, i64* %1, align 8, !dbg !1457, !range !1292
  switch i64 %_3, label %bb2 [
    i64 0, label %bb3
    i64 1, label %bb1
  ], !dbg !1458

bb2:                                              ; preds = %start
  unreachable, !dbg !1457

bb3:                                              ; preds = %start
  %2 = bitcast %"std::result::Result<anchor_lang::prelude::AccountInfo, anchor_lang::error::Error>"* %self to %"std::result::Result<anchor_lang::prelude::AccountInfo, anchor_lang::error::Error>::Ok"*, !dbg !1459
  %3 = getelementptr inbounds %"std::result::Result<anchor_lang::prelude::AccountInfo, anchor_lang::error::Error>::Ok", %"std::result::Result<anchor_lang::prelude::AccountInfo, anchor_lang::error::Error>::Ok"* %2, i32 0, i32 1, !dbg !1459
  %4 = bitcast %"anchor_lang::prelude::AccountInfo"* %t to i8*, !dbg !1459
  %5 = bitcast %"anchor_lang::prelude::AccountInfo"* %3 to i8*, !dbg !1459
  call void @llvm.memcpy.p0i8.p0i8.i64(i8* align 8 %4, i8* align 8 %5, i64 48, i1 false), !dbg !1459
  %6 = bitcast %"anchor_lang::prelude::AccountInfo"* %_5 to i8*, !dbg !1460
  %7 = bitcast %"anchor_lang::prelude::AccountInfo"* %t to i8*, !dbg !1460
  call void @llvm.memcpy.p0i8.p0i8.i64(i8* align 8 %6, i8* align 8 %7, i64 48, i1 false), !dbg !1460
  %8 = bitcast %"std::result::Result<anchor_lang::prelude::AccountInfo, anchor_lang::error::Error>"* %0 to %"std::result::Result<anchor_lang::prelude::AccountInfo, anchor_lang::error::Error>::Ok"*, !dbg !1461
  %9 = getelementptr inbounds %"std::result::Result<anchor_lang::prelude::AccountInfo, anchor_lang::error::Error>::Ok", %"std::result::Result<anchor_lang::prelude::AccountInfo, anchor_lang::error::Error>::Ok"* %8, i32 0, i32 1, !dbg !1461
  %10 = bitcast %"anchor_lang::prelude::AccountInfo"* %9 to i8*, !dbg !1461
  %11 = bitcast %"anchor_lang::prelude::AccountInfo"* %_5 to i8*, !dbg !1461
  call void @llvm.memcpy.p0i8.p0i8.i64(i8* align 8 %10, i8* align 8 %11, i64 48, i1 false), !dbg !1461
  %12 = bitcast %"std::result::Result<anchor_lang::prelude::AccountInfo, anchor_lang::error::Error>"* %0 to i64*, !dbg !1461
  store i64 0, i64* %12, align 8, !dbg !1461
  br label %bb5, !dbg !1462

bb1:                                              ; preds = %start
  %13 = bitcast %"std::result::Result<anchor_lang::prelude::AccountInfo, anchor_lang::error::Error>"* %self to %"std::result::Result<anchor_lang::prelude::AccountInfo, anchor_lang::error::Error>::Err"*, !dbg !1463
  %14 = getelementptr inbounds %"std::result::Result<anchor_lang::prelude::AccountInfo, anchor_lang::error::Error>::Err", %"std::result::Result<anchor_lang::prelude::AccountInfo, anchor_lang::error::Error>::Err"* %13, i32 0, i32 1, !dbg !1463
  %15 = bitcast %"anchor_lang::error::Error"* %e to i8*, !dbg !1463
  %16 = bitcast %"anchor_lang::error::Error"* %14 to i8*, !dbg !1463
  call void @llvm.memcpy.p0i8.p0i8.i64(i8* align 8 %15, i8* align 8 %16, i64 112, i1 false), !dbg !1463
  store i8 0, i8* %_11, align 1, !dbg !1464
  %17 = bitcast %"anchor_lang::error::Error"* %_10 to i8*, !dbg !1465
  %18 = bitcast %"anchor_lang::error::Error"* %e to i8*, !dbg !1465
  call void @llvm.memcpy.p0i8.p0i8.i64(i8* align 8 %17, i8* align 8 %18, i64 112, i1 false), !dbg !1465
  %19 = bitcast { %"anchor_lang::error::Error" }* %_9 to %"anchor_lang::error::Error"*, !dbg !1464
  %20 = bitcast %"anchor_lang::error::Error"* %19 to i8*, !dbg !1464
  %21 = bitcast %"anchor_lang::error::Error"* %_10 to i8*, !dbg !1464
  call void @llvm.memcpy.p0i8.p0i8.i64(i8* align 8 %20, i8* align 8 %21, i64 112, i1 false), !dbg !1464
  %22 = bitcast { %"anchor_lang::error::Error" }* %_9 to %"anchor_lang::error::Error"*, !dbg !1464
; call <anchor_spl::token::FreezeAccount as anchor_lang::Accounts>::try_accounts::{{closure}}
  call void @"_ZN74_$LT$anchor_spl..token..FreezeAccount$u20$as$u20$anchor_lang..Accounts$GT$12try_accounts28_$u7b$$u7b$closure$u7d$$u7d$17h98e2ca101bcdb04fE"(%"anchor_lang::error::Error"* noalias nocapture sret(%"anchor_lang::error::Error") dereferenceable(112) %_7, %"anchor_lang::error::Error"* noalias nocapture dereferenceable(112) %22), !dbg !1464
  br label %bb4, !dbg !1464

bb4:                                              ; preds = %bb1
  %23 = bitcast %"std::result::Result<anchor_lang::prelude::AccountInfo, anchor_lang::error::Error>"* %0 to %"std::result::Result<anchor_lang::prelude::AccountInfo, anchor_lang::error::Error>::Err"*, !dbg !1466
  %24 = getelementptr inbounds %"std::result::Result<anchor_lang::prelude::AccountInfo, anchor_lang::error::Error>::Err", %"std::result::Result<anchor_lang::prelude::AccountInfo, anchor_lang::error::Error>::Err"* %23, i32 0, i32 1, !dbg !1466
  %25 = bitcast %"anchor_lang::error::Error"* %24 to i8*, !dbg !1466
  %26 = bitcast %"anchor_lang::error::Error"* %_7 to i8*, !dbg !1466
  call void @llvm.memcpy.p0i8.p0i8.i64(i8* align 8 %25, i8* align 8 %26, i64 112, i1 false), !dbg !1466
  %27 = bitcast %"std::result::Result<anchor_lang::prelude::AccountInfo, anchor_lang::error::Error>"* %0 to i64*, !dbg !1466
  store i64 1, i64* %27, align 8, !dbg !1466
  br label %bb5, !dbg !1467

bb5:                                              ; preds = %bb3, %bb4
  %28 = load i8, i8* %_11, align 1, !dbg !1468, !range !1194
  %29 = trunc i8 %28 to i1, !dbg !1468
  br i1 %29, label %bb7, label %bb6, !dbg !1468

bb6:                                              ; preds = %bb7, %bb5
  ret void, !dbg !1469

bb7:                                              ; preds = %bb5
  br label %bb6, !dbg !1468
}

; core::result::Result<T,E>::map_err
; Function Attrs: inlinehint nounwind
define void @"_ZN4core6result19Result$LT$T$C$E$GT$7map_err17h17c781b102f18e6eE"(%"std::result::Result<anchor_lang::prelude::AccountInfo, anchor_lang::error::Error>"* noalias nocapture sret(%"std::result::Result<anchor_lang::prelude::AccountInfo, anchor_lang::error::Error>") dereferenceable(120) %0, %"std::result::Result<anchor_lang::prelude::AccountInfo, anchor_lang::error::Error>"* noalias nocapture dereferenceable(120) %self) unnamed_addr #0 !dbg !1470 {
start:
  %op.dbg.spill = alloca %"[closure@/home/seaceved/.cargo/registry/src/github.com-1ecc6299db9ec823/anchor-spl-0.22.0/src/token.rs:245:10: 245:18]", align 1
  %_11 = alloca i8, align 1
  %_10 = alloca %"anchor_lang::error::Error", align 8
  %_9 = alloca { %"anchor_lang::error::Error" }, align 8
  %_7 = alloca %"anchor_lang::error::Error", align 8
  %e = alloca %"anchor_lang::error::Error", align 8
  %_5 = alloca %"anchor_lang::prelude::AccountInfo", align 8
  %t = alloca %"anchor_lang::prelude::AccountInfo", align 8
  call void @llvm.dbg.declare(metadata %"std::result::Result<anchor_lang::prelude::AccountInfo, anchor_lang::error::Error>"* %self, metadata !1477, metadata !DIExpression()), !dbg !1485
  call void @llvm.dbg.declare(metadata %"[closure@/home/seaceved/.cargo/registry/src/github.com-1ecc6299db9ec823/anchor-spl-0.22.0/src/token.rs:245:10: 245:18]"* %op.dbg.spill, metadata !1478, metadata !DIExpression()), !dbg !1486
  call void @llvm.dbg.declare(metadata %"anchor_lang::prelude::AccountInfo"* %t, metadata !1479, metadata !DIExpression()), !dbg !1487
  call void @llvm.dbg.declare(metadata %"anchor_lang::error::Error"* %e, metadata !1481, metadata !DIExpression()), !dbg !1488
  store i8 0, i8* %_11, align 1, !dbg !1489
  store i8 1, i8* %_11, align 1, !dbg !1489
  %1 = bitcast %"std::result::Result<anchor_lang::prelude::AccountInfo, anchor_lang::error::Error>"* %self to i64*, !dbg !1489
  %_3 = load i64, i64* %1, align 8, !dbg !1489, !range !1292
  switch i64 %_3, label %bb2 [
    i64 0, label %bb3
    i64 1, label %bb1
  ], !dbg !1490

bb2:                                              ; preds = %start
  unreachable, !dbg !1489

bb3:                                              ; preds = %start
  %2 = bitcast %"std::result::Result<anchor_lang::prelude::AccountInfo, anchor_lang::error::Error>"* %self to %"std::result::Result<anchor_lang::prelude::AccountInfo, anchor_lang::error::Error>::Ok"*, !dbg !1491
  %3 = getelementptr inbounds %"std::result::Result<anchor_lang::prelude::AccountInfo, anchor_lang::error::Error>::Ok", %"std::result::Result<anchor_lang::prelude::AccountInfo, anchor_lang::error::Error>::Ok"* %2, i32 0, i32 1, !dbg !1491
  %4 = bitcast %"anchor_lang::prelude::AccountInfo"* %t to i8*, !dbg !1491
  %5 = bitcast %"anchor_lang::prelude::AccountInfo"* %3 to i8*, !dbg !1491
  call void @llvm.memcpy.p0i8.p0i8.i64(i8* align 8 %4, i8* align 8 %5, i64 48, i1 false), !dbg !1491
  %6 = bitcast %"anchor_lang::prelude::AccountInfo"* %_5 to i8*, !dbg !1492
  %7 = bitcast %"anchor_lang::prelude::AccountInfo"* %t to i8*, !dbg !1492
  call void @llvm.memcpy.p0i8.p0i8.i64(i8* align 8 %6, i8* align 8 %7, i64 48, i1 false), !dbg !1492
  %8 = bitcast %"std::result::Result<anchor_lang::prelude::AccountInfo, anchor_lang::error::Error>"* %0 to %"std::result::Result<anchor_lang::prelude::AccountInfo, anchor_lang::error::Error>::Ok"*, !dbg !1493
  %9 = getelementptr inbounds %"std::result::Result<anchor_lang::prelude::AccountInfo, anchor_lang::error::Error>::Ok", %"std::result::Result<anchor_lang::prelude::AccountInfo, anchor_lang::error::Error>::Ok"* %8, i32 0, i32 1, !dbg !1493
  %10 = bitcast %"anchor_lang::prelude::AccountInfo"* %9 to i8*, !dbg !1493
  %11 = bitcast %"anchor_lang::prelude::AccountInfo"* %_5 to i8*, !dbg !1493
  call void @llvm.memcpy.p0i8.p0i8.i64(i8* align 8 %10, i8* align 8 %11, i64 48, i1 false), !dbg !1493
  %12 = bitcast %"std::result::Result<anchor_lang::prelude::AccountInfo, anchor_lang::error::Error>"* %0 to i64*, !dbg !1493
  store i64 0, i64* %12, align 8, !dbg !1493
  br label %bb5, !dbg !1494

bb1:                                              ; preds = %start
  %13 = bitcast %"std::result::Result<anchor_lang::prelude::AccountInfo, anchor_lang::error::Error>"* %self to %"std::result::Result<anchor_lang::prelude::AccountInfo, anchor_lang::error::Error>::Err"*, !dbg !1495
  %14 = getelementptr inbounds %"std::result::Result<anchor_lang::prelude::AccountInfo, anchor_lang::error::Error>::Err", %"std::result::Result<anchor_lang::prelude::AccountInfo, anchor_lang::error::Error>::Err"* %13, i32 0, i32 1, !dbg !1495
  %15 = bitcast %"anchor_lang::error::Error"* %e to i8*, !dbg !1495
  %16 = bitcast %"anchor_lang::error::Error"* %14 to i8*, !dbg !1495
  call void @llvm.memcpy.p0i8.p0i8.i64(i8* align 8 %15, i8* align 8 %16, i64 112, i1 false), !dbg !1495
  store i8 0, i8* %_11, align 1, !dbg !1496
  %17 = bitcast %"anchor_lang::error::Error"* %_10 to i8*, !dbg !1497
  %18 = bitcast %"anchor_lang::error::Error"* %e to i8*, !dbg !1497
  call void @llvm.memcpy.p0i8.p0i8.i64(i8* align 8 %17, i8* align 8 %18, i64 112, i1 false), !dbg !1497
  %19 = bitcast { %"anchor_lang::error::Error" }* %_9 to %"anchor_lang::error::Error"*, !dbg !1496
  %20 = bitcast %"anchor_lang::error::Error"* %19 to i8*, !dbg !1496
  %21 = bitcast %"anchor_lang::error::Error"* %_10 to i8*, !dbg !1496
  call void @llvm.memcpy.p0i8.p0i8.i64(i8* align 8 %20, i8* align 8 %21, i64 112, i1 false), !dbg !1496
  %22 = bitcast { %"anchor_lang::error::Error" }* %_9 to %"anchor_lang::error::Error"*, !dbg !1496
; call <anchor_spl::token::Transfer as anchor_lang::Accounts>::try_accounts::{{closure}}
  call void @"_ZN69_$LT$anchor_spl..token..Transfer$u20$as$u20$anchor_lang..Accounts$GT$12try_accounts28_$u7b$$u7b$closure$u7d$$u7d$17heb60a40b358c3f2dE"(%"anchor_lang::error::Error"* noalias nocapture sret(%"anchor_lang::error::Error") dereferenceable(112) %_7, %"anchor_lang::error::Error"* noalias nocapture dereferenceable(112) %22), !dbg !1496
  br label %bb4, !dbg !1496

bb4:                                              ; preds = %bb1
  %23 = bitcast %"std::result::Result<anchor_lang::prelude::AccountInfo, anchor_lang::error::Error>"* %0 to %"std::result::Result<anchor_lang::prelude::AccountInfo, anchor_lang::error::Error>::Err"*, !dbg !1498
  %24 = getelementptr inbounds %"std::result::Result<anchor_lang::prelude::AccountInfo, anchor_lang::error::Error>::Err", %"std::result::Result<anchor_lang::prelude::AccountInfo, anchor_lang::error::Error>::Err"* %23, i32 0, i32 1, !dbg !1498
  %25 = bitcast %"anchor_lang::error::Error"* %24 to i8*, !dbg !1498
  %26 = bitcast %"anchor_lang::error::Error"* %_7 to i8*, !dbg !1498
  call void @llvm.memcpy.p0i8.p0i8.i64(i8* align 8 %25, i8* align 8 %26, i64 112, i1 false), !dbg !1498
  %27 = bitcast %"std::result::Result<anchor_lang::prelude::AccountInfo, anchor_lang::error::Error>"* %0 to i64*, !dbg !1498
  store i64 1, i64* %27, align 8, !dbg !1498
  br label %bb5, !dbg !1499

bb5:                                              ; preds = %bb3, %bb4
  %28 = load i8, i8* %_11, align 1, !dbg !1500, !range !1194
  %29 = trunc i8 %28 to i1, !dbg !1500
  br i1 %29, label %bb7, label %bb6, !dbg !1500

bb6:                                              ; preds = %bb7, %bb5
  ret void, !dbg !1501

bb7:                                              ; preds = %bb5
  br label %bb6, !dbg !1500
}

; core::result::Result<T,E>::map_err
; Function Attrs: inlinehint nounwind
define void @"_ZN4core6result19Result$LT$T$C$E$GT$7map_err17h29f25e41761c0af8E"(%"std::result::Result<anchor_lang::prelude::AccountInfo, anchor_lang::error::Error>"* noalias nocapture sret(%"std::result::Result<anchor_lang::prelude::AccountInfo, anchor_lang::error::Error>") dereferenceable(120) %0, %"std::result::Result<anchor_lang::prelude::AccountInfo, anchor_lang::error::Error>"* noalias nocapture dereferenceable(120) %self) unnamed_addr #0 !dbg !1502 {
start:
  %op.dbg.spill = alloca %"[closure@/home/seaceved/.cargo/registry/src/github.com-1ecc6299db9ec823/anchor-spl-0.22.0/src/token.rs:281:10: 281:18]", align 1
  %_11 = alloca i8, align 1
  %_10 = alloca %"anchor_lang::error::Error", align 8
  %_9 = alloca { %"anchor_lang::error::Error" }, align 8
  %_7 = alloca %"anchor_lang::error::Error", align 8
  %e = alloca %"anchor_lang::error::Error", align 8
  %_5 = alloca %"anchor_lang::prelude::AccountInfo", align 8
  %t = alloca %"anchor_lang::prelude::AccountInfo", align 8
  call void @llvm.dbg.declare(metadata %"std::result::Result<anchor_lang::prelude::AccountInfo, anchor_lang::error::Error>"* %self, metadata !1509, metadata !DIExpression()), !dbg !1517
  call void @llvm.dbg.declare(metadata %"[closure@/home/seaceved/.cargo/registry/src/github.com-1ecc6299db9ec823/anchor-spl-0.22.0/src/token.rs:281:10: 281:18]"* %op.dbg.spill, metadata !1510, metadata !DIExpression()), !dbg !1518
  call void @llvm.dbg.declare(metadata %"anchor_lang::prelude::AccountInfo"* %t, metadata !1511, metadata !DIExpression()), !dbg !1519
  call void @llvm.dbg.declare(metadata %"anchor_lang::error::Error"* %e, metadata !1513, metadata !DIExpression()), !dbg !1520
  store i8 0, i8* %_11, align 1, !dbg !1521
  store i8 1, i8* %_11, align 1, !dbg !1521
  %1 = bitcast %"std::result::Result<anchor_lang::prelude::AccountInfo, anchor_lang::error::Error>"* %self to i64*, !dbg !1521
  %_3 = load i64, i64* %1, align 8, !dbg !1521, !range !1292
  switch i64 %_3, label %bb2 [
    i64 0, label %bb3
    i64 1, label %bb1
  ], !dbg !1522

bb2:                                              ; preds = %start
  unreachable, !dbg !1521

bb3:                                              ; preds = %start
  %2 = bitcast %"std::result::Result<anchor_lang::prelude::AccountInfo, anchor_lang::error::Error>"* %self to %"std::result::Result<anchor_lang::prelude::AccountInfo, anchor_lang::error::Error>::Ok"*, !dbg !1523
  %3 = getelementptr inbounds %"std::result::Result<anchor_lang::prelude::AccountInfo, anchor_lang::error::Error>::Ok", %"std::result::Result<anchor_lang::prelude::AccountInfo, anchor_lang::error::Error>::Ok"* %2, i32 0, i32 1, !dbg !1523
  %4 = bitcast %"anchor_lang::prelude::AccountInfo"* %t to i8*, !dbg !1523
  %5 = bitcast %"anchor_lang::prelude::AccountInfo"* %3 to i8*, !dbg !1523
  call void @llvm.memcpy.p0i8.p0i8.i64(i8* align 8 %4, i8* align 8 %5, i64 48, i1 false), !dbg !1523
  %6 = bitcast %"anchor_lang::prelude::AccountInfo"* %_5 to i8*, !dbg !1524
  %7 = bitcast %"anchor_lang::prelude::AccountInfo"* %t to i8*, !dbg !1524
  call void @llvm.memcpy.p0i8.p0i8.i64(i8* align 8 %6, i8* align 8 %7, i64 48, i1 false), !dbg !1524
  %8 = bitcast %"std::result::Result<anchor_lang::prelude::AccountInfo, anchor_lang::error::Error>"* %0 to %"std::result::Result<anchor_lang::prelude::AccountInfo, anchor_lang::error::Error>::Ok"*, !dbg !1525
  %9 = getelementptr inbounds %"std::result::Result<anchor_lang::prelude::AccountInfo, anchor_lang::error::Error>::Ok", %"std::result::Result<anchor_lang::prelude::AccountInfo, anchor_lang::error::Error>::Ok"* %8, i32 0, i32 1, !dbg !1525
  %10 = bitcast %"anchor_lang::prelude::AccountInfo"* %9 to i8*, !dbg !1525
  %11 = bitcast %"anchor_lang::prelude::AccountInfo"* %_5 to i8*, !dbg !1525
  call void @llvm.memcpy.p0i8.p0i8.i64(i8* align 8 %10, i8* align 8 %11, i64 48, i1 false), !dbg !1525
  %12 = bitcast %"std::result::Result<anchor_lang::prelude::AccountInfo, anchor_lang::error::Error>"* %0 to i64*, !dbg !1525
  store i64 0, i64* %12, align 8, !dbg !1525
  br label %bb5, !dbg !1526

bb1:                                              ; preds = %start
  %13 = bitcast %"std::result::Result<anchor_lang::prelude::AccountInfo, anchor_lang::error::Error>"* %self to %"std::result::Result<anchor_lang::prelude::AccountInfo, anchor_lang::error::Error>::Err"*, !dbg !1527
  %14 = getelementptr inbounds %"std::result::Result<anchor_lang::prelude::AccountInfo, anchor_lang::error::Error>::Err", %"std::result::Result<anchor_lang::prelude::AccountInfo, anchor_lang::error::Error>::Err"* %13, i32 0, i32 1, !dbg !1527
  %15 = bitcast %"anchor_lang::error::Error"* %e to i8*, !dbg !1527
  %16 = bitcast %"anchor_lang::error::Error"* %14 to i8*, !dbg !1527
  call void @llvm.memcpy.p0i8.p0i8.i64(i8* align 8 %15, i8* align 8 %16, i64 112, i1 false), !dbg !1527
  store i8 0, i8* %_11, align 1, !dbg !1528
  %17 = bitcast %"anchor_lang::error::Error"* %_10 to i8*, !dbg !1529
  %18 = bitcast %"anchor_lang::error::Error"* %e to i8*, !dbg !1529
  call void @llvm.memcpy.p0i8.p0i8.i64(i8* align 8 %17, i8* align 8 %18, i64 112, i1 false), !dbg !1529
  %19 = bitcast { %"anchor_lang::error::Error" }* %_9 to %"anchor_lang::error::Error"*, !dbg !1528
  %20 = bitcast %"anchor_lang::error::Error"* %19 to i8*, !dbg !1528
  %21 = bitcast %"anchor_lang::error::Error"* %_10 to i8*, !dbg !1528
  call void @llvm.memcpy.p0i8.p0i8.i64(i8* align 8 %20, i8* align 8 %21, i64 112, i1 false), !dbg !1528
  %22 = bitcast { %"anchor_lang::error::Error" }* %_9 to %"anchor_lang::error::Error"*, !dbg !1528
; call <anchor_spl::token::CloseAccount as anchor_lang::Accounts>::try_accounts::{{closure}}
  call void @"_ZN73_$LT$anchor_spl..token..CloseAccount$u20$as$u20$anchor_lang..Accounts$GT$12try_accounts28_$u7b$$u7b$closure$u7d$$u7d$17hb604e5b8ba61d201E"(%"anchor_lang::error::Error"* noalias nocapture sret(%"anchor_lang::error::Error") dereferenceable(112) %_7, %"anchor_lang::error::Error"* noalias nocapture dereferenceable(112) %22), !dbg !1528
  br label %bb4, !dbg !1528

bb4:                                              ; preds = %bb1
  %23 = bitcast %"std::result::Result<anchor_lang::prelude::AccountInfo, anchor_lang::error::Error>"* %0 to %"std::result::Result<anchor_lang::prelude::AccountInfo, anchor_lang::error::Error>::Err"*, !dbg !1530
  %24 = getelementptr inbounds %"std::result::Result<anchor_lang::prelude::AccountInfo, anchor_lang::error::Error>::Err", %"std::result::Result<anchor_lang::prelude::AccountInfo, anchor_lang::error::Error>::Err"* %23, i32 0, i32 1, !dbg !1530
  %25 = bitcast %"anchor_lang::error::Error"* %24 to i8*, !dbg !1530
  %26 = bitcast %"anchor_lang::error::Error"* %_7 to i8*, !dbg !1530
  call void @llvm.memcpy.p0i8.p0i8.i64(i8* align 8 %25, i8* align 8 %26, i64 112, i1 false), !dbg !1530
  %27 = bitcast %"std::result::Result<anchor_lang::prelude::AccountInfo, anchor_lang::error::Error>"* %0 to i64*, !dbg !1530
  store i64 1, i64* %27, align 8, !dbg !1530
  br label %bb5, !dbg !1531

bb5:                                              ; preds = %bb3, %bb4
  %28 = load i8, i8* %_11, align 1, !dbg !1532, !range !1194
  %29 = trunc i8 %28 to i1, !dbg !1532
  br i1 %29, label %bb7, label %bb6, !dbg !1532

bb6:                                              ; preds = %bb7, %bb5
  ret void, !dbg !1533

bb7:                                              ; preds = %bb5
  br label %bb6, !dbg !1532
}

; core::result::Result<T,E>::map_err
; Function Attrs: inlinehint nounwind
define void @"_ZN4core6result19Result$LT$T$C$E$GT$7map_err17h2f5996e3a9eac9b8E"(%"std::result::Result<anchor_lang::prelude::AccountInfo, anchor_lang::error::Error>"* noalias nocapture sret(%"std::result::Result<anchor_lang::prelude::AccountInfo, anchor_lang::error::Error>") dereferenceable(120) %0, %"std::result::Result<anchor_lang::prelude::AccountInfo, anchor_lang::error::Error>"* noalias nocapture dereferenceable(120) %self) unnamed_addr #0 !dbg !1534 {
start:
  %op.dbg.spill = alloca %"[closure@/home/seaceved/.cargo/registry/src/github.com-1ecc6299db9ec823/anchor-spl-0.22.0/src/token.rs:288:10: 288:18].1", align 1
  %_11 = alloca i8, align 1
  %_10 = alloca %"anchor_lang::error::Error", align 8
  %_9 = alloca { %"anchor_lang::error::Error" }, align 8
  %_7 = alloca %"anchor_lang::error::Error", align 8
  %e = alloca %"anchor_lang::error::Error", align 8
  %_5 = alloca %"anchor_lang::prelude::AccountInfo", align 8
  %t = alloca %"anchor_lang::prelude::AccountInfo", align 8
  call void @llvm.dbg.declare(metadata %"std::result::Result<anchor_lang::prelude::AccountInfo, anchor_lang::error::Error>"* %self, metadata !1539, metadata !DIExpression()), !dbg !1547
  call void @llvm.dbg.declare(metadata %"[closure@/home/seaceved/.cargo/registry/src/github.com-1ecc6299db9ec823/anchor-spl-0.22.0/src/token.rs:288:10: 288:18].1"* %op.dbg.spill, metadata !1540, metadata !DIExpression()), !dbg !1548
  call void @llvm.dbg.declare(metadata %"anchor_lang::prelude::AccountInfo"* %t, metadata !1541, metadata !DIExpression()), !dbg !1549
  call void @llvm.dbg.declare(metadata %"anchor_lang::error::Error"* %e, metadata !1543, metadata !DIExpression()), !dbg !1550
  store i8 0, i8* %_11, align 1, !dbg !1551
  store i8 1, i8* %_11, align 1, !dbg !1551
  %1 = bitcast %"std::result::Result<anchor_lang::prelude::AccountInfo, anchor_lang::error::Error>"* %self to i64*, !dbg !1551
  %_3 = load i64, i64* %1, align 8, !dbg !1551, !range !1292
  switch i64 %_3, label %bb2 [
    i64 0, label %bb3
    i64 1, label %bb1
  ], !dbg !1552

bb2:                                              ; preds = %start
  unreachable, !dbg !1551

bb3:                                              ; preds = %start
  %2 = bitcast %"std::result::Result<anchor_lang::prelude::AccountInfo, anchor_lang::error::Error>"* %self to %"std::result::Result<anchor_lang::prelude::AccountInfo, anchor_lang::error::Error>::Ok"*, !dbg !1553
  %3 = getelementptr inbounds %"std::result::Result<anchor_lang::prelude::AccountInfo, anchor_lang::error::Error>::Ok", %"std::result::Result<anchor_lang::prelude::AccountInfo, anchor_lang::error::Error>::Ok"* %2, i32 0, i32 1, !dbg !1553
  %4 = bitcast %"anchor_lang::prelude::AccountInfo"* %t to i8*, !dbg !1553
  %5 = bitcast %"anchor_lang::prelude::AccountInfo"* %3 to i8*, !dbg !1553
  call void @llvm.memcpy.p0i8.p0i8.i64(i8* align 8 %4, i8* align 8 %5, i64 48, i1 false), !dbg !1553
  %6 = bitcast %"anchor_lang::prelude::AccountInfo"* %_5 to i8*, !dbg !1554
  %7 = bitcast %"anchor_lang::prelude::AccountInfo"* %t to i8*, !dbg !1554
  call void @llvm.memcpy.p0i8.p0i8.i64(i8* align 8 %6, i8* align 8 %7, i64 48, i1 false), !dbg !1554
  %8 = bitcast %"std::result::Result<anchor_lang::prelude::AccountInfo, anchor_lang::error::Error>"* %0 to %"std::result::Result<anchor_lang::prelude::AccountInfo, anchor_lang::error::Error>::Ok"*, !dbg !1555
  %9 = getelementptr inbounds %"std::result::Result<anchor_lang::prelude::AccountInfo, anchor_lang::error::Error>::Ok", %"std::result::Result<anchor_lang::prelude::AccountInfo, anchor_lang::error::Error>::Ok"* %8, i32 0, i32 1, !dbg !1555
  %10 = bitcast %"anchor_lang::prelude::AccountInfo"* %9 to i8*, !dbg !1555
  %11 = bitcast %"anchor_lang::prelude::AccountInfo"* %_5 to i8*, !dbg !1555
  call void @llvm.memcpy.p0i8.p0i8.i64(i8* align 8 %10, i8* align 8 %11, i64 48, i1 false), !dbg !1555
  %12 = bitcast %"std::result::Result<anchor_lang::prelude::AccountInfo, anchor_lang::error::Error>"* %0 to i64*, !dbg !1555
  store i64 0, i64* %12, align 8, !dbg !1555
  br label %bb5, !dbg !1556

bb1:                                              ; preds = %start
  %13 = bitcast %"std::result::Result<anchor_lang::prelude::AccountInfo, anchor_lang::error::Error>"* %self to %"std::result::Result<anchor_lang::prelude::AccountInfo, anchor_lang::error::Error>::Err"*, !dbg !1557
  %14 = getelementptr inbounds %"std::result::Result<anchor_lang::prelude::AccountInfo, anchor_lang::error::Error>::Err", %"std::result::Result<anchor_lang::prelude::AccountInfo, anchor_lang::error::Error>::Err"* %13, i32 0, i32 1, !dbg !1557
  %15 = bitcast %"anchor_lang::error::Error"* %e to i8*, !dbg !1557
  %16 = bitcast %"anchor_lang::error::Error"* %14 to i8*, !dbg !1557
  call void @llvm.memcpy.p0i8.p0i8.i64(i8* align 8 %15, i8* align 8 %16, i64 112, i1 false), !dbg !1557
  store i8 0, i8* %_11, align 1, !dbg !1558
  %17 = bitcast %"anchor_lang::error::Error"* %_10 to i8*, !dbg !1559
  %18 = bitcast %"anchor_lang::error::Error"* %e to i8*, !dbg !1559
  call void @llvm.memcpy.p0i8.p0i8.i64(i8* align 8 %17, i8* align 8 %18, i64 112, i1 false), !dbg !1559
  %19 = bitcast { %"anchor_lang::error::Error" }* %_9 to %"anchor_lang::error::Error"*, !dbg !1558
  %20 = bitcast %"anchor_lang::error::Error"* %19 to i8*, !dbg !1558
  %21 = bitcast %"anchor_lang::error::Error"* %_10 to i8*, !dbg !1558
  call void @llvm.memcpy.p0i8.p0i8.i64(i8* align 8 %20, i8* align 8 %21, i64 112, i1 false), !dbg !1558
  %22 = bitcast { %"anchor_lang::error::Error" }* %_9 to %"anchor_lang::error::Error"*, !dbg !1558
; call <anchor_spl::token::FreezeAccount as anchor_lang::Accounts>::try_accounts::{{closure}}
  call void @"_ZN74_$LT$anchor_spl..token..FreezeAccount$u20$as$u20$anchor_lang..Accounts$GT$12try_accounts28_$u7b$$u7b$closure$u7d$$u7d$17h8be108f10fbb0c00E"(%"anchor_lang::error::Error"* noalias nocapture sret(%"anchor_lang::error::Error") dereferenceable(112) %_7, %"anchor_lang::error::Error"* noalias nocapture dereferenceable(112) %22), !dbg !1558
  br label %bb4, !dbg !1558

bb4:                                              ; preds = %bb1
  %23 = bitcast %"std::result::Result<anchor_lang::prelude::AccountInfo, anchor_lang::error::Error>"* %0 to %"std::result::Result<anchor_lang::prelude::AccountInfo, anchor_lang::error::Error>::Err"*, !dbg !1560
  %24 = getelementptr inbounds %"std::result::Result<anchor_lang::prelude::AccountInfo, anchor_lang::error::Error>::Err", %"std::result::Result<anchor_lang::prelude::AccountInfo, anchor_lang::error::Error>::Err"* %23, i32 0, i32 1, !dbg !1560
  %25 = bitcast %"anchor_lang::error::Error"* %24 to i8*, !dbg !1560
  %26 = bitcast %"anchor_lang::error::Error"* %_7 to i8*, !dbg !1560
  call void @llvm.memcpy.p0i8.p0i8.i64(i8* align 8 %25, i8* align 8 %26, i64 112, i1 false), !dbg !1560
  %27 = bitcast %"std::result::Result<anchor_lang::prelude::AccountInfo, anchor_lang::error::Error>"* %0 to i64*, !dbg !1560
  store i64 1, i64* %27, align 8, !dbg !1560
  br label %bb5, !dbg !1561

bb5:                                              ; preds = %bb3, %bb4
  %28 = load i8, i8* %_11, align 1, !dbg !1562, !range !1194
  %29 = trunc i8 %28 to i1, !dbg !1562
  br i1 %29, label %bb7, label %bb6, !dbg !1562

bb6:                                              ; preds = %bb7, %bb5
  ret void, !dbg !1563

bb7:                                              ; preds = %bb5
  br label %bb6, !dbg !1562
}

; core::result::Result<T,E>::map_err
; Function Attrs: inlinehint nounwind
define void @"_ZN4core6result19Result$LT$T$C$E$GT$7map_err17h32c14b8937659880E"(%"std::result::Result<anchor_lang::prelude::AccountInfo, anchor_lang::error::Error>"* noalias nocapture sret(%"std::result::Result<anchor_lang::prelude::AccountInfo, anchor_lang::error::Error>") dereferenceable(120) %0, %"std::result::Result<anchor_lang::prelude::AccountInfo, anchor_lang::error::Error>"* noalias nocapture dereferenceable(120) %self) unnamed_addr #0 !dbg !1564 {
start:
  %op.dbg.spill = alloca %"[closure@/home/seaceved/.cargo/registry/src/github.com-1ecc6299db9ec823/anchor-spl-0.22.0/src/token.rs:252:10: 252:18]", align 1
  %_11 = alloca i8, align 1
  %_10 = alloca %"anchor_lang::error::Error", align 8
  %_9 = alloca { %"anchor_lang::error::Error" }, align 8
  %_7 = alloca %"anchor_lang::error::Error", align 8
  %e = alloca %"anchor_lang::error::Error", align 8
  %_5 = alloca %"anchor_lang::prelude::AccountInfo", align 8
  %t = alloca %"anchor_lang::prelude::AccountInfo", align 8
  call void @llvm.dbg.declare(metadata %"std::result::Result<anchor_lang::prelude::AccountInfo, anchor_lang::error::Error>"* %self, metadata !1571, metadata !DIExpression()), !dbg !1579
  call void @llvm.dbg.declare(metadata %"[closure@/home/seaceved/.cargo/registry/src/github.com-1ecc6299db9ec823/anchor-spl-0.22.0/src/token.rs:252:10: 252:18]"* %op.dbg.spill, metadata !1572, metadata !DIExpression()), !dbg !1580
  call void @llvm.dbg.declare(metadata %"anchor_lang::prelude::AccountInfo"* %t, metadata !1573, metadata !DIExpression()), !dbg !1581
  call void @llvm.dbg.declare(metadata %"anchor_lang::error::Error"* %e, metadata !1575, metadata !DIExpression()), !dbg !1582
  store i8 0, i8* %_11, align 1, !dbg !1583
  store i8 1, i8* %_11, align 1, !dbg !1583
  %1 = bitcast %"std::result::Result<anchor_lang::prelude::AccountInfo, anchor_lang::error::Error>"* %self to i64*, !dbg !1583
  %_3 = load i64, i64* %1, align 8, !dbg !1583, !range !1292
  switch i64 %_3, label %bb2 [
    i64 0, label %bb3
    i64 1, label %bb1
  ], !dbg !1584

bb2:                                              ; preds = %start
  unreachable, !dbg !1583

bb3:                                              ; preds = %start
  %2 = bitcast %"std::result::Result<anchor_lang::prelude::AccountInfo, anchor_lang::error::Error>"* %self to %"std::result::Result<anchor_lang::prelude::AccountInfo, anchor_lang::error::Error>::Ok"*, !dbg !1585
  %3 = getelementptr inbounds %"std::result::Result<anchor_lang::prelude::AccountInfo, anchor_lang::error::Error>::Ok", %"std::result::Result<anchor_lang::prelude::AccountInfo, anchor_lang::error::Error>::Ok"* %2, i32 0, i32 1, !dbg !1585
  %4 = bitcast %"anchor_lang::prelude::AccountInfo"* %t to i8*, !dbg !1585
  %5 = bitcast %"anchor_lang::prelude::AccountInfo"* %3 to i8*, !dbg !1585
  call void @llvm.memcpy.p0i8.p0i8.i64(i8* align 8 %4, i8* align 8 %5, i64 48, i1 false), !dbg !1585
  %6 = bitcast %"anchor_lang::prelude::AccountInfo"* %_5 to i8*, !dbg !1586
  %7 = bitcast %"anchor_lang::prelude::AccountInfo"* %t to i8*, !dbg !1586
  call void @llvm.memcpy.p0i8.p0i8.i64(i8* align 8 %6, i8* align 8 %7, i64 48, i1 false), !dbg !1586
  %8 = bitcast %"std::result::Result<anchor_lang::prelude::AccountInfo, anchor_lang::error::Error>"* %0 to %"std::result::Result<anchor_lang::prelude::AccountInfo, anchor_lang::error::Error>::Ok"*, !dbg !1587
  %9 = getelementptr inbounds %"std::result::Result<anchor_lang::prelude::AccountInfo, anchor_lang::error::Error>::Ok", %"std::result::Result<anchor_lang::prelude::AccountInfo, anchor_lang::error::Error>::Ok"* %8, i32 0, i32 1, !dbg !1587
  %10 = bitcast %"anchor_lang::prelude::AccountInfo"* %9 to i8*, !dbg !1587
  %11 = bitcast %"anchor_lang::prelude::AccountInfo"* %_5 to i8*, !dbg !1587
  call void @llvm.memcpy.p0i8.p0i8.i64(i8* align 8 %10, i8* align 8 %11, i64 48, i1 false), !dbg !1587
  %12 = bitcast %"std::result::Result<anchor_lang::prelude::AccountInfo, anchor_lang::error::Error>"* %0 to i64*, !dbg !1587
  store i64 0, i64* %12, align 8, !dbg !1587
  br label %bb5, !dbg !1588

bb1:                                              ; preds = %start
  %13 = bitcast %"std::result::Result<anchor_lang::prelude::AccountInfo, anchor_lang::error::Error>"* %self to %"std::result::Result<anchor_lang::prelude::AccountInfo, anchor_lang::error::Error>::Err"*, !dbg !1589
  %14 = getelementptr inbounds %"std::result::Result<anchor_lang::prelude::AccountInfo, anchor_lang::error::Error>::Err", %"std::result::Result<anchor_lang::prelude::AccountInfo, anchor_lang::error::Error>::Err"* %13, i32 0, i32 1, !dbg !1589
  %15 = bitcast %"anchor_lang::error::Error"* %e to i8*, !dbg !1589
  %16 = bitcast %"anchor_lang::error::Error"* %14 to i8*, !dbg !1589
  call void @llvm.memcpy.p0i8.p0i8.i64(i8* align 8 %15, i8* align 8 %16, i64 112, i1 false), !dbg !1589
  store i8 0, i8* %_11, align 1, !dbg !1590
  %17 = bitcast %"anchor_lang::error::Error"* %_10 to i8*, !dbg !1591
  %18 = bitcast %"anchor_lang::error::Error"* %e to i8*, !dbg !1591
  call void @llvm.memcpy.p0i8.p0i8.i64(i8* align 8 %17, i8* align 8 %18, i64 112, i1 false), !dbg !1591
  %19 = bitcast { %"anchor_lang::error::Error" }* %_9 to %"anchor_lang::error::Error"*, !dbg !1590
  %20 = bitcast %"anchor_lang::error::Error"* %19 to i8*, !dbg !1590
  %21 = bitcast %"anchor_lang::error::Error"* %_10 to i8*, !dbg !1590
  call void @llvm.memcpy.p0i8.p0i8.i64(i8* align 8 %20, i8* align 8 %21, i64 112, i1 false), !dbg !1590
  %22 = bitcast { %"anchor_lang::error::Error" }* %_9 to %"anchor_lang::error::Error"*, !dbg !1590
; call <anchor_spl::token::MintTo as anchor_lang::Accounts>::try_accounts::{{closure}}
  call void @"_ZN67_$LT$anchor_spl..token..MintTo$u20$as$u20$anchor_lang..Accounts$GT$12try_accounts28_$u7b$$u7b$closure$u7d$$u7d$17h1023e3c364f4cbeaE"(%"anchor_lang::error::Error"* noalias nocapture sret(%"anchor_lang::error::Error") dereferenceable(112) %_7, %"anchor_lang::error::Error"* noalias nocapture dereferenceable(112) %22), !dbg !1590
  br label %bb4, !dbg !1590

bb4:                                              ; preds = %bb1
  %23 = bitcast %"std::result::Result<anchor_lang::prelude::AccountInfo, anchor_lang::error::Error>"* %0 to %"std::result::Result<anchor_lang::prelude::AccountInfo, anchor_lang::error::Error>::Err"*, !dbg !1592
  %24 = getelementptr inbounds %"std::result::Result<anchor_lang::prelude::AccountInfo, anchor_lang::error::Error>::Err", %"std::result::Result<anchor_lang::prelude::AccountInfo, anchor_lang::error::Error>::Err"* %23, i32 0, i32 1, !dbg !1592
  %25 = bitcast %"anchor_lang::error::Error"* %24 to i8*, !dbg !1592
  %26 = bitcast %"anchor_lang::error::Error"* %_7 to i8*, !dbg !1592
  call void @llvm.memcpy.p0i8.p0i8.i64(i8* align 8 %25, i8* align 8 %26, i64 112, i1 false), !dbg !1592
  %27 = bitcast %"std::result::Result<anchor_lang::prelude::AccountInfo, anchor_lang::error::Error>"* %0 to i64*, !dbg !1592
  store i64 1, i64* %27, align 8, !dbg !1592
  br label %bb5, !dbg !1593

bb5:                                              ; preds = %bb3, %bb4
  %28 = load i8, i8* %_11, align 1, !dbg !1594, !range !1194
  %29 = trunc i8 %28 to i1, !dbg !1594
  br i1 %29, label %bb7, label %bb6, !dbg !1594

bb6:                                              ; preds = %bb7, %bb5
  ret void, !dbg !1595

bb7:                                              ; preds = %bb5
  br label %bb6, !dbg !1594
}

; core::result::Result<T,E>::map_err
; Function Attrs: inlinehint nounwind
define void @"_ZN4core6result19Result$LT$T$C$E$GT$7map_err17h3a6bdaed67a7e4b0E"(%"std::result::Result<token::TokenAccount, anchor_lang::error::Error>"* noalias nocapture sret(%"std::result::Result<token::TokenAccount, anchor_lang::error::Error>") dereferenceable(184) %0, %"std::result::Result<token::TokenAccount, anchor_lang::prelude::ProgramError>"* noalias nocapture dereferenceable(184) %self) unnamed_addr #0 !dbg !1596 {
start:
  %op.dbg.spill = alloca {}, align 1
  %_11 = alloca i8, align 1
  %_10 = alloca %"anchor_lang::prelude::ProgramError", align 8
  %_9 = alloca { %"anchor_lang::prelude::ProgramError" }, align 8
  %_7 = alloca %"anchor_lang::error::Error", align 8
  %e = alloca %"anchor_lang::prelude::ProgramError", align 8
  %_5 = alloca %"token::TokenAccount", align 8
  %t = alloca %"token::TokenAccount", align 8
  call void @llvm.dbg.declare(metadata %"std::result::Result<token::TokenAccount, anchor_lang::prelude::ProgramError>"* %self, metadata !1613, metadata !DIExpression()), !dbg !1621
  call void @llvm.dbg.declare(metadata {}* %op.dbg.spill, metadata !1614, metadata !DIExpression()), !dbg !1622
  call void @llvm.dbg.declare(metadata %"token::TokenAccount"* %t, metadata !1615, metadata !DIExpression()), !dbg !1623
  call void @llvm.dbg.declare(metadata %"anchor_lang::prelude::ProgramError"* %e, metadata !1617, metadata !DIExpression()), !dbg !1624
  store i8 0, i8* %_11, align 1, !dbg !1625
  store i8 1, i8* %_11, align 1, !dbg !1625
  %1 = bitcast %"std::result::Result<token::TokenAccount, anchor_lang::prelude::ProgramError>"* %self to i64*, !dbg !1625
  %_3 = load i64, i64* %1, align 8, !dbg !1625, !range !1292
  switch i64 %_3, label %bb2 [
    i64 0, label %bb3
    i64 1, label %bb1
  ], !dbg !1626

bb2:                                              ; preds = %start
  unreachable, !dbg !1625

bb3:                                              ; preds = %start
  %2 = bitcast %"std::result::Result<token::TokenAccount, anchor_lang::prelude::ProgramError>"* %self to %"std::result::Result<token::TokenAccount, anchor_lang::prelude::ProgramError>::Ok"*, !dbg !1627
  %3 = getelementptr inbounds %"std::result::Result<token::TokenAccount, anchor_lang::prelude::ProgramError>::Ok", %"std::result::Result<token::TokenAccount, anchor_lang::prelude::ProgramError>::Ok"* %2, i32 0, i32 1, !dbg !1627
  %4 = bitcast %"token::TokenAccount"* %t to i8*, !dbg !1627
  %5 = bitcast %"token::TokenAccount"* %3 to i8*, !dbg !1627
  call void @llvm.memcpy.p0i8.p0i8.i64(i8* align 8 %4, i8* align 8 %5, i64 176, i1 false), !dbg !1627
  %6 = bitcast %"token::TokenAccount"* %_5 to i8*, !dbg !1628
  %7 = bitcast %"token::TokenAccount"* %t to i8*, !dbg !1628
  call void @llvm.memcpy.p0i8.p0i8.i64(i8* align 8 %6, i8* align 8 %7, i64 176, i1 false), !dbg !1628
  %8 = bitcast %"std::result::Result<token::TokenAccount, anchor_lang::error::Error>"* %0 to %"std::result::Result<token::TokenAccount, anchor_lang::error::Error>::Ok"*, !dbg !1629
  %9 = getelementptr inbounds %"std::result::Result<token::TokenAccount, anchor_lang::error::Error>::Ok", %"std::result::Result<token::TokenAccount, anchor_lang::error::Error>::Ok"* %8, i32 0, i32 1, !dbg !1629
  %10 = bitcast %"token::TokenAccount"* %9 to i8*, !dbg !1629
  %11 = bitcast %"token::TokenAccount"* %_5 to i8*, !dbg !1629
  call void @llvm.memcpy.p0i8.p0i8.i64(i8* align 8 %10, i8* align 8 %11, i64 176, i1 false), !dbg !1629
  %12 = bitcast %"std::result::Result<token::TokenAccount, anchor_lang::error::Error>"* %0 to i64*, !dbg !1629
  store i64 0, i64* %12, align 8, !dbg !1629
  br label %bb5, !dbg !1630

bb1:                                              ; preds = %start
  %13 = bitcast %"std::result::Result<token::TokenAccount, anchor_lang::prelude::ProgramError>"* %self to %"std::result::Result<token::TokenAccount, anchor_lang::prelude::ProgramError>::Err"*, !dbg !1631
  %14 = getelementptr inbounds %"std::result::Result<token::TokenAccount, anchor_lang::prelude::ProgramError>::Err", %"std::result::Result<token::TokenAccount, anchor_lang::prelude::ProgramError>::Err"* %13, i32 0, i32 1, !dbg !1631
  %15 = bitcast %"anchor_lang::prelude::ProgramError"* %e to i8*, !dbg !1631
  %16 = bitcast %"anchor_lang::prelude::ProgramError"* %14 to i8*, !dbg !1631
  call void @llvm.memcpy.p0i8.p0i8.i64(i8* align 8 %15, i8* align 8 %16, i64 32, i1 false), !dbg !1631
  store i8 0, i8* %_11, align 1, !dbg !1632
  %17 = bitcast %"anchor_lang::prelude::ProgramError"* %_10 to i8*, !dbg !1633
  %18 = bitcast %"anchor_lang::prelude::ProgramError"* %e to i8*, !dbg !1633
  call void @llvm.memcpy.p0i8.p0i8.i64(i8* align 8 %17, i8* align 8 %18, i64 32, i1 false), !dbg !1633
  %19 = bitcast { %"anchor_lang::prelude::ProgramError" }* %_9 to %"anchor_lang::prelude::ProgramError"*, !dbg !1632
  %20 = bitcast %"anchor_lang::prelude::ProgramError"* %19 to i8*, !dbg !1632
  %21 = bitcast %"anchor_lang::prelude::ProgramError"* %_10 to i8*, !dbg !1632
  call void @llvm.memcpy.p0i8.p0i8.i64(i8* align 8 %20, i8* align 8 %21, i64 32, i1 false), !dbg !1632
  %22 = bitcast { %"anchor_lang::prelude::ProgramError" }* %_9 to %"anchor_lang::prelude::ProgramError"*, !dbg !1632
; call core::ops::function::FnOnce::call_once
  call void @_ZN4core3ops8function6FnOnce9call_once17h431c2d96cdd326f2E(%"anchor_lang::error::Error"* noalias nocapture sret(%"anchor_lang::error::Error") dereferenceable(112) %_7, %"anchor_lang::prelude::ProgramError"* noalias nocapture dereferenceable(32) %22), !dbg !1632
  br label %bb4, !dbg !1632

bb4:                                              ; preds = %bb1
  %23 = bitcast %"std::result::Result<token::TokenAccount, anchor_lang::error::Error>"* %0 to %"std::result::Result<token::TokenAccount, anchor_lang::error::Error>::Err"*, !dbg !1634
  %24 = getelementptr inbounds %"std::result::Result<token::TokenAccount, anchor_lang::error::Error>::Err", %"std::result::Result<token::TokenAccount, anchor_lang::error::Error>::Err"* %23, i32 0, i32 1, !dbg !1634
  %25 = bitcast %"anchor_lang::error::Error"* %24 to i8*, !dbg !1634
  %26 = bitcast %"anchor_lang::error::Error"* %_7 to i8*, !dbg !1634
  call void @llvm.memcpy.p0i8.p0i8.i64(i8* align 8 %25, i8* align 8 %26, i64 112, i1 false), !dbg !1634
  %27 = bitcast %"std::result::Result<token::TokenAccount, anchor_lang::error::Error>"* %0 to i64*, !dbg !1634
  store i64 1, i64* %27, align 8, !dbg !1634
  br label %bb5, !dbg !1635

bb5:                                              ; preds = %bb3, %bb4
  %28 = load i8, i8* %_11, align 1, !dbg !1636, !range !1194
  %29 = trunc i8 %28 to i1, !dbg !1636
  br i1 %29, label %bb7, label %bb6, !dbg !1636

bb6:                                              ; preds = %bb7, %bb5
  ret void, !dbg !1637

bb7:                                              ; preds = %bb5
  br label %bb6, !dbg !1636
}

; core::result::Result<T,E>::map_err
; Function Attrs: inlinehint nounwind
define void @"_ZN4core6result19Result$LT$T$C$E$GT$7map_err17h3bcca6c0d1f80c23E"(%"std::result::Result<anchor_lang::prelude::AccountInfo, anchor_lang::error::Error>"* noalias nocapture sret(%"std::result::Result<anchor_lang::prelude::AccountInfo, anchor_lang::error::Error>") dereferenceable(120) %0, %"std::result::Result<anchor_lang::prelude::AccountInfo, anchor_lang::error::Error>"* noalias nocapture dereferenceable(120) %self) unnamed_addr #0 !dbg !1638 {
start:
  %op.dbg.spill = alloca %"[closure@/home/seaceved/.cargo/registry/src/github.com-1ecc6299db9ec823/anchor-spl-0.22.0/src/associated_token.rs:29:10: 29:18]", align 1
  %_11 = alloca i8, align 1
  %_10 = alloca %"anchor_lang::error::Error", align 8
  %_9 = alloca { %"anchor_lang::error::Error" }, align 8
  %_7 = alloca %"anchor_lang::error::Error", align 8
  %e = alloca %"anchor_lang::error::Error", align 8
  %_5 = alloca %"anchor_lang::prelude::AccountInfo", align 8
  %t = alloca %"anchor_lang::prelude::AccountInfo", align 8
  call void @llvm.dbg.declare(metadata %"std::result::Result<anchor_lang::prelude::AccountInfo, anchor_lang::error::Error>"* %self, metadata !1645, metadata !DIExpression()), !dbg !1653
  call void @llvm.dbg.declare(metadata %"[closure@/home/seaceved/.cargo/registry/src/github.com-1ecc6299db9ec823/anchor-spl-0.22.0/src/associated_token.rs:29:10: 29:18]"* %op.dbg.spill, metadata !1646, metadata !DIExpression()), !dbg !1654
  call void @llvm.dbg.declare(metadata %"anchor_lang::prelude::AccountInfo"* %t, metadata !1647, metadata !DIExpression()), !dbg !1655
  call void @llvm.dbg.declare(metadata %"anchor_lang::error::Error"* %e, metadata !1649, metadata !DIExpression()), !dbg !1656
  store i8 0, i8* %_11, align 1, !dbg !1657
  store i8 1, i8* %_11, align 1, !dbg !1657
  %1 = bitcast %"std::result::Result<anchor_lang::prelude::AccountInfo, anchor_lang::error::Error>"* %self to i64*, !dbg !1657
  %_3 = load i64, i64* %1, align 8, !dbg !1657, !range !1292
  switch i64 %_3, label %bb2 [
    i64 0, label %bb3
    i64 1, label %bb1
  ], !dbg !1658

bb2:                                              ; preds = %start
  unreachable, !dbg !1657

bb3:                                              ; preds = %start
  %2 = bitcast %"std::result::Result<anchor_lang::prelude::AccountInfo, anchor_lang::error::Error>"* %self to %"std::result::Result<anchor_lang::prelude::AccountInfo, anchor_lang::error::Error>::Ok"*, !dbg !1659
  %3 = getelementptr inbounds %"std::result::Result<anchor_lang::prelude::AccountInfo, anchor_lang::error::Error>::Ok", %"std::result::Result<anchor_lang::prelude::AccountInfo, anchor_lang::error::Error>::Ok"* %2, i32 0, i32 1, !dbg !1659
  %4 = bitcast %"anchor_lang::prelude::AccountInfo"* %t to i8*, !dbg !1659
  %5 = bitcast %"anchor_lang::prelude::AccountInfo"* %3 to i8*, !dbg !1659
  call void @llvm.memcpy.p0i8.p0i8.i64(i8* align 8 %4, i8* align 8 %5, i64 48, i1 false), !dbg !1659
  %6 = bitcast %"anchor_lang::prelude::AccountInfo"* %_5 to i8*, !dbg !1660
  %7 = bitcast %"anchor_lang::prelude::AccountInfo"* %t to i8*, !dbg !1660
  call void @llvm.memcpy.p0i8.p0i8.i64(i8* align 8 %6, i8* align 8 %7, i64 48, i1 false), !dbg !1660
  %8 = bitcast %"std::result::Result<anchor_lang::prelude::AccountInfo, anchor_lang::error::Error>"* %0 to %"std::result::Result<anchor_lang::prelude::AccountInfo, anchor_lang::error::Error>::Ok"*, !dbg !1661
  %9 = getelementptr inbounds %"std::result::Result<anchor_lang::prelude::AccountInfo, anchor_lang::error::Error>::Ok", %"std::result::Result<anchor_lang::prelude::AccountInfo, anchor_lang::error::Error>::Ok"* %8, i32 0, i32 1, !dbg !1661
  %10 = bitcast %"anchor_lang::prelude::AccountInfo"* %9 to i8*, !dbg !1661
  %11 = bitcast %"anchor_lang::prelude::AccountInfo"* %_5 to i8*, !dbg !1661
  call void @llvm.memcpy.p0i8.p0i8.i64(i8* align 8 %10, i8* align 8 %11, i64 48, i1 false), !dbg !1661
  %12 = bitcast %"std::result::Result<anchor_lang::prelude::AccountInfo, anchor_lang::error::Error>"* %0 to i64*, !dbg !1661
  store i64 0, i64* %12, align 8, !dbg !1661
  br label %bb5, !dbg !1662

bb1:                                              ; preds = %start
  %13 = bitcast %"std::result::Result<anchor_lang::prelude::AccountInfo, anchor_lang::error::Error>"* %self to %"std::result::Result<anchor_lang::prelude::AccountInfo, anchor_lang::error::Error>::Err"*, !dbg !1663
  %14 = getelementptr inbounds %"std::result::Result<anchor_lang::prelude::AccountInfo, anchor_lang::error::Error>::Err", %"std::result::Result<anchor_lang::prelude::AccountInfo, anchor_lang::error::Error>::Err"* %13, i32 0, i32 1, !dbg !1663
  %15 = bitcast %"anchor_lang::error::Error"* %e to i8*, !dbg !1663
  %16 = bitcast %"anchor_lang::error::Error"* %14 to i8*, !dbg !1663
  call void @llvm.memcpy.p0i8.p0i8.i64(i8* align 8 %15, i8* align 8 %16, i64 112, i1 false), !dbg !1663
  store i8 0, i8* %_11, align 1, !dbg !1664
  %17 = bitcast %"anchor_lang::error::Error"* %_10 to i8*, !dbg !1665
  %18 = bitcast %"anchor_lang::error::Error"* %e to i8*, !dbg !1665
  call void @llvm.memcpy.p0i8.p0i8.i64(i8* align 8 %17, i8* align 8 %18, i64 112, i1 false), !dbg !1665
  %19 = bitcast { %"anchor_lang::error::Error" }* %_9 to %"anchor_lang::error::Error"*, !dbg !1664
  %20 = bitcast %"anchor_lang::error::Error"* %19 to i8*, !dbg !1664
  %21 = bitcast %"anchor_lang::error::Error"* %_10 to i8*, !dbg !1664
  call void @llvm.memcpy.p0i8.p0i8.i64(i8* align 8 %20, i8* align 8 %21, i64 112, i1 false), !dbg !1664
  %22 = bitcast { %"anchor_lang::error::Error" }* %_9 to %"anchor_lang::error::Error"*, !dbg !1664
; call <anchor_spl::associated_token::Create as anchor_lang::Accounts>::try_accounts::{{closure}}
  call void @"_ZN78_$LT$anchor_spl..associated_token..Create$u20$as$u20$anchor_lang..Accounts$GT$12try_accounts28_$u7b$$u7b$closure$u7d$$u7d$17h2d86a54a21dbb815E"(%"anchor_lang::error::Error"* noalias nocapture sret(%"anchor_lang::error::Error") dereferenceable(112) %_7, %"anchor_lang::error::Error"* noalias nocapture dereferenceable(112) %22), !dbg !1664
  br label %bb4, !dbg !1664

bb4:                                              ; preds = %bb1
  %23 = bitcast %"std::result::Result<anchor_lang::prelude::AccountInfo, anchor_lang::error::Error>"* %0 to %"std::result::Result<anchor_lang::prelude::AccountInfo, anchor_lang::error::Error>::Err"*, !dbg !1666
  %24 = getelementptr inbounds %"std::result::Result<anchor_lang::prelude::AccountInfo, anchor_lang::error::Error>::Err", %"std::result::Result<anchor_lang::prelude::AccountInfo, anchor_lang::error::Error>::Err"* %23, i32 0, i32 1, !dbg !1666
  %25 = bitcast %"anchor_lang::error::Error"* %24 to i8*, !dbg !1666
  %26 = bitcast %"anchor_lang::error::Error"* %_7 to i8*, !dbg !1666
  call void @llvm.memcpy.p0i8.p0i8.i64(i8* align 8 %25, i8* align 8 %26, i64 112, i1 false), !dbg !1666
  %27 = bitcast %"std::result::Result<anchor_lang::prelude::AccountInfo, anchor_lang::error::Error>"* %0 to i64*, !dbg !1666
  store i64 1, i64* %27, align 8, !dbg !1666
  br label %bb5, !dbg !1667

bb5:                                              ; preds = %bb3, %bb4
  %28 = load i8, i8* %_11, align 1, !dbg !1668, !range !1194
  %29 = trunc i8 %28 to i1, !dbg !1668
  br i1 %29, label %bb7, label %bb6, !dbg !1668

bb6:                                              ; preds = %bb7, %bb5
  ret void, !dbg !1669

bb7:                                              ; preds = %bb5
  br label %bb6, !dbg !1668
}

; core::result::Result<T,E>::map_err
; Function Attrs: inlinehint nounwind
define void @"_ZN4core6result19Result$LT$T$C$E$GT$7map_err17h3e72e391e4418481E"(%"std::result::Result<anchor_lang::prelude::AccountInfo, anchor_lang::error::Error>"* noalias nocapture sret(%"std::result::Result<anchor_lang::prelude::AccountInfo, anchor_lang::error::Error>") dereferenceable(120) %0, %"std::result::Result<anchor_lang::prelude::AccountInfo, anchor_lang::error::Error>"* noalias nocapture dereferenceable(120) %self) unnamed_addr #0 !dbg !1670 {
start:
  %op.dbg.spill = alloca %"[closure@/home/seaceved/.cargo/registry/src/github.com-1ecc6299db9ec823/anchor-spl-0.22.0/src/token.rs:302:10: 302:18]", align 1
  %_11 = alloca i8, align 1
  %_10 = alloca %"anchor_lang::error::Error", align 8
  %_9 = alloca { %"anchor_lang::error::Error" }, align 8
  %_7 = alloca %"anchor_lang::error::Error", align 8
  %e = alloca %"anchor_lang::error::Error", align 8
  %_5 = alloca %"anchor_lang::prelude::AccountInfo", align 8
  %t = alloca %"anchor_lang::prelude::AccountInfo", align 8
  call void @llvm.dbg.declare(metadata %"std::result::Result<anchor_lang::prelude::AccountInfo, anchor_lang::error::Error>"* %self, metadata !1677, metadata !DIExpression()), !dbg !1685
  call void @llvm.dbg.declare(metadata %"[closure@/home/seaceved/.cargo/registry/src/github.com-1ecc6299db9ec823/anchor-spl-0.22.0/src/token.rs:302:10: 302:18]"* %op.dbg.spill, metadata !1678, metadata !DIExpression()), !dbg !1686
  call void @llvm.dbg.declare(metadata %"anchor_lang::prelude::AccountInfo"* %t, metadata !1679, metadata !DIExpression()), !dbg !1687
  call void @llvm.dbg.declare(metadata %"anchor_lang::error::Error"* %e, metadata !1681, metadata !DIExpression()), !dbg !1688
  store i8 0, i8* %_11, align 1, !dbg !1689
  store i8 1, i8* %_11, align 1, !dbg !1689
  %1 = bitcast %"std::result::Result<anchor_lang::prelude::AccountInfo, anchor_lang::error::Error>"* %self to i64*, !dbg !1689
  %_3 = load i64, i64* %1, align 8, !dbg !1689, !range !1292
  switch i64 %_3, label %bb2 [
    i64 0, label %bb3
    i64 1, label %bb1
  ], !dbg !1690

bb2:                                              ; preds = %start
  unreachable, !dbg !1689

bb3:                                              ; preds = %start
  %2 = bitcast %"std::result::Result<anchor_lang::prelude::AccountInfo, anchor_lang::error::Error>"* %self to %"std::result::Result<anchor_lang::prelude::AccountInfo, anchor_lang::error::Error>::Ok"*, !dbg !1691
  %3 = getelementptr inbounds %"std::result::Result<anchor_lang::prelude::AccountInfo, anchor_lang::error::Error>::Ok", %"std::result::Result<anchor_lang::prelude::AccountInfo, anchor_lang::error::Error>::Ok"* %2, i32 0, i32 1, !dbg !1691
  %4 = bitcast %"anchor_lang::prelude::AccountInfo"* %t to i8*, !dbg !1691
  %5 = bitcast %"anchor_lang::prelude::AccountInfo"* %3 to i8*, !dbg !1691
  call void @llvm.memcpy.p0i8.p0i8.i64(i8* align 8 %4, i8* align 8 %5, i64 48, i1 false), !dbg !1691
  %6 = bitcast %"anchor_lang::prelude::AccountInfo"* %_5 to i8*, !dbg !1692
  %7 = bitcast %"anchor_lang::prelude::AccountInfo"* %t to i8*, !dbg !1692
  call void @llvm.memcpy.p0i8.p0i8.i64(i8* align 8 %6, i8* align 8 %7, i64 48, i1 false), !dbg !1692
  %8 = bitcast %"std::result::Result<anchor_lang::prelude::AccountInfo, anchor_lang::error::Error>"* %0 to %"std::result::Result<anchor_lang::prelude::AccountInfo, anchor_lang::error::Error>::Ok"*, !dbg !1693
  %9 = getelementptr inbounds %"std::result::Result<anchor_lang::prelude::AccountInfo, anchor_lang::error::Error>::Ok", %"std::result::Result<anchor_lang::prelude::AccountInfo, anchor_lang::error::Error>::Ok"* %8, i32 0, i32 1, !dbg !1693
  %10 = bitcast %"anchor_lang::prelude::AccountInfo"* %9 to i8*, !dbg !1693
  %11 = bitcast %"anchor_lang::prelude::AccountInfo"* %_5 to i8*, !dbg !1693
  call void @llvm.memcpy.p0i8.p0i8.i64(i8* align 8 %10, i8* align 8 %11, i64 48, i1 false), !dbg !1693
  %12 = bitcast %"std::result::Result<anchor_lang::prelude::AccountInfo, anchor_lang::error::Error>"* %0 to i64*, !dbg !1693
  store i64 0, i64* %12, align 8, !dbg !1693
  br label %bb5, !dbg !1694

bb1:                                              ; preds = %start
  %13 = bitcast %"std::result::Result<anchor_lang::prelude::AccountInfo, anchor_lang::error::Error>"* %self to %"std::result::Result<anchor_lang::prelude::AccountInfo, anchor_lang::error::Error>::Err"*, !dbg !1695
  %14 = getelementptr inbounds %"std::result::Result<anchor_lang::prelude::AccountInfo, anchor_lang::error::Error>::Err", %"std::result::Result<anchor_lang::prelude::AccountInfo, anchor_lang::error::Error>::Err"* %13, i32 0, i32 1, !dbg !1695
  %15 = bitcast %"anchor_lang::error::Error"* %e to i8*, !dbg !1695
  %16 = bitcast %"anchor_lang::error::Error"* %14 to i8*, !dbg !1695
  call void @llvm.memcpy.p0i8.p0i8.i64(i8* align 8 %15, i8* align 8 %16, i64 112, i1 false), !dbg !1695
  store i8 0, i8* %_11, align 1, !dbg !1696
  %17 = bitcast %"anchor_lang::error::Error"* %_10 to i8*, !dbg !1697
  %18 = bitcast %"anchor_lang::error::Error"* %e to i8*, !dbg !1697
  call void @llvm.memcpy.p0i8.p0i8.i64(i8* align 8 %17, i8* align 8 %18, i64 112, i1 false), !dbg !1697
  %19 = bitcast { %"anchor_lang::error::Error" }* %_9 to %"anchor_lang::error::Error"*, !dbg !1696
  %20 = bitcast %"anchor_lang::error::Error"* %19 to i8*, !dbg !1696
  %21 = bitcast %"anchor_lang::error::Error"* %_10 to i8*, !dbg !1696
  call void @llvm.memcpy.p0i8.p0i8.i64(i8* align 8 %20, i8* align 8 %21, i64 112, i1 false), !dbg !1696
  %22 = bitcast { %"anchor_lang::error::Error" }* %_9 to %"anchor_lang::error::Error"*, !dbg !1696
; call <anchor_spl::token::InitializeMint as anchor_lang::Accounts>::try_accounts::{{closure}}
  call void @"_ZN75_$LT$anchor_spl..token..InitializeMint$u20$as$u20$anchor_lang..Accounts$GT$12try_accounts28_$u7b$$u7b$closure$u7d$$u7d$17h5bcddb4787b78a65E"(%"anchor_lang::error::Error"* noalias nocapture sret(%"anchor_lang::error::Error") dereferenceable(112) %_7, %"anchor_lang::error::Error"* noalias nocapture dereferenceable(112) %22), !dbg !1696
  br label %bb4, !dbg !1696

bb4:                                              ; preds = %bb1
  %23 = bitcast %"std::result::Result<anchor_lang::prelude::AccountInfo, anchor_lang::error::Error>"* %0 to %"std::result::Result<anchor_lang::prelude::AccountInfo, anchor_lang::error::Error>::Err"*, !dbg !1698
  %24 = getelementptr inbounds %"std::result::Result<anchor_lang::prelude::AccountInfo, anchor_lang::error::Error>::Err", %"std::result::Result<anchor_lang::prelude::AccountInfo, anchor_lang::error::Error>::Err"* %23, i32 0, i32 1, !dbg !1698
  %25 = bitcast %"anchor_lang::error::Error"* %24 to i8*, !dbg !1698
  %26 = bitcast %"anchor_lang::error::Error"* %_7 to i8*, !dbg !1698
  call void @llvm.memcpy.p0i8.p0i8.i64(i8* align 8 %25, i8* align 8 %26, i64 112, i1 false), !dbg !1698
  %27 = bitcast %"std::result::Result<anchor_lang::prelude::AccountInfo, anchor_lang::error::Error>"* %0 to i64*, !dbg !1698
  store i64 1, i64* %27, align 8, !dbg !1698
  br label %bb5, !dbg !1699

bb5:                                              ; preds = %bb3, %bb4
  %28 = load i8, i8* %_11, align 1, !dbg !1700, !range !1194
  %29 = trunc i8 %28 to i1, !dbg !1700
  br i1 %29, label %bb7, label %bb6, !dbg !1700

bb6:                                              ; preds = %bb7, %bb5
  ret void, !dbg !1701

bb7:                                              ; preds = %bb5
  br label %bb6, !dbg !1700
}

; core::result::Result<T,E>::map_err
; Function Attrs: inlinehint nounwind
define void @"_ZN4core6result19Result$LT$T$C$E$GT$7map_err17h4a542f69006301a5E"(%"std::result::Result<anchor_lang::prelude::AccountInfo, anchor_lang::error::Error>"* noalias nocapture sret(%"std::result::Result<anchor_lang::prelude::AccountInfo, anchor_lang::error::Error>") dereferenceable(120) %0, %"std::result::Result<anchor_lang::prelude::AccountInfo, anchor_lang::error::Error>"* noalias nocapture dereferenceable(120) %self) unnamed_addr #0 !dbg !1702 {
start:
  %op.dbg.spill = alloca %"[closure@/home/seaceved/.cargo/registry/src/github.com-1ecc6299db9ec823/anchor-spl-0.22.0/src/token.rs:252:10: 252:18].2", align 1
  %_11 = alloca i8, align 1
  %_10 = alloca %"anchor_lang::error::Error", align 8
  %_9 = alloca { %"anchor_lang::error::Error" }, align 8
  %_7 = alloca %"anchor_lang::error::Error", align 8
  %e = alloca %"anchor_lang::error::Error", align 8
  %_5 = alloca %"anchor_lang::prelude::AccountInfo", align 8
  %t = alloca %"anchor_lang::prelude::AccountInfo", align 8
  call void @llvm.dbg.declare(metadata %"std::result::Result<anchor_lang::prelude::AccountInfo, anchor_lang::error::Error>"* %self, metadata !1707, metadata !DIExpression()), !dbg !1715
  call void @llvm.dbg.declare(metadata %"[closure@/home/seaceved/.cargo/registry/src/github.com-1ecc6299db9ec823/anchor-spl-0.22.0/src/token.rs:252:10: 252:18].2"* %op.dbg.spill, metadata !1708, metadata !DIExpression()), !dbg !1716
  call void @llvm.dbg.declare(metadata %"anchor_lang::prelude::AccountInfo"* %t, metadata !1709, metadata !DIExpression()), !dbg !1717
  call void @llvm.dbg.declare(metadata %"anchor_lang::error::Error"* %e, metadata !1711, metadata !DIExpression()), !dbg !1718
  store i8 0, i8* %_11, align 1, !dbg !1719
  store i8 1, i8* %_11, align 1, !dbg !1719
  %1 = bitcast %"std::result::Result<anchor_lang::prelude::AccountInfo, anchor_lang::error::Error>"* %self to i64*, !dbg !1719
  %_3 = load i64, i64* %1, align 8, !dbg !1719, !range !1292
  switch i64 %_3, label %bb2 [
    i64 0, label %bb3
    i64 1, label %bb1
  ], !dbg !1720

bb2:                                              ; preds = %start
  unreachable, !dbg !1719

bb3:                                              ; preds = %start
  %2 = bitcast %"std::result::Result<anchor_lang::prelude::AccountInfo, anchor_lang::error::Error>"* %self to %"std::result::Result<anchor_lang::prelude::AccountInfo, anchor_lang::error::Error>::Ok"*, !dbg !1721
  %3 = getelementptr inbounds %"std::result::Result<anchor_lang::prelude::AccountInfo, anchor_lang::error::Error>::Ok", %"std::result::Result<anchor_lang::prelude::AccountInfo, anchor_lang::error::Error>::Ok"* %2, i32 0, i32 1, !dbg !1721
  %4 = bitcast %"anchor_lang::prelude::AccountInfo"* %t to i8*, !dbg !1721
  %5 = bitcast %"anchor_lang::prelude::AccountInfo"* %3 to i8*, !dbg !1721
  call void @llvm.memcpy.p0i8.p0i8.i64(i8* align 8 %4, i8* align 8 %5, i64 48, i1 false), !dbg !1721
  %6 = bitcast %"anchor_lang::prelude::AccountInfo"* %_5 to i8*, !dbg !1722
  %7 = bitcast %"anchor_lang::prelude::AccountInfo"* %t to i8*, !dbg !1722
  call void @llvm.memcpy.p0i8.p0i8.i64(i8* align 8 %6, i8* align 8 %7, i64 48, i1 false), !dbg !1722
  %8 = bitcast %"std::result::Result<anchor_lang::prelude::AccountInfo, anchor_lang::error::Error>"* %0 to %"std::result::Result<anchor_lang::prelude::AccountInfo, anchor_lang::error::Error>::Ok"*, !dbg !1723
  %9 = getelementptr inbounds %"std::result::Result<anchor_lang::prelude::AccountInfo, anchor_lang::error::Error>::Ok", %"std::result::Result<anchor_lang::prelude::AccountInfo, anchor_lang::error::Error>::Ok"* %8, i32 0, i32 1, !dbg !1723
  %10 = bitcast %"anchor_lang::prelude::AccountInfo"* %9 to i8*, !dbg !1723
  %11 = bitcast %"anchor_lang::prelude::AccountInfo"* %_5 to i8*, !dbg !1723
  call void @llvm.memcpy.p0i8.p0i8.i64(i8* align 8 %10, i8* align 8 %11, i64 48, i1 false), !dbg !1723
  %12 = bitcast %"std::result::Result<anchor_lang::prelude::AccountInfo, anchor_lang::error::Error>"* %0 to i64*, !dbg !1723
  store i64 0, i64* %12, align 8, !dbg !1723
  br label %bb5, !dbg !1724

bb1:                                              ; preds = %start
  %13 = bitcast %"std::result::Result<anchor_lang::prelude::AccountInfo, anchor_lang::error::Error>"* %self to %"std::result::Result<anchor_lang::prelude::AccountInfo, anchor_lang::error::Error>::Err"*, !dbg !1725
  %14 = getelementptr inbounds %"std::result::Result<anchor_lang::prelude::AccountInfo, anchor_lang::error::Error>::Err", %"std::result::Result<anchor_lang::prelude::AccountInfo, anchor_lang::error::Error>::Err"* %13, i32 0, i32 1, !dbg !1725
  %15 = bitcast %"anchor_lang::error::Error"* %e to i8*, !dbg !1725
  %16 = bitcast %"anchor_lang::error::Error"* %14 to i8*, !dbg !1725
  call void @llvm.memcpy.p0i8.p0i8.i64(i8* align 8 %15, i8* align 8 %16, i64 112, i1 false), !dbg !1725
  store i8 0, i8* %_11, align 1, !dbg !1726
  %17 = bitcast %"anchor_lang::error::Error"* %_10 to i8*, !dbg !1727
  %18 = bitcast %"anchor_lang::error::Error"* %e to i8*, !dbg !1727
  call void @llvm.memcpy.p0i8.p0i8.i64(i8* align 8 %17, i8* align 8 %18, i64 112, i1 false), !dbg !1727
  %19 = bitcast { %"anchor_lang::error::Error" }* %_9 to %"anchor_lang::error::Error"*, !dbg !1726
  %20 = bitcast %"anchor_lang::error::Error"* %19 to i8*, !dbg !1726
  %21 = bitcast %"anchor_lang::error::Error"* %_10 to i8*, !dbg !1726
  call void @llvm.memcpy.p0i8.p0i8.i64(i8* align 8 %20, i8* align 8 %21, i64 112, i1 false), !dbg !1726
  %22 = bitcast { %"anchor_lang::error::Error" }* %_9 to %"anchor_lang::error::Error"*, !dbg !1726
; call <anchor_spl::token::MintTo as anchor_lang::Accounts>::try_accounts::{{closure}}
  call void @"_ZN67_$LT$anchor_spl..token..MintTo$u20$as$u20$anchor_lang..Accounts$GT$12try_accounts28_$u7b$$u7b$closure$u7d$$u7d$17hbd92e6542f93d7ceE"(%"anchor_lang::error::Error"* noalias nocapture sret(%"anchor_lang::error::Error") dereferenceable(112) %_7, %"anchor_lang::error::Error"* noalias nocapture dereferenceable(112) %22), !dbg !1726
  br label %bb4, !dbg !1726

bb4:                                              ; preds = %bb1
  %23 = bitcast %"std::result::Result<anchor_lang::prelude::AccountInfo, anchor_lang::error::Error>"* %0 to %"std::result::Result<anchor_lang::prelude::AccountInfo, anchor_lang::error::Error>::Err"*, !dbg !1728
  %24 = getelementptr inbounds %"std::result::Result<anchor_lang::prelude::AccountInfo, anchor_lang::error::Error>::Err", %"std::result::Result<anchor_lang::prelude::AccountInfo, anchor_lang::error::Error>::Err"* %23, i32 0, i32 1, !dbg !1728
  %25 = bitcast %"anchor_lang::error::Error"* %24 to i8*, !dbg !1728
  %26 = bitcast %"anchor_lang::error::Error"* %_7 to i8*, !dbg !1728
  call void @llvm.memcpy.p0i8.p0i8.i64(i8* align 8 %25, i8* align 8 %26, i64 112, i1 false), !dbg !1728
  %27 = bitcast %"std::result::Result<anchor_lang::prelude::AccountInfo, anchor_lang::error::Error>"* %0 to i64*, !dbg !1728
  store i64 1, i64* %27, align 8, !dbg !1728
  br label %bb5, !dbg !1729

bb5:                                              ; preds = %bb3, %bb4
  %28 = load i8, i8* %_11, align 1, !dbg !1730, !range !1194
  %29 = trunc i8 %28 to i1, !dbg !1730
  br i1 %29, label %bb7, label %bb6, !dbg !1730

bb6:                                              ; preds = %bb7, %bb5
  ret void, !dbg !1731

bb7:                                              ; preds = %bb5
  br label %bb6, !dbg !1730
}

; core::result::Result<T,E>::map_err
; Function Attrs: inlinehint nounwind
define void @"_ZN4core6result19Result$LT$T$C$E$GT$7map_err17h4b325a9e21866bd6E"(%"std::result::Result<token::Mint, anchor_lang::error::Error>"* noalias nocapture sret(%"std::result::Result<token::Mint, anchor_lang::error::Error>") dereferenceable(120) %0, %"std::result::Result<token::Mint, anchor_lang::prelude::ProgramError>"* noalias nocapture dereferenceable(96) %self) unnamed_addr #0 !dbg !1732 {
start:
  %op.dbg.spill = alloca {}, align 1
  %_11 = alloca i8, align 1
  %_10 = alloca %"anchor_lang::prelude::ProgramError", align 8
  %_9 = alloca { %"anchor_lang::prelude::ProgramError" }, align 8
  %_7 = alloca %"anchor_lang::error::Error", align 8
  %e = alloca %"anchor_lang::prelude::ProgramError", align 8
  %_5 = alloca %"token::Mint", align 8
  %t = alloca %"token::Mint", align 8
  call void @llvm.dbg.declare(metadata %"std::result::Result<token::Mint, anchor_lang::prelude::ProgramError>"* %self, metadata !1749, metadata !DIExpression()), !dbg !1756
  call void @llvm.dbg.declare(metadata {}* %op.dbg.spill, metadata !1750, metadata !DIExpression()), !dbg !1757
  call void @llvm.dbg.declare(metadata %"token::Mint"* %t, metadata !1751, metadata !DIExpression()), !dbg !1758
  call void @llvm.dbg.declare(metadata %"anchor_lang::prelude::ProgramError"* %e, metadata !1753, metadata !DIExpression()), !dbg !1759
  store i8 0, i8* %_11, align 1, !dbg !1760
  store i8 1, i8* %_11, align 1, !dbg !1760
  %1 = bitcast %"std::result::Result<token::Mint, anchor_lang::prelude::ProgramError>"* %self to i64*, !dbg !1760
  %_3 = load i64, i64* %1, align 8, !dbg !1760, !range !1292
  switch i64 %_3, label %bb2 [
    i64 0, label %bb3
    i64 1, label %bb1
  ], !dbg !1761

bb2:                                              ; preds = %start
  unreachable, !dbg !1760

bb3:                                              ; preds = %start
  %2 = bitcast %"std::result::Result<token::Mint, anchor_lang::prelude::ProgramError>"* %self to %"std::result::Result<token::Mint, anchor_lang::prelude::ProgramError>::Ok"*, !dbg !1762
  %3 = getelementptr inbounds %"std::result::Result<token::Mint, anchor_lang::prelude::ProgramError>::Ok", %"std::result::Result<token::Mint, anchor_lang::prelude::ProgramError>::Ok"* %2, i32 0, i32 1, !dbg !1762
  %4 = bitcast %"token::Mint"* %t to i8*, !dbg !1762
  %5 = bitcast %"token::Mint"* %3 to i8*, !dbg !1762
  call void @llvm.memcpy.p0i8.p0i8.i64(i8* align 8 %4, i8* align 8 %5, i64 88, i1 false), !dbg !1762
  %6 = bitcast %"token::Mint"* %_5 to i8*, !dbg !1763
  %7 = bitcast %"token::Mint"* %t to i8*, !dbg !1763
  call void @llvm.memcpy.p0i8.p0i8.i64(i8* align 8 %6, i8* align 8 %7, i64 88, i1 false), !dbg !1763
  %8 = bitcast %"std::result::Result<token::Mint, anchor_lang::error::Error>"* %0 to %"std::result::Result<token::Mint, anchor_lang::error::Error>::Ok"*, !dbg !1764
  %9 = getelementptr inbounds %"std::result::Result<token::Mint, anchor_lang::error::Error>::Ok", %"std::result::Result<token::Mint, anchor_lang::error::Error>::Ok"* %8, i32 0, i32 1, !dbg !1764
  %10 = bitcast %"token::Mint"* %9 to i8*, !dbg !1764
  %11 = bitcast %"token::Mint"* %_5 to i8*, !dbg !1764
  call void @llvm.memcpy.p0i8.p0i8.i64(i8* align 8 %10, i8* align 8 %11, i64 88, i1 false), !dbg !1764
  %12 = bitcast %"std::result::Result<token::Mint, anchor_lang::error::Error>"* %0 to i64*, !dbg !1764
  store i64 0, i64* %12, align 8, !dbg !1764
  br label %bb5, !dbg !1765

bb1:                                              ; preds = %start
  %13 = bitcast %"std::result::Result<token::Mint, anchor_lang::prelude::ProgramError>"* %self to %"std::result::Result<token::Mint, anchor_lang::prelude::ProgramError>::Err"*, !dbg !1766
  %14 = getelementptr inbounds %"std::result::Result<token::Mint, anchor_lang::prelude::ProgramError>::Err", %"std::result::Result<token::Mint, anchor_lang::prelude::ProgramError>::Err"* %13, i32 0, i32 1, !dbg !1766
  %15 = bitcast %"anchor_lang::prelude::ProgramError"* %e to i8*, !dbg !1766
  %16 = bitcast %"anchor_lang::prelude::ProgramError"* %14 to i8*, !dbg !1766
  call void @llvm.memcpy.p0i8.p0i8.i64(i8* align 8 %15, i8* align 8 %16, i64 32, i1 false), !dbg !1766
  store i8 0, i8* %_11, align 1, !dbg !1767
  %17 = bitcast %"anchor_lang::prelude::ProgramError"* %_10 to i8*, !dbg !1768
  %18 = bitcast %"anchor_lang::prelude::ProgramError"* %e to i8*, !dbg !1768
  call void @llvm.memcpy.p0i8.p0i8.i64(i8* align 8 %17, i8* align 8 %18, i64 32, i1 false), !dbg !1768
  %19 = bitcast { %"anchor_lang::prelude::ProgramError" }* %_9 to %"anchor_lang::prelude::ProgramError"*, !dbg !1767
  %20 = bitcast %"anchor_lang::prelude::ProgramError"* %19 to i8*, !dbg !1767
  %21 = bitcast %"anchor_lang::prelude::ProgramError"* %_10 to i8*, !dbg !1767
  call void @llvm.memcpy.p0i8.p0i8.i64(i8* align 8 %20, i8* align 8 %21, i64 32, i1 false), !dbg !1767
  %22 = bitcast { %"anchor_lang::prelude::ProgramError" }* %_9 to %"anchor_lang::prelude::ProgramError"*, !dbg !1767
; call core::ops::function::FnOnce::call_once
  call void @_ZN4core3ops8function6FnOnce9call_once17h431c2d96cdd326f2E(%"anchor_lang::error::Error"* noalias nocapture sret(%"anchor_lang::error::Error") dereferenceable(112) %_7, %"anchor_lang::prelude::ProgramError"* noalias nocapture dereferenceable(32) %22), !dbg !1767
  br label %bb4, !dbg !1767

bb4:                                              ; preds = %bb1
  %23 = bitcast %"std::result::Result<token::Mint, anchor_lang::error::Error>"* %0 to %"std::result::Result<token::Mint, anchor_lang::error::Error>::Err"*, !dbg !1769
  %24 = getelementptr inbounds %"std::result::Result<token::Mint, anchor_lang::error::Error>::Err", %"std::result::Result<token::Mint, anchor_lang::error::Error>::Err"* %23, i32 0, i32 1, !dbg !1769
  %25 = bitcast %"anchor_lang::error::Error"* %24 to i8*, !dbg !1769
  %26 = bitcast %"anchor_lang::error::Error"* %_7 to i8*, !dbg !1769
  call void @llvm.memcpy.p0i8.p0i8.i64(i8* align 8 %25, i8* align 8 %26, i64 112, i1 false), !dbg !1769
  %27 = bitcast %"std::result::Result<token::Mint, anchor_lang::error::Error>"* %0 to i64*, !dbg !1769
  store i64 1, i64* %27, align 8, !dbg !1769
  br label %bb5, !dbg !1770

bb5:                                              ; preds = %bb3, %bb4
  %28 = load i8, i8* %_11, align 1, !dbg !1771, !range !1194
  %29 = trunc i8 %28 to i1, !dbg !1771
  br i1 %29, label %bb7, label %bb6, !dbg !1771

bb6:                                              ; preds = %bb7, %bb5
  ret void, !dbg !1772

bb7:                                              ; preds = %bb5
  br label %bb6, !dbg !1771
}

; core::result::Result<T,E>::map_err
; Function Attrs: inlinehint nounwind
define void @"_ZN4core6result19Result$LT$T$C$E$GT$7map_err17h4e23570f013b86f3E"(%"std::result::Result<anchor_lang::prelude::AccountInfo, anchor_lang::error::Error>"* noalias nocapture sret(%"std::result::Result<anchor_lang::prelude::AccountInfo, anchor_lang::error::Error>") dereferenceable(120) %0, %"std::result::Result<anchor_lang::prelude::AccountInfo, anchor_lang::error::Error>"* noalias nocapture dereferenceable(120) %self) unnamed_addr #0 !dbg !1773 {
start:
  %op.dbg.spill = alloca %"[closure@/home/seaceved/.cargo/registry/src/github.com-1ecc6299db9ec823/anchor-spl-0.22.0/src/token.rs:308:10: 308:18]", align 1
  %_11 = alloca i8, align 1
  %_10 = alloca %"anchor_lang::error::Error", align 8
  %_9 = alloca { %"anchor_lang::error::Error" }, align 8
  %_7 = alloca %"anchor_lang::error::Error", align 8
  %e = alloca %"anchor_lang::error::Error", align 8
  %_5 = alloca %"anchor_lang::prelude::AccountInfo", align 8
  %t = alloca %"anchor_lang::prelude::AccountInfo", align 8
  call void @llvm.dbg.declare(metadata %"std::result::Result<anchor_lang::prelude::AccountInfo, anchor_lang::error::Error>"* %self, metadata !1780, metadata !DIExpression()), !dbg !1788
  call void @llvm.dbg.declare(metadata %"[closure@/home/seaceved/.cargo/registry/src/github.com-1ecc6299db9ec823/anchor-spl-0.22.0/src/token.rs:308:10: 308:18]"* %op.dbg.spill, metadata !1781, metadata !DIExpression()), !dbg !1789
  call void @llvm.dbg.declare(metadata %"anchor_lang::prelude::AccountInfo"* %t, metadata !1782, metadata !DIExpression()), !dbg !1790
  call void @llvm.dbg.declare(metadata %"anchor_lang::error::Error"* %e, metadata !1784, metadata !DIExpression()), !dbg !1791
  store i8 0, i8* %_11, align 1, !dbg !1792
  store i8 1, i8* %_11, align 1, !dbg !1792
  %1 = bitcast %"std::result::Result<anchor_lang::prelude::AccountInfo, anchor_lang::error::Error>"* %self to i64*, !dbg !1792
  %_3 = load i64, i64* %1, align 8, !dbg !1792, !range !1292
  switch i64 %_3, label %bb2 [
    i64 0, label %bb3
    i64 1, label %bb1
  ], !dbg !1793

bb2:                                              ; preds = %start
  unreachable, !dbg !1792

bb3:                                              ; preds = %start
  %2 = bitcast %"std::result::Result<anchor_lang::prelude::AccountInfo, anchor_lang::error::Error>"* %self to %"std::result::Result<anchor_lang::prelude::AccountInfo, anchor_lang::error::Error>::Ok"*, !dbg !1794
  %3 = getelementptr inbounds %"std::result::Result<anchor_lang::prelude::AccountInfo, anchor_lang::error::Error>::Ok", %"std::result::Result<anchor_lang::prelude::AccountInfo, anchor_lang::error::Error>::Ok"* %2, i32 0, i32 1, !dbg !1794
  %4 = bitcast %"anchor_lang::prelude::AccountInfo"* %t to i8*, !dbg !1794
  %5 = bitcast %"anchor_lang::prelude::AccountInfo"* %3 to i8*, !dbg !1794
  call void @llvm.memcpy.p0i8.p0i8.i64(i8* align 8 %4, i8* align 8 %5, i64 48, i1 false), !dbg !1794
  %6 = bitcast %"anchor_lang::prelude::AccountInfo"* %_5 to i8*, !dbg !1795
  %7 = bitcast %"anchor_lang::prelude::AccountInfo"* %t to i8*, !dbg !1795
  call void @llvm.memcpy.p0i8.p0i8.i64(i8* align 8 %6, i8* align 8 %7, i64 48, i1 false), !dbg !1795
  %8 = bitcast %"std::result::Result<anchor_lang::prelude::AccountInfo, anchor_lang::error::Error>"* %0 to %"std::result::Result<anchor_lang::prelude::AccountInfo, anchor_lang::error::Error>::Ok"*, !dbg !1796
  %9 = getelementptr inbounds %"std::result::Result<anchor_lang::prelude::AccountInfo, anchor_lang::error::Error>::Ok", %"std::result::Result<anchor_lang::prelude::AccountInfo, anchor_lang::error::Error>::Ok"* %8, i32 0, i32 1, !dbg !1796
  %10 = bitcast %"anchor_lang::prelude::AccountInfo"* %9 to i8*, !dbg !1796
  %11 = bitcast %"anchor_lang::prelude::AccountInfo"* %_5 to i8*, !dbg !1796
  call void @llvm.memcpy.p0i8.p0i8.i64(i8* align 8 %10, i8* align 8 %11, i64 48, i1 false), !dbg !1796
  %12 = bitcast %"std::result::Result<anchor_lang::prelude::AccountInfo, anchor_lang::error::Error>"* %0 to i64*, !dbg !1796
  store i64 0, i64* %12, align 8, !dbg !1796
  br label %bb5, !dbg !1797

bb1:                                              ; preds = %start
  %13 = bitcast %"std::result::Result<anchor_lang::prelude::AccountInfo, anchor_lang::error::Error>"* %self to %"std::result::Result<anchor_lang::prelude::AccountInfo, anchor_lang::error::Error>::Err"*, !dbg !1798
  %14 = getelementptr inbounds %"std::result::Result<anchor_lang::prelude::AccountInfo, anchor_lang::error::Error>::Err", %"std::result::Result<anchor_lang::prelude::AccountInfo, anchor_lang::error::Error>::Err"* %13, i32 0, i32 1, !dbg !1798
  %15 = bitcast %"anchor_lang::error::Error"* %e to i8*, !dbg !1798
  %16 = bitcast %"anchor_lang::error::Error"* %14 to i8*, !dbg !1798
  call void @llvm.memcpy.p0i8.p0i8.i64(i8* align 8 %15, i8* align 8 %16, i64 112, i1 false), !dbg !1798
  store i8 0, i8* %_11, align 1, !dbg !1799
  %17 = bitcast %"anchor_lang::error::Error"* %_10 to i8*, !dbg !1800
  %18 = bitcast %"anchor_lang::error::Error"* %e to i8*, !dbg !1800
  call void @llvm.memcpy.p0i8.p0i8.i64(i8* align 8 %17, i8* align 8 %18, i64 112, i1 false), !dbg !1800
  %19 = bitcast { %"anchor_lang::error::Error" }* %_9 to %"anchor_lang::error::Error"*, !dbg !1799
  %20 = bitcast %"anchor_lang::error::Error"* %19 to i8*, !dbg !1799
  %21 = bitcast %"anchor_lang::error::Error"* %_10 to i8*, !dbg !1799
  call void @llvm.memcpy.p0i8.p0i8.i64(i8* align 8 %20, i8* align 8 %21, i64 112, i1 false), !dbg !1799
  %22 = bitcast { %"anchor_lang::error::Error" }* %_9 to %"anchor_lang::error::Error"*, !dbg !1799
; call <anchor_spl::token::SetAuthority as anchor_lang::Accounts>::try_accounts::{{closure}}
  call void @"_ZN73_$LT$anchor_spl..token..SetAuthority$u20$as$u20$anchor_lang..Accounts$GT$12try_accounts28_$u7b$$u7b$closure$u7d$$u7d$17h941e60b4c7dde836E"(%"anchor_lang::error::Error"* noalias nocapture sret(%"anchor_lang::error::Error") dereferenceable(112) %_7, %"anchor_lang::error::Error"* noalias nocapture dereferenceable(112) %22), !dbg !1799
  br label %bb4, !dbg !1799

bb4:                                              ; preds = %bb1
  %23 = bitcast %"std::result::Result<anchor_lang::prelude::AccountInfo, anchor_lang::error::Error>"* %0 to %"std::result::Result<anchor_lang::prelude::AccountInfo, anchor_lang::error::Error>::Err"*, !dbg !1801
  %24 = getelementptr inbounds %"std::result::Result<anchor_lang::prelude::AccountInfo, anchor_lang::error::Error>::Err", %"std::result::Result<anchor_lang::prelude::AccountInfo, anchor_lang::error::Error>::Err"* %23, i32 0, i32 1, !dbg !1801
  %25 = bitcast %"anchor_lang::error::Error"* %24 to i8*, !dbg !1801
  %26 = bitcast %"anchor_lang::error::Error"* %_7 to i8*, !dbg !1801
  call void @llvm.memcpy.p0i8.p0i8.i64(i8* align 8 %25, i8* align 8 %26, i64 112, i1 false), !dbg !1801
  %27 = bitcast %"std::result::Result<anchor_lang::prelude::AccountInfo, anchor_lang::error::Error>"* %0 to i64*, !dbg !1801
  store i64 1, i64* %27, align 8, !dbg !1801
  br label %bb5, !dbg !1802

bb5:                                              ; preds = %bb3, %bb4
  %28 = load i8, i8* %_11, align 1, !dbg !1803, !range !1194
  %29 = trunc i8 %28 to i1, !dbg !1803
  br i1 %29, label %bb7, label %bb6, !dbg !1803

bb6:                                              ; preds = %bb7, %bb5
  ret void, !dbg !1804

bb7:                                              ; preds = %bb5
  br label %bb6, !dbg !1803
}

; core::result::Result<T,E>::map_err
; Function Attrs: inlinehint nounwind
define void @"_ZN4core6result19Result$LT$T$C$E$GT$7map_err17h5accd1d0a0a304b8E"(%"std::result::Result<anchor_lang::prelude::AccountInfo, anchor_lang::error::Error>"* noalias nocapture sret(%"std::result::Result<anchor_lang::prelude::AccountInfo, anchor_lang::error::Error>") dereferenceable(120) %0, %"std::result::Result<anchor_lang::prelude::AccountInfo, anchor_lang::error::Error>"* noalias nocapture dereferenceable(120) %self) unnamed_addr #0 !dbg !1805 {
start:
  %op.dbg.spill = alloca %"[closure@/home/seaceved/.cargo/registry/src/github.com-1ecc6299db9ec823/anchor-spl-0.22.0/src/token.rs:266:10: 266:18]", align 1
  %_11 = alloca i8, align 1
  %_10 = alloca %"anchor_lang::error::Error", align 8
  %_9 = alloca { %"anchor_lang::error::Error" }, align 8
  %_7 = alloca %"anchor_lang::error::Error", align 8
  %e = alloca %"anchor_lang::error::Error", align 8
  %_5 = alloca %"anchor_lang::prelude::AccountInfo", align 8
  %t = alloca %"anchor_lang::prelude::AccountInfo", align 8
  call void @llvm.dbg.declare(metadata %"std::result::Result<anchor_lang::prelude::AccountInfo, anchor_lang::error::Error>"* %self, metadata !1812, metadata !DIExpression()), !dbg !1820
  call void @llvm.dbg.declare(metadata %"[closure@/home/seaceved/.cargo/registry/src/github.com-1ecc6299db9ec823/anchor-spl-0.22.0/src/token.rs:266:10: 266:18]"* %op.dbg.spill, metadata !1813, metadata !DIExpression()), !dbg !1821
  call void @llvm.dbg.declare(metadata %"anchor_lang::prelude::AccountInfo"* %t, metadata !1814, metadata !DIExpression()), !dbg !1822
  call void @llvm.dbg.declare(metadata %"anchor_lang::error::Error"* %e, metadata !1816, metadata !DIExpression()), !dbg !1823
  store i8 0, i8* %_11, align 1, !dbg !1824
  store i8 1, i8* %_11, align 1, !dbg !1824
  %1 = bitcast %"std::result::Result<anchor_lang::prelude::AccountInfo, anchor_lang::error::Error>"* %self to i64*, !dbg !1824
  %_3 = load i64, i64* %1, align 8, !dbg !1824, !range !1292
  switch i64 %_3, label %bb2 [
    i64 0, label %bb3
    i64 1, label %bb1
  ], !dbg !1825

bb2:                                              ; preds = %start
  unreachable, !dbg !1824

bb3:                                              ; preds = %start
  %2 = bitcast %"std::result::Result<anchor_lang::prelude::AccountInfo, anchor_lang::error::Error>"* %self to %"std::result::Result<anchor_lang::prelude::AccountInfo, anchor_lang::error::Error>::Ok"*, !dbg !1826
  %3 = getelementptr inbounds %"std::result::Result<anchor_lang::prelude::AccountInfo, anchor_lang::error::Error>::Ok", %"std::result::Result<anchor_lang::prelude::AccountInfo, anchor_lang::error::Error>::Ok"* %2, i32 0, i32 1, !dbg !1826
  %4 = bitcast %"anchor_lang::prelude::AccountInfo"* %t to i8*, !dbg !1826
  %5 = bitcast %"anchor_lang::prelude::AccountInfo"* %3 to i8*, !dbg !1826
  call void @llvm.memcpy.p0i8.p0i8.i64(i8* align 8 %4, i8* align 8 %5, i64 48, i1 false), !dbg !1826
  %6 = bitcast %"anchor_lang::prelude::AccountInfo"* %_5 to i8*, !dbg !1827
  %7 = bitcast %"anchor_lang::prelude::AccountInfo"* %t to i8*, !dbg !1827
  call void @llvm.memcpy.p0i8.p0i8.i64(i8* align 8 %6, i8* align 8 %7, i64 48, i1 false), !dbg !1827
  %8 = bitcast %"std::result::Result<anchor_lang::prelude::AccountInfo, anchor_lang::error::Error>"* %0 to %"std::result::Result<anchor_lang::prelude::AccountInfo, anchor_lang::error::Error>::Ok"*, !dbg !1828
  %9 = getelementptr inbounds %"std::result::Result<anchor_lang::prelude::AccountInfo, anchor_lang::error::Error>::Ok", %"std::result::Result<anchor_lang::prelude::AccountInfo, anchor_lang::error::Error>::Ok"* %8, i32 0, i32 1, !dbg !1828
  %10 = bitcast %"anchor_lang::prelude::AccountInfo"* %9 to i8*, !dbg !1828
  %11 = bitcast %"anchor_lang::prelude::AccountInfo"* %_5 to i8*, !dbg !1828
  call void @llvm.memcpy.p0i8.p0i8.i64(i8* align 8 %10, i8* align 8 %11, i64 48, i1 false), !dbg !1828
  %12 = bitcast %"std::result::Result<anchor_lang::prelude::AccountInfo, anchor_lang::error::Error>"* %0 to i64*, !dbg !1828
  store i64 0, i64* %12, align 8, !dbg !1828
  br label %bb5, !dbg !1829

bb1:                                              ; preds = %start
  %13 = bitcast %"std::result::Result<anchor_lang::prelude::AccountInfo, anchor_lang::error::Error>"* %self to %"std::result::Result<anchor_lang::prelude::AccountInfo, anchor_lang::error::Error>::Err"*, !dbg !1830
  %14 = getelementptr inbounds %"std::result::Result<anchor_lang::prelude::AccountInfo, anchor_lang::error::Error>::Err", %"std::result::Result<anchor_lang::prelude::AccountInfo, anchor_lang::error::Error>::Err"* %13, i32 0, i32 1, !dbg !1830
  %15 = bitcast %"anchor_lang::error::Error"* %e to i8*, !dbg !1830
  %16 = bitcast %"anchor_lang::error::Error"* %14 to i8*, !dbg !1830
  call void @llvm.memcpy.p0i8.p0i8.i64(i8* align 8 %15, i8* align 8 %16, i64 112, i1 false), !dbg !1830
  store i8 0, i8* %_11, align 1, !dbg !1831
  %17 = bitcast %"anchor_lang::error::Error"* %_10 to i8*, !dbg !1832
  %18 = bitcast %"anchor_lang::error::Error"* %e to i8*, !dbg !1832
  call void @llvm.memcpy.p0i8.p0i8.i64(i8* align 8 %17, i8* align 8 %18, i64 112, i1 false), !dbg !1832
  %19 = bitcast { %"anchor_lang::error::Error" }* %_9 to %"anchor_lang::error::Error"*, !dbg !1831
  %20 = bitcast %"anchor_lang::error::Error"* %19 to i8*, !dbg !1831
  %21 = bitcast %"anchor_lang::error::Error"* %_10 to i8*, !dbg !1831
  call void @llvm.memcpy.p0i8.p0i8.i64(i8* align 8 %20, i8* align 8 %21, i64 112, i1 false), !dbg !1831
  %22 = bitcast { %"anchor_lang::error::Error" }* %_9 to %"anchor_lang::error::Error"*, !dbg !1831
; call <anchor_spl::token::Approve as anchor_lang::Accounts>::try_accounts::{{closure}}
  call void @"_ZN68_$LT$anchor_spl..token..Approve$u20$as$u20$anchor_lang..Accounts$GT$12try_accounts28_$u7b$$u7b$closure$u7d$$u7d$17h19e34bfea37dd7cfE"(%"anchor_lang::error::Error"* noalias nocapture sret(%"anchor_lang::error::Error") dereferenceable(112) %_7, %"anchor_lang::error::Error"* noalias nocapture dereferenceable(112) %22), !dbg !1831
  br label %bb4, !dbg !1831

bb4:                                              ; preds = %bb1
  %23 = bitcast %"std::result::Result<anchor_lang::prelude::AccountInfo, anchor_lang::error::Error>"* %0 to %"std::result::Result<anchor_lang::prelude::AccountInfo, anchor_lang::error::Error>::Err"*, !dbg !1833
  %24 = getelementptr inbounds %"std::result::Result<anchor_lang::prelude::AccountInfo, anchor_lang::error::Error>::Err", %"std::result::Result<anchor_lang::prelude::AccountInfo, anchor_lang::error::Error>::Err"* %23, i32 0, i32 1, !dbg !1833
  %25 = bitcast %"anchor_lang::error::Error"* %24 to i8*, !dbg !1833
  %26 = bitcast %"anchor_lang::error::Error"* %_7 to i8*, !dbg !1833
  call void @llvm.memcpy.p0i8.p0i8.i64(i8* align 8 %25, i8* align 8 %26, i64 112, i1 false), !dbg !1833
  %27 = bitcast %"std::result::Result<anchor_lang::prelude::AccountInfo, anchor_lang::error::Error>"* %0 to i64*, !dbg !1833
  store i64 1, i64* %27, align 8, !dbg !1833
  br label %bb5, !dbg !1834

bb5:                                              ; preds = %bb3, %bb4
  %28 = load i8, i8* %_11, align 1, !dbg !1835, !range !1194
  %29 = trunc i8 %28 to i1, !dbg !1835
  br i1 %29, label %bb7, label %bb6, !dbg !1835

bb6:                                              ; preds = %bb7, %bb5
  ret void, !dbg !1836

bb7:                                              ; preds = %bb5
  br label %bb6, !dbg !1835
}

; core::result::Result<T,E>::map_err
; Function Attrs: inlinehint nounwind
define void @"_ZN4core6result19Result$LT$T$C$E$GT$7map_err17h5cb0c20a8d2b1e5bE"(%"std::result::Result<anchor_lang::prelude::AccountInfo, anchor_lang::error::Error>"* noalias nocapture sret(%"std::result::Result<anchor_lang::prelude::AccountInfo, anchor_lang::error::Error>") dereferenceable(120) %0, %"std::result::Result<anchor_lang::prelude::AccountInfo, anchor_lang::error::Error>"* noalias nocapture dereferenceable(120) %self) unnamed_addr #0 !dbg !1837 {
start:
  %op.dbg.spill = alloca %"[closure@/home/seaceved/.cargo/registry/src/github.com-1ecc6299db9ec823/anchor-spl-0.22.0/src/token.rs:295:10: 295:18]", align 1
  %_11 = alloca i8, align 1
  %_10 = alloca %"anchor_lang::error::Error", align 8
  %_9 = alloca { %"anchor_lang::error::Error" }, align 8
  %_7 = alloca %"anchor_lang::error::Error", align 8
  %e = alloca %"anchor_lang::error::Error", align 8
  %_5 = alloca %"anchor_lang::prelude::AccountInfo", align 8
  %t = alloca %"anchor_lang::prelude::AccountInfo", align 8
  call void @llvm.dbg.declare(metadata %"std::result::Result<anchor_lang::prelude::AccountInfo, anchor_lang::error::Error>"* %self, metadata !1844, metadata !DIExpression()), !dbg !1852
  call void @llvm.dbg.declare(metadata %"[closure@/home/seaceved/.cargo/registry/src/github.com-1ecc6299db9ec823/anchor-spl-0.22.0/src/token.rs:295:10: 295:18]"* %op.dbg.spill, metadata !1845, metadata !DIExpression()), !dbg !1853
  call void @llvm.dbg.declare(metadata %"anchor_lang::prelude::AccountInfo"* %t, metadata !1846, metadata !DIExpression()), !dbg !1854
  call void @llvm.dbg.declare(metadata %"anchor_lang::error::Error"* %e, metadata !1848, metadata !DIExpression()), !dbg !1855
  store i8 0, i8* %_11, align 1, !dbg !1856
  store i8 1, i8* %_11, align 1, !dbg !1856
  %1 = bitcast %"std::result::Result<anchor_lang::prelude::AccountInfo, anchor_lang::error::Error>"* %self to i64*, !dbg !1856
  %_3 = load i64, i64* %1, align 8, !dbg !1856, !range !1292
  switch i64 %_3, label %bb2 [
    i64 0, label %bb3
    i64 1, label %bb1
  ], !dbg !1857

bb2:                                              ; preds = %start
  unreachable, !dbg !1856

bb3:                                              ; preds = %start
  %2 = bitcast %"std::result::Result<anchor_lang::prelude::AccountInfo, anchor_lang::error::Error>"* %self to %"std::result::Result<anchor_lang::prelude::AccountInfo, anchor_lang::error::Error>::Ok"*, !dbg !1858
  %3 = getelementptr inbounds %"std::result::Result<anchor_lang::prelude::AccountInfo, anchor_lang::error::Error>::Ok", %"std::result::Result<anchor_lang::prelude::AccountInfo, anchor_lang::error::Error>::Ok"* %2, i32 0, i32 1, !dbg !1858
  %4 = bitcast %"anchor_lang::prelude::AccountInfo"* %t to i8*, !dbg !1858
  %5 = bitcast %"anchor_lang::prelude::AccountInfo"* %3 to i8*, !dbg !1858
  call void @llvm.memcpy.p0i8.p0i8.i64(i8* align 8 %4, i8* align 8 %5, i64 48, i1 false), !dbg !1858
  %6 = bitcast %"anchor_lang::prelude::AccountInfo"* %_5 to i8*, !dbg !1859
  %7 = bitcast %"anchor_lang::prelude::AccountInfo"* %t to i8*, !dbg !1859
  call void @llvm.memcpy.p0i8.p0i8.i64(i8* align 8 %6, i8* align 8 %7, i64 48, i1 false), !dbg !1859
