; ModuleID = 'base64.e095cb54-cgu.0'
source_filename = "base64.e095cb54-cgu.0"
target datalayout = "e-m:e-p:64:64-i64:64-n32:64-S128"
target triple = "bpfel"

%"std::panic::Location" = type { { [0 x i8]*, i64 }, i32, i32 }
%"std::vec::Vec<u8>" = type { { i8*, i64 }, i64 }
%"std::alloc::AllocError" = type {}
%"std::result::Result<std::convert::Infallible, std::alloc::AllocError>::Err" = type { %"std::alloc::AllocError" }
%"std::result::Result<std::ptr::NonNull<[u8]>, std::alloc::AllocError>::Err" = type { %"std::alloc::AllocError" }
%"std::result::Result<(), std::collections::TryReserveError>" = type { i64, [2 x i64] }
%"std::result::Result<(), std::collections::TryReserveError>::Err" = type { [1 x i64], { i64, i64 } }
%"std::result::Result<std::ptr::NonNull<[u8]>, std::collections::TryReserveError>" = type { i64, [2 x i64] }
%"std::result::Result<std::ptr::NonNull<[u8]>, std::collections::TryReserveError>::Err" = type { [1 x i64], { i64, i64 } }
%"std::result::Result<(std::alloc::Layout, usize), std::alloc::LayoutError>" = type { [1 x i64], i64, [1 x i64] }
%"std::alloc::LayoutError" = type {}
%"std::result::Result<std::convert::Infallible, std::alloc::LayoutError>::Err" = type { %"std::alloc::LayoutError" }
%"std::result::Result<(std::alloc::Layout, usize), std::alloc::LayoutError>::Err" = type { %"std::alloc::LayoutError" }
%"std::result::Result<std::alloc::Layout, std::alloc::LayoutError>::Err" = type { %"std::alloc::LayoutError" }
%"std::fmt::Error" = type {}
%"std::result::Result<std::convert::Infallible, std::fmt::Error>::Err" = type { %"std::fmt::Error" }
%"std::result::Result<(), std::fmt::Error>::Err" = type { [1 x i8], %"std::fmt::Error" }
%"std::fmt::Formatter" = type { { i64, i64 }, { i64, i64 }, { {}*, [3 x i64]* }, i32, i32, i8, [7 x i8] }
%"core::fmt::Opaque" = type {}
%"std::fmt::Arguments" = type { { [0 x { [0 x i8]*, i64 }]*, i64 }, { i64*, i64 }, { [0 x { i8*, i64* }]*, i64 } }
%"std::option::Option<usize>::Some" = type { [1 x i64], i64 }
%"std::str::Utf8Error" = type { i64, { i8, i8 }, [6 x i8] }
%"std::array::TryFromSliceError" = type { {} }
%"std::ptr::metadata::PtrRepr<[u8]>" = type { [2 x i64] }
%"std::ops::ControlFlow<std::result::Result<std::convert::Infallible, std::alloc::LayoutError>, (std::alloc::Layout, usize)>" = type { [1 x i64], i64, [1 x i64] }
%"std::ops::ControlFlow<std::result::Result<std::convert::Infallible, std::alloc::LayoutError>, (std::alloc::Layout, usize)>::Continue" = type { { { i64, i64 }, i64 } }
%"std::ops::ControlFlow<std::result::Result<std::convert::Infallible, std::alloc::LayoutError>, usize>::Continue" = type { [1 x i64], i64 }
%"std::result::Result<(std::alloc::Layout, usize), std::alloc::LayoutError>::Ok" = type { { { i64, i64 }, i64 } }
%"std::result::Result<[u8; 8], std::array::TryFromSliceError>" = type { i8, [8 x i8] }
%"[closure@std::array::<impl std::convert::TryFrom<&[u8]> for [u8; 8]>::try_from::{closure#0}]" = type {}
%"std::result::Result<std::ptr::NonNull<u8>, std::alloc::AllocError>::Err" = type { %"std::alloc::AllocError" }
%"std::result::Result<usize, std::collections::TryReserveErrorKind>" = type { i64, [2 x i64] }
%"std::result::Result<usize, std::collections::TryReserveErrorKind>::Err" = type { [1 x i64], { i64, i64 } }
%"std::result::Result<usize, std::collections::TryReserveErrorKind>::Ok" = type { [1 x i64], i64 }
%"std::result::Result<usize, std::alloc::LayoutError>::Err" = type { [8 x i8], %"std::alloc::LayoutError" }
%"std::result::Result<usize, std::alloc::LayoutError>::Ok" = type { [1 x i64], i64 }
%"[closure@/home/seaceved/.cargo/registry/src/github.com-1ecc6299db9ec823/base64-0.13.0/src/encode.rs:293:44: 293:64]" = type {}
%"std::result::Result<[u8; 8], std::array::TryFromSliceError>::Err" = type { [1 x i8], %"std::array::TryFromSliceError" }
%"std::result::Result<[u8; 8], std::array::TryFromSliceError>::Ok" = type { [1 x i8], [8 x i8] }
%"std::result::Result<&str, std::str::Utf8Error>" = type { i64, [2 x i64] }
%"std::result::Result<&str, std::str::Utf8Error>::Ok" = type { [1 x i64], { [0 x i8]*, i64 } }
%"std::result::Result<&str, std::str::Utf8Error>::Err" = type { [1 x i64], %"std::str::Utf8Error" }
%"std::result::Result<(), std::collections::TryReserveErrorKind>" = type { i64, [2 x i64] }
%"[closure@alloc::raw_vec::handle_reserve::{closure#0}]" = type {}
%"std::result::Result<(), std::collections::TryReserveErrorKind>::Ok" = type { [8 x i8], {} }
%"std::result::Result<(), std::collections::TryReserveErrorKind>::Err" = type { [1 x i64], { i64, i64 } }
%"std::result::Result<std::ptr::NonNull<[u8]>, std::collections::TryReserveError>::Ok" = type { [1 x i64], { i8*, i64 } }
%"std::result::Result<std::alloc::Layout, std::collections::TryReserveErrorKind>" = type { i64, [2 x i64] }
%"[closure@alloc::raw_vec::finish_grow<std::alloc::Global>::{closure#0}]" = type {}
%"std::result::Result<std::alloc::Layout, std::collections::TryReserveErrorKind>::Ok" = type { [1 x i64], { i64, i64 } }
%"std::result::Result<std::alloc::Layout, std::collections::TryReserveErrorKind>::Err" = type { [1 x i64], { i64, i64 } }
%"std::option::Option<std::fmt::Arguments>" = type { {}*, [5 x i64] }
%"std::alloc::Global" = type {}
%"std::string::String" = type { %"std::vec::Vec<u8>" }
%"std::option::Option<(std::ptr::NonNull<u8>, std::alloc::Layout)>" = type { {}*, [2 x i64] }
%"std::ops::ControlFlow<std::result::Result<std::convert::Infallible, std::collections::TryReserveError>>" = type { i64, [2 x i64] }
%"std::ops::ControlFlow<std::result::Result<std::convert::Infallible, std::collections::TryReserveErrorKind>, std::alloc::Layout>" = type { i64, [2 x i64] }
%"std::ops::ControlFlow<std::result::Result<std::convert::Infallible, std::collections::TryReserveErrorKind>, std::alloc::Layout>::Continue" = type { [1 x i64], { i64, i64 } }
%"std::ops::ControlFlow<std::result::Result<std::convert::Infallible, std::collections::TryReserveErrorKind>, std::alloc::Layout>::Break" = type { [1 x i64], { i64, i64 } }
%"std::ops::ControlFlow<std::result::Result<std::convert::Infallible, std::collections::TryReserveError>>::Break" = type { [1 x i64], { i64, i64 } }
%"std::option::Option<(std::ptr::NonNull<u8>, std::alloc::Layout)>::Some" = type { { i8*, { i64, i64 } } }
%"std::ops::ControlFlow<std::result::Result<std::convert::Infallible, std::collections::TryReserveError>, std::ptr::NonNull<[u8]>>" = type { i64, [2 x i64] }
%"std::ops::ControlFlow<std::result::Result<std::convert::Infallible, std::collections::TryReserveErrorKind>, usize>" = type { i64, [2 x i64] }
%"std::ops::ControlFlow<std::result::Result<std::convert::Infallible, std::collections::TryReserveErrorKind>, usize>::Continue" = type { [1 x i64], i64 }
%"std::ops::ControlFlow<std::result::Result<std::convert::Infallible, std::collections::TryReserveErrorKind>, usize>::Break" = type { [1 x i64], { i64, i64 } }
%"std::ops::ControlFlow<std::result::Result<std::convert::Infallible, std::collections::TryReserveError>, std::ptr::NonNull<[u8]>>::Continue" = type { [1 x i64], { i8*, i64 } }
%"std::ops::ControlFlow<std::result::Result<std::convert::Infallible, std::collections::TryReserveError>, std::ptr::NonNull<[u8]>>::Break" = type { [1 x i64], { i64, i64 } }
%"std::ops::ControlFlow<std::result::Result<std::convert::Infallible, std::alloc::LayoutError>, (std::alloc::Layout, usize)>::Break" = type { %"std::result::Result<std::convert::Infallible, std::alloc::LayoutError>::Err" }
%"std::ops::ControlFlow<std::result::Result<std::convert::Infallible, std::fmt::Error>>::Continue" = type { [1 x i8], {} }
%"std::ops::ControlFlow<std::result::Result<std::convert::Infallible, std::fmt::Error>>::Break" = type { [1 x i8], %"std::result::Result<std::convert::Infallible, std::fmt::Error>::Err" }
%"std::ops::ControlFlow<std::result::Result<std::convert::Infallible, std::alloc::AllocError>, std::ptr::NonNull<u8>>::Break" = type { %"std::result::Result<std::convert::Infallible, std::alloc::AllocError>::Err" }
%"std::ops::ControlFlow<std::result::Result<std::convert::Infallible, std::alloc::LayoutError>, usize>::Break" = type { [8 x i8], %"std::result::Result<std::convert::Infallible, std::alloc::LayoutError>::Err" }
%"std::ops::ControlFlow<std::result::Result<std::convert::Infallible, std::alloc::AllocError>, std::ptr::NonNull<[u8]>>::Break" = type { %"std::result::Result<std::convert::Infallible, std::alloc::AllocError>::Err" }
%"std::ops::ControlFlow<std::result::Result<std::convert::Infallible, std::collections::TryReserveError>>::Continue" = type { [8 x i8], {} }
%Config = type { i8, i8, i8 }
%"chunked_encoder::ChunkedEncoder" = type { i64, %Config, [5 x i8] }
%"display::Base64Display" = type { { [0 x i8]*, i64 }, %"chunked_encoder::ChunkedEncoder" }
%"write::encoder::EncoderWriter<write::encoder_string_writer::Utf8SingleCodeUnitWriter<std::string::String>>" = type { %"std::option::Option<write::encoder_string_writer::Utf8SingleCodeUnitWriter<std::string::String>>", i64, i64, %Config, [3 x i8], [1024 x i8], i8, [1 x i8] }
%"std::option::Option<write::encoder_string_writer::Utf8SingleCodeUnitWriter<std::string::String>>" = type { {}*, [2 x i64] }
%"write::encoder_string_writer::Utf8SingleCodeUnitWriter<std::string::String>" = type { %"std::string::String" }
%"std::option::Option<write::encoder_string_writer::Utf8SingleCodeUnitWriter<std::string::String>>::Some" = type { %"write::encoder_string_writer::Utf8SingleCodeUnitWriter<std::string::String>" }
%"write::encoder_string_writer::EncoderStringWriter<std::string::String>" = type { %"write::encoder::EncoderWriter<write::encoder_string_writer::Utf8SingleCodeUnitWriter<std::string::String>>" }
%"decode::DecodeError" = type { i8, [15 x i8] }
%"decode::DecodeError::InvalidByte" = type { [1 x i8], i8, [6 x i8], i64 }
%"decode::DecodeError::InvalidLastSymbol" = type { [1 x i8], i8, [6 x i8], i64 }
%"std::fmt::DebugTuple" = type { %"std::fmt::Formatter"*, i64, i8, i8, [6 x i8] }
%"std::fmt::DebugStruct" = type { %"std::fmt::Formatter"*, i8, i8, [6 x i8] }

@alloc587 = private unnamed_addr constant <{ [12 x i8] }> <{ [12 x i8] c"invalid args" }>, align 1
@alloc588 = private unnamed_addr constant <{ [74 x i8] }> <{ [74 x i8] c"/home/runner/work/bpf-tools/bpf-tools/out/rust/library/core/src/fmt/mod.rs" }>, align 1
@alloc589 = private unnamed_addr constant <{ i8*, [16 x i8] }> <{ i8* getelementptr inbounds (<{ [74 x i8] }>, <{ [74 x i8] }>* @alloc588, i32 0, i32 0, i32 0), [16 x i8] c"J\00\00\00\00\00\00\00c\01\00\00\0D\00\00\00" }>, align 8
@alloc590 = private unnamed_addr constant <{ [74 x i8] }> <{ [74 x i8] c"/home/runner/work/bpf-tools/bpf-tools/out/rust/library/core/src/ptr/mod.rs" }>, align 1
@alloc591 = private unnamed_addr constant <{ i8*, [16 x i8] }> <{ i8* getelementptr inbounds (<{ [74 x i8] }>, <{ [74 x i8] }>* @alloc590, i32 0, i32 0, i32 0), [16 x i8] c"J\00\00\00\00\00\00\00\BC\02\00\00\0D\00\00\00" }>, align 8
@alloc592 = private unnamed_addr constant <{ [79 x i8] }> <{ [79 x i8] c"/home/runner/work/bpf-tools/bpf-tools/out/rust/library/core/src/alloc/layout.rs" }>, align 1
@alloc593 = private unnamed_addr constant <{ i8*, [16 x i8] }> <{ i8* getelementptr inbounds (<{ [79 x i8] }>, <{ [79 x i8] }>* @alloc592, i32 0, i32 0, i32 0), [16 x i8] c"O\00\00\00\00\00\00\00\10\01\00\009\00\00\00" }>, align 8
@vtable.0 = private unnamed_addr constant <{ i8*, [16 x i8], i8*, [0 x i8] }> <{ i8* bitcast (void (%"std::str::Utf8Error"*)* @"_ZN4core3ptr48drop_in_place$LT$core..str..error..Utf8Error$GT$17he3302857021bd81cE" to i8*), [16 x i8] c"\10\00\00\00\00\00\00\00\08\00\00\00\00\00\00\00", i8* bitcast (i1 (%"std::str::Utf8Error"*, %"std::fmt::Formatter"*)* @"_ZN64_$LT$core..str..error..Utf8Error$u20$as$u20$core..fmt..Debug$GT$3fmt17h30ca2bf48c13fed8E" to i8*), [0 x i8] zeroinitializer }>, align 8, !dbg !0
@alloc605 = private unnamed_addr constant <{ [43 x i8] }> <{ [43 x i8] c"called `Result::unwrap()` on an `Err` value" }>, align 1
@vtable.1 = private unnamed_addr constant <{ i8*, [16 x i8], i8*, [0 x i8] }> <{ i8* bitcast (void (%"std::array::TryFromSliceError"*)* @"_ZN4core3ptr51drop_in_place$LT$core..array..TryFromSliceError$GT$17h29be9cef0680fd88E" to i8*), [16 x i8] c"\00\00\00\00\00\00\00\00\01\00\00\00\00\00\00\00", i8* bitcast (i1 (%"std::array::TryFromSliceError"*, %"std::fmt::Formatter"*)* @"_ZN67_$LT$core..array..TryFromSliceError$u20$as$u20$core..fmt..Debug$GT$3fmt17hf76d34ae020e321eE" to i8*), [0 x i8] zeroinitializer }>, align 8, !dbg !28
@vtable.2 = private unnamed_addr constant <{ i8*, [16 x i8], i8*, [0 x i8] }> <{ i8* bitcast (void (%"std::alloc::LayoutError"*)* @"_ZN4core3ptr53drop_in_place$LT$core..alloc..layout..LayoutError$GT$17h601ff0986ef5e0e7E" to i8*), [16 x i8] c"\00\00\00\00\00\00\00\00\01\00\00\00\00\00\00\00", i8* bitcast (i1 (%"std::alloc::LayoutError"*, %"std::fmt::Formatter"*)* @"_ZN69_$LT$core..alloc..layout..LayoutError$u20$as$u20$core..fmt..Debug$GT$3fmt17hdaf89633c8bfad9eE" to i8*), [0 x i8] zeroinitializer }>, align 8, !dbg !36
@vtable.3 = private unnamed_addr constant <{ i8*, [16 x i8], i8*, [0 x i8] }> <{ i8* bitcast (void (i64**)* @"_ZN4core3ptr30drop_in_place$LT$$RF$usize$GT$17h644d93ab1f04cae5E" to i8*), [16 x i8] c"\08\00\00\00\00\00\00\00\08\00\00\00\00\00\00\00", i8* bitcast (i1 (i64**, %"std::fmt::Formatter"*)* @"_ZN42_$LT$$RF$T$u20$as$u20$core..fmt..Debug$GT$3fmt17h15c1c9f7e8626237E" to i8*), [0 x i8] zeroinitializer }>, align 8, !dbg !42
@0 = private unnamed_addr constant <{ [16 x i8] }> <{ [16 x i8] c"\01\00\00\00\00\00\00\00\00\00\00\00\00\00\00\00" }>, align 8
@alloc609 = private unnamed_addr constant <{ [75 x i8] }> <{ [75 x i8] c"/home/runner/work/bpf-tools/bpf-tools/out/rust/library/alloc/src/raw_vec.rs" }>, align 1
@alloc610 = private unnamed_addr constant <{ i8*, [16 x i8] }> <{ i8* getelementptr inbounds (<{ [75 x i8] }>, <{ [75 x i8] }>* @alloc609, i32 0, i32 0, i32 0), [16 x i8] c"K\00\00\00\00\00\00\00\97\01\00\00\09\00\00\00" }>, align 8
@str.4 = internal constant [25 x i8] c"attempt to divide by zero"
@alloc630 = private unnamed_addr constant <{ [99 x i8] }> <{ [99 x i8] c"/home/seaceved/.cargo/registry/src/github.com-1ecc6299db9ec823/base64-0.13.0/src/chunked_encoder.rs" }>, align 1
@alloc612 = private unnamed_addr constant <{ i8*, [16 x i8] }> <{ i8* getelementptr inbounds (<{ [99 x i8] }>, <{ [99 x i8] }>* @alloc630, i32 0, i32 0, i32 0), [16 x i8] c"c\00\00\00\00\00\00\00+\00\00\00F\00\00\00" }>, align 8
@str.5 = internal constant [33 x i8] c"attempt to subtract with overflow"
@alloc614 = private unnamed_addr constant <{ i8*, [16 x i8] }> <{ i8* getelementptr inbounds (<{ [99 x i8] }>, <{ [99 x i8] }>* @alloc630, i32 0, i32 0, i32 0), [16 x i8] c"c\00\00\00\00\00\00\00-\00\00\00-\00\00\00" }>, align 8
@str.6 = internal constant [28 x i8] c"attempt to add with overflow"
@alloc616 = private unnamed_addr constant <{ i8*, [16 x i8] }> <{ i8* getelementptr inbounds (<{ [99 x i8] }>, <{ [99 x i8] }>* @alloc630, i32 0, i32 0, i32 0), [16 x i8] c"c\00\00\00\00\00\00\00-\00\00\00\1A\00\00\00" }>, align 8
@alloc618 = private unnamed_addr constant <{ i8*, [16 x i8] }> <{ i8* getelementptr inbounds (<{ [99 x i8] }>, <{ [99 x i8] }>* @alloc630, i32 0, i32 0, i32 0), [16 x i8] c"c\00\00\00\00\00\00\001\00\00\00\0D\00\00\00" }>, align 8
@alloc620 = private unnamed_addr constant <{ i8*, [16 x i8] }> <{ i8* getelementptr inbounds (<{ [99 x i8] }>, <{ [99 x i8] }>* @alloc630, i32 0, i32 0, i32 0), [16 x i8] c"c\00\00\00\00\00\00\007\00\00\00D\00\00\00" }>, align 8
@alloc622 = private unnamed_addr constant <{ i8*, [16 x i8] }> <{ i8* getelementptr inbounds (<{ [99 x i8] }>, <{ [99 x i8] }>* @alloc630, i32 0, i32 0, i32 0), [16 x i8] c"c\00\00\00\00\00\00\007\00\00\00\11\00\00\00" }>, align 8
@alloc624 = private unnamed_addr constant <{ i8*, [16 x i8] }> <{ i8* getelementptr inbounds (<{ [99 x i8] }>, <{ [99 x i8] }>* @alloc630, i32 0, i32 0, i32 0), [16 x i8] c"c\00\00\00\00\00\00\00:\00\00\00'\00\00\00" }>, align 8
@alloc625 = private unnamed_addr constant <{ [23 x i8] }> <{ [23 x i8] c"Don't use a tiny buffer" }>, align 1
@alloc627 = private unnamed_addr constant <{ i8*, [16 x i8] }> <{ i8* getelementptr inbounds (<{ [99 x i8] }>, <{ [99 x i8] }>* @alloc630, i32 0, i32 0, i32 0), [16 x i8] c"c\00\00\00\00\00\00\00M\00\00\00\0E\00\00\00" }>, align 8
@alloc629 = private unnamed_addr constant <{ i8*, [16 x i8] }> <{ i8* getelementptr inbounds (<{ [99 x i8] }>, <{ [99 x i8] }>* @alloc630, i32 0, i32 0, i32 0), [16 x i8] c"c\00\00\00\00\00\00\00S\00\00\00\05\00\00\00" }>, align 8
@str.7 = internal constant [33 x i8] c"attempt to multiply with overflow"
@alloc631 = private unnamed_addr constant <{ i8*, [16 x i8] }> <{ i8* getelementptr inbounds (<{ [99 x i8] }>, <{ [99 x i8] }>* @alloc630, i32 0, i32 0, i32 0), [16 x i8] c"c\00\00\00\00\00\00\00h\00\00\000\00\00\00" }>, align 8
@alloc632 = private unnamed_addr constant <{ [24 x i8] }> <{ [24 x i8] c"base64 data was not utf8" }>, align 1
@alloc633 = private unnamed_addr constant <{ [91 x i8] }> <{ [91 x i8] c"/home/seaceved/.cargo/registry/src/github.com-1ecc6299db9ec823/base64-0.13.0/src/display.rs" }>, align 1
@alloc634 = private unnamed_addr constant <{ i8*, [16 x i8] }> <{ i8* getelementptr inbounds (<{ [91 x i8] }>, <{ [91 x i8] }>* @alloc633, i32 0, i32 0, i32 0), [16 x i8] c"[\00\00\00\00\00\00\003\00\00\000\00\00\00" }>, align 8
@alloc892 = private unnamed_addr constant <{ [90 x i8] }> <{ [90 x i8] c"/home/seaceved/.cargo/registry/src/github.com-1ecc6299db9ec823/base64-0.13.0/src/encode.rs" }>, align 1
@alloc638 = private unnamed_addr constant <{ i8*, [16 x i8] }> <{ i8* getelementptr inbounds (<{ [90 x i8] }>, <{ [90 x i8] }>* @alloc892, i32 0, i32 0, i32 0), [16 x i8] c"Z\00\00\00\00\00\00\00\8D\00\00\00\05\00\00\00" }>, align 8
@alloc640 = private unnamed_addr constant <{ i8*, [16 x i8] }> <{ i8* getelementptr inbounds (<{ [90 x i8] }>, <{ [90 x i8] }>* @alloc892, i32 0, i32 0, i32 0), [16 x i8] c"Z\00\00\00\00\00\00\00\92\00\00\00'\00\00\00" }>, align 8
@alloc641 = private unnamed_addr constant <{ [42 x i8] }> <{ [42 x i8] c"usize overflow when calculating b64 length" }>, align 1
@alloc643 = private unnamed_addr constant <{ i8*, [16 x i8] }> <{ i8* getelementptr inbounds (<{ [90 x i8] }>, <{ [90 x i8] }>* @alloc892, i32 0, i32 0, i32 0), [16 x i8] c"Z\00\00\00\00\00\00\00\99\00\00\00\0A\00\00\00" }>, align 8
@alloc645 = private unnamed_addr constant <{ i8*, [16 x i8] }> <{ i8* getelementptr inbounds (<{ [90 x i8] }>, <{ [90 x i8] }>* @alloc892, i32 0, i32 0, i32 0), [16 x i8] c"Z\00\00\00\00\00\00\00\9B\00\00\00\05\00\00\00" }>, align 8
@alloc647 = private unnamed_addr constant <{ i8*, [16 x i8] }> <{ i8* getelementptr inbounds (<{ [90 x i8] }>, <{ [90 x i8] }>* @alloc892, i32 0, i32 0, i32 0), [16 x i8] c"Z\00\00\00\00\00\00\00\A0\00\00\00\18\00\00\00" }>, align 8
@alloc649 = private unnamed_addr constant <{ i8*, [16 x i8] }> <{ i8* getelementptr inbounds (<{ [90 x i8] }>, <{ [90 x i8] }>* @alloc892, i32 0, i32 0, i32 0), [16 x i8] c"Z\00\00\00\00\00\00\00\A0\00\00\00*\00\00\00" }>, align 8
@alloc651 = private unnamed_addr constant <{ i8*, [16 x i8] }> <{ i8* getelementptr inbounds (<{ [90 x i8] }>, <{ [90 x i8] }>* @alloc892, i32 0, i32 0, i32 0), [16 x i8] c"Z\00\00\00\00\00\00\00\B6\00\00\003\00\00\00" }>, align 8
@alloc653 = private unnamed_addr constant <{ i8*, [16 x i8] }> <{ i8* getelementptr inbounds (<{ [90 x i8] }>, <{ [90 x i8] }>* @alloc892, i32 0, i32 0, i32 0), [16 x i8] c"Z\00\00\00\00\00\00\00\B6\00\00\00 \00\00\00" }>, align 8
@alloc655 = private unnamed_addr constant <{ i8*, [16 x i8] }> <{ i8* getelementptr inbounds (<{ [90 x i8] }>, <{ [90 x i8] }>* @alloc892, i32 0, i32 0, i32 0), [16 x i8] c"Z\00\00\00\00\00\00\00\B7\00\00\00:\00\00\00" }>, align 8
@alloc657 = private unnamed_addr constant <{ i8*, [16 x i8] }> <{ i8* getelementptr inbounds (<{ [90 x i8] }>, <{ [90 x i8] }>* @alloc892, i32 0, i32 0, i32 0), [16 x i8] c"Z\00\00\00\00\00\00\00\B7\00\00\00%\00\00\00" }>, align 8
@alloc659 = private unnamed_addr constant <{ i8*, [16 x i8] }> <{ i8* getelementptr inbounds (<{ [90 x i8] }>, <{ [90 x i8] }>* @alloc892, i32 0, i32 0, i32 0), [16 x i8] c"Z\00\00\00\00\00\00\00\C1\00\00\00'\00\00\00" }>, align 8
@alloc661 = private unnamed_addr constant <{ i8*, [16 x i8] }> <{ i8* getelementptr inbounds (<{ [90 x i8] }>, <{ [90 x i8] }>* @alloc892, i32 0, i32 0, i32 0), [16 x i8] c"Z\00\00\00\00\00\00\00\C3\00\00\00\1F\00\00\00" }>, align 8
@alloc663 = private unnamed_addr constant <{ i8*, [16 x i8] }> <{ i8* getelementptr inbounds (<{ [90 x i8] }>, <{ [90 x i8] }>* @alloc892, i32 0, i32 0, i32 0), [16 x i8] c"Z\00\00\00\00\00\00\00\C3\00\00\00\0D\00\00\00" }>, align 8
@alloc665 = private unnamed_addr constant <{ i8*, [16 x i8] }> <{ i8* getelementptr inbounds (<{ [90 x i8] }>, <{ [90 x i8] }>* @alloc892, i32 0, i32 0, i32 0), [16 x i8] c"Z\00\00\00\00\00\00\00\C4\00\00\00\1F\00\00\00" }>, align 8
@alloc667 = private unnamed_addr constant <{ i8*, [16 x i8] }> <{ i8* getelementptr inbounds (<{ [90 x i8] }>, <{ [90 x i8] }>* @alloc892, i32 0, i32 0, i32 0), [16 x i8] c"Z\00\00\00\00\00\00\00\C4\00\00\00\0D\00\00\00" }>, align 8
@alloc669 = private unnamed_addr constant <{ i8*, [16 x i8] }> <{ i8* getelementptr inbounds (<{ [90 x i8] }>, <{ [90 x i8] }>* @alloc892, i32 0, i32 0, i32 0), [16 x i8] c"Z\00\00\00\00\00\00\00\C5\00\00\00\1F\00\00\00" }>, align 8
@alloc671 = private unnamed_addr constant <{ i8*, [16 x i8] }> <{ i8* getelementptr inbounds (<{ [90 x i8] }>, <{ [90 x i8] }>* @alloc892, i32 0, i32 0, i32 0), [16 x i8] c"Z\00\00\00\00\00\00\00\C5\00\00\00\0D\00\00\00" }>, align 8
@alloc673 = private unnamed_addr constant <{ i8*, [16 x i8] }> <{ i8* getelementptr inbounds (<{ [90 x i8] }>, <{ [90 x i8] }>* @alloc892, i32 0, i32 0, i32 0), [16 x i8] c"Z\00\00\00\00\00\00\00\C6\00\00\00\1F\00\00\00" }>, align 8
@alloc675 = private unnamed_addr constant <{ i8*, [16 x i8] }> <{ i8* getelementptr inbounds (<{ [90 x i8] }>, <{ [90 x i8] }>* @alloc892, i32 0, i32 0, i32 0), [16 x i8] c"Z\00\00\00\00\00\00\00\C6\00\00\00\0D\00\00\00" }>, align 8
@alloc677 = private unnamed_addr constant <{ i8*, [16 x i8] }> <{ i8* getelementptr inbounds (<{ [90 x i8] }>, <{ [90 x i8] }>* @alloc892, i32 0, i32 0, i32 0), [16 x i8] c"Z\00\00\00\00\00\00\00\C7\00\00\00\1F\00\00\00" }>, align 8
@alloc679 = private unnamed_addr constant <{ i8*, [16 x i8] }> <{ i8* getelementptr inbounds (<{ [90 x i8] }>, <{ [90 x i8] }>* @alloc892, i32 0, i32 0, i32 0), [16 x i8] c"Z\00\00\00\00\00\00\00\C7\00\00\00\0D\00\00\00" }>, align 8
@alloc681 = private unnamed_addr constant <{ i8*, [16 x i8] }> <{ i8* getelementptr inbounds (<{ [90 x i8] }>, <{ [90 x i8] }>* @alloc892, i32 0, i32 0, i32 0), [16 x i8] c"Z\00\00\00\00\00\00\00\C8\00\00\00\1F\00\00\00" }>, align 8
@alloc683 = private unnamed_addr constant <{ i8*, [16 x i8] }> <{ i8* getelementptr inbounds (<{ [90 x i8] }>, <{ [90 x i8] }>* @alloc892, i32 0, i32 0, i32 0), [16 x i8] c"Z\00\00\00\00\00\00\00\C8\00\00\00\0D\00\00\00" }>, align 8
@alloc685 = private unnamed_addr constant <{ i8*, [16 x i8] }> <{ i8* getelementptr inbounds (<{ [90 x i8] }>, <{ [90 x i8] }>* @alloc892, i32 0, i32 0, i32 0), [16 x i8] c"Z\00\00\00\00\00\00\00\C9\00\00\00\1F\00\00\00" }>, align 8
@alloc687 = private unnamed_addr constant <{ i8*, [16 x i8] }> <{ i8* getelementptr inbounds (<{ [90 x i8] }>, <{ [90 x i8] }>* @alloc892, i32 0, i32 0, i32 0), [16 x i8] c"Z\00\00\00\00\00\00\00\C9\00\00\00\0D\00\00\00" }>, align 8
@alloc689 = private unnamed_addr constant <{ i8*, [16 x i8] }> <{ i8* getelementptr inbounds (<{ [90 x i8] }>, <{ [90 x i8] }>* @alloc892, i32 0, i32 0, i32 0), [16 x i8] c"Z\00\00\00\00\00\00\00\CA\00\00\00\1F\00\00\00" }>, align 8
@alloc691 = private unnamed_addr constant <{ i8*, [16 x i8] }> <{ i8* getelementptr inbounds (<{ [90 x i8] }>, <{ [90 x i8] }>* @alloc892, i32 0, i32 0, i32 0), [16 x i8] c"Z\00\00\00\00\00\00\00\CA\00\00\00\0D\00\00\00" }>, align 8
@alloc693 = private unnamed_addr constant <{ i8*, [16 x i8] }> <{ i8* getelementptr inbounds (<{ [90 x i8] }>, <{ [90 x i8] }>* @alloc892, i32 0, i32 0, i32 0), [16 x i8] c"Z\00\00\00\00\00\00\00\CC\00\00\00'\00\00\00" }>, align 8
@alloc695 = private unnamed_addr constant <{ i8*, [16 x i8] }> <{ i8* getelementptr inbounds (<{ [90 x i8] }>, <{ [90 x i8] }>* @alloc892, i32 0, i32 0, i32 0), [16 x i8] c"Z\00\00\00\00\00\00\00\CE\00\00\00\1F\00\00\00" }>, align 8
@alloc697 = private unnamed_addr constant <{ i8*, [16 x i8] }> <{ i8* getelementptr inbounds (<{ [90 x i8] }>, <{ [90 x i8] }>* @alloc892, i32 0, i32 0, i32 0), [16 x i8] c"Z\00\00\00\00\00\00\00\CE\00\00\00\0D\00\00\00" }>, align 8
@alloc699 = private unnamed_addr constant <{ i8*, [16 x i8] }> <{ i8* getelementptr inbounds (<{ [90 x i8] }>, <{ [90 x i8] }>* @alloc892, i32 0, i32 0, i32 0), [16 x i8] c"Z\00\00\00\00\00\00\00\CF\00\00\00\1F\00\00\00" }>, align 8
@alloc701 = private unnamed_addr constant <{ i8*, [16 x i8] }> <{ i8* getelementptr inbounds (<{ [90 x i8] }>, <{ [90 x i8] }>* @alloc892, i32 0, i32 0, i32 0), [16 x i8] c"Z\00\00\00\00\00\00\00\CF\00\00\00\0D\00\00\00" }>, align 8
@alloc703 = private unnamed_addr constant <{ i8*, [16 x i8] }> <{ i8* getelementptr inbounds (<{ [90 x i8] }>, <{ [90 x i8] }>* @alloc892, i32 0, i32 0, i32 0), [16 x i8] c"Z\00\00\00\00\00\00\00\D0\00\00\00 \00\00\00" }>, align 8
@alloc705 = private unnamed_addr constant <{ i8*, [16 x i8] }> <{ i8* getelementptr inbounds (<{ [90 x i8] }>, <{ [90 x i8] }>* @alloc892, i32 0, i32 0, i32 0), [16 x i8] c"Z\00\00\00\00\00\00\00\D0\00\00\00\0D\00\00\00" }>, align 8
@alloc707 = private unnamed_addr constant <{ i8*, [16 x i8] }> <{ i8* getelementptr inbounds (<{ [90 x i8] }>, <{ [90 x i8] }>* @alloc892, i32 0, i32 0, i32 0), [16 x i8] c"Z\00\00\00\00\00\00\00\D1\00\00\00 \00\00\00" }>, align 8
@alloc709 = private unnamed_addr constant <{ i8*, [16 x i8] }> <{ i8* getelementptr inbounds (<{ [90 x i8] }>, <{ [90 x i8] }>* @alloc892, i32 0, i32 0, i32 0), [16 x i8] c"Z\00\00\00\00\00\00\00\D1\00\00\00\0D\00\00\00" }>, align 8
@alloc711 = private unnamed_addr constant <{ i8*, [16 x i8] }> <{ i8* getelementptr inbounds (<{ [90 x i8] }>, <{ [90 x i8] }>* @alloc892, i32 0, i32 0, i32 0), [16 x i8] c"Z\00\00\00\00\00\00\00\D2\00\00\00 \00\00\00" }>, align 8
@alloc713 = private unnamed_addr constant <{ i8*, [16 x i8] }> <{ i8* getelementptr inbounds (<{ [90 x i8] }>, <{ [90 x i8] }>* @alloc892, i32 0, i32 0, i32 0), [16 x i8] c"Z\00\00\00\00\00\00\00\D2\00\00\00\0D\00\00\00" }>, align 8
@alloc715 = private unnamed_addr constant <{ i8*, [16 x i8] }> <{ i8* getelementptr inbounds (<{ [90 x i8] }>, <{ [90 x i8] }>* @alloc892, i32 0, i32 0, i32 0), [16 x i8] c"Z\00\00\00\00\00\00\00\D3\00\00\00 \00\00\00" }>, align 8
@alloc717 = private unnamed_addr constant <{ i8*, [16 x i8] }> <{ i8* getelementptr inbounds (<{ [90 x i8] }>, <{ [90 x i8] }>* @alloc892, i32 0, i32 0, i32 0), [16 x i8] c"Z\00\00\00\00\00\00\00\D3\00\00\00\0D\00\00\00" }>, align 8
@alloc719 = private unnamed_addr constant <{ i8*, [16 x i8] }> <{ i8* getelementptr inbounds (<{ [90 x i8] }>, <{ [90 x i8] }>* @alloc892, i32 0, i32 0, i32 0), [16 x i8] c"Z\00\00\00\00\00\00\00\D4\00\00\00 \00\00\00" }>, align 8
@alloc721 = private unnamed_addr constant <{ i8*, [16 x i8] }> <{ i8* getelementptr inbounds (<{ [90 x i8] }>, <{ [90 x i8] }>* @alloc892, i32 0, i32 0, i32 0), [16 x i8] c"Z\00\00\00\00\00\00\00\D4\00\00\00\0D\00\00\00" }>, align 8
@alloc723 = private unnamed_addr constant <{ i8*, [16 x i8] }> <{ i8* getelementptr inbounds (<{ [90 x i8] }>, <{ [90 x i8] }>* @alloc892, i32 0, i32 0, i32 0), [16 x i8] c"Z\00\00\00\00\00\00\00\D5\00\00\00 \00\00\00" }>, align 8
@alloc725 = private unnamed_addr constant <{ i8*, [16 x i8] }> <{ i8* getelementptr inbounds (<{ [90 x i8] }>, <{ [90 x i8] }>* @alloc892, i32 0, i32 0, i32 0), [16 x i8] c"Z\00\00\00\00\00\00\00\D5\00\00\00\0D\00\00\00" }>, align 8
@alloc727 = private unnamed_addr constant <{ i8*, [16 x i8] }> <{ i8* getelementptr inbounds (<{ [90 x i8] }>, <{ [90 x i8] }>* @alloc892, i32 0, i32 0, i32 0), [16 x i8] c"Z\00\00\00\00\00\00\00\D7\00\00\00'\00\00\00" }>, align 8
@alloc729 = private unnamed_addr constant <{ i8*, [16 x i8] }> <{ i8* getelementptr inbounds (<{ [90 x i8] }>, <{ [90 x i8] }>* @alloc892, i32 0, i32 0, i32 0), [16 x i8] c"Z\00\00\00\00\00\00\00\D9\00\00\00 \00\00\00" }>, align 8
@alloc731 = private unnamed_addr constant <{ i8*, [16 x i8] }> <{ i8* getelementptr inbounds (<{ [90 x i8] }>, <{ [90 x i8] }>* @alloc892, i32 0, i32 0, i32 0), [16 x i8] c"Z\00\00\00\00\00\00\00\D9\00\00\00\0D\00\00\00" }>, align 8
@alloc733 = private unnamed_addr constant <{ i8*, [16 x i8] }> <{ i8* getelementptr inbounds (<{ [90 x i8] }>, <{ [90 x i8] }>* @alloc892, i32 0, i32 0, i32 0), [16 x i8] c"Z\00\00\00\00\00\00\00\DA\00\00\00 \00\00\00" }>, align 8
@alloc735 = private unnamed_addr constant <{ i8*, [16 x i8] }> <{ i8* getelementptr inbounds (<{ [90 x i8] }>, <{ [90 x i8] }>* @alloc892, i32 0, i32 0, i32 0), [16 x i8] c"Z\00\00\00\00\00\00\00\DA\00\00\00\0D\00\00\00" }>, align 8
@alloc737 = private unnamed_addr constant <{ i8*, [16 x i8] }> <{ i8* getelementptr inbounds (<{ [90 x i8] }>, <{ [90 x i8] }>* @alloc892, i32 0, i32 0, i32 0), [16 x i8] c"Z\00\00\00\00\00\00\00\DB\00\00\00 \00\00\00" }>, align 8
@alloc739 = private unnamed_addr constant <{ i8*, [16 x i8] }> <{ i8* getelementptr inbounds (<{ [90 x i8] }>, <{ [90 x i8] }>* @alloc892, i32 0, i32 0, i32 0), [16 x i8] c"Z\00\00\00\00\00\00\00\DB\00\00\00\0D\00\00\00" }>, align 8
@alloc741 = private unnamed_addr constant <{ i8*, [16 x i8] }> <{ i8* getelementptr inbounds (<{ [90 x i8] }>, <{ [90 x i8] }>* @alloc892, i32 0, i32 0, i32 0), [16 x i8] c"Z\00\00\00\00\00\00\00\DC\00\00\00 \00\00\00" }>, align 8
@alloc743 = private unnamed_addr constant <{ i8*, [16 x i8] }> <{ i8* getelementptr inbounds (<{ [90 x i8] }>, <{ [90 x i8] }>* @alloc892, i32 0, i32 0, i32 0), [16 x i8] c"Z\00\00\00\00\00\00\00\DC\00\00\00\0D\00\00\00" }>, align 8
@alloc745 = private unnamed_addr constant <{ i8*, [16 x i8] }> <{ i8* getelementptr inbounds (<{ [90 x i8] }>, <{ [90 x i8] }>* @alloc892, i32 0, i32 0, i32 0), [16 x i8] c"Z\00\00\00\00\00\00\00\DD\00\00\00 \00\00\00" }>, align 8
@alloc747 = private unnamed_addr constant <{ i8*, [16 x i8] }> <{ i8* getelementptr inbounds (<{ [90 x i8] }>, <{ [90 x i8] }>* @alloc892, i32 0, i32 0, i32 0), [16 x i8] c"Z\00\00\00\00\00\00\00\DD\00\00\00\0D\00\00\00" }>, align 8
@alloc749 = private unnamed_addr constant <{ i8*, [16 x i8] }> <{ i8* getelementptr inbounds (<{ [90 x i8] }>, <{ [90 x i8] }>* @alloc892, i32 0, i32 0, i32 0), [16 x i8] c"Z\00\00\00\00\00\00\00\DE\00\00\00 \00\00\00" }>, align 8
@alloc751 = private unnamed_addr constant <{ i8*, [16 x i8] }> <{ i8* getelementptr inbounds (<{ [90 x i8] }>, <{ [90 x i8] }>* @alloc892, i32 0, i32 0, i32 0), [16 x i8] c"Z\00\00\00\00\00\00\00\DE\00\00\00\0D\00\00\00" }>, align 8
@alloc753 = private unnamed_addr constant <{ i8*, [16 x i8] }> <{ i8* getelementptr inbounds (<{ [90 x i8] }>, <{ [90 x i8] }>* @alloc892, i32 0, i32 0, i32 0), [16 x i8] c"Z\00\00\00\00\00\00\00\DF\00\00\00 \00\00\00" }>, align 8
@alloc755 = private unnamed_addr constant <{ i8*, [16 x i8] }> <{ i8* getelementptr inbounds (<{ [90 x i8] }>, <{ [90 x i8] }>* @alloc892, i32 0, i32 0, i32 0), [16 x i8] c"Z\00\00\00\00\00\00\00\DF\00\00\00\0D\00\00\00" }>, align 8
@alloc757 = private unnamed_addr constant <{ i8*, [16 x i8] }> <{ i8* getelementptr inbounds (<{ [90 x i8] }>, <{ [90 x i8] }>* @alloc892, i32 0, i32 0, i32 0), [16 x i8] c"Z\00\00\00\00\00\00\00\E0\00\00\00 \00\00\00" }>, align 8
@alloc759 = private unnamed_addr constant <{ i8*, [16 x i8] }> <{ i8* getelementptr inbounds (<{ [90 x i8] }>, <{ [90 x i8] }>* @alloc892, i32 0, i32 0, i32 0), [16 x i8] c"Z\00\00\00\00\00\00\00\E0\00\00\00\0D\00\00\00" }>, align 8
@alloc761 = private unnamed_addr constant <{ i8*, [16 x i8] }> <{ i8* getelementptr inbounds (<{ [90 x i8] }>, <{ [90 x i8] }>* @alloc892, i32 0, i32 0, i32 0), [16 x i8] c"Z\00\00\00\00\00\00\00\E2\00\00\00'\00\00\00" }>, align 8
@alloc763 = private unnamed_addr constant <{ i8*, [16 x i8] }> <{ i8* getelementptr inbounds (<{ [90 x i8] }>, <{ [90 x i8] }>* @alloc892, i32 0, i32 0, i32 0), [16 x i8] c"Z\00\00\00\00\00\00\00\E4\00\00\00 \00\00\00" }>, align 8
@alloc765 = private unnamed_addr constant <{ i8*, [16 x i8] }> <{ i8* getelementptr inbounds (<{ [90 x i8] }>, <{ [90 x i8] }>* @alloc892, i32 0, i32 0, i32 0), [16 x i8] c"Z\00\00\00\00\00\00\00\E4\00\00\00\0D\00\00\00" }>, align 8
@alloc767 = private unnamed_addr constant <{ i8*, [16 x i8] }> <{ i8* getelementptr inbounds (<{ [90 x i8] }>, <{ [90 x i8] }>* @alloc892, i32 0, i32 0, i32 0), [16 x i8] c"Z\00\00\00\00\00\00\00\E5\00\00\00 \00\00\00" }>, align 8
@alloc769 = private unnamed_addr constant <{ i8*, [16 x i8] }> <{ i8* getelementptr inbounds (<{ [90 x i8] }>, <{ [90 x i8] }>* @alloc892, i32 0, i32 0, i32 0), [16 x i8] c"Z\00\00\00\00\00\00\00\E5\00\00\00\0D\00\00\00" }>, align 8
@alloc771 = private unnamed_addr constant <{ i8*, [16 x i8] }> <{ i8* getelementptr inbounds (<{ [90 x i8] }>, <{ [90 x i8] }>* @alloc892, i32 0, i32 0, i32 0), [16 x i8] c"Z\00\00\00\00\00\00\00\E6\00\00\00 \00\00\00" }>, align 8
@alloc773 = private unnamed_addr constant <{ i8*, [16 x i8] }> <{ i8* getelementptr inbounds (<{ [90 x i8] }>, <{ [90 x i8] }>* @alloc892, i32 0, i32 0, i32 0), [16 x i8] c"Z\00\00\00\00\00\00\00\E6\00\00\00\0D\00\00\00" }>, align 8
@alloc775 = private unnamed_addr constant <{ i8*, [16 x i8] }> <{ i8* getelementptr inbounds (<{ [90 x i8] }>, <{ [90 x i8] }>* @alloc892, i32 0, i32 0, i32 0), [16 x i8] c"Z\00\00\00\00\00\00\00\E7\00\00\00 \00\00\00" }>, align 8
@alloc777 = private unnamed_addr constant <{ i8*, [16 x i8] }> <{ i8* getelementptr inbounds (<{ [90 x i8] }>, <{ [90 x i8] }>* @alloc892, i32 0, i32 0, i32 0), [16 x i8] c"Z\00\00\00\00\00\00\00\E7\00\00\00\0D\00\00\00" }>, align 8
@alloc779 = private unnamed_addr constant <{ i8*, [16 x i8] }> <{ i8* getelementptr inbounds (<{ [90 x i8] }>, <{ [90 x i8] }>* @alloc892, i32 0, i32 0, i32 0), [16 x i8] c"Z\00\00\00\00\00\00\00\E8\00\00\00 \00\00\00" }>, align 8
@alloc781 = private unnamed_addr constant <{ i8*, [16 x i8] }> <{ i8* getelementptr inbounds (<{ [90 x i8] }>, <{ [90 x i8] }>* @alloc892, i32 0, i32 0, i32 0), [16 x i8] c"Z\00\00\00\00\00\00\00\E8\00\00\00\0D\00\00\00" }>, align 8
@alloc783 = private unnamed_addr constant <{ i8*, [16 x i8] }> <{ i8* getelementptr inbounds (<{ [90 x i8] }>, <{ [90 x i8] }>* @alloc892, i32 0, i32 0, i32 0), [16 x i8] c"Z\00\00\00\00\00\00\00\E9\00\00\00 \00\00\00" }>, align 8
@alloc785 = private unnamed_addr constant <{ i8*, [16 x i8] }> <{ i8* getelementptr inbounds (<{ [90 x i8] }>, <{ [90 x i8] }>* @alloc892, i32 0, i32 0, i32 0), [16 x i8] c"Z\00\00\00\00\00\00\00\E9\00\00\00\0D\00\00\00" }>, align 8
@alloc787 = private unnamed_addr constant <{ i8*, [16 x i8] }> <{ i8* getelementptr inbounds (<{ [90 x i8] }>, <{ [90 x i8] }>* @alloc892, i32 0, i32 0, i32 0), [16 x i8] c"Z\00\00\00\00\00\00\00\EA\00\00\00 \00\00\00" }>, align 8
@alloc789 = private unnamed_addr constant <{ i8*, [16 x i8] }> <{ i8* getelementptr inbounds (<{ [90 x i8] }>, <{ [90 x i8] }>* @alloc892, i32 0, i32 0, i32 0), [16 x i8] c"Z\00\00\00\00\00\00\00\EA\00\00\00\0D\00\00\00" }>, align 8
@alloc791 = private unnamed_addr constant <{ i8*, [16 x i8] }> <{ i8* getelementptr inbounds (<{ [90 x i8] }>, <{ [90 x i8] }>* @alloc892, i32 0, i32 0, i32 0), [16 x i8] c"Z\00\00\00\00\00\00\00\EB\00\00\00 \00\00\00" }>, align 8
@alloc793 = private unnamed_addr constant <{ i8*, [16 x i8] }> <{ i8* getelementptr inbounds (<{ [90 x i8] }>, <{ [90 x i8] }>* @alloc892, i32 0, i32 0, i32 0), [16 x i8] c"Z\00\00\00\00\00\00\00\EB\00\00\00\0D\00\00\00" }>, align 8
@alloc795 = private unnamed_addr constant <{ i8*, [16 x i8] }> <{ i8* getelementptr inbounds (<{ [90 x i8] }>, <{ [90 x i8] }>* @alloc892, i32 0, i32 0, i32 0), [16 x i8] c"Z\00\00\00\00\00\00\00\ED\00\00\00\0D\00\00\00" }>, align 8
@alloc797 = private unnamed_addr constant <{ i8*, [16 x i8] }> <{ i8* getelementptr inbounds (<{ [90 x i8] }>, <{ [90 x i8] }>* @alloc892, i32 0, i32 0, i32 0), [16 x i8] c"Z\00\00\00\00\00\00\00\EE\00\00\00\0D\00\00\00" }>, align 8
@alloc799 = private unnamed_addr constant <{ i8*, [16 x i8] }> <{ i8* getelementptr inbounds (<{ [90 x i8] }>, <{ [90 x i8] }>* @alloc892, i32 0, i32 0, i32 0), [16 x i8] c"Z\00\00\00\00\00\00\00\F7\00\00\00\18\00\00\00" }>, align 8
@alloc801 = private unnamed_addr constant <{ i8*, [16 x i8] }> <{ i8* getelementptr inbounds (<{ [90 x i8] }>, <{ [90 x i8] }>* @alloc892, i32 0, i32 0, i32 0), [16 x i8] c"Z\00\00\00\00\00\00\00\FC\00\00\00/\00\00\00" }>, align 8
@alloc803 = private unnamed_addr constant <{ i8*, [16 x i8] }> <{ i8* getelementptr inbounds (<{ [90 x i8] }>, <{ [90 x i8] }>* @alloc892, i32 0, i32 0, i32 0), [16 x i8] c"Z\00\00\00\00\00\00\00\FC\00\00\00\1C\00\00\00" }>, align 8
@alloc805 = private unnamed_addr constant <{ i8*, [16 x i8] }> <{ i8* getelementptr inbounds (<{ [90 x i8] }>, <{ [90 x i8] }>* @alloc892, i32 0, i32 0, i32 0), [16 x i8] c"Z\00\00\00\00\00\00\00\FD\00\00\006\00\00\00" }>, align 8
@alloc807 = private unnamed_addr constant <{ i8*, [16 x i8] }> <{ i8* getelementptr inbounds (<{ [90 x i8] }>, <{ [90 x i8] }>* @alloc892, i32 0, i32 0, i32 0), [16 x i8] c"Z\00\00\00\00\00\00\00\FD\00\00\00!\00\00\00" }>, align 8
@alloc809 = private unnamed_addr constant <{ i8*, [16 x i8] }> <{ i8* getelementptr inbounds (<{ [90 x i8] }>, <{ [90 x i8] }>* @alloc892, i32 0, i32 0, i32 0), [16 x i8] c"Z\00\00\00\00\00\00\00\FF\00\00\00)\00\00\00" }>, align 8
@alloc811 = private unnamed_addr constant <{ i8*, [16 x i8] }> <{ i8* getelementptr inbounds (<{ [90 x i8] }>, <{ [90 x i8] }>* @alloc892, i32 0, i32 0, i32 0), [16 x i8] c"Z\00\00\00\00\00\00\00\FF\00\00\00\1B\00\00\00" }>, align 8
@alloc813 = private unnamed_addr constant <{ i8*, [16 x i8] }> <{ i8* getelementptr inbounds (<{ [90 x i8] }>, <{ [90 x i8] }>* @alloc892, i32 0, i32 0, i32 0), [16 x i8] c"Z\00\00\00\00\00\00\00\FF\00\00\00\09\00\00\00" }>, align 8
@alloc815 = private unnamed_addr constant <{ i8*, [16 x i8] }> <{ i8* getelementptr inbounds (<{ [90 x i8] }>, <{ [90 x i8] }>* @alloc892, i32 0, i32 0, i32 0), [16 x i8] c"Z\00\00\00\00\00\00\00\01\01\00\00\1C\00\00\00" }>, align 8
@alloc817 = private unnamed_addr constant <{ i8*, [16 x i8] }> <{ i8* getelementptr inbounds (<{ [90 x i8] }>, <{ [90 x i8] }>* @alloc892, i32 0, i32 0, i32 0), [16 x i8] c"Z\00\00\00\00\00\00\00\01\01\00\002\00\00\00" }>, align 8
@alloc819 = private unnamed_addr constant <{ i8*, [16 x i8] }> <{ i8* getelementptr inbounds (<{ [90 x i8] }>, <{ [90 x i8] }>* @alloc892, i32 0, i32 0, i32 0), [16 x i8] c"Z\00\00\00\00\00\00\00\01\01\00\00\0D\00\00\00" }>, align 8
@alloc821 = private unnamed_addr constant <{ i8*, [16 x i8] }> <{ i8* getelementptr inbounds (<{ [90 x i8] }>, <{ [90 x i8] }>* @alloc892, i32 0, i32 0, i32 0), [16 x i8] c"Z\00\00\00\00\00\00\00\00\01\00\00\09\00\00\00" }>, align 8
@alloc823 = private unnamed_addr constant <{ i8*, [16 x i8] }> <{ i8* getelementptr inbounds (<{ [90 x i8] }>, <{ [90 x i8] }>* @alloc892, i32 0, i32 0, i32 0), [16 x i8] c"Z\00\00\00\00\00\00\00\03\01\00\00\1C\00\00\00" }>, align 8
@alloc825 = private unnamed_addr constant <{ i8*, [16 x i8] }> <{ i8* getelementptr inbounds (<{ [90 x i8] }>, <{ [90 x i8] }>* @alloc892, i32 0, i32 0, i32 0), [16 x i8] c"Z\00\00\00\00\00\00\00\03\01\00\002\00\00\00" }>, align 8
@alloc827 = private unnamed_addr constant <{ i8*, [16 x i8] }> <{ i8* getelementptr inbounds (<{ [90 x i8] }>, <{ [90 x i8] }>* @alloc892, i32 0, i32 0, i32 0), [16 x i8] c"Z\00\00\00\00\00\00\00\03\01\00\00\0D\00\00\00" }>, align 8
@alloc829 = private unnamed_addr constant <{ i8*, [16 x i8] }> <{ i8* getelementptr inbounds (<{ [90 x i8] }>, <{ [90 x i8] }>* @alloc892, i32 0, i32 0, i32 0), [16 x i8] c"Z\00\00\00\00\00\00\00\02\01\00\00\09\00\00\00" }>, align 8
@alloc831 = private unnamed_addr constant <{ i8*, [16 x i8] }> <{ i8* getelementptr inbounds (<{ [90 x i8] }>, <{ [90 x i8] }>* @alloc892, i32 0, i32 0, i32 0), [16 x i8] c"Z\00\00\00\00\00\00\00\04\01\00\00)\00\00\00" }>, align 8
@alloc833 = private unnamed_addr constant <{ i8*, [16 x i8] }> <{ i8* getelementptr inbounds (<{ [90 x i8] }>, <{ [90 x i8] }>* @alloc892, i32 0, i32 0, i32 0), [16 x i8] c"Z\00\00\00\00\00\00\00\04\01\00\00\1B\00\00\00" }>, align 8
@alloc835 = private unnamed_addr constant <{ i8*, [16 x i8] }> <{ i8* getelementptr inbounds (<{ [90 x i8] }>, <{ [90 x i8] }>* @alloc892, i32 0, i32 0, i32 0), [16 x i8] c"Z\00\00\00\00\00\00\00\04\01\00\00\09\00\00\00" }>, align 8
@alloc837 = private unnamed_addr constant <{ i8*, [16 x i8] }> <{ i8* getelementptr inbounds (<{ [90 x i8] }>, <{ [90 x i8] }>* @alloc892, i32 0, i32 0, i32 0), [16 x i8] c"Z\00\00\00\00\00\00\00\06\01\00\00\09\00\00\00" }>, align 8
@alloc839 = private unnamed_addr constant <{ i8*, [16 x i8] }> <{ i8* getelementptr inbounds (<{ [90 x i8] }>, <{ [90 x i8] }>* @alloc892, i32 0, i32 0, i32 0), [16 x i8] c"Z\00\00\00\00\00\00\00\07\01\00\00\09\00\00\00" }>, align 8
@alloc841 = private unnamed_addr constant <{ i8*, [16 x i8] }> <{ i8* getelementptr inbounds (<{ [90 x i8] }>, <{ [90 x i8] }>* @alloc892, i32 0, i32 0, i32 0), [16 x i8] c"Z\00\00\00\00\00\00\00\13\01\00\00.\00\00\00" }>, align 8
@alloc843 = private unnamed_addr constant <{ i8*, [16 x i8] }> <{ i8* getelementptr inbounds (<{ [90 x i8] }>, <{ [90 x i8] }>* @alloc892, i32 0, i32 0, i32 0), [16 x i8] c"Z\00\00\00\00\00\00\00\13\01\00\00 \00\00\00" }>, align 8
@alloc845 = private unnamed_addr constant <{ i8*, [16 x i8] }> <{ i8* getelementptr inbounds (<{ [90 x i8] }>, <{ [90 x i8] }>* @alloc892, i32 0, i32 0, i32 0), [16 x i8] c"Z\00\00\00\00\00\00\00\13\01\00\00\09\00\00\00" }>, align 8
@alloc847 = private unnamed_addr constant <{ i8*, [16 x i8] }> <{ i8* getelementptr inbounds (<{ [90 x i8] }>, <{ [90 x i8] }>* @alloc892, i32 0, i32 0, i32 0), [16 x i8] c"Z\00\00\00\00\00\00\00\15\01\00\00\1C\00\00\00" }>, align 8
@alloc849 = private unnamed_addr constant <{ i8*, [16 x i8] }> <{ i8* getelementptr inbounds (<{ [90 x i8] }>, <{ [90 x i8] }>* @alloc892, i32 0, i32 0, i32 0), [16 x i8] c"Z\00\00\00\00\00\00\00\15\01\00\00\0D\00\00\00" }>, align 8
@alloc851 = private unnamed_addr constant <{ i8*, [16 x i8] }> <{ i8* getelementptr inbounds (<{ [90 x i8] }>, <{ [90 x i8] }>* @alloc892, i32 0, i32 0, i32 0), [16 x i8] c"Z\00\00\00\00\00\00\00\14\01\00\00\10\00\00\00" }>, align 8
@alloc853 = private unnamed_addr constant <{ i8*, [16 x i8] }> <{ i8* getelementptr inbounds (<{ [90 x i8] }>, <{ [90 x i8] }>* @alloc892, i32 0, i32 0, i32 0), [16 x i8] c"Z\00\00\00\00\00\00\00\14\01\00\00\09\00\00\00" }>, align 8
@alloc855 = private unnamed_addr constant <{ i8*, [16 x i8] }> <{ i8* getelementptr inbounds (<{ [90 x i8] }>, <{ [90 x i8] }>* @alloc892, i32 0, i32 0, i32 0), [16 x i8] c"Z\00\00\00\00\00\00\00\16\01\00\00\09\00\00\00" }>, align 8
@alloc857 = private unnamed_addr constant <{ i8*, [16 x i8] }> <{ i8* getelementptr inbounds (<{ [90 x i8] }>, <{ [90 x i8] }>* @alloc892, i32 0, i32 0, i32 0), [16 x i8] c"Z\00\00\00\00\00\00\00\0B\01\00\00.\00\00\00" }>, align 8
@alloc859 = private unnamed_addr constant <{ i8*, [16 x i8] }> <{ i8* getelementptr inbounds (<{ [90 x i8] }>, <{ [90 x i8] }>* @alloc892, i32 0, i32 0, i32 0), [16 x i8] c"Z\00\00\00\00\00\00\00\0B\01\00\00 \00\00\00" }>, align 8
@alloc861 = private unnamed_addr constant <{ i8*, [16 x i8] }> <{ i8* getelementptr inbounds (<{ [90 x i8] }>, <{ [90 x i8] }>* @alloc892, i32 0, i32 0, i32 0), [16 x i8] c"Z\00\00\00\00\00\00\00\0B\01\00\00\09\00\00\00" }>, align 8
@alloc863 = private unnamed_addr constant <{ i8*, [16 x i8] }> <{ i8* getelementptr inbounds (<{ [90 x i8] }>, <{ [90 x i8] }>* @alloc892, i32 0, i32 0, i32 0), [16 x i8] c"Z\00\00\00\00\00\00\00\0C\01\00\003\00\00\00" }>, align 8
@alloc865 = private unnamed_addr constant <{ i8*, [16 x i8] }> <{ i8* getelementptr inbounds (<{ [90 x i8] }>, <{ [90 x i8] }>* @alloc892, i32 0, i32 0, i32 0), [16 x i8] c"Z\00\00\00\00\00\00\00\0D\01\00\00\15\00\00\00" }>, align 8
@alloc867 = private unnamed_addr constant <{ i8*, [16 x i8] }> <{ i8* getelementptr inbounds (<{ [90 x i8] }>, <{ [90 x i8] }>* @alloc892, i32 0, i32 0, i32 0), [16 x i8] c"Z\00\00\00\00\00\00\00\0D\01\00\00\0F\00\00\00" }>, align 8
@alloc869 = private unnamed_addr constant <{ i8*, [16 x i8] }> <{ i8* getelementptr inbounds (<{ [90 x i8] }>, <{ [90 x i8] }>* @alloc892, i32 0, i32 0, i32 0), [16 x i8] c"Z\00\00\00\00\00\00\00\0C\01\00\00$\00\00\00" }>, align 8
@alloc871 = private unnamed_addr constant <{ i8*, [16 x i8] }> <{ i8* getelementptr inbounds (<{ [90 x i8] }>, <{ [90 x i8] }>* @alloc892, i32 0, i32 0, i32 0), [16 x i8] c"Z\00\00\00\00\00\00\00\0C\01\00\00\10\00\00\00" }>, align 8
@alloc873 = private unnamed_addr constant <{ i8*, [16 x i8] }> <{ i8* getelementptr inbounds (<{ [90 x i8] }>, <{ [90 x i8] }>* @alloc892, i32 0, i32 0, i32 0), [16 x i8] c"Z\00\00\00\00\00\00\00\0C\01\00\00\09\00\00\00" }>, align 8
@alloc875 = private unnamed_addr constant <{ i8*, [16 x i8] }> <{ i8* getelementptr inbounds (<{ [90 x i8] }>, <{ [90 x i8] }>* @alloc892, i32 0, i32 0, i32 0), [16 x i8] c"Z\00\00\00\00\00\00\00\10\01\00\00\22\00\00\00" }>, align 8
@alloc877 = private unnamed_addr constant <{ i8*, [16 x i8] }> <{ i8* getelementptr inbounds (<{ [90 x i8] }>, <{ [90 x i8] }>* @alloc892, i32 0, i32 0, i32 0), [16 x i8] c"Z\00\00\00\00\00\00\00\10\01\00\00\1C\00\00\00" }>, align 8
@alloc879 = private unnamed_addr constant <{ i8*, [16 x i8] }> <{ i8* getelementptr inbounds (<{ [90 x i8] }>, <{ [90 x i8] }>* @alloc892, i32 0, i32 0, i32 0), [16 x i8] c"Z\00\00\00\00\00\00\00\10\01\00\00\0D\00\00\00" }>, align 8
@alloc881 = private unnamed_addr constant <{ i8*, [16 x i8] }> <{ i8* getelementptr inbounds (<{ [90 x i8] }>, <{ [90 x i8] }>* @alloc892, i32 0, i32 0, i32 0), [16 x i8] c"Z\00\00\00\00\00\00\00\0F\01\00\00\10\00\00\00" }>, align 8
@alloc883 = private unnamed_addr constant <{ i8*, [16 x i8] }> <{ i8* getelementptr inbounds (<{ [90 x i8] }>, <{ [90 x i8] }>* @alloc892, i32 0, i32 0, i32 0), [16 x i8] c"Z\00\00\00\00\00\00\00\0F\01\00\00\09\00\00\00" }>, align 8
@alloc885 = private unnamed_addr constant <{ i8*, [16 x i8] }> <{ i8* getelementptr inbounds (<{ [90 x i8] }>, <{ [90 x i8] }>* @alloc892, i32 0, i32 0, i32 0), [16 x i8] c"Z\00\00\00\00\00\00\00\11\01\00\00\09\00\00\00" }>, align 8
@alloc495 = private unnamed_addr constant <{ [20 x i8] }> <{ [20 x i8] c"Impossible remainder" }>, align 1
@alloc496 = private unnamed_addr constant <{ i8*, [8 x i8] }> <{ i8* getelementptr inbounds (<{ [20 x i8] }>, <{ [20 x i8] }>* @alloc495, i32 0, i32 0, i32 0), [8 x i8] c"\14\00\00\00\00\00\00\00" }>, align 8
@alloc500 = private unnamed_addr constant <{ [42 x i8] }> <{ [42 x i8] c"internal error: entered unreachable code: " }>, align 1
@alloc501 = private unnamed_addr constant <{ i8*, [8 x i8] }> <{ i8* getelementptr inbounds (<{ [42 x i8] }>, <{ [42 x i8] }>* @alloc500, i32 0, i32 0, i32 0), [8 x i8] c"*\00\00\00\00\00\00\00" }>, align 8
@alloc887 = private unnamed_addr constant <{ i8*, [16 x i8] }> <{ i8* getelementptr inbounds (<{ [90 x i8] }>, <{ [90 x i8] }>* @alloc892, i32 0, i32 0, i32 0), [16 x i8] c"Z\00\00\00\00\00\00\00*\01\00\00\16\00\00\00" }>, align 8
@alloc889 = private unnamed_addr constant <{ i8*, [16 x i8] }> <{ i8* getelementptr inbounds (<{ [90 x i8] }>, <{ [90 x i8] }>* @alloc892, i32 0, i32 0, i32 0), [16 x i8] c"Z\00\00\00\00\00\00\00:\01\00\00\12\00\00\00" }>, align 8
@alloc891 = private unnamed_addr constant <{ i8*, [16 x i8] }> <{ i8* getelementptr inbounds (<{ [90 x i8] }>, <{ [90 x i8] }>* @alloc892, i32 0, i32 0, i32 0), [16 x i8] c"Z\00\00\00\00\00\00\00;\01\00\00\09\00\00\00" }>, align 8
@alloc893 = private unnamed_addr constant <{ i8*, [16 x i8] }> <{ i8* getelementptr inbounds (<{ [90 x i8] }>, <{ [90 x i8] }>* @alloc892, i32 0, i32 0, i32 0), [16 x i8] c"Z\00\00\00\00\00\00\00<\01\00\00\09\00\00\00" }>, align 8
@alloc521 = private unnamed_addr constant <{ [20 x i8] }> <{ [20 x i8] c"Invalid last symbol " }>, align 1
@alloc513 = private unnamed_addr constant <{ [9 x i8] }> <{ [9 x i8] c", offset " }>, align 1
@alloc514 = private unnamed_addr constant <{ [1 x i8] }> <{ [1 x i8] c"." }>, align 1
@alloc522 = private unnamed_addr constant <{ i8*, [8 x i8], i8*, [8 x i8], i8*, [8 x i8] }> <{ i8* getelementptr inbounds (<{ [20 x i8] }>, <{ [20 x i8] }>* @alloc521, i32 0, i32 0, i32 0), [8 x i8] c"\14\00\00\00\00\00\00\00", i8* getelementptr inbounds (<{ [9 x i8] }>, <{ [9 x i8] }>* @alloc513, i32 0, i32 0, i32 0), [8 x i8] c"\09\00\00\00\00\00\00\00", i8* getelementptr inbounds (<{ [1 x i8] }>, <{ [1 x i8] }>* @alloc514, i32 0, i32 0, i32 0), [8 x i8] c"\01\00\00\00\00\00\00\00" }>, align 8
@alloc516 = private unnamed_addr constant <{ [0 x i8] }> zeroinitializer, align 8
@alloc518 = private unnamed_addr constant <{ [43 x i8] }> <{ [43 x i8] c"Encoded text cannot have a 6-bit remainder." }>, align 1
@alloc519 = private unnamed_addr constant <{ i8*, [8 x i8] }> <{ i8* getelementptr inbounds (<{ [43 x i8] }>, <{ [43 x i8] }>* @alloc518, i32 0, i32 0, i32 0), [8 x i8] c"+\00\00\00\00\00\00\00" }>, align 8
@alloc511 = private unnamed_addr constant <{ [13 x i8] }> <{ [13 x i8] c"Invalid byte " }>, align 1
@alloc512 = private unnamed_addr constant <{ i8*, [8 x i8], i8*, [8 x i8], i8*, [8 x i8] }> <{ i8* getelementptr inbounds (<{ [13 x i8] }>, <{ [13 x i8] }>* @alloc511, i32 0, i32 0, i32 0), [8 x i8] c"\0D\00\00\00\00\00\00\00", i8* getelementptr inbounds (<{ [9 x i8] }>, <{ [9 x i8] }>* @alloc513, i32 0, i32 0, i32 0), [8 x i8] c"\09\00\00\00\00\00\00\00", i8* getelementptr inbounds (<{ [1 x i8] }>, <{ [1 x i8] }>* @alloc514, i32 0, i32 0, i32 0), [8 x i8] c"\01\00\00\00\00\00\00\00" }>, align 8
@alloc894 = private unnamed_addr constant <{ [19 x i8] }> <{ [19 x i8] c"invalid last symbol" }>, align 1
@alloc895 = private unnamed_addr constant <{ [14 x i8] }> <{ [14 x i8] c"invalid length" }>, align 1
@alloc896 = private unnamed_addr constant <{ [12 x i8] }> <{ [12 x i8] c"invalid byte" }>, align 1
@alloc897 = private unnamed_addr constant <{ [51 x i8] }> <{ [51 x i8] c"Overflow when calculating number of chunks in input" }>, align 1
@alloc898 = private unnamed_addr constant <{ [90 x i8] }> <{ [90 x i8] c"/home/seaceved/.cargo/registry/src/github.com-1ecc6299db9ec823/base64-0.13.0/src/decode.rs" }>, align 1
@alloc899 = private unnamed_addr constant <{ i8*, [16 x i8] }> <{ i8* getelementptr inbounds (<{ [90 x i8] }>, <{ [90 x i8] }>* @alloc898, i32 0, i32 0, i32 0), [16 x i8] c"Z\00\00\00\00\00\00\00\BC\00\00\00\0A\00\00\00" }>, align 8
@alloc57 = private unnamed_addr constant <{ [64 x i8] }> <{ [64 x i8] c"!\22#$%&'()*+,-0123456789@ABCDEFGHIJKLMNPQRSTUVXYZ[`abcdehijklmpqr" }>, align 1
@alloc51 = private unnamed_addr constant <{ [64 x i8] }> <{ [64 x i8] c"ABCDEFGHIJKLMNOPQRSTUVWXYZabcdefghijklmnopqrstuvwxyz0123456789+," }>, align 1
@alloc45 = private unnamed_addr constant <{ [64 x i8] }> <{ [64 x i8] c"./ABCDEFGHIJKLMNOPQRSTUVWXYZabcdefghijklmnopqrstuvwxyz0123456789" }>, align 1
@alloc39 = private unnamed_addr constant <{ [64 x i8] }> <{ [64 x i8] c"./0123456789ABCDEFGHIJKLMNOPQRSTUVWXYZabcdefghijklmnopqrstuvwxyz" }>, align 1
@alloc33 = private unnamed_addr constant <{ [64 x i8] }> <{ [64 x i8] c"ABCDEFGHIJKLMNOPQRSTUVWXYZabcdefghijklmnopqrstuvwxyz0123456789-_" }>, align 1
@alloc27 = private unnamed_addr constant <{ [64 x i8] }> <{ [64 x i8] c"ABCDEFGHIJKLMNOPQRSTUVWXYZabcdefghijklmnopqrstuvwxyz0123456789+/" }>, align 1
@alloc60 = private unnamed_addr constant <{ [256 x i8] }> <{ [256 x i8] c"\FF\FF\FF\FF\FF\FF\FF\FF\FF\FF\FF\FF\FF\FF\FF\FF\FF\FF\FF\FF\FF\FF\FF\FF\FF\FF\FF\FF\FF\FF\FF\FF\FF\00\01\02\03\04\05\06\07\08\09\0A\0B\0C\FF\FF\0D\0E\0F\10\11\12\13\14\15\16\FF\FF\FF\FF\FF\FF\17\18\19\1A\1B\1C\1D\1E\1F !\22#$%\FF&'()*+,\FF-./0\FF\FF\FF\FF123456\FF\FF789:;<\FF\FF=>?\FF\FF\FF\FF\FF\FF\FF\FF\FF\FF\FF\FF\FF\FF\FF\FF\FF\FF\FF\FF\FF\FF\FF\FF\FF\FF\FF\FF\FF\FF\FF\FF\FF\FF\FF\FF\FF\FF\FF\FF\FF\FF\FF\FF\FF\FF\FF\FF\FF\FF\FF\FF\FF\FF\FF\FF\FF\FF\FF\FF\FF\FF\FF\FF\FF\FF\FF\FF\FF\FF\FF\FF\FF\FF\FF\FF\FF\FF\FF\FF\FF\FF\FF\FF\FF\FF\FF\FF\FF\FF\FF\FF\FF\FF\FF\FF\FF\FF\FF\FF\FF\FF\FF\FF\FF\FF\FF\FF\FF\FF\FF\FF\FF\FF\FF\FF\FF\FF\FF\FF\FF\FF\FF\FF\FF\FF\FF\FF\FF\FF\FF\FF\FF\FF\FF\FF\FF\FF\FF\FF\FF" }>, align 1
@alloc54 = private unnamed_addr constant <{ [256 x i8] }> <{ [256 x i8] c"\FF\FF\FF\FF\FF\FF\FF\FF\FF\FF\FF\FF\FF\FF\FF\FF\FF\FF\FF\FF\FF\FF\FF\FF\FF\FF\FF\FF\FF\FF\FF\FF\FF\FF\FF\FF\FF\FF\FF\FF\FF\FF\FF>?\FF\FF\FF456789:;<=\FF\FF\FF\FF\FF\FF\FF\00\01\02\03\04\05\06\07\08\09\0A\0B\0C\0D\0E\0F\10\11\12\13\14\15\16\17\18\19\FF\FF\FF\FF\FF\FF\1A\1B\1C\1D\1E\1F !\22#$%&'()*+,-./0123\FF\FF\FF\FF\FF\FF\FF\FF\FF\FF\FF\FF\FF\FF\FF\FF\FF\FF\FF\FF\FF\FF\FF\FF\FF\FF\FF\FF\FF\FF\FF\FF\FF\FF\FF\FF\FF\FF\FF\FF\FF\FF\FF\FF\FF\FF\FF\FF\FF\FF\FF\FF\FF\FF\FF\FF\FF\FF\FF\FF\FF\FF\FF\FF\FF\FF\FF\FF\FF\FF\FF\FF\FF\FF\FF\FF\FF\FF\FF\FF\FF\FF\FF\FF\FF\FF\FF\FF\FF\FF\FF\FF\FF\FF\FF\FF\FF\FF\FF\FF\FF\FF\FF\FF\FF\FF\FF\FF\FF\FF\FF\FF\FF\FF\FF\FF\FF\FF\FF\FF\FF\FF\FF\FF\FF\FF\FF\FF\FF\FF\FF\FF\FF" }>, align 1
@alloc48 = private unnamed_addr constant <{ [256 x i8] }> <{ [256 x i8] c"\FF\FF\FF\FF\FF\FF\FF\FF\FF\FF\FF\FF\FF\FF\FF\FF\FF\FF\FF\FF\FF\FF\FF\FF\FF\FF\FF\FF\FF\FF\FF\FF\FF\FF\FF\FF\FF\FF\FF\FF\FF\FF\FF\FF\FF\FF\00\016789:;<=>?\FF\FF\FF\FF\FF\FF\FF\02\03\04\05\06\07\08\09\0A\0B\0C\0D\0E\0F\10\11\12\13\14\15\16\17\18\19\1A\1B\FF\FF\FF\FF\FF\FF\1C\1D\1E\1F !\22#$%&'()*+,-./012345\FF\FF\FF\FF\FF\FF\FF\FF\FF\FF\FF\FF\FF\FF\FF\FF\FF\FF\FF\FF\FF\FF\FF\FF\FF\FF\FF\FF\FF\FF\FF\FF\FF\FF\FF\FF\FF\FF\FF\FF\FF\FF\FF\FF\FF\FF\FF\FF\FF\FF\FF\FF\FF\FF\FF\FF\FF\FF\FF\FF\FF\FF\FF\FF\FF\FF\FF\FF\FF\FF\FF\FF\FF\FF\FF\FF\FF\FF\FF\FF\FF\FF\FF\FF\FF\FF\FF\FF\FF\FF\FF\FF\FF\FF\FF\FF\FF\FF\FF\FF\FF\FF\FF\FF\FF\FF\FF\FF\FF\FF\FF\FF\FF\FF\FF\FF\FF\FF\FF\FF\FF\FF\FF\FF\FF\FF\FF\FF\FF\FF\FF\FF\FF" }>, align 1
@alloc42 = private unnamed_addr constant <{ [256 x i8] }> <{ [256 x i8] c"\FF\FF\FF\FF\FF\FF\FF\FF\FF\FF\FF\FF\FF\FF\FF\FF\FF\FF\FF\FF\FF\FF\FF\FF\FF\FF\FF\FF\FF\FF\FF\FF\FF\FF\FF\FF\FF\FF\FF\FF\FF\FF\FF\FF\FF\FF\00\01\02\03\04\05\06\07\08\09\0A\0B\FF\FF\FF\FF\FF\FF\FF\0C\0D\0E\0F\10\11\12\13\14\15\16\17\18\19\1A\1B\1C\1D\1E\1F !\22#$%\FF\FF\FF\FF\FF\FF&'()*+,-./0123456789:;<=>?\FF\FF\FF\FF\FF\FF\FF\FF\FF\FF\FF\FF\FF\FF\FF\FF\FF\FF\FF\FF\FF\FF\FF\FF\FF\FF\FF\FF\FF\FF\FF\FF\FF\FF\FF\FF\FF\FF\FF\FF\FF\FF\FF\FF\FF\FF\FF\FF\FF\FF\FF\FF\FF\FF\FF\FF\FF\FF\FF\FF\FF\FF\FF\FF\FF\FF\FF\FF\FF\FF\FF\FF\FF\FF\FF\FF\FF\FF\FF\FF\FF\FF\FF\FF\FF\FF\FF\FF\FF\FF\FF\FF\FF\FF\FF\FF\FF\FF\FF\FF\FF\FF\FF\FF\FF\FF\FF\FF\FF\FF\FF\FF\FF\FF\FF\FF\FF\FF\FF\FF\FF\FF\FF\FF\FF\FF\FF\FF\FF\FF\FF\FF\FF" }>, align 1
@alloc36 = private unnamed_addr constant <{ [256 x i8] }> <{ [256 x i8] c"\FF\FF\FF\FF\FF\FF\FF\FF\FF\FF\FF\FF\FF\FF\FF\FF\FF\FF\FF\FF\FF\FF\FF\FF\FF\FF\FF\FF\FF\FF\FF\FF\FF\FF\FF\FF\FF\FF\FF\FF\FF\FF\FF\FF\FF>\FF\FF456789:;<=\FF\FF\FF\FF\FF\FF\FF\00\01\02\03\04\05\06\07\08\09\0A\0B\0C\0D\0E\0F\10\11\12\13\14\15\16\17\18\19\FF\FF\FF\FF?\FF\1A\1B\1C\1D\1E\1F !\22#$%&'()*+,-./0123\FF\FF\FF\FF\FF\FF\FF\FF\FF\FF\FF\FF\FF\FF\FF\FF\FF\FF\FF\FF\FF\FF\FF\FF\FF\FF\FF\FF\FF\FF\FF\FF\FF\FF\FF\FF\FF\FF\FF\FF\FF\FF\FF\FF\FF\FF\FF\FF\FF\FF\FF\FF\FF\FF\FF\FF\FF\FF\FF\FF\FF\FF\FF\FF\FF\FF\FF\FF\FF\FF\FF\FF\FF\FF\FF\FF\FF\FF\FF\FF\FF\FF\FF\FF\FF\FF\FF\FF\FF\FF\FF\FF\FF\FF\FF\FF\FF\FF\FF\FF\FF\FF\FF\FF\FF\FF\FF\FF\FF\FF\FF\FF\FF\FF\FF\FF\FF\FF\FF\FF\FF\FF\FF\FF\FF\FF\FF\FF\FF\FF\FF\FF\FF" }>, align 1
@alloc30 = private unnamed_addr constant <{ [256 x i8] }> <{ [256 x i8] c"\FF\FF\FF\FF\FF\FF\FF\FF\FF\FF\FF\FF\FF\FF\FF\FF\FF\FF\FF\FF\FF\FF\FF\FF\FF\FF\FF\FF\FF\FF\FF\FF\FF\FF\FF\FF\FF\FF\FF\FF\FF\FF\FF>\FF\FF\FF?456789:;<=\FF\FF\FF\FF\FF\FF\FF\00\01\02\03\04\05\06\07\08\09\0A\0B\0C\0D\0E\0F\10\11\12\13\14\15\16\17\18\19\FF\FF\FF\FF\FF\FF\1A\1B\1C\1D\1E\1F !\22#$%&'()*+,-./0123\FF\FF\FF\FF\FF\FF\FF\FF\FF\FF\FF\FF\FF\FF\FF\FF\FF\FF\FF\FF\FF\FF\FF\FF\FF\FF\FF\FF\FF\FF\FF\FF\FF\FF\FF\FF\FF\FF\FF\FF\FF\FF\FF\FF\FF\FF\FF\FF\FF\FF\FF\FF\FF\FF\FF\FF\FF\FF\FF\FF\FF\FF\FF\FF\FF\FF\FF\FF\FF\FF\FF\FF\FF\FF\FF\FF\FF\FF\FF\FF\FF\FF\FF\FF\FF\FF\FF\FF\FF\FF\FF\FF\FF\FF\FF\FF\FF\FF\FF\FF\FF\FF\FF\FF\FF\FF\FF\FF\FF\FF\FF\FF\FF\FF\FF\FF\FF\FF\FF\FF\FF\FF\FF\FF\FF\FF\FF\FF\FF\FF\FF\FF\FF" }>, align 1
@alloc900 = private unnamed_addr constant <{ [17 x i8] }> <{ [17 x i8] c"InvalidLastSymbol" }>, align 1
@vtable.8 = private unnamed_addr constant <{ i8*, [16 x i8], i8*, [0 x i8] }> <{ i8* bitcast (void (i8**)* @"_ZN4core3ptr27drop_in_place$LT$$RF$u8$GT$17h2747f93badf96cc3E" to i8*), [16 x i8] c"\08\00\00\00\00\00\00\00\08\00\00\00\00\00\00\00", i8* bitcast (i1 (i8**, %"std::fmt::Formatter"*)* @"_ZN42_$LT$$RF$T$u20$as$u20$core..fmt..Debug$GT$3fmt17h20a18daf423b9470E" to i8*), [0 x i8] zeroinitializer }>, align 8, !dbg !46
@alloc904 = private unnamed_addr constant <{ [13 x i8] }> <{ [13 x i8] c"InvalidLength" }>, align 1
@alloc905 = private unnamed_addr constant <{ [11 x i8] }> <{ [11 x i8] c"InvalidByte" }>, align 1
@alloc906 = private unnamed_addr constant <{ [6 x i8] }> <{ [6 x i8] c"BinHex" }>, align 1
@alloc907 = private unnamed_addr constant <{ [9 x i8] }> <{ [9 x i8] c"ImapMutf7" }>, align 1
@alloc908 = private unnamed_addr constant <{ [6 x i8] }> <{ [6 x i8] c"Bcrypt" }>, align 1
@alloc909 = private unnamed_addr constant <{ [5 x i8] }> <{ [5 x i8] c"Crypt" }>, align 1
@alloc910 = private unnamed_addr constant <{ [7 x i8] }> <{ [7 x i8] c"UrlSafe" }>, align 1
@alloc911 = private unnamed_addr constant <{ [8 x i8] }> <{ [8 x i8] c"Standard" }>, align 1
@alloc912 = private unnamed_addr constant <{ [6 x i8] }> <{ [6 x i8] c"Config" }>, align 1
@alloc913 = private unnamed_addr constant <{ [8 x i8] }> <{ [8 x i8] c"char_set" }>, align 1
@vtable.9 = private unnamed_addr constant <{ i8*, [16 x i8], i8*, [0 x i8] }> <{ i8* bitcast (void (i8**)* @"_ZN4core3ptr45drop_in_place$LT$$RF$base64..CharacterSet$GT$17h07288ddd5b2375fbE" to i8*), [16 x i8] c"\08\00\00\00\00\00\00\00\08\00\00\00\00\00\00\00", i8* bitcast (i1 (i8**, %"std::fmt::Formatter"*)* @"_ZN42_$LT$$RF$T$u20$as$u20$core..fmt..Debug$GT$3fmt17h2113a1daaec7addaE" to i8*), [0 x i8] zeroinitializer }>, align 8, !dbg !50
@alloc917 = private unnamed_addr constant <{ [3 x i8] }> <{ [3 x i8] c"pad" }>, align 1
@vtable.a = private unnamed_addr constant <{ i8*, [16 x i8], i8*, [0 x i8] }> <{ i8* bitcast (void (i8**)* @"_ZN4core3ptr29drop_in_place$LT$$RF$bool$GT$17he29f517b582b2d4aE" to i8*), [16 x i8] c"\08\00\00\00\00\00\00\00\08\00\00\00\00\00\00\00", i8* bitcast (i1 (i8**, %"std::fmt::Formatter"*)* @"_ZN42_$LT$$RF$T$u20$as$u20$core..fmt..Debug$GT$3fmt17h61857a7b61451390E" to i8*), [0 x i8] zeroinitializer }>, align 8, !dbg !63
@alloc921 = private unnamed_addr constant <{ [26 x i8] }> <{ [26 x i8] c"decode_allow_trailing_bits" }>, align 1

; <core::ops::range::Range<usize> as core::slice::index::SliceIndex<[T]>>::get_unchecked
; Function Attrs: inlinehint nounwind
define { [0 x i8]*, i64 } @"_ZN106_$LT$core..ops..range..Range$LT$usize$GT$$u20$as$u20$core..slice..index..SliceIndex$LT$$u5b$T$u5d$$GT$$GT$13get_unchecked17hef2ad988239277b8E"(i64 %self.0, i64 %self.1, [0 x i8]* %slice.0, i64 %slice.1) unnamed_addr #0 !dbg !107 {
start:
  %0 = alloca i8*, align 8
  %count.dbg.spill.i.i = alloca i64, align 8
  %self.dbg.spill.i.i = alloca i8*, align 8
  %count.dbg.spill.i = alloca i64, align 8
  %self.dbg.spill.i = alloca i8*, align 8
  %slice.dbg.spill = alloca { [0 x i8]*, i64 }, align 8
  %self.dbg.spill = alloca { i64, i64 }, align 8
  %1 = getelementptr inbounds { i64, i64 }, { i64, i64 }* %self.dbg.spill, i32 0, i32 0
  store i64 %self.0, i64* %1, align 8
  %2 = getelementptr inbounds { i64, i64 }, { i64, i64 }* %self.dbg.spill, i32 0, i32 1
  store i64 %self.1, i64* %2, align 8
  call void @llvm.dbg.declare(metadata { i64, i64 }* %self.dbg.spill, metadata !127, metadata !DIExpression()), !dbg !129
  %3 = getelementptr inbounds { [0 x i8]*, i64 }, { [0 x i8]*, i64 }* %slice.dbg.spill, i32 0, i32 0
  store [0 x i8]* %slice.0, [0 x i8]** %3, align 8
  %4 = getelementptr inbounds { [0 x i8]*, i64 }, { [0 x i8]*, i64 }* %slice.dbg.spill, i32 0, i32 1
  store i64 %slice.1, i64* %4, align 8
  call void @llvm.dbg.declare(metadata { [0 x i8]*, i64 }* %slice.dbg.spill, metadata !128, metadata !DIExpression()), !dbg !130
; call core::ptr::const_ptr::<impl *const [T]>::as_ptr
  %_4 = call i8* @"_ZN4core3ptr9const_ptr43_$LT$impl$u20$$BP$const$u20$$u5b$T$u5d$$GT$6as_ptr17hb891ac95b6994738E"([0 x i8]* %slice.0, i64 %slice.1), !dbg !131
  br label %bb1, !dbg !131

bb1:                                              ; preds = %start
  store i8* %_4, i8** %self.dbg.spill.i, align 8
  call void @llvm.dbg.declare(metadata i8** %self.dbg.spill.i, metadata !132, metadata !DIExpression()), !dbg !142
  store i64 %self.0, i64* %count.dbg.spill.i, align 8
  call void @llvm.dbg.declare(metadata i64* %count.dbg.spill.i, metadata !141, metadata !DIExpression()), !dbg !144
  store i8* %_4, i8** %self.dbg.spill.i.i, align 8
  call void @llvm.dbg.declare(metadata i8** %self.dbg.spill.i.i, metadata !145, metadata !DIExpression()), !dbg !152
  store i64 %self.0, i64* %count.dbg.spill.i.i, align 8
  call void @llvm.dbg.declare(metadata i64* %count.dbg.spill.i.i, metadata !151, metadata !DIExpression()), !dbg !154
  %5 = getelementptr inbounds i8, i8* %_4, i64 %self.0, !dbg !155
  store i8* %5, i8** %0, align 8, !dbg !155
  %6 = load i8*, i8** %0, align 8, !dbg !155
  br label %bb2, !dbg !131

bb2:                                              ; preds = %bb1
  %_7 = sub i64 %self.1, %self.0, !dbg !156
; call core::ptr::slice_from_raw_parts
  %7 = call { [0 x i8]*, i64 } @_ZN4core3ptr20slice_from_raw_parts17hff1b586a1ad451d5E(i8* %6, i64 %_7), !dbg !157
  %8 = extractvalue { [0 x i8]*, i64 } %7, 0, !dbg !157
  %9 = extractvalue { [0 x i8]*, i64 } %7, 1, !dbg !157
  br label %bb3, !dbg !157

bb3:                                              ; preds = %bb2
  %10 = insertvalue { [0 x i8]*, i64 } undef, [0 x i8]* %8, 0, !dbg !158
  %11 = insertvalue { [0 x i8]*, i64 } %10, i64 %9, 1, !dbg !158
  ret { [0 x i8]*, i64 } %11, !dbg !158
}

; <core::ops::range::Range<usize> as core::slice::index::SliceIndex<[T]>>::get_unchecked_mut
; Function Attrs: inlinehint nounwind
define { [0 x i8]*, i64 } @"_ZN106_$LT$core..ops..range..Range$LT$usize$GT$$u20$as$u20$core..slice..index..SliceIndex$LT$$u5b$T$u5d$$GT$$GT$17get_unchecked_mut17h345558571a3a14d0E"(i64 %self.0, i64 %self.1, [0 x i8]* %slice.0, i64 %slice.1) unnamed_addr #0 !dbg !159 {
start:
  %0 = alloca i8*, align 8
  %count.dbg.spill.i.i = alloca i64, align 8
  %self.dbg.spill.i.i = alloca i8*, align 8
  %count.dbg.spill.i = alloca i64, align 8
  %self.dbg.spill.i1 = alloca i8*, align 8
  %self.dbg.spill.i = alloca { [0 x i8]*, i64 }, align 8
  %slice.dbg.spill = alloca { [0 x i8]*, i64 }, align 8
  %self.dbg.spill = alloca { i64, i64 }, align 8
  %1 = getelementptr inbounds { i64, i64 }, { i64, i64 }* %self.dbg.spill, i32 0, i32 0
  store i64 %self.0, i64* %1, align 8
  %2 = getelementptr inbounds { i64, i64 }, { i64, i64 }* %self.dbg.spill, i32 0, i32 1
  store i64 %self.1, i64* %2, align 8
  call void @llvm.dbg.declare(metadata { i64, i64 }* %self.dbg.spill, metadata !167, metadata !DIExpression()), !dbg !169
  %3 = getelementptr inbounds { [0 x i8]*, i64 }, { [0 x i8]*, i64 }* %slice.dbg.spill, i32 0, i32 0
  store [0 x i8]* %slice.0, [0 x i8]** %3, align 8
  %4 = getelementptr inbounds { [0 x i8]*, i64 }, { [0 x i8]*, i64 }* %slice.dbg.spill, i32 0, i32 1
  store i64 %slice.1, i64* %4, align 8
  call void @llvm.dbg.declare(metadata { [0 x i8]*, i64 }* %slice.dbg.spill, metadata !168, metadata !DIExpression()), !dbg !170
  %5 = getelementptr inbounds { [0 x i8]*, i64 }, { [0 x i8]*, i64 }* %self.dbg.spill.i, i32 0, i32 0
  store [0 x i8]* %slice.0, [0 x i8]** %5, align 8
  %6 = getelementptr inbounds { [0 x i8]*, i64 }, { [0 x i8]*, i64 }* %self.dbg.spill.i, i32 0, i32 1
  store i64 %slice.1, i64* %6, align 8
  call void @llvm.dbg.declare(metadata { [0 x i8]*, i64 }* %self.dbg.spill.i, metadata !171, metadata !DIExpression()), !dbg !180
  %7 = bitcast [0 x i8]* %slice.0 to i8*, !dbg !182
  br label %bb1, !dbg !183

bb1:                                              ; preds = %start
  store i8* %7, i8** %self.dbg.spill.i1, align 8
  call void @llvm.dbg.declare(metadata i8** %self.dbg.spill.i1, metadata !184, metadata !DIExpression()), !dbg !191
  store i64 %self.0, i64* %count.dbg.spill.i, align 8
  call void @llvm.dbg.declare(metadata i64* %count.dbg.spill.i, metadata !190, metadata !DIExpression()), !dbg !193
  store i8* %7, i8** %self.dbg.spill.i.i, align 8
  call void @llvm.dbg.declare(metadata i8** %self.dbg.spill.i.i, metadata !194, metadata !DIExpression()), !dbg !200
  store i64 %self.0, i64* %count.dbg.spill.i.i, align 8
  call void @llvm.dbg.declare(metadata i64* %count.dbg.spill.i.i, metadata !199, metadata !DIExpression()), !dbg !202
  %8 = getelementptr inbounds i8, i8* %7, i64 %self.0, !dbg !203
  store i8* %8, i8** %0, align 8, !dbg !203
  %_3.i.i = load i8*, i8** %0, align 8, !dbg !203
  br label %bb2, !dbg !183

bb2:                                              ; preds = %bb1
  %_7 = sub i64 %self.1, %self.0, !dbg !204
; call core::ptr::slice_from_raw_parts_mut
  %9 = call { [0 x i8]*, i64 } @_ZN4core3ptr24slice_from_raw_parts_mut17h808069bf2fa712efE(i8* %_3.i.i, i64 %_7), !dbg !205
  %10 = extractvalue { [0 x i8]*, i64 } %9, 0, !dbg !205
  %11 = extractvalue { [0 x i8]*, i64 } %9, 1, !dbg !205
  br label %bb3, !dbg !205

bb3:                                              ; preds = %bb2
  %12 = insertvalue { [0 x i8]*, i64 } undef, [0 x i8]* %10, 0, !dbg !206
  %13 = insertvalue { [0 x i8]*, i64 } %12, i64 %11, 1, !dbg !206
  ret { [0 x i8]*, i64 } %13, !dbg !206
}

; <core::ops::range::Range<usize> as core::slice::index::SliceIndex<[T]>>::index
; Function Attrs: inlinehint nounwind
define { [0 x i8]*, i64 } @"_ZN106_$LT$core..ops..range..Range$LT$usize$GT$$u20$as$u20$core..slice..index..SliceIndex$LT$$u5b$T$u5d$$GT$$GT$5index17h972185dcfd91effbE"(i64 %self.0, i64 %self.1, [0 x i8]* nonnull align 1 %slice.0, i64 %slice.1, %"std::panic::Location"* align 8 dereferenceable(24) %0) unnamed_addr #0 !dbg !207 {
start:
  %slice.dbg.spill = alloca { [0 x i8]*, i64 }, align 8
  %self.dbg.spill = alloca { i64, i64 }, align 8
  %1 = getelementptr inbounds { i64, i64 }, { i64, i64 }* %self.dbg.spill, i32 0, i32 0
  store i64 %self.0, i64* %1, align 8
  %2 = getelementptr inbounds { i64, i64 }, { i64, i64 }* %self.dbg.spill, i32 0, i32 1
  store i64 %self.1, i64* %2, align 8
  call void @llvm.dbg.declare(metadata { i64, i64 }* %self.dbg.spill, metadata !228, metadata !DIExpression()), !dbg !230
  %3 = getelementptr inbounds { [0 x i8]*, i64 }, { [0 x i8]*, i64 }* %slice.dbg.spill, i32 0, i32 0
  store [0 x i8]* %slice.0, [0 x i8]** %3, align 8
  %4 = getelementptr inbounds { [0 x i8]*, i64 }, { [0 x i8]*, i64 }* %slice.dbg.spill, i32 0, i32 1
  store i64 %slice.1, i64* %4, align 8
  call void @llvm.dbg.declare(metadata { [0 x i8]*, i64 }* %slice.dbg.spill, metadata !229, metadata !DIExpression()), !dbg !231
  %_3 = icmp ugt i64 %self.0, %self.1, !dbg !232
  br i1 %_3, label %bb1, label %bb2, !dbg !232

bb2:                                              ; preds = %start
  %_8 = icmp ugt i64 %self.1, %slice.1, !dbg !233
  br i1 %_8, label %bb3, label %bb4, !dbg !233

bb1:                                              ; preds = %start
; call core::slice::index::slice_index_order_fail
  call void @_ZN4core5slice5index22slice_index_order_fail17h0a02db5c3145b3dbE(i64 %self.0, i64 %self.1, %"std::panic::Location"* align 8 dereferenceable(24) %0), !dbg !234
  unreachable, !dbg !234

bb4:                                              ; preds = %bb2
; call <core::ops::range::Range<usize> as core::slice::index::SliceIndex<[T]>>::get_unchecked
  %5 = call { [0 x i8]*, i64 } @"_ZN106_$LT$core..ops..range..Range$LT$usize$GT$$u20$as$u20$core..slice..index..SliceIndex$LT$$u5b$T$u5d$$GT$$GT$13get_unchecked17hef2ad988239277b8E"(i64 %self.0, i64 %self.1, [0 x i8]* %slice.0, i64 %slice.1), !dbg !235
  %_15.0 = extractvalue { [0 x i8]*, i64 } %5, 0, !dbg !235
  %_15.1 = extractvalue { [0 x i8]*, i64 } %5, 1, !dbg !235
  br label %bb5, !dbg !235

bb3:                                              ; preds = %bb2
; call core::slice::index::slice_end_index_len_fail
  call void @_ZN4core5slice5index24slice_end_index_len_fail17hc9093b080894820aE(i64 %self.1, i64 %slice.1, %"std::panic::Location"* align 8 dereferenceable(24) %0), !dbg !236
  unreachable, !dbg !236

bb5:                                              ; preds = %bb4
  %6 = insertvalue { [0 x i8]*, i64 } undef, [0 x i8]* %_15.0, 0, !dbg !237
  %7 = insertvalue { [0 x i8]*, i64 } %6, i64 %_15.1, 1, !dbg !237
  ret { [0 x i8]*, i64 } %7, !dbg !237
}

; <core::ops::range::Range<usize> as core::slice::index::SliceIndex<[T]>>::index_mut
; Function Attrs: inlinehint nounwind
define { [0 x i8]*, i64 } @"_ZN106_$LT$core..ops..range..Range$LT$usize$GT$$u20$as$u20$core..slice..index..SliceIndex$LT$$u5b$T$u5d$$GT$$GT$9index_mut17heef28bf0af95df53E"(i64 %self.0, i64 %self.1, [0 x i8]* nonnull align 1 %slice.0, i64 %slice.1, %"std::panic::Location"* align 8 dereferenceable(24) %0) unnamed_addr #0 !dbg !238 {
start:
  %slice.dbg.spill = alloca { [0 x i8]*, i64 }, align 8
  %self.dbg.spill = alloca { i64, i64 }, align 8
  %1 = getelementptr inbounds { i64, i64 }, { i64, i64 }* %self.dbg.spill, i32 0, i32 0
  store i64 %self.0, i64* %1, align 8
  %2 = getelementptr inbounds { i64, i64 }, { i64, i64 }* %self.dbg.spill, i32 0, i32 1
  store i64 %self.1, i64* %2, align 8
  call void @llvm.dbg.declare(metadata { i64, i64 }* %self.dbg.spill, metadata !246, metadata !DIExpression()), !dbg !248
  %3 = getelementptr inbounds { [0 x i8]*, i64 }, { [0 x i8]*, i64 }* %slice.dbg.spill, i32 0, i32 0
  store [0 x i8]* %slice.0, [0 x i8]** %3, align 8
  %4 = getelementptr inbounds { [0 x i8]*, i64 }, { [0 x i8]*, i64 }* %slice.dbg.spill, i32 0, i32 1
  store i64 %slice.1, i64* %4, align 8
  call void @llvm.dbg.declare(metadata { [0 x i8]*, i64 }* %slice.dbg.spill, metadata !247, metadata !DIExpression()), !dbg !249
  %_4 = icmp ugt i64 %self.0, %self.1, !dbg !250
  br i1 %_4, label %bb1, label %bb2, !dbg !250

bb2:                                              ; preds = %start
  %_9 = icmp ugt i64 %self.1, %slice.1, !dbg !251
  br i1 %_9, label %bb3, label %bb4, !dbg !251

bb1:                                              ; preds = %start
; call core::slice::index::slice_index_order_fail
  call void @_ZN4core5slice5index22slice_index_order_fail17h0a02db5c3145b3dbE(i64 %self.0, i64 %self.1, %"std::panic::Location"* align 8 dereferenceable(24) %0), !dbg !252
  unreachable, !dbg !252

bb4:                                              ; preds = %bb2
; call <core::ops::range::Range<usize> as core::slice::index::SliceIndex<[T]>>::get_unchecked_mut
  %5 = call { [0 x i8]*, i64 } @"_ZN106_$LT$core..ops..range..Range$LT$usize$GT$$u20$as$u20$core..slice..index..SliceIndex$LT$$u5b$T$u5d$$GT$$GT$17get_unchecked_mut17h345558571a3a14d0E"(i64 %self.0, i64 %self.1, [0 x i8]* %slice.0, i64 %slice.1), !dbg !253
  %_18.0 = extractvalue { [0 x i8]*, i64 } %5, 0, !dbg !253
  %_18.1 = extractvalue { [0 x i8]*, i64 } %5, 1, !dbg !253
  br label %bb5, !dbg !253

bb3:                                              ; preds = %bb2
; call core::slice::index::slice_end_index_len_fail
  call void @_ZN4core5slice5index24slice_end_index_len_fail17hc9093b080894820aE(i64 %self.1, i64 %slice.1, %"std::panic::Location"* align 8 dereferenceable(24) %0), !dbg !254
  unreachable, !dbg !254

bb5:                                              ; preds = %bb4
  %6 = insertvalue { [0 x i8]*, i64 } undef, [0 x i8]* %_18.0, 0, !dbg !255
  %7 = insertvalue { [0 x i8]*, i64 } %6, i64 %_18.1, 1, !dbg !255
  ret { [0 x i8]*, i64 } %7, !dbg !255
}

; <core::ops::range::RangeTo<usize> as core::slice::index::SliceIndex<[T]>>::index
; Function Attrs: inlinehint nounwind
define { [0 x i8]*, i64 } @"_ZN108_$LT$core..ops..range..RangeTo$LT$usize$GT$$u20$as$u20$core..slice..index..SliceIndex$LT$$u5b$T$u5d$$GT$$GT$5index17h890a93239c421e89E"(i64 %self, [0 x i8]* nonnull align 1 %slice.0, i64 %slice.1, %"std::panic::Location"* align 8 dereferenceable(24) %0) unnamed_addr #0 !dbg !256 {
start:
  %slice.dbg.spill = alloca { [0 x i8]*, i64 }, align 8
  %self.dbg.spill = alloca i64, align 8
  %_3 = alloca { i64, i64 }, align 8
  store i64 %self, i64* %self.dbg.spill, align 8
  call void @llvm.dbg.declare(metadata i64* %self.dbg.spill, metadata !264, metadata !DIExpression()), !dbg !266
  %1 = getelementptr inbounds { [0 x i8]*, i64 }, { [0 x i8]*, i64 }* %slice.dbg.spill, i32 0, i32 0
  store [0 x i8]* %slice.0, [0 x i8]** %1, align 8
  %2 = getelementptr inbounds { [0 x i8]*, i64 }, { [0 x i8]*, i64 }* %slice.dbg.spill, i32 0, i32 1
  store i64 %slice.1, i64* %2, align 8
  call void @llvm.dbg.declare(metadata { [0 x i8]*, i64 }* %slice.dbg.spill, metadata !265, metadata !DIExpression()), !dbg !267
  %3 = bitcast { i64, i64 }* %_3 to i64*, !dbg !268
  store i64 0, i64* %3, align 8, !dbg !268
  %4 = getelementptr inbounds { i64, i64 }, { i64, i64 }* %_3, i32 0, i32 1, !dbg !268
  store i64 %self, i64* %4, align 8, !dbg !268
  %5 = getelementptr inbounds { i64, i64 }, { i64, i64 }* %_3, i32 0, i32 0, !dbg !268
  %6 = load i64, i64* %5, align 8, !dbg !268
  %7 = getelementptr inbounds { i64, i64 }, { i64, i64 }* %_3, i32 0, i32 1, !dbg !268
  %8 = load i64, i64* %7, align 8, !dbg !268
; call <core::ops::range::Range<usize> as core::slice::index::SliceIndex<[T]>>::index
  %9 = call { [0 x i8]*, i64 } @"_ZN106_$LT$core..ops..range..Range$LT$usize$GT$$u20$as$u20$core..slice..index..SliceIndex$LT$$u5b$T$u5d$$GT$$GT$5index17h972185dcfd91effbE"(i64 %6, i64 %8, [0 x i8]* nonnull align 1 %slice.0, i64 %slice.1, %"std::panic::Location"* align 8 dereferenceable(24) %0), !dbg !268
  %10 = extractvalue { [0 x i8]*, i64 } %9, 0, !dbg !268
  %11 = extractvalue { [0 x i8]*, i64 } %9, 1, !dbg !268
  br label %bb1, !dbg !268

bb1:                                              ; preds = %start
  %12 = insertvalue { [0 x i8]*, i64 } undef, [0 x i8]* %10, 0, !dbg !269
  %13 = insertvalue { [0 x i8]*, i64 } %12, i64 %11, 1, !dbg !269
  ret { [0 x i8]*, i64 } %13, !dbg !269
}

; <core::ops::range::RangeFrom<usize> as core::slice::index::SliceIndex<[T]>>::get_unchecked
; Function Attrs: inlinehint nounwind
define { [0 x i8]*, i64 } @"_ZN110_$LT$core..ops..range..RangeFrom$LT$usize$GT$$u20$as$u20$core..slice..index..SliceIndex$LT$$u5b$T$u5d$$GT$$GT$13get_unchecked17ha0aaf566236448aeE"(i64 %self, [0 x i8]* %slice.0, i64 %slice.1) unnamed_addr #0 !dbg !270 {
start:
  %slice.dbg.spill = alloca { [0 x i8]*, i64 }, align 8
  %self.dbg.spill = alloca i64, align 8
  %_3 = alloca { i64, i64 }, align 8
  store i64 %self, i64* %self.dbg.spill, align 8
  call void @llvm.dbg.declare(metadata i64* %self.dbg.spill, metadata !278, metadata !DIExpression()), !dbg !280
  %0 = getelementptr inbounds { [0 x i8]*, i64 }, { [0 x i8]*, i64 }* %slice.dbg.spill, i32 0, i32 0
  store [0 x i8]* %slice.0, [0 x i8]** %0, align 8
  %1 = getelementptr inbounds { [0 x i8]*, i64 }, { [0 x i8]*, i64 }* %slice.dbg.spill, i32 0, i32 1
  store i64 %slice.1, i64* %1, align 8
  call void @llvm.dbg.declare(metadata { [0 x i8]*, i64 }* %slice.dbg.spill, metadata !279, metadata !DIExpression()), !dbg !281
; call core::ptr::const_ptr::<impl *const [T]>::len
  %_5 = call i64 @"_ZN4core3ptr9const_ptr43_$LT$impl$u20$$BP$const$u20$$u5b$T$u5d$$GT$3len17h072db4e2e33b785dE"([0 x i8]* %slice.0, i64 %slice.1), !dbg !282
  br label %bb1, !dbg !282

bb1:                                              ; preds = %start
  %2 = bitcast { i64, i64 }* %_3 to i64*, !dbg !283
  store i64 %self, i64* %2, align 8, !dbg !283
  %3 = getelementptr inbounds { i64, i64 }, { i64, i64 }* %_3, i32 0, i32 1, !dbg !283
  store i64 %_5, i64* %3, align 8, !dbg !283
  %4 = getelementptr inbounds { i64, i64 }, { i64, i64 }* %_3, i32 0, i32 0, !dbg !283
  %5 = load i64, i64* %4, align 8, !dbg !283
  %6 = getelementptr inbounds { i64, i64 }, { i64, i64 }* %_3, i32 0, i32 1, !dbg !283
  %7 = load i64, i64* %6, align 8, !dbg !283
; call <core::ops::range::Range<usize> as core::slice::index::SliceIndex<[T]>>::get_unchecked
  %8 = call { [0 x i8]*, i64 } @"_ZN106_$LT$core..ops..range..Range$LT$usize$GT$$u20$as$u20$core..slice..index..SliceIndex$LT$$u5b$T$u5d$$GT$$GT$13get_unchecked17hef2ad988239277b8E"(i64 %5, i64 %7, [0 x i8]* %slice.0, i64 %slice.1), !dbg !283
  %9 = extractvalue { [0 x i8]*, i64 } %8, 0, !dbg !283
  %10 = extractvalue { [0 x i8]*, i64 } %8, 1, !dbg !283
  br label %bb2, !dbg !283

bb2:                                              ; preds = %bb1
  %11 = insertvalue { [0 x i8]*, i64 } undef, [0 x i8]* %9, 0, !dbg !284
  %12 = insertvalue { [0 x i8]*, i64 } %11, i64 %10, 1, !dbg !284
  ret { [0 x i8]*, i64 } %12, !dbg !284
}

; <core::ops::range::RangeFrom<usize> as core::slice::index::SliceIndex<[T]>>::get_unchecked_mut
; Function Attrs: inlinehint nounwind
define { [0 x i8]*, i64 } @"_ZN110_$LT$core..ops..range..RangeFrom$LT$usize$GT$$u20$as$u20$core..slice..index..SliceIndex$LT$$u5b$T$u5d$$GT$$GT$17get_unchecked_mut17h1adc4106be506d33E"(i64 %self, [0 x i8]* %slice.0, i64 %slice.1) unnamed_addr #0 !dbg !285 {
start:
  %self.dbg.spill.i = alloca { [0 x i8]*, i64 }, align 8
  %slice.dbg.spill = alloca { [0 x i8]*, i64 }, align 8
  %self.dbg.spill = alloca i64, align 8
  %_3 = alloca { i64, i64 }, align 8
  store i64 %self, i64* %self.dbg.spill, align 8
  call void @llvm.dbg.declare(metadata i64* %self.dbg.spill, metadata !289, metadata !DIExpression()), !dbg !291
  %0 = getelementptr inbounds { [0 x i8]*, i64 }, { [0 x i8]*, i64 }* %slice.dbg.spill, i32 0, i32 0
  store [0 x i8]* %slice.0, [0 x i8]** %0, align 8
  %1 = getelementptr inbounds { [0 x i8]*, i64 }, { [0 x i8]*, i64 }* %slice.dbg.spill, i32 0, i32 1
  store i64 %slice.1, i64* %1, align 8
  call void @llvm.dbg.declare(metadata { [0 x i8]*, i64 }* %slice.dbg.spill, metadata !290, metadata !DIExpression()), !dbg !292
  %2 = getelementptr inbounds { [0 x i8]*, i64 }, { [0 x i8]*, i64 }* %self.dbg.spill.i, i32 0, i32 0
  store [0 x i8]* %slice.0, [0 x i8]** %2, align 8
  %3 = getelementptr inbounds { [0 x i8]*, i64 }, { [0 x i8]*, i64 }* %self.dbg.spill.i, i32 0, i32 1
  store i64 %slice.1, i64* %3, align 8
  call void @llvm.dbg.declare(metadata { [0 x i8]*, i64 }* %self.dbg.spill.i, metadata !293, metadata !DIExpression()) #12, !dbg !298
; call core::ptr::metadata::metadata
  %4 = call i64 @_ZN4core3ptr8metadata8metadata17h725a86abc3d48e13E([0 x i8]* %slice.0, i64 %slice.1) #12, !dbg !300
  br label %bb1, !dbg !301

bb1:                                              ; preds = %start
  %5 = bitcast { i64, i64 }* %_3 to i64*, !dbg !302
  store i64 %self, i64* %5, align 8, !dbg !302
  %6 = getelementptr inbounds { i64, i64 }, { i64, i64 }* %_3, i32 0, i32 1, !dbg !302
  store i64 %4, i64* %6, align 8, !dbg !302
  %7 = getelementptr inbounds { i64, i64 }, { i64, i64 }* %_3, i32 0, i32 0, !dbg !302
  %8 = load i64, i64* %7, align 8, !dbg !302
  %9 = getelementptr inbounds { i64, i64 }, { i64, i64 }* %_3, i32 0, i32 1, !dbg !302
  %10 = load i64, i64* %9, align 8, !dbg !302
; call <core::ops::range::Range<usize> as core::slice::index::SliceIndex<[T]>>::get_unchecked_mut
  %11 = call { [0 x i8]*, i64 } @"_ZN106_$LT$core..ops..range..Range$LT$usize$GT$$u20$as$u20$core..slice..index..SliceIndex$LT$$u5b$T$u5d$$GT$$GT$17get_unchecked_mut17h345558571a3a14d0E"(i64 %8, i64 %10, [0 x i8]* %slice.0, i64 %slice.1), !dbg !302
  %12 = extractvalue { [0 x i8]*, i64 } %11, 0, !dbg !302
  %13 = extractvalue { [0 x i8]*, i64 } %11, 1, !dbg !302
  br label %bb2, !dbg !302

bb2:                                              ; preds = %bb1
  %14 = insertvalue { [0 x i8]*, i64 } undef, [0 x i8]* %12, 0, !dbg !303
  %15 = insertvalue { [0 x i8]*, i64 } %14, i64 %13, 1, !dbg !303
  ret { [0 x i8]*, i64 } %15, !dbg !303
}

; <core::ops::range::RangeFrom<usize> as core::slice::index::SliceIndex<[T]>>::index
; Function Attrs: inlinehint nounwind
define { [0 x i8]*, i64 } @"_ZN110_$LT$core..ops..range..RangeFrom$LT$usize$GT$$u20$as$u20$core..slice..index..SliceIndex$LT$$u5b$T$u5d$$GT$$GT$5index17hdb0c9cae618d6eadE"(i64 %self, [0 x i8]* nonnull align 1 %slice.0, i64 %slice.1, %"std::panic::Location"* align 8 dereferenceable(24) %0) unnamed_addr #0 !dbg !304 {
start:
  %slice.dbg.spill = alloca { [0 x i8]*, i64 }, align 8
  %self.dbg.spill = alloca i64, align 8
  store i64 %self, i64* %self.dbg.spill, align 8
  call void @llvm.dbg.declare(metadata i64* %self.dbg.spill, metadata !308, metadata !DIExpression()), !dbg !310
  %1 = getelementptr inbounds { [0 x i8]*, i64 }, { [0 x i8]*, i64 }* %slice.dbg.spill, i32 0, i32 0
  store [0 x i8]* %slice.0, [0 x i8]** %1, align 8
  %2 = getelementptr inbounds { [0 x i8]*, i64 }, { [0 x i8]*, i64 }* %slice.dbg.spill, i32 0, i32 1
  store i64 %slice.1, i64* %2, align 8
  call void @llvm.dbg.declare(metadata { [0 x i8]*, i64 }* %slice.dbg.spill, metadata !309, metadata !DIExpression()), !dbg !311
  %_3 = icmp ugt i64 %self, %slice.1, !dbg !312
  br i1 %_3, label %bb1, label %bb2, !dbg !312

bb2:                                              ; preds = %start
; call <core::ops::range::RangeFrom<usize> as core::slice::index::SliceIndex<[T]>>::get_unchecked
  %3 = call { [0 x i8]*, i64 } @"_ZN110_$LT$core..ops..range..RangeFrom$LT$usize$GT$$u20$as$u20$core..slice..index..SliceIndex$LT$$u5b$T$u5d$$GT$$GT$13get_unchecked17ha0aaf566236448aeE"(i64 %self, [0 x i8]* %slice.0, i64 %slice.1), !dbg !313
  %_10.0 = extractvalue { [0 x i8]*, i64 } %3, 0, !dbg !313
  %_10.1 = extractvalue { [0 x i8]*, i64 } %3, 1, !dbg !313
  br label %bb3, !dbg !313

bb1:                                              ; preds = %start
; call core::slice::index::slice_start_index_len_fail
  call void @_ZN4core5slice5index26slice_start_index_len_fail17h09af85f858e7356bE(i64 %self, i64 %slice.1, %"std::panic::Location"* align 8 dereferenceable(24) %0), !dbg !314
  unreachable, !dbg !314

bb3:                                              ; preds = %bb2
  %4 = insertvalue { [0 x i8]*, i64 } undef, [0 x i8]* %_10.0, 0, !dbg !315
  %5 = insertvalue { [0 x i8]*, i64 } %4, i64 %_10.1, 1, !dbg !315
  ret { [0 x i8]*, i64 } %5, !dbg !315
}

; <core::ops::range::RangeFrom<usize> as core::slice::index::SliceIndex<[T]>>::index_mut
; Function Attrs: inlinehint nounwind
define { [0 x i8]*, i64 } @"_ZN110_$LT$core..ops..range..RangeFrom$LT$usize$GT$$u20$as$u20$core..slice..index..SliceIndex$LT$$u5b$T$u5d$$GT$$GT$9index_mut17h73b65c63e86e8014E"(i64 %self, [0 x i8]* nonnull align 1 %slice.0, i64 %slice.1, %"std::panic::Location"* align 8 dereferenceable(24) %0) unnamed_addr #0 !dbg !316 {
start:
  %slice.dbg.spill = alloca { [0 x i8]*, i64 }, align 8
  %self.dbg.spill = alloca i64, align 8
  store i64 %self, i64* %self.dbg.spill, align 8
  call void @llvm.dbg.declare(metadata i64* %self.dbg.spill, metadata !320, metadata !DIExpression()), !dbg !322
  %1 = getelementptr inbounds { [0 x i8]*, i64 }, { [0 x i8]*, i64 }* %slice.dbg.spill, i32 0, i32 0
  store [0 x i8]* %slice.0, [0 x i8]** %1, align 8
  %2 = getelementptr inbounds { [0 x i8]*, i64 }, { [0 x i8]*, i64 }* %slice.dbg.spill, i32 0, i32 1
  store i64 %slice.1, i64* %2, align 8
  call void @llvm.dbg.declare(metadata { [0 x i8]*, i64 }* %slice.dbg.spill, metadata !321, metadata !DIExpression()), !dbg !323
  %_4 = icmp ugt i64 %self, %slice.1, !dbg !324
  br i1 %_4, label %bb1, label %bb2, !dbg !324

bb2:                                              ; preds = %start
; call <core::ops::range::RangeFrom<usize> as core::slice::index::SliceIndex<[T]>>::get_unchecked_mut
  %3 = call { [0 x i8]*, i64 } @"_ZN110_$LT$core..ops..range..RangeFrom$LT$usize$GT$$u20$as$u20$core..slice..index..SliceIndex$LT$$u5b$T$u5d$$GT$$GT$17get_unchecked_mut17h1adc4106be506d33E"(i64 %self, [0 x i8]* %slice.0, i64 %slice.1), !dbg !325
  %_13.0 = extractvalue { [0 x i8]*, i64 } %3, 0, !dbg !325
  %_13.1 = extractvalue { [0 x i8]*, i64 } %3, 1, !dbg !325
  br label %bb3, !dbg !325

bb1:                                              ; preds = %start
; call core::slice::index::slice_start_index_len_fail
  call void @_ZN4core5slice5index26slice_start_index_len_fail17h09af85f858e7356bE(i64 %self, i64 %slice.1, %"std::panic::Location"* align 8 dereferenceable(24) %0), !dbg !326
  unreachable, !dbg !326

bb3:                                              ; preds = %bb2
  %4 = insertvalue { [0 x i8]*, i64 } undef, [0 x i8]* %_13.0, 0, !dbg !327
  %5 = insertvalue { [0 x i8]*, i64 } %4, i64 %_13.1, 1, !dbg !327
  ret { [0 x i8]*, i64 } %5, !dbg !327
}

; <core::ptr::non_null::NonNull<T> as core::convert::From<core::ptr::unique::Unique<T>>>::from
; Function Attrs: inlinehint nounwind
define nonnull i8* @"_ZN119_$LT$core..ptr..non_null..NonNull$LT$T$GT$$u20$as$u20$core..convert..From$LT$core..ptr..unique..Unique$LT$T$GT$$GT$$GT$4from17h99883b75b91a7081E"(i8* nonnull %unique) unnamed_addr #0 !dbg !328 {
start:
  %unique.dbg.spill = alloca i8*, align 8
  store i8* %unique, i8** %unique.dbg.spill, align 8
  call void @llvm.dbg.declare(metadata i8** %unique.dbg.spill, metadata !345, metadata !DIExpression()), !dbg !346
; call core::ptr::unique::Unique<T>::as_ptr
  %_2 = call i8* @"_ZN4core3ptr6unique15Unique$LT$T$GT$6as_ptr17he5d69e45e78cd043E"(i8* nonnull %unique), !dbg !347
  br label %bb1, !dbg !347

bb1:                                              ; preds = %start
; call core::ptr::non_null::NonNull<T>::new_unchecked
  %0 = call nonnull i8* @"_ZN4core3ptr8non_null16NonNull$LT$T$GT$13new_unchecked17h798f450c829937aaE"(i8* %_2), !dbg !348
  br label %bb2, !dbg !348

bb2:                                              ; preds = %bb1
  ret i8* %0, !dbg !349
}

; <alloc::collections::TryReserveError as core::convert::From<alloc::collections::TryReserveErrorKind>>::from
; Function Attrs: inlinehint nounwind
define internal { i64, i64 } @"_ZN122_$LT$alloc..collections..TryReserveError$u20$as$u20$core..convert..From$LT$alloc..collections..TryReserveErrorKind$GT$$GT$4from17h7c35ac9202f87533E"(i64 %kind.0, i64 %kind.1) unnamed_addr #0 !dbg !350 {
start:
  %kind.dbg.spill = alloca { i64, i64 }, align 8
  %0 = alloca { i64, i64 }, align 8
  %1 = getelementptr inbounds { i64, i64 }, { i64, i64 }* %kind.dbg.spill, i32 0, i32 0
  store i64 %kind.0, i64* %1, align 8
  %2 = getelementptr inbounds { i64, i64 }, { i64, i64 }* %kind.dbg.spill, i32 0, i32 1
  store i64 %kind.1, i64* %2, align 8
  call void @llvm.dbg.declare(metadata { i64, i64 }* %kind.dbg.spill, metadata !383, metadata !DIExpression()), !dbg !384
  %3 = getelementptr inbounds { i64, i64 }, { i64, i64 }* %0, i32 0, i32 0, !dbg !385
  store i64 %kind.0, i64* %3, align 8, !dbg !385
  %4 = getelementptr inbounds { i64, i64 }, { i64, i64 }* %0, i32 0, i32 1, !dbg !385
  store i64 %kind.1, i64* %4, align 8, !dbg !385
  %5 = getelementptr inbounds { i64, i64 }, { i64, i64 }* %0, i32 0, i32 0, !dbg !386
  %6 = load i64, i64* %5, align 8, !dbg !386
  %7 = getelementptr inbounds { i64, i64 }, { i64, i64 }* %0, i32 0, i32 1, !dbg !386
  %8 = load i64, i64* %7, align 8, !dbg !386
  %9 = insertvalue { i64, i64 } undef, i64 %6, 0, !dbg !386
  %10 = insertvalue { i64, i64 } %9, i64 %8, 1, !dbg !386
  ret { i64, i64 } %10, !dbg !386
}

; <alloc::vec::Vec<T,A> as alloc::vec::spec_extend::SpecExtend<&T,core::slice::iter::Iter<T>>>::spec_extend
; Function Attrs: nounwind
define void @"_ZN132_$LT$alloc..vec..Vec$LT$T$C$A$GT$$u20$as$u20$alloc..vec..spec_extend..SpecExtend$LT$$RF$T$C$core..slice..iter..Iter$LT$T$GT$$GT$$GT$11spec_extend17heb625a0bacfbfb97E"(%"std::vec::Vec<u8>"* align 8 dereferenceable(24) %self, i8* nonnull %0, i8* %1) unnamed_addr #1 !dbg !387 {
start:
  %slice.dbg.spill = alloca { [0 x i8]*, i64 }, align 8
  %self.dbg.spill = alloca %"std::vec::Vec<u8>"*, align 8
  %iterator = alloca { i8*, i8* }, align 8
  %2 = getelementptr inbounds { i8*, i8* }, { i8*, i8* }* %iterator, i32 0, i32 0
  store i8* %0, i8** %2, align 8
  %3 = getelementptr inbounds { i8*, i8* }, { i8*, i8* }* %iterator, i32 0, i32 1
  store i8* %1, i8** %3, align 8
  store %"std::vec::Vec<u8>"* %self, %"std::vec::Vec<u8>"** %self.dbg.spill, align 8
  call void @llvm.dbg.declare(metadata %"std::vec::Vec<u8>"** %self.dbg.spill, metadata !419, metadata !DIExpression()), !dbg !423
  call void @llvm.dbg.declare(metadata { i8*, i8* }* %iterator, metadata !420, metadata !DIExpression()), !dbg !424
; call core::slice::iter::Iter<T>::as_slice
  %4 = call { [0 x i8]*, i64 } @"_ZN4core5slice4iter13Iter$LT$T$GT$8as_slice17h46531a544f030047E"({ i8*, i8* }* align 8 dereferenceable(16) %iterator), !dbg !425
  %slice.0 = extractvalue { [0 x i8]*, i64 } %4, 0, !dbg !425
  %slice.1 = extractvalue { [0 x i8]*, i64 } %4, 1, !dbg !425
  %5 = getelementptr inbounds { [0 x i8]*, i64 }, { [0 x i8]*, i64 }* %slice.dbg.spill, i32 0, i32 0, !dbg !425
  store [0 x i8]* %slice.0, [0 x i8]** %5, align 8, !dbg !425
  %6 = getelementptr inbounds { [0 x i8]*, i64 }, { [0 x i8]*, i64 }* %slice.dbg.spill, i32 0, i32 1, !dbg !425
  store i64 %slice.1, i64* %6, align 8, !dbg !425
  call void @llvm.dbg.declare(metadata { [0 x i8]*, i64 }* %slice.dbg.spill, metadata !421, metadata !DIExpression()), !dbg !426
  br label %bb1, !dbg !425

bb1:                                              ; preds = %start
; call alloc::vec::Vec<T,A>::append_elements
  call void @"_ZN5alloc3vec16Vec$LT$T$C$A$GT$15append_elements17hec3f55b8c142a6c0E"(%"std::vec::Vec<u8>"* align 8 dereferenceable(24) %self, [0 x i8]* %slice.0, i64 %slice.1), !dbg !427
  br label %bb2, !dbg !427

bb2:                                              ; preds = %bb1
  ret void, !dbg !428
}

; <core::result::Result<T,F> as core::ops::try_trait::FromResidual<core::result::Result<core::convert::Infallible,E>>>::from_residual
; Function Attrs: inlinehint nounwind
define { i8*, i64 } @"_ZN153_$LT$core..result..Result$LT$T$C$F$GT$$u20$as$u20$core..ops..try_trait..FromResidual$LT$core..result..Result$LT$core..convert..Infallible$C$E$GT$$GT$$GT$13from_residual17h051f26f94fd4eb93E"() unnamed_addr #0 !dbg !429 {
start:
  %e.dbg.spill = alloca %"std::alloc::AllocError", align 1
  %residual.dbg.spill = alloca %"std::result::Result<std::convert::Infallible, std::alloc::AllocError>::Err", align 1
  %0 = alloca { i8*, i64 }, align 8
  call void @llvm.dbg.declare(metadata %"std::result::Result<std::convert::Infallible, std::alloc::AllocError>::Err"* %residual.dbg.spill, metadata !474, metadata !DIExpression()), !dbg !479
  call void @llvm.dbg.declare(metadata %"std::alloc::AllocError"* %e.dbg.spill, metadata !475, metadata !DIExpression()), !dbg !480
; call <T as core::convert::From<T>>::from
  call void @"_ZN50_$LT$T$u20$as$u20$core..convert..From$LT$T$GT$$GT$4from17h4a57be64dba231c9E"(), !dbg !481
  br label %bb1, !dbg !481

bb1:                                              ; preds = %start
  %1 = bitcast { i8*, i64 }* %0 to %"std::result::Result<std::ptr::NonNull<[u8]>, std::alloc::AllocError>::Err"*, !dbg !482
  %2 = bitcast %"std::result::Result<std::ptr::NonNull<[u8]>, std::alloc::AllocError>::Err"* %1 to %"std::alloc::AllocError"*, !dbg !482
  %3 = bitcast { i8*, i64 }* %0 to {}**, !dbg !482
  store {}* null, {}** %3, align 8, !dbg !482
  %4 = getelementptr inbounds { i8*, i64 }, { i8*, i64 }* %0, i32 0, i32 0, !dbg !483
  %5 = load i8*, i8** %4, align 8, !dbg !483
  %6 = getelementptr inbounds { i8*, i64 }, { i8*, i64 }* %0, i32 0, i32 1, !dbg !483
  %7 = load i64, i64* %6, align 8, !dbg !483
  %8 = insertvalue { i8*, i64 } undef, i8* %5, 0, !dbg !483
  %9 = insertvalue { i8*, i64 } %8, i64 %7, 1, !dbg !483
  ret { i8*, i64 } %9, !dbg !483
}

; <core::result::Result<T,F> as core::ops::try_trait::FromResidual<core::result::Result<core::convert::Infallible,E>>>::from_residual
; Function Attrs: inlinehint nounwind
define void @"_ZN153_$LT$core..result..Result$LT$T$C$F$GT$$u20$as$u20$core..ops..try_trait..FromResidual$LT$core..result..Result$LT$core..convert..Infallible$C$E$GT$$GT$$GT$13from_residual17h0638a3fa5c9d1c70E"(%"std::result::Result<(), std::collections::TryReserveError>"* noalias nocapture sret(%"std::result::Result<(), std::collections::TryReserveError>") dereferenceable(24) %0, i64 %1, i64 %2) unnamed_addr #0 !dbg !484 {
start:
  %e.dbg.spill = alloca { i64, i64 }, align 8
  %residual = alloca { i64, i64 }, align 8
  %3 = getelementptr inbounds { i64, i64 }, { i64, i64 }* %residual, i32 0, i32 0
  store i64 %1, i64* %3, align 8
  %4 = getelementptr inbounds { i64, i64 }, { i64, i64 }* %residual, i32 0, i32 1
  store i64 %2, i64* %4, align 8
  call void @llvm.dbg.declare(metadata { i64, i64 }* %residual, metadata !513, metadata !DIExpression()), !dbg !518
  %5 = getelementptr inbounds { i64, i64 }, { i64, i64 }* %residual, i32 0, i32 0, !dbg !519
  %e.0 = load i64, i64* %5, align 8, !dbg !519
  %6 = getelementptr inbounds { i64, i64 }, { i64, i64 }* %residual, i32 0, i32 1, !dbg !519
  %e.1 = load i64, i64* %6, align 8, !dbg !519
  %7 = getelementptr inbounds { i64, i64 }, { i64, i64 }* %e.dbg.spill, i32 0, i32 0, !dbg !519
  store i64 %e.0, i64* %7, align 8, !dbg !519
  %8 = getelementptr inbounds { i64, i64 }, { i64, i64 }* %e.dbg.spill, i32 0, i32 1, !dbg !519
  store i64 %e.1, i64* %8, align 8, !dbg !519
  call void @llvm.dbg.declare(metadata { i64, i64 }* %e.dbg.spill, metadata !514, metadata !DIExpression()), !dbg !520
; call <alloc::collections::TryReserveError as core::convert::From<alloc::collections::TryReserveErrorKind>>::from
  %9 = call { i64, i64 } @"_ZN122_$LT$alloc..collections..TryReserveError$u20$as$u20$core..convert..From$LT$alloc..collections..TryReserveErrorKind$GT$$GT$4from17h7c35ac9202f87533E"(i64 %e.0, i64 %e.1), !dbg !521
  %_3.0 = extractvalue { i64, i64 } %9, 0, !dbg !521
  %_3.1 = extractvalue { i64, i64 } %9, 1, !dbg !521
  br label %bb1, !dbg !521

bb1:                                              ; preds = %start
  %10 = bitcast %"std::result::Result<(), std::collections::TryReserveError>"* %0 to %"std::result::Result<(), std::collections::TryReserveError>::Err"*, !dbg !522
  %11 = getelementptr inbounds %"std::result::Result<(), std::collections::TryReserveError>::Err", %"std::result::Result<(), std::collections::TryReserveError>::Err"* %10, i32 0, i32 1, !dbg !522
  %12 = getelementptr inbounds { i64, i64 }, { i64, i64 }* %11, i32 0, i32 0, !dbg !522
  store i64 %_3.0, i64* %12, align 8, !dbg !522
  %13 = getelementptr inbounds { i64, i64 }, { i64, i64 }* %11, i32 0, i32 1, !dbg !522
  store i64 %_3.1, i64* %13, align 8, !dbg !522
  %14 = bitcast %"std::result::Result<(), std::collections::TryReserveError>"* %0 to i64*, !dbg !522
  store i64 1, i64* %14, align 8, !dbg !522
  ret void, !dbg !523
}

; <core::result::Result<T,F> as core::ops::try_trait::FromResidual<core::result::Result<core::convert::Infallible,E>>>::from_residual
; Function Attrs: inlinehint nounwind
define void @"_ZN153_$LT$core..result..Result$LT$T$C$F$GT$$u20$as$u20$core..ops..try_trait..FromResidual$LT$core..result..Result$LT$core..convert..Infallible$C$E$GT$$GT$$GT$13from_residual17h0e621aa07e75d8edE"(%"std::result::Result<std::ptr::NonNull<[u8]>, std::collections::TryReserveError>"* noalias nocapture sret(%"std::result::Result<std::ptr::NonNull<[u8]>, std::collections::TryReserveError>") dereferenceable(24) %0, i64 %1, i64 %2) unnamed_addr #0 !dbg !524 {
start:
  %e.dbg.spill = alloca { i64, i64 }, align 8
  %residual = alloca { i64, i64 }, align 8
  %3 = getelementptr inbounds { i64, i64 }, { i64, i64 }* %residual, i32 0, i32 0
  store i64 %1, i64* %3, align 8
  %4 = getelementptr inbounds { i64, i64 }, { i64, i64 }* %residual, i32 0, i32 1
  store i64 %2, i64* %4, align 8
  call void @llvm.dbg.declare(metadata { i64, i64 }* %residual, metadata !541, metadata !DIExpression()), !dbg !545
  %5 = getelementptr inbounds { i64, i64 }, { i64, i64 }* %residual, i32 0, i32 0, !dbg !546
  %e.0 = load i64, i64* %5, align 8, !dbg !546
  %6 = getelementptr inbounds { i64, i64 }, { i64, i64 }* %residual, i32 0, i32 1, !dbg !546
  %e.1 = load i64, i64* %6, align 8, !dbg !546
  %7 = getelementptr inbounds { i64, i64 }, { i64, i64 }* %e.dbg.spill, i32 0, i32 0, !dbg !546
  store i64 %e.0, i64* %7, align 8, !dbg !546
  %8 = getelementptr inbounds { i64, i64 }, { i64, i64 }* %e.dbg.spill, i32 0, i32 1, !dbg !546
  store i64 %e.1, i64* %8, align 8, !dbg !546
  call void @llvm.dbg.declare(metadata { i64, i64 }* %e.dbg.spill, metadata !542, metadata !DIExpression()), !dbg !547
; call <alloc::collections::TryReserveError as core::convert::From<alloc::collections::TryReserveErrorKind>>::from
  %9 = call { i64, i64 } @"_ZN122_$LT$alloc..collections..TryReserveError$u20$as$u20$core..convert..From$LT$alloc..collections..TryReserveErrorKind$GT$$GT$4from17h7c35ac9202f87533E"(i64 %e.0, i64 %e.1), !dbg !548
  %_3.0 = extractvalue { i64, i64 } %9, 0, !dbg !548
  %_3.1 = extractvalue { i64, i64 } %9, 1, !dbg !548
  br label %bb1, !dbg !548

bb1:                                              ; preds = %start
  %10 = bitcast %"std::result::Result<std::ptr::NonNull<[u8]>, std::collections::TryReserveError>"* %0 to %"std::result::Result<std::ptr::NonNull<[u8]>, std::collections::TryReserveError>::Err"*, !dbg !549
  %11 = getelementptr inbounds %"std::result::Result<std::ptr::NonNull<[u8]>, std::collections::TryReserveError>::Err", %"std::result::Result<std::ptr::NonNull<[u8]>, std::collections::TryReserveError>::Err"* %10, i32 0, i32 1, !dbg !549
  %12 = getelementptr inbounds { i64, i64 }, { i64, i64 }* %11, i32 0, i32 0, !dbg !549
  store i64 %_3.0, i64* %12, align 8, !dbg !549
  %13 = getelementptr inbounds { i64, i64 }, { i64, i64 }* %11, i32 0, i32 1, !dbg !549
  store i64 %_3.1, i64* %13, align 8, !dbg !549
  %14 = bitcast %"std::result::Result<std::ptr::NonNull<[u8]>, std::collections::TryReserveError>"* %0 to i64*, !dbg !549
  store i64 1, i64* %14, align 8, !dbg !549
  ret void, !dbg !550
}

; <core::result::Result<T,F> as core::ops::try_trait::FromResidual<core::result::Result<core::convert::Infallible,E>>>::from_residual
; Function Attrs: inlinehint nounwind
define void @"_ZN153_$LT$core..result..Result$LT$T$C$F$GT$$u20$as$u20$core..ops..try_trait..FromResidual$LT$core..result..Result$LT$core..convert..Infallible$C$E$GT$$GT$$GT$13from_residual17h36480700bbcbd701E"(%"std::result::Result<(std::alloc::Layout, usize), std::alloc::LayoutError>"* noalias nocapture sret(%"std::result::Result<(std::alloc::Layout, usize), std::alloc::LayoutError>") dereferenceable(24) %0) unnamed_addr #0 !dbg !551 {
start:
  %e.dbg.spill = alloca %"std::alloc::LayoutError", align 1
  %residual.dbg.spill = alloca %"std::result::Result<std::convert::Infallible, std::alloc::LayoutError>::Err", align 1
  call void @llvm.dbg.declare(metadata %"std::result::Result<std::convert::Infallible, std::alloc::LayoutError>::Err"* %residual.dbg.spill, metadata !584, metadata !DIExpression()), !dbg !589
  call void @llvm.dbg.declare(metadata %"std::alloc::LayoutError"* %e.dbg.spill, metadata !585, metadata !DIExpression()), !dbg !590
; call <T as core::convert::From<T>>::from
  call void @"_ZN50_$LT$T$u20$as$u20$core..convert..From$LT$T$GT$$GT$4from17h19eff3d6610a01acE"(), !dbg !591
  br label %bb1, !dbg !591

bb1:                                              ; preds = %start
  %1 = bitcast %"std::result::Result<(std::alloc::Layout, usize), std::alloc::LayoutError>"* %0 to %"std::result::Result<(std::alloc::Layout, usize), std::alloc::LayoutError>::Err"*, !dbg !592
  %2 = bitcast %"std::result::Result<(std::alloc::Layout, usize), std::alloc::LayoutError>::Err"* %1 to %"std::alloc::LayoutError"*, !dbg !592
  %3 = getelementptr inbounds %"std::result::Result<(std::alloc::Layout, usize), std::alloc::LayoutError>", %"std::result::Result<(std::alloc::Layout, usize), std::alloc::LayoutError>"* %0, i32 0, i32 1, !dbg !592
  store i64 0, i64* %3, align 8, !dbg !592
  ret void, !dbg !593
}

; <core::result::Result<T,F> as core::ops::try_trait::FromResidual<core::result::Result<core::convert::Infallible,E>>>::from_residual
; Function Attrs: inlinehint nounwind
define void @"_ZN153_$LT$core..result..Result$LT$T$C$F$GT$$u20$as$u20$core..ops..try_trait..FromResidual$LT$core..result..Result$LT$core..convert..Infallible$C$E$GT$$GT$$GT$13from_residual17h5f65b0aa4fa525baE"(%"std::result::Result<std::ptr::NonNull<[u8]>, std::collections::TryReserveError>"* noalias nocapture sret(%"std::result::Result<std::ptr::NonNull<[u8]>, std::collections::TryReserveError>") dereferenceable(24) %0, i64 %1, i64 %2) unnamed_addr #0 !dbg !594 {
start:
  %e.dbg.spill = alloca { i64, i64 }, align 8
  %residual = alloca { i64, i64 }, align 8
  %3 = getelementptr inbounds { i64, i64 }, { i64, i64 }* %residual, i32 0, i32 0
  store i64 %1, i64* %3, align 8
  %4 = getelementptr inbounds { i64, i64 }, { i64, i64 }* %residual, i32 0, i32 1
  store i64 %2, i64* %4, align 8
  call void @llvm.dbg.declare(metadata { i64, i64 }* %residual, metadata !607, metadata !DIExpression()), !dbg !611
  %5 = getelementptr inbounds { i64, i64 }, { i64, i64 }* %residual, i32 0, i32 0, !dbg !612
  %e.0 = load i64, i64* %5, align 8, !dbg !612
  %6 = getelementptr inbounds { i64, i64 }, { i64, i64 }* %residual, i32 0, i32 1, !dbg !612
  %e.1 = load i64, i64* %6, align 8, !dbg !612
  %7 = getelementptr inbounds { i64, i64 }, { i64, i64 }* %e.dbg.spill, i32 0, i32 0, !dbg !612
  store i64 %e.0, i64* %7, align 8, !dbg !612
  %8 = getelementptr inbounds { i64, i64 }, { i64, i64 }* %e.dbg.spill, i32 0, i32 1, !dbg !612
  store i64 %e.1, i64* %8, align 8, !dbg !612
  call void @llvm.dbg.declare(metadata { i64, i64 }* %e.dbg.spill, metadata !608, metadata !DIExpression()), !dbg !613
; call <T as core::convert::From<T>>::from
  %9 = call { i64, i64 } @"_ZN50_$LT$T$u20$as$u20$core..convert..From$LT$T$GT$$GT$4from17hff23e38d31e42dfeE"(i64 %e.0, i64 %e.1), !dbg !614
  %_3.0 = extractvalue { i64, i64 } %9, 0, !dbg !614
  %_3.1 = extractvalue { i64, i64 } %9, 1, !dbg !614
  br label %bb1, !dbg !614

bb1:                                              ; preds = %start
  %10 = bitcast %"std::result::Result<std::ptr::NonNull<[u8]>, std::collections::TryReserveError>"* %0 to %"std::result::Result<std::ptr::NonNull<[u8]>, std::collections::TryReserveError>::Err"*, !dbg !615
  %11 = getelementptr inbounds %"std::result::Result<std::ptr::NonNull<[u8]>, std::collections::TryReserveError>::Err", %"std::result::Result<std::ptr::NonNull<[u8]>, std::collections::TryReserveError>::Err"* %10, i32 0, i32 1, !dbg !615
  %12 = getelementptr inbounds { i64, i64 }, { i64, i64 }* %11, i32 0, i32 0, !dbg !615
  store i64 %_3.0, i64* %12, align 8, !dbg !615
  %13 = getelementptr inbounds { i64, i64 }, { i64, i64 }* %11, i32 0, i32 1, !dbg !615
  store i64 %_3.1, i64* %13, align 8, !dbg !615
  %14 = bitcast %"std::result::Result<std::ptr::NonNull<[u8]>, std::collections::TryReserveError>"* %0 to i64*, !dbg !615
  store i64 1, i64* %14, align 8, !dbg !615
  ret void, !dbg !616
}

; <core::result::Result<T,F> as core::ops::try_trait::FromResidual<core::result::Result<core::convert::Infallible,E>>>::from_residual
; Function Attrs: inlinehint nounwind
define { i64, i64 } @"_ZN153_$LT$core..result..Result$LT$T$C$F$GT$$u20$as$u20$core..ops..try_trait..FromResidual$LT$core..result..Result$LT$core..convert..Infallible$C$E$GT$$GT$$GT$13from_residual17h8673e32ce17afa86E"() unnamed_addr #0 !dbg !617 {
start:
  %e.dbg.spill = alloca %"std::alloc::LayoutError", align 1
  %residual.dbg.spill = alloca %"std::result::Result<std::convert::Infallible, std::alloc::LayoutError>::Err", align 1
  %0 = alloca { i64, i64 }, align 8
  call void @llvm.dbg.declare(metadata %"std::result::Result<std::convert::Infallible, std::alloc::LayoutError>::Err"* %residual.dbg.spill, metadata !635, metadata !DIExpression()), !dbg !639
  call void @llvm.dbg.declare(metadata %"std::alloc::LayoutError"* %e.dbg.spill, metadata !636, metadata !DIExpression()), !dbg !640
; call <T as core::convert::From<T>>::from
  call void @"_ZN50_$LT$T$u20$as$u20$core..convert..From$LT$T$GT$$GT$4from17h19eff3d6610a01acE"(), !dbg !641
  br label %bb1, !dbg !641

bb1:                                              ; preds = %start
  %1 = bitcast { i64, i64 }* %0 to %"std::result::Result<std::alloc::Layout, std::alloc::LayoutError>::Err"*, !dbg !642
  %2 = bitcast %"std::result::Result<std::alloc::Layout, std::alloc::LayoutError>::Err"* %1 to %"std::alloc::LayoutError"*, !dbg !642
  %3 = getelementptr inbounds { i64, i64 }, { i64, i64 }* %0, i32 0, i32 1, !dbg !642
  store i64 0, i64* %3, align 8, !dbg !642
  %4 = getelementptr inbounds { i64, i64 }, { i64, i64 }* %0, i32 0, i32 0, !dbg !643
  %5 = load i64, i64* %4, align 8, !dbg !643
  %6 = getelementptr inbounds { i64, i64 }, { i64, i64 }* %0, i32 0, i32 1, !dbg !643
  %7 = load i64, i64* %6, align 8, !dbg !643
  %8 = insertvalue { i64, i64 } undef, i64 %5, 0, !dbg !643
  %9 = insertvalue { i64, i64 } %8, i64 %7, 1, !dbg !643
  ret { i64, i64 } %9, !dbg !643
}

; <core::result::Result<T,F> as core::ops::try_trait::FromResidual<core::result::Result<core::convert::Infallible,E>>>::from_residual
; Function Attrs: inlinehint nounwind
define zeroext i1 @"_ZN153_$LT$core..result..Result$LT$T$C$F$GT$$u20$as$u20$core..ops..try_trait..FromResidual$LT$core..result..Result$LT$core..convert..Infallible$C$E$GT$$GT$$GT$13from_residual17hbf77e9885a26c284E"() unnamed_addr #0 !dbg !644 {
start:
  %e.dbg.spill = alloca %"std::fmt::Error", align 1
  %residual.dbg.spill = alloca %"std::result::Result<std::convert::Infallible, std::fmt::Error>::Err", align 1
  %0 = alloca i8, align 1
  call void @llvm.dbg.declare(metadata %"std::result::Result<std::convert::Infallible, std::fmt::Error>::Err"* %residual.dbg.spill, metadata !659, metadata !DIExpression()), !dbg !664
  call void @llvm.dbg.declare(metadata %"std::fmt::Error"* %e.dbg.spill, metadata !660, metadata !DIExpression()), !dbg !665
; call <T as core::convert::From<T>>::from
  call void @"_ZN50_$LT$T$u20$as$u20$core..convert..From$LT$T$GT$$GT$4from17h563240e1381f8ccaE"(), !dbg !666
  br label %bb1, !dbg !666

bb1:                                              ; preds = %start
  %1 = bitcast i8* %0 to %"std::result::Result<(), std::fmt::Error>::Err"*, !dbg !667
  %2 = getelementptr inbounds %"std::result::Result<(), std::fmt::Error>::Err", %"std::result::Result<(), std::fmt::Error>::Err"* %1, i32 0, i32 1, !dbg !667
  store i8 1, i8* %0, align 1, !dbg !667
  %3 = load i8, i8* %0, align 1, !dbg !668, !range !669
  %4 = trunc i8 %3 to i1, !dbg !668
  ret i1 %4, !dbg !668
}

; <core::result::Result<T,F> as core::ops::try_trait::FromResidual<core::result::Result<core::convert::Infallible,E>>>::from_residual
; Function Attrs: inlinehint nounwind
define void @"_ZN153_$LT$core..result..Result$LT$T$C$F$GT$$u20$as$u20$core..ops..try_trait..FromResidual$LT$core..result..Result$LT$core..convert..Infallible$C$E$GT$$GT$$GT$13from_residual17hd7edc681497ec821E"(%"std::result::Result<(), std::collections::TryReserveError>"* noalias nocapture sret(%"std::result::Result<(), std::collections::TryReserveError>") dereferenceable(24) %0, i64 %1, i64 %2) unnamed_addr #0 !dbg !670 {
start:
  %e.dbg.spill = alloca { i64, i64 }, align 8
  %residual = alloca { i64, i64 }, align 8
  %3 = getelementptr inbounds { i64, i64 }, { i64, i64 }* %residual, i32 0, i32 0
  store i64 %1, i64* %3, align 8
  %4 = getelementptr inbounds { i64, i64 }, { i64, i64 }* %residual, i32 0, i32 1
  store i64 %2, i64* %4, align 8
  call void @llvm.dbg.declare(metadata { i64, i64 }* %residual, metadata !674, metadata !DIExpression()), !dbg !678
  %5 = getelementptr inbounds { i64, i64 }, { i64, i64 }* %residual, i32 0, i32 0, !dbg !679
  %e.0 = load i64, i64* %5, align 8, !dbg !679
  %6 = getelementptr inbounds { i64, i64 }, { i64, i64 }* %residual, i32 0, i32 1, !dbg !679
  %e.1 = load i64, i64* %6, align 8, !dbg !679
  %7 = getelementptr inbounds { i64, i64 }, { i64, i64 }* %e.dbg.spill, i32 0, i32 0, !dbg !679
  store i64 %e.0, i64* %7, align 8, !dbg !679
  %8 = getelementptr inbounds { i64, i64 }, { i64, i64 }* %e.dbg.spill, i32 0, i32 1, !dbg !679
  store i64 %e.1, i64* %8, align 8, !dbg !679
  call void @llvm.dbg.declare(metadata { i64, i64 }* %e.dbg.spill, metadata !675, metadata !DIExpression()), !dbg !680
; call <T as core::convert::From<T>>::from
  %9 = call { i64, i64 } @"_ZN50_$LT$T$u20$as$u20$core..convert..From$LT$T$GT$$GT$4from17hff23e38d31e42dfeE"(i64 %e.0, i64 %e.1), !dbg !681
  %_3.0 = extractvalue { i64, i64 } %9, 0, !dbg !681
  %_3.1 = extractvalue { i64, i64 } %9, 1, !dbg !681
  br label %bb1, !dbg !681

bb1:                                              ; preds = %start
  %10 = bitcast %"std::result::Result<(), std::collections::TryReserveError>"* %0 to %"std::result::Result<(), std::collections::TryReserveError>::Err"*, !dbg !682
  %11 = getelementptr inbounds %"std::result::Result<(), std::collections::TryReserveError>::Err", %"std::result::Result<(), std::collections::TryReserveError>::Err"* %10, i32 0, i32 1, !dbg !682
  %12 = getelementptr inbounds { i64, i64 }, { i64, i64 }* %11, i32 0, i32 0, !dbg !682
  store i64 %_3.0, i64* %12, align 8, !dbg !682
  %13 = getelementptr inbounds { i64, i64 }, { i64, i64 }* %11, i32 0, i32 1, !dbg !682
  store i64 %_3.1, i64* %13, align 8, !dbg !682
  %14 = bitcast %"std::result::Result<(), std::collections::TryReserveError>"* %0 to i64*, !dbg !682
  store i64 1, i64* %14, align 8, !dbg !682
  ret void, !dbg !683
}

; <bool as core::fmt::Debug>::fmt
; Function Attrs: inlinehint nounwind
define internal zeroext i1 @"_ZN41_$LT$bool$u20$as$u20$core..fmt..Debug$GT$3fmt17h3e6ced1fefbce2d7E"(i8* align 1 dereferenceable(1) %self, %"std::fmt::Formatter"* align 8 dereferenceable(64) %f) unnamed_addr #0 !dbg !684 {
start:
  %f.dbg.spill = alloca %"std::fmt::Formatter"*, align 8
  %self.dbg.spill = alloca i8*, align 8
  store i8* %self, i8** %self.dbg.spill, align 8
  call void @llvm.dbg.declare(metadata i8** %self.dbg.spill, metadata !721, metadata !DIExpression()), !dbg !723
  store %"std::fmt::Formatter"* %f, %"std::fmt::Formatter"** %f.dbg.spill, align 8
  call void @llvm.dbg.declare(metadata %"std::fmt::Formatter"** %f.dbg.spill, metadata !722, metadata !DIExpression()), !dbg !724
; call <bool as core::fmt::Display>::fmt
  %0 = call zeroext i1 @"_ZN43_$LT$bool$u20$as$u20$core..fmt..Display$GT$3fmt17h8cd87f7769d26608E"(i8* align 1 dereferenceable(1) %self, %"std::fmt::Formatter"* align 8 dereferenceable(64) %f), !dbg !725
  br label %bb1, !dbg !725

bb1:                                              ; preds = %start
  ret i1 %0, !dbg !726
}

; <&T as core::fmt::Debug>::fmt
; Function Attrs: nounwind
define zeroext i1 @"_ZN42_$LT$$RF$T$u20$as$u20$core..fmt..Debug$GT$3fmt17h15c1c9f7e8626237E"(i64** align 8 dereferenceable(8) %self, %"std::fmt::Formatter"* align 8 dereferenceable(64) %f) unnamed_addr #1 !dbg !727 {
start:
  %f.dbg.spill = alloca %"std::fmt::Formatter"*, align 8
  %self.dbg.spill = alloca i64**, align 8
  store i64** %self, i64*** %self.dbg.spill, align 8
  call void @llvm.dbg.declare(metadata i64*** %self.dbg.spill, metadata !733, metadata !DIExpression()), !dbg !735
  store %"std::fmt::Formatter"* %f, %"std::fmt::Formatter"** %f.dbg.spill, align 8
  call void @llvm.dbg.declare(metadata %"std::fmt::Formatter"** %f.dbg.spill, metadata !734, metadata !DIExpression()), !dbg !736
  %_4 = load i64*, i64** %self, align 8, !dbg !737, !nonnull !4
; call core::fmt::num::<impl core::fmt::Debug for usize>::fmt
  %0 = call zeroext i1 @"_ZN4core3fmt3num52_$LT$impl$u20$core..fmt..Debug$u20$for$u20$usize$GT$3fmt17he41e7c5843afa2a8E"(i64* align 8 dereferenceable(8) %_4, %"std::fmt::Formatter"* align 8 dereferenceable(64) %f), !dbg !738
  br label %bb1, !dbg !738

bb1:                                              ; preds = %start
  ret i1 %0, !dbg !739
}

; <&T as core::fmt::Debug>::fmt
; Function Attrs: nounwind
define zeroext i1 @"_ZN42_$LT$$RF$T$u20$as$u20$core..fmt..Debug$GT$3fmt17h20a18daf423b9470E"(i8** align 8 dereferenceable(8) %self, %"std::fmt::Formatter"* align 8 dereferenceable(64) %f) unnamed_addr #1 !dbg !740 {
start:
  %f.dbg.spill = alloca %"std::fmt::Formatter"*, align 8
  %self.dbg.spill = alloca i8**, align 8
  store i8** %self, i8*** %self.dbg.spill, align 8
  call void @llvm.dbg.declare(metadata i8*** %self.dbg.spill, metadata !745, metadata !DIExpression()), !dbg !747
  store %"std::fmt::Formatter"* %f, %"std::fmt::Formatter"** %f.dbg.spill, align 8
  call void @llvm.dbg.declare(metadata %"std::fmt::Formatter"** %f.dbg.spill, metadata !746, metadata !DIExpression()), !dbg !748
  %_4 = load i8*, i8** %self, align 8, !dbg !749, !nonnull !4
; call core::fmt::num::<impl core::fmt::Debug for u8>::fmt
  %0 = call zeroext i1 @"_ZN4core3fmt3num49_$LT$impl$u20$core..fmt..Debug$u20$for$u20$u8$GT$3fmt17h6b4be609af0d5e66E"(i8* align 1 dereferenceable(1) %_4, %"std::fmt::Formatter"* align 8 dereferenceable(64) %f), !dbg !750
  br label %bb1, !dbg !750

bb1:                                              ; preds = %start
  ret i1 %0, !dbg !751
}

; <&T as core::fmt::Debug>::fmt
; Function Attrs: nounwind
define zeroext i1 @"_ZN42_$LT$$RF$T$u20$as$u20$core..fmt..Debug$GT$3fmt17h2113a1daaec7addaE"(i8** align 8 dereferenceable(8) %self, %"std::fmt::Formatter"* align 8 dereferenceable(64) %f) unnamed_addr #1 !dbg !752 {
start:
  %f.dbg.spill = alloca %"std::fmt::Formatter"*, align 8
  %self.dbg.spill = alloca i8**, align 8
  store i8** %self, i8*** %self.dbg.spill, align 8
  call void @llvm.dbg.declare(metadata i8*** %self.dbg.spill, metadata !757, metadata !DIExpression()), !dbg !761
  store %"std::fmt::Formatter"* %f, %"std::fmt::Formatter"** %f.dbg.spill, align 8
  call void @llvm.dbg.declare(metadata %"std::fmt::Formatter"** %f.dbg.spill, metadata !758, metadata !DIExpression()), !dbg !762
  %_4 = load i8*, i8** %self, align 8, !dbg !763, !nonnull !4
; call <base64::CharacterSet as core::fmt::Debug>::fmt
  %0 = call zeroext i1 @"_ZN57_$LT$base64..CharacterSet$u20$as$u20$core..fmt..Debug$GT$3fmt17he02be908e3c415b2E"(i8* align 1 dereferenceable(1) %_4, %"std::fmt::Formatter"* align 8 dereferenceable(64) %f), !dbg !764
  br label %bb1, !dbg !764

bb1:                                              ; preds = %start
  ret i1 %0, !dbg !765
}

; <&T as core::fmt::Debug>::fmt
; Function Attrs: nounwind
define zeroext i1 @"_ZN42_$LT$$RF$T$u20$as$u20$core..fmt..Debug$GT$3fmt17h61857a7b61451390E"(i8** align 8 dereferenceable(8) %self, %"std::fmt::Formatter"* align 8 dereferenceable(64) %f) unnamed_addr #1 !dbg !766 {
start:
  %f.dbg.spill = alloca %"std::fmt::Formatter"*, align 8
  %self.dbg.spill = alloca i8**, align 8
  store i8** %self, i8*** %self.dbg.spill, align 8
  call void @llvm.dbg.declare(metadata i8*** %self.dbg.spill, metadata !771, metadata !DIExpression()), !dbg !775
  store %"std::fmt::Formatter"* %f, %"std::fmt::Formatter"** %f.dbg.spill, align 8
  call void @llvm.dbg.declare(metadata %"std::fmt::Formatter"** %f.dbg.spill, metadata !772, metadata !DIExpression()), !dbg !776
  %_4 = load i8*, i8** %self, align 8, !dbg !777, !nonnull !4
; call <bool as core::fmt::Debug>::fmt
  %0 = call zeroext i1 @"_ZN41_$LT$bool$u20$as$u20$core..fmt..Debug$GT$3fmt17h3e6ced1fefbce2d7E"(i8* align 1 dereferenceable(1) %_4, %"std::fmt::Formatter"* align 8 dereferenceable(64) %f), !dbg !778
  br label %bb1, !dbg !778

bb1:                                              ; preds = %start
  ret i1 %0, !dbg !779
}

; <&T as core::fmt::Display>::fmt
; Function Attrs: nounwind
define zeroext i1 @"_ZN44_$LT$$RF$T$u20$as$u20$core..fmt..Display$GT$3fmt17h37d009f9a141a023E"({ [0 x i8]*, i64 }* align 8 dereferenceable(16) %self, %"std::fmt::Formatter"* align 8 dereferenceable(64) %f) unnamed_addr #1 !dbg !780 {
start:
  %f.dbg.spill = alloca %"std::fmt::Formatter"*, align 8
  %self.dbg.spill = alloca { [0 x i8]*, i64 }*, align 8
  store { [0 x i8]*, i64 }* %self, { [0 x i8]*, i64 }** %self.dbg.spill, align 8
  call void @llvm.dbg.declare(metadata { [0 x i8]*, i64 }** %self.dbg.spill, metadata !786, metadata !DIExpression()), !dbg !791
  store %"std::fmt::Formatter"* %f, %"std::fmt::Formatter"** %f.dbg.spill, align 8
  call void @llvm.dbg.declare(metadata %"std::fmt::Formatter"** %f.dbg.spill, metadata !787, metadata !DIExpression()), !dbg !792
  %0 = getelementptr inbounds { [0 x i8]*, i64 }, { [0 x i8]*, i64 }* %self, i32 0, i32 0, !dbg !793
  %_4.0 = load [0 x i8]*, [0 x i8]** %0, align 8, !dbg !793, !nonnull !4
  %1 = getelementptr inbounds { [0 x i8]*, i64 }, { [0 x i8]*, i64 }* %self, i32 0, i32 1, !dbg !793
  %_4.1 = load i64, i64* %1, align 8, !dbg !793
; call <str as core::fmt::Display>::fmt
  %2 = call zeroext i1 @"_ZN42_$LT$str$u20$as$u20$core..fmt..Display$GT$3fmt17h22e9b1a86f36eac1E"([0 x i8]* nonnull align 1 %_4.0, i64 %_4.1, %"std::fmt::Formatter"* align 8 dereferenceable(64) %f), !dbg !794
  br label %bb1, !dbg !794

bb1:                                              ; preds = %start
  ret i1 %2, !dbg !795
}

; <usize as core::iter::range::Step>::forward_unchecked
; Function Attrs: inlinehint nounwind
define internal i64 @"_ZN49_$LT$usize$u20$as$u20$core..iter..range..Step$GT$17forward_unchecked17ha589c00b0b84353dE"(i64 %start1, i64 %n) unnamed_addr #0 !dbg !796 {
start:
  %0 = alloca i64, align 8
  %rhs.dbg.spill.i = alloca i64, align 8
  %self.dbg.spill.i = alloca i64, align 8
  %n.dbg.spill = alloca i64, align 8
  %start.dbg.spill = alloca i64, align 8
  store i64 %start1, i64* %start.dbg.spill, align 8
  call void @llvm.dbg.declare(metadata i64* %start.dbg.spill, metadata !804, metadata !DIExpression()), !dbg !806
  store i64 %n, i64* %n.dbg.spill, align 8
  call void @llvm.dbg.declare(metadata i64* %n.dbg.spill, metadata !805, metadata !DIExpression()), !dbg !807
  store i64 %start1, i64* %self.dbg.spill.i, align 8
  call void @llvm.dbg.declare(metadata i64* %self.dbg.spill.i, metadata !808, metadata !DIExpression()), !dbg !814
  store i64 %n, i64* %rhs.dbg.spill.i, align 8
  call void @llvm.dbg.declare(metadata i64* %rhs.dbg.spill.i, metadata !813, metadata !DIExpression()), !dbg !816
  %1 = add nuw i64 %start1, %n, !dbg !817
  store i64 %1, i64* %0, align 8, !dbg !817
  %2 = load i64, i64* %0, align 8, !dbg !817
  br label %bb1, !dbg !818

bb1:                                              ; preds = %start
  ret i64 %2, !dbg !819
}

; core::intrinsics::write_bytes
; Function Attrs: inlinehint nounwind
define void @_ZN4core10intrinsics11write_bytes17h24882474a550ec7eE(i8* %dst, i8 %val, i64 %count) unnamed_addr #0 !dbg !820 {
start:
  %count.dbg.spill = alloca i64, align 8
  %val.dbg.spill = alloca i8, align 1
  %dst.dbg.spill = alloca i8*, align 8
  store i8* %dst, i8** %dst.dbg.spill, align 8
  call void @llvm.dbg.declare(metadata i8** %dst.dbg.spill, metadata !826, metadata !DIExpression()), !dbg !829
  store i8 %val, i8* %val.dbg.spill, align 1
  call void @llvm.dbg.declare(metadata i8* %val.dbg.spill, metadata !827, metadata !DIExpression()), !dbg !830
  store i64 %count, i64* %count.dbg.spill, align 8
  call void @llvm.dbg.declare(metadata i64* %count.dbg.spill, metadata !828, metadata !DIExpression()), !dbg !831
  %0 = mul i64 1, %count, !dbg !832
  call void @llvm.memset.p0i8.i64(i8* align 1 %dst, i8 %val, i64 %0, i1 false), !dbg !832
  br label %bb1, !dbg !832

bb1:                                              ; preds = %start
  ret void, !dbg !833
}

; core::intrinsics::copy_nonoverlapping
; Function Attrs: inlinehint nounwind
define void @_ZN4core10intrinsics19copy_nonoverlapping17h1b004e6041875ef7E(i8* %src, i8* %dst, i64 %count) unnamed_addr #0 !dbg !834 {
start:
  %count.dbg.spill = alloca i64, align 8
  %dst.dbg.spill = alloca i8*, align 8
  %src.dbg.spill = alloca i8*, align 8
  store i8* %src, i8** %src.dbg.spill, align 8
  call void @llvm.dbg.declare(metadata i8** %src.dbg.spill, metadata !838, metadata !DIExpression()), !dbg !841
  store i8* %dst, i8** %dst.dbg.spill, align 8
  call void @llvm.dbg.declare(metadata i8** %dst.dbg.spill, metadata !839, metadata !DIExpression()), !dbg !842
  store i64 %count, i64* %count.dbg.spill, align 8
  call void @llvm.dbg.declare(metadata i64* %count.dbg.spill, metadata !840, metadata !DIExpression()), !dbg !843
  %0 = mul i64 %count, 1, !dbg !844
  call void @llvm.memcpy.p0i8.p0i8.i64(i8* align 1 %dst, i8* align 1 %src, i64 %0, i1 false), !dbg !844
  ret void, !dbg !845
}

; core::cmp::Ord::max
; Function Attrs: inlinehint nounwind
define i64 @_ZN4core3cmp3Ord3max17hcd028c09ea6e96c4E(i64 %self, i64 %other) unnamed_addr #0 !dbg !846 {
start:
  %other.dbg.spill = alloca i64, align 8
  %self.dbg.spill = alloca i64, align 8
  store i64 %self, i64* %self.dbg.spill, align 8
  call void @llvm.dbg.declare(metadata i64* %self.dbg.spill, metadata !850, metadata !DIExpression()), !dbg !854
  store i64 %other, i64* %other.dbg.spill, align 8
  call void @llvm.dbg.declare(metadata i64* %other.dbg.spill, metadata !851, metadata !DIExpression()), !dbg !855
; call core::cmp::max_by
  %0 = call i64 @_ZN4core3cmp6max_by17h05be1819ddb2d709E(i64 %self, i64 %other), !dbg !856
  br label %bb1, !dbg !856

bb1:                                              ; preds = %start
  ret i64 %0, !dbg !857
}

; core::cmp::Ord::min
; Function Attrs: inlinehint nounwind
define i64 @_ZN4core3cmp3Ord3min17h17d4a739f1616196E(i64 %self, i64 %other) unnamed_addr #0 !dbg !858 {
start:
  %other.dbg.spill = alloca i64, align 8
  %self.dbg.spill = alloca i64, align 8
  store i64 %self, i64* %self.dbg.spill, align 8
  call void @llvm.dbg.declare(metadata i64* %self.dbg.spill, metadata !860, metadata !DIExpression()), !dbg !862
  store i64 %other, i64* %other.dbg.spill, align 8
  call void @llvm.dbg.declare(metadata i64* %other.dbg.spill, metadata !861, metadata !DIExpression()), !dbg !863
; call core::cmp::min_by
  %0 = call i64 @_ZN4core3cmp6min_by17h3e2c791d1ec1a841E(i64 %self, i64 %other), !dbg !864
  br label %bb1, !dbg !864

bb1:                                              ; preds = %start
  ret i64 %0, !dbg !865
}

; core::cmp::max
; Function Attrs: inlinehint nounwind
define i64 @_ZN4core3cmp3max17h7dec65f8c7a01985E(i64 %v1, i64 %v2) unnamed_addr #0 !dbg !866 {
start:
  %v2.dbg.spill = alloca i64, align 8
  %v1.dbg.spill = alloca i64, align 8
  store i64 %v1, i64* %v1.dbg.spill, align 8
  call void @llvm.dbg.declare(metadata i64* %v1.dbg.spill, metadata !868, metadata !DIExpression()), !dbg !870
  store i64 %v2, i64* %v2.dbg.spill, align 8
  call void @llvm.dbg.declare(metadata i64* %v2.dbg.spill, metadata !869, metadata !DIExpression()), !dbg !871
; call core::cmp::Ord::max
  %0 = call i64 @_ZN4core3cmp3Ord3max17hcd028c09ea6e96c4E(i64 %v1, i64 %v2), !dbg !872
  br label %bb1, !dbg !872

bb1:                                              ; preds = %start
  ret i64 %0, !dbg !873
}

; core::cmp::min
; Function Attrs: inlinehint nounwind
define i64 @_ZN4core3cmp3min17h5809023887dbf599E(i64 %v1, i64 %v2) unnamed_addr #0 !dbg !874 {
start:
  %v2.dbg.spill = alloca i64, align 8
  %v1.dbg.spill = alloca i64, align 8
  store i64 %v1, i64* %v1.dbg.spill, align 8
  call void @llvm.dbg.declare(metadata i64* %v1.dbg.spill, metadata !876, metadata !DIExpression()), !dbg !878
  store i64 %v2, i64* %v2.dbg.spill, align 8
  call void @llvm.dbg.declare(metadata i64* %v2.dbg.spill, metadata !877, metadata !DIExpression()), !dbg !879
; call core::cmp::Ord::min
  %0 = call i64 @_ZN4core3cmp3Ord3min17h17d4a739f1616196E(i64 %v1, i64 %v2), !dbg !880
  br label %bb1, !dbg !880

bb1:                                              ; preds = %start
  ret i64 %0, !dbg !881
}

; core::cmp::impls::<impl core::cmp::Ord for usize>::cmp
; Function Attrs: inlinehint nounwind
define internal i8 @"_ZN4core3cmp5impls50_$LT$impl$u20$core..cmp..Ord$u20$for$u20$usize$GT$3cmp17he9d47f91f55bfd10E"(i64* align 8 dereferenceable(8) %self, i64* align 8 dereferenceable(8) %other) unnamed_addr #0 !dbg !882 {
start:
  %other.dbg.spill = alloca i64*, align 8
  %self.dbg.spill = alloca i64*, align 8
  %0 = alloca i8, align 1
  store i64* %self, i64** %self.dbg.spill, align 8
  call void @llvm.dbg.declare(metadata i64** %self.dbg.spill, metadata !888, metadata !DIExpression()), !dbg !890
  store i64* %other, i64** %other.dbg.spill, align 8
  call void @llvm.dbg.declare(metadata i64** %other.dbg.spill, metadata !889, metadata !DIExpression()), !dbg !891
  %_4 = load i64, i64* %self, align 8, !dbg !892
  %_5 = load i64, i64* %other, align 8, !dbg !893
  %_3 = icmp ult i64 %_4, %_5, !dbg !892
  br i1 %_3, label %bb1, label %bb2, !dbg !892

bb2:                                              ; preds = %start
  %_7 = load i64, i64* %self, align 8, !dbg !894
  %_8 = load i64, i64* %other, align 8, !dbg !895
  %_6 = icmp eq i64 %_7, %_8, !dbg !894
  br i1 %_6, label %bb3, label %bb4, !dbg !894

bb1:                                              ; preds = %start
  store i8 -1, i8* %0, align 1, !dbg !896
  br label %bb6, !dbg !897

bb6:                                              ; preds = %bb5, %bb1
  %1 = load i8, i8* %0, align 1, !dbg !898, !range !899
  ret i8 %1, !dbg !898

bb4:                                              ; preds = %bb2
  store i8 1, i8* %0, align 1, !dbg !900
  br label %bb5, !dbg !901

bb3:                                              ; preds = %bb2
  store i8 0, i8* %0, align 1, !dbg !902
  br label %bb5, !dbg !901

bb5:                                              ; preds = %bb4, %bb3
  br label %bb6, !dbg !897
}

; core::cmp::impls::<impl core::cmp::PartialOrd for usize>::lt
; Function Attrs: inlinehint nounwind
define internal zeroext i1 @"_ZN4core3cmp5impls57_$LT$impl$u20$core..cmp..PartialOrd$u20$for$u20$usize$GT$2lt17h802cd51cfb80ef88E"(i64* align 8 dereferenceable(8) %self, i64* align 8 dereferenceable(8) %other) unnamed_addr #0 !dbg !903 {
start:
  %other.dbg.spill = alloca i64*, align 8
  %self.dbg.spill = alloca i64*, align 8
  store i64* %self, i64** %self.dbg.spill, align 8
  call void @llvm.dbg.declare(metadata i64** %self.dbg.spill, metadata !908, metadata !DIExpression()), !dbg !910
  store i64* %other, i64** %other.dbg.spill, align 8
  call void @llvm.dbg.declare(metadata i64** %other.dbg.spill, metadata !909, metadata !DIExpression()), !dbg !911
  %_3 = load i64, i64* %self, align 8, !dbg !912
  %_4 = load i64, i64* %other, align 8, !dbg !913
  %0 = icmp ult i64 %_3, %_4, !dbg !912
  ret i1 %0, !dbg !914
}

; core::cmp::max_by
; Function Attrs: inlinehint nounwind
define i64 @_ZN4core3cmp6max_by17h05be1819ddb2d709E(i64 %0, i64 %1) unnamed_addr #0 !dbg !915 {
start:
  %compare.dbg.spill = alloca {}, align 1
  %_13 = alloca i8, align 1
  %_12 = alloca i8, align 1
  %_6 = alloca { i64*, i64* }, align 8
  %_4 = alloca i8, align 1
  %2 = alloca i64, align 8
  %v2 = alloca i64, align 8
  %v1 = alloca i64, align 8
  store i64 %0, i64* %v1, align 8
  store i64 %1, i64* %v2, align 8
  call void @llvm.dbg.declare(metadata i64* %v1, metadata !920, metadata !DIExpression()), !dbg !925
  call void @llvm.dbg.declare(metadata i64* %v2, metadata !921, metadata !DIExpression()), !dbg !926
  call void @llvm.dbg.declare(metadata {}* %compare.dbg.spill, metadata !922, metadata !DIExpression()), !dbg !927
  store i8 0, i8* %_13, align 1, !dbg !928
  store i8 0, i8* %_12, align 1, !dbg !928
  store i8 1, i8* %_13, align 1, !dbg !928
  store i8 1, i8* %_12, align 1, !dbg !928
  %3 = bitcast { i64*, i64* }* %_6 to i64**, !dbg !928
  store i64* %v1, i64** %3, align 8, !dbg !928
  %4 = getelementptr inbounds { i64*, i64* }, { i64*, i64* }* %_6, i32 0, i32 1, !dbg !928
  store i64* %v2, i64** %4, align 8, !dbg !928
  %5 = getelementptr inbounds { i64*, i64* }, { i64*, i64* }* %_6, i32 0, i32 0, !dbg !928
  %6 = load i64*, i64** %5, align 8, !dbg !928, !nonnull !4
  %7 = getelementptr inbounds { i64*, i64* }, { i64*, i64* }* %_6, i32 0, i32 1, !dbg !928
  %8 = load i64*, i64** %7, align 8, !dbg !928, !nonnull !4
; call core::ops::function::FnOnce::call_once
  %9 = call i8 @_ZN4core3ops8function6FnOnce9call_once17h64bb9e7959e17e58E(i64* align 8 dereferenceable(8) %6, i64* align 8 dereferenceable(8) %8), !dbg !928, !range !899
  store i8 %9, i8* %_4, align 1, !dbg !928
  br label %bb1, !dbg !928

bb1:                                              ; preds = %start
  %10 = load i8, i8* %_4, align 1, !dbg !928, !range !899
  %_11 = sext i8 %10 to i64, !dbg !928
  switch i64 %_11, label %bb3 [
    i64 -1, label %bb4
    i64 0, label %bb4
    i64 1, label %bb2
  ], !dbg !929

bb3:                                              ; preds = %bb1
  unreachable, !dbg !928

bb4:                                              ; preds = %bb1, %bb1
  store i8 0, i8* %_12, align 1, !dbg !930
  %11 = load i64, i64* %v2, align 8, !dbg !930
  store i64 %11, i64* %2, align 8, !dbg !930
  br label %bb5, !dbg !930

bb2:                                              ; preds = %bb1
  store i8 0, i8* %_13, align 1, !dbg !931
  %12 = load i64, i64* %v1, align 8, !dbg !931
  store i64 %12, i64* %2, align 8, !dbg !931
  br label %bb5, !dbg !931

bb5:                                              ; preds = %bb4, %bb2
  %13 = load i8, i8* %_12, align 1, !dbg !932, !range !669
  %14 = trunc i8 %13 to i1, !dbg !932
  br i1 %14, label %bb8, label %bb6, !dbg !932

bb6:                                              ; preds = %bb8, %bb5
  %15 = load i8, i8* %_13, align 1, !dbg !932, !range !669
  %16 = trunc i8 %15 to i1, !dbg !932
  br i1 %16, label %bb9, label %bb7, !dbg !932

bb8:                                              ; preds = %bb5
  br label %bb6, !dbg !932

bb7:                                              ; preds = %bb9, %bb6
  %17 = load i64, i64* %2, align 8, !dbg !933
  ret i64 %17, !dbg !933

bb9:                                              ; preds = %bb6
  br label %bb7, !dbg !932
}

; core::cmp::min_by
; Function Attrs: inlinehint nounwind
define i64 @_ZN4core3cmp6min_by17h3e2c791d1ec1a841E(i64 %0, i64 %1) unnamed_addr #0 !dbg !934 {
start:
  %compare.dbg.spill = alloca {}, align 1
  %_13 = alloca i8, align 1
  %_12 = alloca i8, align 1
  %_6 = alloca { i64*, i64* }, align 8
  %_4 = alloca i8, align 1
  %2 = alloca i64, align 8
  %v2 = alloca i64, align 8
  %v1 = alloca i64, align 8
  store i64 %0, i64* %v1, align 8
  store i64 %1, i64* %v2, align 8
  call void @llvm.dbg.declare(metadata i64* %v1, metadata !936, metadata !DIExpression()), !dbg !939
  call void @llvm.dbg.declare(metadata i64* %v2, metadata !937, metadata !DIExpression()), !dbg !940
  call void @llvm.dbg.declare(metadata {}* %compare.dbg.spill, metadata !938, metadata !DIExpression()), !dbg !941
  store i8 0, i8* %_13, align 1, !dbg !942
  store i8 0, i8* %_12, align 1, !dbg !942
  store i8 1, i8* %_13, align 1, !dbg !942
  store i8 1, i8* %_12, align 1, !dbg !942
  %3 = bitcast { i64*, i64* }* %_6 to i64**, !dbg !942
  store i64* %v1, i64** %3, align 8, !dbg !942
  %4 = getelementptr inbounds { i64*, i64* }, { i64*, i64* }* %_6, i32 0, i32 1, !dbg !942
  store i64* %v2, i64** %4, align 8, !dbg !942
  %5 = getelementptr inbounds { i64*, i64* }, { i64*, i64* }* %_6, i32 0, i32 0, !dbg !942
  %6 = load i64*, i64** %5, align 8, !dbg !942, !nonnull !4
  %7 = getelementptr inbounds { i64*, i64* }, { i64*, i64* }* %_6, i32 0, i32 1, !dbg !942
  %8 = load i64*, i64** %7, align 8, !dbg !942, !nonnull !4
; call core::ops::function::FnOnce::call_once
  %9 = call i8 @_ZN4core3ops8function6FnOnce9call_once17h64bb9e7959e17e58E(i64* align 8 dereferenceable(8) %6, i64* align 8 dereferenceable(8) %8), !dbg !942, !range !899
  store i8 %9, i8* %_4, align 1, !dbg !942
  br label %bb1, !dbg !942

bb1:                                              ; preds = %start
  %10 = load i8, i8* %_4, align 1, !dbg !942, !range !899
  %_11 = sext i8 %10 to i64, !dbg !942
  switch i64 %_11, label %bb3 [
    i64 -1, label %bb4
    i64 0, label %bb4
    i64 1, label %bb2
  ], !dbg !943

bb3:                                              ; preds = %bb1
  unreachable, !dbg !942

bb4:                                              ; preds = %bb1, %bb1
  store i8 0, i8* %_13, align 1, !dbg !944
  %11 = load i64, i64* %v1, align 8, !dbg !944
  store i64 %11, i64* %2, align 8, !dbg !944
  br label %bb5, !dbg !944

bb2:                                              ; preds = %bb1
  store i8 0, i8* %_12, align 1, !dbg !945
  %12 = load i64, i64* %v2, align 8, !dbg !945
  store i64 %12, i64* %2, align 8, !dbg !945
  br label %bb5, !dbg !945

bb5:                                              ; preds = %bb4, %bb2
  %13 = load i8, i8* %_12, align 1, !dbg !946, !range !669
  %14 = trunc i8 %13 to i1, !dbg !946
  br i1 %14, label %bb8, label %bb6, !dbg !946

bb6:                                              ; preds = %bb8, %bb5
  %15 = load i8, i8* %_13, align 1, !dbg !946, !range !669
  %16 = trunc i8 %15 to i1, !dbg !946
  br i1 %16, label %bb9, label %bb7, !dbg !946

bb8:                                              ; preds = %bb5
  br label %bb6, !dbg !946

bb7:                                              ; preds = %bb9, %bb6
  %17 = load i64, i64* %2, align 8, !dbg !947
  ret i64 %17, !dbg !947

bb9:                                              ; preds = %bb6
  br label %bb7, !dbg !946
}

; core::fmt::ArgumentV1::new
; Function Attrs: nounwind
define { i8*, i64* } @_ZN4core3fmt10ArgumentV13new17h8b0f37a7e5622812E({ [0 x i8]*, i64 }* align 8 dereferenceable(16) %x, i1 ({ [0 x i8]*, i64 }*, %"std::fmt::Formatter"*)* nonnull %f) unnamed_addr #1 !dbg !948 {
start:
  %0 = alloca %"core::fmt::Opaque"*, align 8
  %1 = alloca i1 (%"core::fmt::Opaque"*, %"std::fmt::Formatter"*)*, align 8
  %f.dbg.spill = alloca i1 ({ [0 x i8]*, i64 }*, %"std::fmt::Formatter"*)*, align 8
  %x.dbg.spill = alloca { [0 x i8]*, i64 }*, align 8
  %2 = alloca { i8*, i64* }, align 8
  store { [0 x i8]*, i64 }* %x, { [0 x i8]*, i64 }** %x.dbg.spill, align 8
  call void @llvm.dbg.declare(metadata { [0 x i8]*, i64 }** %x.dbg.spill, metadata !962, metadata !DIExpression()), !dbg !966
  store i1 ({ [0 x i8]*, i64 }*, %"std::fmt::Formatter"*)* %f, i1 ({ [0 x i8]*, i64 }*, %"std::fmt::Formatter"*)** %f.dbg.spill, align 8
  call void @llvm.dbg.declare(metadata i1 ({ [0 x i8]*, i64 }*, %"std::fmt::Formatter"*)** %f.dbg.spill, metadata !963, metadata !DIExpression()), !dbg !967
  %3 = bitcast i1 ({ [0 x i8]*, i64 }*, %"std::fmt::Formatter"*)* %f to i1 (%"core::fmt::Opaque"*, %"std::fmt::Formatter"*)*, !dbg !968
  store i1 (%"core::fmt::Opaque"*, %"std::fmt::Formatter"*)* %3, i1 (%"core::fmt::Opaque"*, %"std::fmt::Formatter"*)** %1, align 8, !dbg !968
  %_3 = load i1 (%"core::fmt::Opaque"*, %"std::fmt::Formatter"*)*, i1 (%"core::fmt::Opaque"*, %"std::fmt::Formatter"*)** %1, align 8, !dbg !968, !nonnull !4
  br label %bb1, !dbg !968

bb1:                                              ; preds = %start
  %4 = bitcast { [0 x i8]*, i64 }* %x to %"core::fmt::Opaque"*, !dbg !969
  store %"core::fmt::Opaque"* %4, %"core::fmt::Opaque"** %0, align 8, !dbg !969
  %_5 = load %"core::fmt::Opaque"*, %"core::fmt::Opaque"** %0, align 8, !dbg !969, !nonnull !4
  br label %bb2, !dbg !969

bb2:                                              ; preds = %bb1
  %5 = bitcast { i8*, i64* }* %2 to %"core::fmt::Opaque"**, !dbg !970
  store %"core::fmt::Opaque"* %_5, %"core::fmt::Opaque"** %5, align 8, !dbg !970
  %6 = getelementptr inbounds { i8*, i64* }, { i8*, i64* }* %2, i32 0, i32 1, !dbg !970
  %7 = bitcast i64** %6 to i1 (%"core::fmt::Opaque"*, %"std::fmt::Formatter"*)**, !dbg !970
  store i1 (%"core::fmt::Opaque"*, %"std::fmt::Formatter"*)* %_3, i1 (%"core::fmt::Opaque"*, %"std::fmt::Formatter"*)** %7, align 8, !dbg !970
  %8 = getelementptr inbounds { i8*, i64* }, { i8*, i64* }* %2, i32 0, i32 0, !dbg !971
  %9 = load i8*, i8** %8, align 8, !dbg !971, !nonnull !4
  %10 = getelementptr inbounds { i8*, i64* }, { i8*, i64* }* %2, i32 0, i32 1, !dbg !971
  %11 = load i64*, i64** %10, align 8, !dbg !971, !nonnull !4
  %12 = insertvalue { i8*, i64* } undef, i8* %9, 0, !dbg !971
  %13 = insertvalue { i8*, i64* } %12, i64* %11, 1, !dbg !971
  ret { i8*, i64* } %13, !dbg !971
}

; core::fmt::ArgumentV1::new
; Function Attrs: nounwind
define { i8*, i64* } @_ZN4core3fmt10ArgumentV13new17hb2beae2a027d7513E(i64* align 8 dereferenceable(8) %x, i1 (i64*, %"std::fmt::Formatter"*)* nonnull %f) unnamed_addr #1 !dbg !972 {
start:
  %0 = alloca %"core::fmt::Opaque"*, align 8
  %1 = alloca i1 (%"core::fmt::Opaque"*, %"std::fmt::Formatter"*)*, align 8
  %f.dbg.spill = alloca i1 (i64*, %"std::fmt::Formatter"*)*, align 8
  %x.dbg.spill = alloca i64*, align 8
  %2 = alloca { i8*, i64* }, align 8
  store i64* %x, i64** %x.dbg.spill, align 8
  call void @llvm.dbg.declare(metadata i64** %x.dbg.spill, metadata !979, metadata !DIExpression()), !dbg !981
  store i1 (i64*, %"std::fmt::Formatter"*)* %f, i1 (i64*, %"std::fmt::Formatter"*)** %f.dbg.spill, align 8
  call void @llvm.dbg.declare(metadata i1 (i64*, %"std::fmt::Formatter"*)** %f.dbg.spill, metadata !980, metadata !DIExpression()), !dbg !982
  %3 = bitcast i1 (i64*, %"std::fmt::Formatter"*)* %f to i1 (%"core::fmt::Opaque"*, %"std::fmt::Formatter"*)*, !dbg !983
  store i1 (%"core::fmt::Opaque"*, %"std::fmt::Formatter"*)* %3, i1 (%"core::fmt::Opaque"*, %"std::fmt::Formatter"*)** %1, align 8, !dbg !983
  %_3 = load i1 (%"core::fmt::Opaque"*, %"std::fmt::Formatter"*)*, i1 (%"core::fmt::Opaque"*, %"std::fmt::Formatter"*)** %1, align 8, !dbg !983, !nonnull !4
  br label %bb1, !dbg !983

bb1:                                              ; preds = %start
  %4 = bitcast i64* %x to %"core::fmt::Opaque"*, !dbg !984
  store %"core::fmt::Opaque"* %4, %"core::fmt::Opaque"** %0, align 8, !dbg !984
  %_5 = load %"core::fmt::Opaque"*, %"core::fmt::Opaque"** %0, align 8, !dbg !984, !nonnull !4
  br label %bb2, !dbg !984

bb2:                                              ; preds = %bb1
  %5 = bitcast { i8*, i64* }* %2 to %"core::fmt::Opaque"**, !dbg !985
  store %"core::fmt::Opaque"* %_5, %"core::fmt::Opaque"** %5, align 8, !dbg !985
  %6 = getelementptr inbounds { i8*, i64* }, { i8*, i64* }* %2, i32 0, i32 1, !dbg !985
  %7 = bitcast i64** %6 to i1 (%"core::fmt::Opaque"*, %"std::fmt::Formatter"*)**, !dbg !985
  store i1 (%"core::fmt::Opaque"*, %"std::fmt::Formatter"*)* %_3, i1 (%"core::fmt::Opaque"*, %"std::fmt::Formatter"*)** %7, align 8, !dbg !985
  %8 = getelementptr inbounds { i8*, i64* }, { i8*, i64* }* %2, i32 0, i32 0, !dbg !986
  %9 = load i8*, i8** %8, align 8, !dbg !986, !nonnull !4
  %10 = getelementptr inbounds { i8*, i64* }, { i8*, i64* }* %2, i32 0, i32 1, !dbg !986
  %11 = load i64*, i64** %10, align 8, !dbg !986, !nonnull !4
  %12 = insertvalue { i8*, i64* } undef, i8* %9, 0, !dbg !986
  %13 = insertvalue { i8*, i64* } %12, i64* %11, 1, !dbg !986
  ret { i8*, i64* } %13, !dbg !986
}

; core::fmt::ArgumentV1::new
; Function Attrs: nounwind
define { i8*, i64* } @_ZN4core3fmt10ArgumentV13new17hca9c87ff4cc79f6eE(i8* align 1 dereferenceable(1) %x, i1 (i8*, %"std::fmt::Formatter"*)* nonnull %f) unnamed_addr #1 !dbg !987 {
start:
  %0 = alloca %"core::fmt::Opaque"*, align 8
  %1 = alloca i1 (%"core::fmt::Opaque"*, %"std::fmt::Formatter"*)*, align 8
  %f.dbg.spill = alloca i1 (i8*, %"std::fmt::Formatter"*)*, align 8
  %x.dbg.spill = alloca i8*, align 8
  %2 = alloca { i8*, i64* }, align 8
  store i8* %x, i8** %x.dbg.spill, align 8
  call void @llvm.dbg.declare(metadata i8** %x.dbg.spill, metadata !994, metadata !DIExpression()), !dbg !996
  store i1 (i8*, %"std::fmt::Formatter"*)* %f, i1 (i8*, %"std::fmt::Formatter"*)** %f.dbg.spill, align 8
  call void @llvm.dbg.declare(metadata i1 (i8*, %"std::fmt::Formatter"*)** %f.dbg.spill, metadata !995, metadata !DIExpression()), !dbg !997
  %3 = bitcast i1 (i8*, %"std::fmt::Formatter"*)* %f to i1 (%"core::fmt::Opaque"*, %"std::fmt::Formatter"*)*, !dbg !998
  store i1 (%"core::fmt::Opaque"*, %"std::fmt::Formatter"*)* %3, i1 (%"core::fmt::Opaque"*, %"std::fmt::Formatter"*)** %1, align 8, !dbg !998
  %_3 = load i1 (%"core::fmt::Opaque"*, %"std::fmt::Formatter"*)*, i1 (%"core::fmt::Opaque"*, %"std::fmt::Formatter"*)** %1, align 8, !dbg !998, !nonnull !4
  br label %bb1, !dbg !998

bb1:                                              ; preds = %start
  %4 = bitcast i8* %x to %"core::fmt::Opaque"*, !dbg !999
  store %"core::fmt::Opaque"* %4, %"core::fmt::Opaque"** %0, align 8, !dbg !999
  %_5 = load %"core::fmt::Opaque"*, %"core::fmt::Opaque"** %0, align 8, !dbg !999, !nonnull !4
  br label %bb2, !dbg !999

bb2:                                              ; preds = %bb1
  %5 = bitcast { i8*, i64* }* %2 to %"core::fmt::Opaque"**, !dbg !1000
  store %"core::fmt::Opaque"* %_5, %"core::fmt::Opaque"** %5, align 8, !dbg !1000
  %6 = getelementptr inbounds { i8*, i64* }, { i8*, i64* }* %2, i32 0, i32 1, !dbg !1000
  %7 = bitcast i64** %6 to i1 (%"core::fmt::Opaque"*, %"std::fmt::Formatter"*)**, !dbg !1000
  store i1 (%"core::fmt::Opaque"*, %"std::fmt::Formatter"*)* %_3, i1 (%"core::fmt::Opaque"*, %"std::fmt::Formatter"*)** %7, align 8, !dbg !1000
  %8 = getelementptr inbounds { i8*, i64* }, { i8*, i64* }* %2, i32 0, i32 0, !dbg !1001
  %9 = load i8*, i8** %8, align 8, !dbg !1001, !nonnull !4
  %10 = getelementptr inbounds { i8*, i64* }, { i8*, i64* }* %2, i32 0, i32 1, !dbg !1001
  %11 = load i64*, i64** %10, align 8, !dbg !1001, !nonnull !4
  %12 = insertvalue { i8*, i64* } undef, i8* %9, 0, !dbg !1001
  %13 = insertvalue { i8*, i64* } %12, i64* %11, 1, !dbg !1001
  ret { i8*, i64* } %13, !dbg !1001
}

; core::fmt::num::<impl core::fmt::Debug for u8>::fmt
; Function Attrs: inlinehint nounwind
define internal zeroext i1 @"_ZN4core3fmt3num49_$LT$impl$u20$core..fmt..Debug$u20$for$u20$u8$GT$3fmt17h6b4be609af0d5e66E"(i8* align 1 dereferenceable(1) %self, %"std::fmt::Formatter"* align 8 dereferenceable(64) %f) unnamed_addr #0 !dbg !1002 {
start:
  %f.dbg.spill = alloca %"std::fmt::Formatter"*, align 8
  %self.dbg.spill = alloca i8*, align 8
  %0 = alloca i8, align 1
  store i8* %self, i8** %self.dbg.spill, align 8
  call void @llvm.dbg.declare(metadata i8** %self.dbg.spill, metadata !1007, metadata !DIExpression()), !dbg !1009
  store %"std::fmt::Formatter"* %f, %"std::fmt::Formatter"** %f.dbg.spill, align 8
  call void @llvm.dbg.declare(metadata %"std::fmt::Formatter"** %f.dbg.spill, metadata !1008, metadata !DIExpression()), !dbg !1010
; call core::fmt::Formatter::debug_lower_hex
  %_3 = call zeroext i1 @_ZN4core3fmt9Formatter15debug_lower_hex17h636482c5eb85995eE(%"std::fmt::Formatter"* align 8 dereferenceable(64) %f), !dbg !1011
  br label %bb1, !dbg !1011

bb1:                                              ; preds = %start
  br i1 %_3, label %bb2, label %bb4, !dbg !1011

bb4:                                              ; preds = %bb1
; call core::fmt::Formatter::debug_upper_hex
  %_7 = call zeroext i1 @_ZN4core3fmt9Formatter15debug_upper_hex17habda22bb62de5f0bE(%"std::fmt::Formatter"* align 8 dereferenceable(64) %f), !dbg !1012
  br label %bb5, !dbg !1012

bb2:                                              ; preds = %bb1
; call core::fmt::num::<impl core::fmt::LowerHex for u8>::fmt
  %1 = call zeroext i1 @"_ZN4core3fmt3num52_$LT$impl$u20$core..fmt..LowerHex$u20$for$u20$u8$GT$3fmt17h52fce89fd538b8d7E"(i8* align 1 dereferenceable(1) %self, %"std::fmt::Formatter"* align 8 dereferenceable(64) %f), !dbg !1013
  %2 = zext i1 %1 to i8, !dbg !1013
  store i8 %2, i8* %0, align 1, !dbg !1013
  br label %bb3, !dbg !1013

bb3:                                              ; preds = %bb2
  br label %bb11, !dbg !1014

bb11:                                             ; preds = %bb10, %bb3
  %3 = load i8, i8* %0, align 1, !dbg !1015, !range !669
  %4 = trunc i8 %3 to i1, !dbg !1015
  ret i1 %4, !dbg !1015

bb5:                                              ; preds = %bb4
  br i1 %_7, label %bb6, label %bb8, !dbg !1012

bb8:                                              ; preds = %bb5
; call core::fmt::num::imp::<impl core::fmt::Display for u8>::fmt
  %5 = call zeroext i1 @"_ZN4core3fmt3num3imp51_$LT$impl$u20$core..fmt..Display$u20$for$u20$u8$GT$3fmt17hc42da508ea712cdeE"(i8* align 1 dereferenceable(1) %self, %"std::fmt::Formatter"* align 8 dereferenceable(64) %f), !dbg !1016
  %6 = zext i1 %5 to i8, !dbg !1016
  store i8 %6, i8* %0, align 1, !dbg !1016
  br label %bb9, !dbg !1016

bb6:                                              ; preds = %bb5
; call core::fmt::num::<impl core::fmt::UpperHex for u8>::fmt
  %7 = call zeroext i1 @"_ZN4core3fmt3num52_$LT$impl$u20$core..fmt..UpperHex$u20$for$u20$u8$GT$3fmt17h95190d87891fc6a4E"(i8* align 1 dereferenceable(1) %self, %"std::fmt::Formatter"* align 8 dereferenceable(64) %f), !dbg !1017
  %8 = zext i1 %7 to i8, !dbg !1017
  store i8 %8, i8* %0, align 1, !dbg !1017
  br label %bb7, !dbg !1017

bb7:                                              ; preds = %bb6
  br label %bb10, !dbg !1018

bb10:                                             ; preds = %bb9, %bb7
  br label %bb11, !dbg !1014

bb9:                                              ; preds = %bb8
  br label %bb10, !dbg !1018
}

; core::fmt::num::<impl core::fmt::Debug for usize>::fmt
; Function Attrs: inlinehint nounwind
define internal zeroext i1 @"_ZN4core3fmt3num52_$LT$impl$u20$core..fmt..Debug$u20$for$u20$usize$GT$3fmt17he41e7c5843afa2a8E"(i64* align 8 dereferenceable(8) %self, %"std::fmt::Formatter"* align 8 dereferenceable(64) %f) unnamed_addr #0 !dbg !1019 {
start:
  %f.dbg.spill = alloca %"std::fmt::Formatter"*, align 8
  %self.dbg.spill = alloca i64*, align 8
  %0 = alloca i8, align 1
  store i64* %self, i64** %self.dbg.spill, align 8
  call void @llvm.dbg.declare(metadata i64** %self.dbg.spill, metadata !1022, metadata !DIExpression()), !dbg !1024
  store %"std::fmt::Formatter"* %f, %"std::fmt::Formatter"** %f.dbg.spill, align 8
  call void @llvm.dbg.declare(metadata %"std::fmt::Formatter"** %f.dbg.spill, metadata !1023, metadata !DIExpression()), !dbg !1025
; call core::fmt::Formatter::debug_lower_hex
  %_3 = call zeroext i1 @_ZN4core3fmt9Formatter15debug_lower_hex17h636482c5eb85995eE(%"std::fmt::Formatter"* align 8 dereferenceable(64) %f), !dbg !1026
  br label %bb1, !dbg !1026

bb1:                                              ; preds = %start
  br i1 %_3, label %bb2, label %bb4, !dbg !1026

bb4:                                              ; preds = %bb1
; call core::fmt::Formatter::debug_upper_hex
  %_7 = call zeroext i1 @_ZN4core3fmt9Formatter15debug_upper_hex17habda22bb62de5f0bE(%"std::fmt::Formatter"* align 8 dereferenceable(64) %f), !dbg !1027
  br label %bb5, !dbg !1027

bb2:                                              ; preds = %bb1
; call core::fmt::num::<impl core::fmt::LowerHex for usize>::fmt
  %1 = call zeroext i1 @"_ZN4core3fmt3num55_$LT$impl$u20$core..fmt..LowerHex$u20$for$u20$usize$GT$3fmt17h1a12a50969152654E"(i64* align 8 dereferenceable(8) %self, %"std::fmt::Formatter"* align 8 dereferenceable(64) %f), !dbg !1028
  %2 = zext i1 %1 to i8, !dbg !1028
  store i8 %2, i8* %0, align 1, !dbg !1028
  br label %bb3, !dbg !1028

bb3:                                              ; preds = %bb2
  br label %bb11, !dbg !1029

bb11:                                             ; preds = %bb10, %bb3
  %3 = load i8, i8* %0, align 1, !dbg !1030, !range !669
  %4 = trunc i8 %3 to i1, !dbg !1030
  ret i1 %4, !dbg !1030

bb5:                                              ; preds = %bb4
  br i1 %_7, label %bb6, label %bb8, !dbg !1027

bb8:                                              ; preds = %bb5
; call core::fmt::num::imp::<impl core::fmt::Display for usize>::fmt
  %5 = call zeroext i1 @"_ZN4core3fmt3num3imp54_$LT$impl$u20$core..fmt..Display$u20$for$u20$usize$GT$3fmt17hcb6674a6899bd26aE"(i64* align 8 dereferenceable(8) %self, %"std::fmt::Formatter"* align 8 dereferenceable(64) %f), !dbg !1031
  %6 = zext i1 %5 to i8, !dbg !1031
  store i8 %6, i8* %0, align 1, !dbg !1031
  br label %bb9, !dbg !1031

bb6:                                              ; preds = %bb5
; call core::fmt::num::<impl core::fmt::UpperHex for usize>::fmt
  %7 = call zeroext i1 @"_ZN4core3fmt3num55_$LT$impl$u20$core..fmt..UpperHex$u20$for$u20$usize$GT$3fmt17h571918675fe47debE"(i64* align 8 dereferenceable(8) %self, %"std::fmt::Formatter"* align 8 dereferenceable(64) %f), !dbg !1032
  %8 = zext i1 %7 to i8, !dbg !1032
  store i8 %8, i8* %0, align 1, !dbg !1032
  br label %bb7, !dbg !1032

bb7:                                              ; preds = %bb6
  br label %bb10, !dbg !1033

bb10:                                             ; preds = %bb9, %bb7
  br label %bb11, !dbg !1029

bb9:                                              ; preds = %bb8
  br label %bb10, !dbg !1033
}

; core::fmt::Arguments::new_v1
; Function Attrs: inlinehint nounwind
define internal void @_ZN4core3fmt9Arguments6new_v117h610361d4e31c85f1E(%"std::fmt::Arguments"* noalias nocapture sret(%"std::fmt::Arguments") dereferenceable(48) %0, [0 x { [0 x i8]*, i64 }]* nonnull align 8 %pieces.0, i64 %pieces.1, [0 x { i8*, i64* }]* nonnull align 8 %args.0, i64 %args.1) unnamed_addr #0 !dbg !1034 {
start:
  %args.dbg.spill = alloca { [0 x { i8*, i64* }]*, i64 }, align 8
  %pieces.dbg.spill = alloca { [0 x { [0 x i8]*, i64 }]*, i64 }, align 8
  %_16 = alloca { i64*, i64 }, align 8
  %_3 = alloca i8, align 1
  %1 = getelementptr inbounds { [0 x { [0 x i8]*, i64 }]*, i64 }, { [0 x { [0 x i8]*, i64 }]*, i64 }* %pieces.dbg.spill, i32 0, i32 0
  store [0 x { [0 x i8]*, i64 }]* %pieces.0, [0 x { [0 x i8]*, i64 }]** %1, align 8
  %2 = getelementptr inbounds { [0 x { [0 x i8]*, i64 }]*, i64 }, { [0 x { [0 x i8]*, i64 }]*, i64 }* %pieces.dbg.spill, i32 0, i32 1
  store i64 %pieces.1, i64* %2, align 8
  call void @llvm.dbg.declare(metadata { [0 x { [0 x i8]*, i64 }]*, i64 }* %pieces.dbg.spill, metadata !1096, metadata !DIExpression()), !dbg !1098
  %3 = getelementptr inbounds { [0 x { i8*, i64* }]*, i64 }, { [0 x { i8*, i64* }]*, i64 }* %args.dbg.spill, i32 0, i32 0
  store [0 x { i8*, i64* }]* %args.0, [0 x { i8*, i64* }]** %3, align 8
  %4 = getelementptr inbounds { [0 x { i8*, i64* }]*, i64 }, { [0 x { i8*, i64* }]*, i64 }* %args.dbg.spill, i32 0, i32 1
  store i64 %args.1, i64* %4, align 8
  call void @llvm.dbg.declare(metadata { [0 x { i8*, i64* }]*, i64 }* %args.dbg.spill, metadata !1097, metadata !DIExpression()), !dbg !1099
  %_4 = icmp ult i64 %pieces.1, %args.1, !dbg !1100
  br i1 %_4, label %bb1, label %bb2, !dbg !1100

bb2:                                              ; preds = %start
  %_12 = add i64 %args.1, 1, !dbg !1101
  %_9 = icmp ugt i64 %pieces.1, %_12, !dbg !1102
  %5 = zext i1 %_9 to i8, !dbg !1100
  store i8 %5, i8* %_3, align 1, !dbg !1100
  br label %bb3, !dbg !1100

bb1:                                              ; preds = %start
  store i8 1, i8* %_3, align 1, !dbg !1100
  br label %bb3, !dbg !1100

bb3:                                              ; preds = %bb2, %bb1
  %6 = load i8, i8* %_3, align 1, !dbg !1100, !range !669
  %7 = trunc i8 %6 to i1, !dbg !1100
  br i1 %7, label %bb4, label %bb5, !dbg !1100

bb5:                                              ; preds = %bb3
  %8 = bitcast { i64*, i64 }* %_16 to {}**, !dbg !1103
  store {}* null, {}** %8, align 8, !dbg !1103
  %9 = bitcast %"std::fmt::Arguments"* %0 to { [0 x { [0 x i8]*, i64 }]*, i64 }*, !dbg !1104
  %10 = getelementptr inbounds { [0 x { [0 x i8]*, i64 }]*, i64 }, { [0 x { [0 x i8]*, i64 }]*, i64 }* %9, i32 0, i32 0, !dbg !1104
  store [0 x { [0 x i8]*, i64 }]* %pieces.0, [0 x { [0 x i8]*, i64 }]** %10, align 8, !dbg !1104
  %11 = getelementptr inbounds { [0 x { [0 x i8]*, i64 }]*, i64 }, { [0 x { [0 x i8]*, i64 }]*, i64 }* %9, i32 0, i32 1, !dbg !1104
  store i64 %pieces.1, i64* %11, align 8, !dbg !1104
  %12 = getelementptr inbounds %"std::fmt::Arguments", %"std::fmt::Arguments"* %0, i32 0, i32 1, !dbg !1104
  %13 = getelementptr inbounds { i64*, i64 }, { i64*, i64 }* %_16, i32 0, i32 0, !dbg !1104
  %14 = load i64*, i64** %13, align 8, !dbg !1104
  %15 = getelementptr inbounds { i64*, i64 }, { i64*, i64 }* %_16, i32 0, i32 1, !dbg !1104
  %16 = load i64, i64* %15, align 8, !dbg !1104
  %17 = getelementptr inbounds { i64*, i64 }, { i64*, i64 }* %12, i32 0, i32 0, !dbg !1104
  store i64* %14, i64** %17, align 8, !dbg !1104
  %18 = getelementptr inbounds { i64*, i64 }, { i64*, i64 }* %12, i32 0, i32 1, !dbg !1104
  store i64 %16, i64* %18, align 8, !dbg !1104
  %19 = getelementptr inbounds %"std::fmt::Arguments", %"std::fmt::Arguments"* %0, i32 0, i32 2, !dbg !1104
  %20 = getelementptr inbounds { [0 x { i8*, i64* }]*, i64 }, { [0 x { i8*, i64* }]*, i64 }* %19, i32 0, i32 0, !dbg !1104
  store [0 x { i8*, i64* }]* %args.0, [0 x { i8*, i64* }]** %20, align 8, !dbg !1104
  %21 = getelementptr inbounds { [0 x { i8*, i64* }]*, i64 }, { [0 x { i8*, i64* }]*, i64 }* %19, i32 0, i32 1, !dbg !1104
  store i64 %args.1, i64* %21, align 8, !dbg !1104
  ret void, !dbg !1105

bb4:                                              ; preds = %bb3
; call core::panicking::panic
  call void @_ZN4core9panicking5panic17h560e3e4b7752857aE([0 x i8]* nonnull align 1 bitcast (<{ [12 x i8] }>* @alloc587 to [0 x i8]*), i64 12, %"std::panic::Location"* align 8 dereferenceable(24) bitcast (<{ i8*, [16 x i8] }>* @alloc589 to %"std::panic::Location"*)), !dbg !1106
  unreachable, !dbg !1106
}

; core::mem::replace
; Function Attrs: inlinehint nounwind
define i64 @_ZN4core3mem7replace17h59dfc2df994720ceE(i64* align 8 dereferenceable(8) %dest, i64 %src) unnamed_addr #0 !dbg !1107 {
start:
  %result.dbg.spill = alloca i64, align 8
  %src.dbg.spill = alloca i64, align 8
  %dest.dbg.spill = alloca i64*, align 8
  store i64* %dest, i64** %dest.dbg.spill, align 8
  call void @llvm.dbg.declare(metadata i64** %dest.dbg.spill, metadata !1114, metadata !DIExpression()), !dbg !1118
  store i64 %src, i64* %src.dbg.spill, align 8
  call void @llvm.dbg.declare(metadata i64* %src.dbg.spill, metadata !1115, metadata !DIExpression()), !dbg !1119
; call core::ptr::read
  %result = call i64 @_ZN4core3ptr4read17hcc2213ce829579b8E(i64* %dest), !dbg !1120
  store i64 %result, i64* %result.dbg.spill, align 8, !dbg !1120
  call void @llvm.dbg.declare(metadata i64* %result.dbg.spill, metadata !1116, metadata !DIExpression()), !dbg !1121
  br label %bb1, !dbg !1120

bb1:                                              ; preds = %start
; call core::ptr::write
  call void @_ZN4core3ptr5write17hede3e19507b36777E(i64* %dest, i64 %src), !dbg !1122
  br label %bb2, !dbg !1122

bb2:                                              ; preds = %bb1
  ret i64 %result, !dbg !1123
}

; core::num::<impl u64>::from_be_bytes
; Function Attrs: inlinehint nounwind
define internal i64 @"_ZN4core3num21_$LT$impl$u20$u64$GT$13from_be_bytes17hf082046d9e109eaeE"(i64 %0) unnamed_addr #0 !dbg !1124 {
start:
  %1 = alloca i64, align 8
  %self.dbg.spill.i.i = alloca i64, align 8
  %x.dbg.spill.i = alloca i64, align 8
  %_3 = alloca [8 x i8], align 1
  %2 = alloca i64, align 8
  %bytes = alloca [8 x i8], align 1
  store i64 %0, i64* %2, align 8
  %3 = bitcast [8 x i8]* %bytes to i8*
  %4 = bitcast i64* %2 to i8*
  call void @llvm.memcpy.p0i8.p0i8.i64(i8* align 1 %3, i8* align 8 %4, i64 8, i1 false)
  call void @llvm.dbg.declare(metadata [8 x i8]* %bytes, metadata !1132, metadata !DIExpression()), !dbg !1133
  %5 = bitcast [8 x i8]* %_3 to i8*, !dbg !1134
  %6 = bitcast [8 x i8]* %bytes to i8*, !dbg !1134
  call void @llvm.memcpy.p0i8.p0i8.i64(i8* align 1 %5, i8* align 1 %6, i64 8, i1 false), !dbg !1134
  %7 = bitcast [8 x i8]* %_3 to i64*, !dbg !1135
  %8 = load i64, i64* %7, align 1, !dbg !1135
; call core::num::<impl u64>::from_ne_bytes
  %_2 = call i64 @"_ZN4core3num21_$LT$impl$u20$u64$GT$13from_ne_bytes17hdef0dfdb4bc9c615E"(i64 %8), !dbg !1135
  br label %bb1, !dbg !1135

bb1:                                              ; preds = %start
  store i64 %_2, i64* %x.dbg.spill.i, align 8
  call void @llvm.dbg.declare(metadata i64* %x.dbg.spill.i, metadata !1136, metadata !DIExpression()) #12, !dbg !1141
  store i64 %_2, i64* %self.dbg.spill.i.i, align 8
  call void @llvm.dbg.declare(metadata i64* %self.dbg.spill.i.i, metadata !1143, metadata !DIExpression()) #12, !dbg !1146
  %9 = call i64 @llvm.bswap.i64(i64 %_2) #12, !dbg !1148
  store i64 %9, i64* %1, align 8, !dbg !1148
  %10 = load i64, i64* %1, align 8, !dbg !1148
  br label %bb2, !dbg !1149

bb2:                                              ; preds = %bb1
  ret i64 %10, !dbg !1150
}

; core::num::<impl u64>::from_ne_bytes
; Function Attrs: inlinehint nounwind
define internal i64 @"_ZN4core3num21_$LT$impl$u20$u64$GT$13from_ne_bytes17hdef0dfdb4bc9c615E"(i64 %0) unnamed_addr #0 !dbg !1151 {
start:
  %1 = alloca i64, align 8
  %_2 = alloca [8 x i8], align 1
  %2 = alloca i64, align 8
  %bytes = alloca [8 x i8], align 1
  store i64 %0, i64* %2, align 8
  %3 = bitcast [8 x i8]* %bytes to i8*
  %4 = bitcast i64* %2 to i8*
  call void @llvm.memcpy.p0i8.p0i8.i64(i8* align 1 %3, i8* align 8 %4, i64 8, i1 false)
  call void @llvm.dbg.declare(metadata [8 x i8]* %bytes, metadata !1153, metadata !DIExpression()), !dbg !1154
  %5 = bitcast [8 x i8]* %_2 to i8*, !dbg !1155
  %6 = bitcast [8 x i8]* %bytes to i8*, !dbg !1155
  call void @llvm.memcpy.p0i8.p0i8.i64(i8* align 1 %5, i8* align 1 %6, i64 8, i1 false), !dbg !1155
  %7 = bitcast i64* %1 to [8 x i8]*, !dbg !1156
  %8 = bitcast [8 x i8]* %7 to i8*, !dbg !1156
  %9 = bitcast [8 x i8]* %_2 to i8*, !dbg !1156
  call void @llvm.memcpy.p0i8.p0i8.i64(i8* align 1 %8, i8* align 1 %9, i64 8, i1 false), !dbg !1156
  %10 = load i64, i64* %1, align 8, !dbg !1156
  br label %bb1, !dbg !1156

bb1:                                              ; preds = %start
  ret i64 %10, !dbg !1157
}

; core::num::<impl usize>::checked_add
; Function Attrs: inlinehint nounwind
define internal { i64, i64 } @"_ZN4core3num23_$LT$impl$u20$usize$GT$11checked_add17h3bb747dde23de7d8E"(i64 %self, i64 %rhs) unnamed_addr #0 !dbg !1158 {
start:
  %b.dbg.spill.i = alloca i8, align 1
  %a.dbg.spill.i = alloca i64, align 8
  %0 = alloca { i64, i8 }, align 8
  %rhs.dbg.spill.i = alloca i64, align 8
  %self.dbg.spill.i = alloca i64, align 8
  %1 = alloca { i64, i8 }, align 8
  %2 = alloca i8, align 1
  %b.dbg.spill = alloca i8, align 1
  %a.dbg.spill = alloca i64, align 8
  %rhs.dbg.spill = alloca i64, align 8
  %self.dbg.spill = alloca i64, align 8
  %3 = alloca { i64, i64 }, align 8
  store i64 %self, i64* %self.dbg.spill, align 8
  call void @llvm.dbg.declare(metadata i64* %self.dbg.spill, metadata !1162, metadata !DIExpression()), !dbg !1167
  store i64 %rhs, i64* %rhs.dbg.spill, align 8
  call void @llvm.dbg.declare(metadata i64* %rhs.dbg.spill, metadata !1163, metadata !DIExpression()), !dbg !1168
  store i64 %self, i64* %self.dbg.spill.i, align 8
  call void @llvm.dbg.declare(metadata i64* %self.dbg.spill.i, metadata !1169, metadata !DIExpression()) #12, !dbg !1182
  store i64 %rhs, i64* %rhs.dbg.spill.i, align 8
  call void @llvm.dbg.declare(metadata i64* %rhs.dbg.spill.i, metadata !1178, metadata !DIExpression()) #12, !dbg !1184
  %4 = call { i64, i1 } @llvm.uadd.with.overflow.i64(i64 %self, i64 %rhs) #12, !dbg !1185
  %5 = extractvalue { i64, i1 } %4, 0, !dbg !1185
  %6 = extractvalue { i64, i1 } %4, 1, !dbg !1185
  %7 = zext i1 %6 to i8, !dbg !1185
  %8 = bitcast { i64, i8 }* %0 to i64*, !dbg !1185
  store i64 %5, i64* %8, align 8, !dbg !1185
  %9 = getelementptr inbounds { i64, i8 }, { i64, i8 }* %0, i32 0, i32 1, !dbg !1185
  store i8 %7, i8* %9, align 8, !dbg !1185
  %10 = getelementptr inbounds { i64, i8 }, { i64, i8 }* %0, i32 0, i32 0, !dbg !1185
  %_5.0.i = load i64, i64* %10, align 8, !dbg !1185
  %11 = getelementptr inbounds { i64, i8 }, { i64, i8 }* %0, i32 0, i32 1, !dbg !1185
  %12 = load i8, i8* %11, align 8, !dbg !1185, !range !669
  %_5.1.i = trunc i8 %12 to i1, !dbg !1185
  store i64 %_5.0.i, i64* %a.dbg.spill.i, align 8, !dbg !1186
  call void @llvm.dbg.declare(metadata i64* %a.dbg.spill.i, metadata !1179, metadata !DIExpression()) #12, !dbg !1187
  %13 = zext i1 %_5.1.i to i8, !dbg !1188
  store i8 %13, i8* %b.dbg.spill.i, align 1, !dbg !1188
  call void @llvm.dbg.declare(metadata i8* %b.dbg.spill.i, metadata !1181, metadata !DIExpression()) #12, !dbg !1189
  %14 = bitcast { i64, i8 }* %1 to i64*, !dbg !1190
  store i64 %_5.0.i, i64* %14, align 8, !dbg !1190
  %15 = getelementptr inbounds { i64, i8 }, { i64, i8 }* %1, i32 0, i32 1, !dbg !1190
  %16 = zext i1 %_5.1.i to i8, !dbg !1190
  store i8 %16, i8* %15, align 8, !dbg !1190
  %17 = getelementptr inbounds { i64, i8 }, { i64, i8 }* %1, i32 0, i32 0, !dbg !1191
  %18 = load i64, i64* %17, align 8, !dbg !1191
  %19 = getelementptr inbounds { i64, i8 }, { i64, i8 }* %1, i32 0, i32 1, !dbg !1191
  %20 = load i8, i8* %19, align 8, !dbg !1191, !range !669
  %21 = trunc i8 %20 to i1, !dbg !1191
  %22 = zext i1 %21 to i8, !dbg !1191
  %23 = insertvalue { i64, i8 } undef, i64 %18, 0, !dbg !1191
  %24 = insertvalue { i64, i8 } %23, i8 %22, 1, !dbg !1191
  %_5.0 = extractvalue { i64, i8 } %24, 0, !dbg !1192
  %25 = extractvalue { i64, i8 } %24, 1, !dbg !1192
  %_5.1 = trunc i8 %25 to i1, !dbg !1192
  br label %bb1, !dbg !1192

bb1:                                              ; preds = %start
  store i64 %_5.0, i64* %a.dbg.spill, align 8, !dbg !1193
  call void @llvm.dbg.declare(metadata i64* %a.dbg.spill, metadata !1164, metadata !DIExpression()), !dbg !1194
  %26 = zext i1 %_5.1 to i8, !dbg !1195
  store i8 %26, i8* %b.dbg.spill, align 1, !dbg !1195
  call void @llvm.dbg.declare(metadata i8* %b.dbg.spill, metadata !1166, metadata !DIExpression()), !dbg !1196
  %27 = call i1 @llvm.expect.i1(i1 %_5.1, i1 false), !dbg !1197
  %28 = zext i1 %27 to i8, !dbg !1197
  store i8 %28, i8* %2, align 1, !dbg !1197
  %29 = load i8, i8* %2, align 1, !dbg !1197, !range !669
  %_8 = trunc i8 %29 to i1, !dbg !1197
  br label %bb2, !dbg !1197

bb2:                                              ; preds = %bb1
  br i1 %_8, label %bb3, label %bb4, !dbg !1197

bb4:                                              ; preds = %bb2
  %30 = bitcast { i64, i64 }* %3 to %"std::option::Option<usize>::Some"*, !dbg !1198
  %31 = getelementptr inbounds %"std::option::Option<usize>::Some", %"std::option::Option<usize>::Some"* %30, i32 0, i32 1, !dbg !1198
  store i64 %_5.0, i64* %31, align 8, !dbg !1198
  %32 = bitcast { i64, i64 }* %3 to i64*, !dbg !1198
  store i64 1, i64* %32, align 8, !dbg !1198
  br label %bb5, !dbg !1199

bb3:                                              ; preds = %bb2
  %33 = bitcast { i64, i64 }* %3 to i64*, !dbg !1200
  store i64 0, i64* %33, align 8, !dbg !1200
  br label %bb5, !dbg !1199

bb5:                                              ; preds = %bb4, %bb3
  %34 = getelementptr inbounds { i64, i64 }, { i64, i64 }* %3, i32 0, i32 0, !dbg !1201
  %35 = load i64, i64* %34, align 8, !dbg !1201, !range !1202
  %36 = getelementptr inbounds { i64, i64 }, { i64, i64 }* %3, i32 0, i32 1, !dbg !1201
  %37 = load i64, i64* %36, align 8, !dbg !1201
  %38 = insertvalue { i64, i64 } undef, i64 %35, 0, !dbg !1201
  %39 = insertvalue { i64, i64 } %38, i64 %37, 1, !dbg !1201
  ret { i64, i64 } %39, !dbg !1201
}

; core::num::<impl usize>::checked_mul
; Function Attrs: inlinehint nounwind
define internal { i64, i64 } @"_ZN4core3num23_$LT$impl$u20$usize$GT$11checked_mul17hd802f3514088ff87E"(i64 %self, i64 %rhs) unnamed_addr #0 !dbg !1203 {
start:
  %b.dbg.spill.i = alloca i8, align 1
  %a.dbg.spill.i = alloca i64, align 8
  %0 = alloca { i64, i8 }, align 8
  %rhs.dbg.spill.i = alloca i64, align 8
  %self.dbg.spill.i = alloca i64, align 8
  %1 = alloca { i64, i8 }, align 8
  %2 = alloca i8, align 1
  %b.dbg.spill = alloca i8, align 1
  %a.dbg.spill = alloca i64, align 8
  %rhs.dbg.spill = alloca i64, align 8
  %self.dbg.spill = alloca i64, align 8
  %3 = alloca { i64, i64 }, align 8
  store i64 %self, i64* %self.dbg.spill, align 8
  call void @llvm.dbg.declare(metadata i64* %self.dbg.spill, metadata !1205, metadata !DIExpression()), !dbg !1210
  store i64 %rhs, i64* %rhs.dbg.spill, align 8
  call void @llvm.dbg.declare(metadata i64* %rhs.dbg.spill, metadata !1206, metadata !DIExpression()), !dbg !1211
  store i64 %self, i64* %self.dbg.spill.i, align 8
  call void @llvm.dbg.declare(metadata i64* %self.dbg.spill.i, metadata !1212, metadata !DIExpression()) #12, !dbg !1219
  store i64 %rhs, i64* %rhs.dbg.spill.i, align 8
  call void @llvm.dbg.declare(metadata i64* %rhs.dbg.spill.i, metadata !1215, metadata !DIExpression()) #12, !dbg !1221
  %4 = call { i64, i1 } @llvm.umul.with.overflow.i64(i64 %self, i64 %rhs) #12, !dbg !1222
  %5 = extractvalue { i64, i1 } %4, 0, !dbg !1222
  %6 = extractvalue { i64, i1 } %4, 1, !dbg !1222
  %7 = zext i1 %6 to i8, !dbg !1222
  %8 = bitcast { i64, i8 }* %0 to i64*, !dbg !1222
  store i64 %5, i64* %8, align 8, !dbg !1222
  %9 = getelementptr inbounds { i64, i8 }, { i64, i8 }* %0, i32 0, i32 1, !dbg !1222
  store i8 %7, i8* %9, align 8, !dbg !1222
  %10 = getelementptr inbounds { i64, i8 }, { i64, i8 }* %0, i32 0, i32 0, !dbg !1222
  %_5.0.i = load i64, i64* %10, align 8, !dbg !1222
  %11 = getelementptr inbounds { i64, i8 }, { i64, i8 }* %0, i32 0, i32 1, !dbg !1222
  %12 = load i8, i8* %11, align 8, !dbg !1222, !range !669
  %_5.1.i = trunc i8 %12 to i1, !dbg !1222
  store i64 %_5.0.i, i64* %a.dbg.spill.i, align 8, !dbg !1223
  call void @llvm.dbg.declare(metadata i64* %a.dbg.spill.i, metadata !1216, metadata !DIExpression()) #12, !dbg !1224
  %13 = zext i1 %_5.1.i to i8, !dbg !1225
  store i8 %13, i8* %b.dbg.spill.i, align 1, !dbg !1225
  call void @llvm.dbg.declare(metadata i8* %b.dbg.spill.i, metadata !1218, metadata !DIExpression()) #12, !dbg !1226
  %14 = bitcast { i64, i8 }* %1 to i64*, !dbg !1227
  store i64 %_5.0.i, i64* %14, align 8, !dbg !1227
  %15 = getelementptr inbounds { i64, i8 }, { i64, i8 }* %1, i32 0, i32 1, !dbg !1227
  %16 = zext i1 %_5.1.i to i8, !dbg !1227
  store i8 %16, i8* %15, align 8, !dbg !1227
  %17 = getelementptr inbounds { i64, i8 }, { i64, i8 }* %1, i32 0, i32 0, !dbg !1228
  %18 = load i64, i64* %17, align 8, !dbg !1228
  %19 = getelementptr inbounds { i64, i8 }, { i64, i8 }* %1, i32 0, i32 1, !dbg !1228
  %20 = load i8, i8* %19, align 8, !dbg !1228, !range !669
  %21 = trunc i8 %20 to i1, !dbg !1228
  %22 = zext i1 %21 to i8, !dbg !1228
  %23 = insertvalue { i64, i8 } undef, i64 %18, 0, !dbg !1228
  %24 = insertvalue { i64, i8 } %23, i8 %22, 1, !dbg !1228
  %_5.0 = extractvalue { i64, i8 } %24, 0, !dbg !1229
  %25 = extractvalue { i64, i8 } %24, 1, !dbg !1229
  %_5.1 = trunc i8 %25 to i1, !dbg !1229
  br label %bb1, !dbg !1229

bb1:                                              ; preds = %start
  store i64 %_5.0, i64* %a.dbg.spill, align 8, !dbg !1230
  call void @llvm.dbg.declare(metadata i64* %a.dbg.spill, metadata !1207, metadata !DIExpression()), !dbg !1231
  %26 = zext i1 %_5.1 to i8, !dbg !1232
  store i8 %26, i8* %b.dbg.spill, align 1, !dbg !1232
  call void @llvm.dbg.declare(metadata i8* %b.dbg.spill, metadata !1209, metadata !DIExpression()), !dbg !1233
  %27 = call i1 @llvm.expect.i1(i1 %_5.1, i1 false), !dbg !1234
  %28 = zext i1 %27 to i8, !dbg !1234
  store i8 %28, i8* %2, align 1, !dbg !1234
  %29 = load i8, i8* %2, align 1, !dbg !1234, !range !669
  %_8 = trunc i8 %29 to i1, !dbg !1234
  br label %bb2, !dbg !1234

bb2:                                              ; preds = %bb1
  br i1 %_8, label %bb3, label %bb4, !dbg !1234

bb4:                                              ; preds = %bb2
  %30 = bitcast { i64, i64 }* %3 to %"std::option::Option<usize>::Some"*, !dbg !1235
  %31 = getelementptr inbounds %"std::option::Option<usize>::Some", %"std::option::Option<usize>::Some"* %30, i32 0, i32 1, !dbg !1235
  store i64 %_5.0, i64* %31, align 8, !dbg !1235
  %32 = bitcast { i64, i64 }* %3 to i64*, !dbg !1235
  store i64 1, i64* %32, align 8, !dbg !1235
  br label %bb5, !dbg !1236

bb3:                                              ; preds = %bb2
  %33 = bitcast { i64, i64 }* %3 to i64*, !dbg !1237
  store i64 0, i64* %33, align 8, !dbg !1237
  br label %bb5, !dbg !1236

bb5:                                              ; preds = %bb4, %bb3
  %34 = getelementptr inbounds { i64, i64 }, { i64, i64 }* %3, i32 0, i32 0, !dbg !1238
  %35 = load i64, i64* %34, align 8, !dbg !1238, !range !1202
  %36 = getelementptr inbounds { i64, i64 }, { i64, i64 }* %3, i32 0, i32 1, !dbg !1238
  %37 = load i64, i64* %36, align 8, !dbg !1238
  %38 = insertvalue { i64, i64 } undef, i64 %35, 0, !dbg !1238
  %39 = insertvalue { i64, i64 } %38, i64 %37, 1, !dbg !1238
  ret { i64, i64 } %39, !dbg !1238
}

; core::num::<impl usize>::checked_sub
; Function Attrs: inlinehint nounwind
define internal { i64, i64 } @"_ZN4core3num23_$LT$impl$u20$usize$GT$11checked_sub17h86f2db25a39a5439E"(i64 %self, i64 %rhs) unnamed_addr #0 !dbg !1239 {
start:
  %b.dbg.spill.i = alloca i8, align 1
  %a.dbg.spill.i = alloca i64, align 8
  %0 = alloca { i64, i8 }, align 8
  %rhs.dbg.spill.i = alloca i64, align 8
  %self.dbg.spill.i = alloca i64, align 8
  %1 = alloca { i64, i8 }, align 8
  %2 = alloca i8, align 1
  %b.dbg.spill = alloca i8, align 1
  %a.dbg.spill = alloca i64, align 8
  %rhs.dbg.spill = alloca i64, align 8
  %self.dbg.spill = alloca i64, align 8
  %3 = alloca { i64, i64 }, align 8
  store i64 %self, i64* %self.dbg.spill, align 8
  call void @llvm.dbg.declare(metadata i64* %self.dbg.spill, metadata !1241, metadata !DIExpression()), !dbg !1246
  store i64 %rhs, i64* %rhs.dbg.spill, align 8
  call void @llvm.dbg.declare(metadata i64* %rhs.dbg.spill, metadata !1242, metadata !DIExpression()), !dbg !1247
  store i64 %self, i64* %self.dbg.spill.i, align 8
  call void @llvm.dbg.declare(metadata i64* %self.dbg.spill.i, metadata !1248, metadata !DIExpression()) #12, !dbg !1255
  store i64 %rhs, i64* %rhs.dbg.spill.i, align 8
  call void @llvm.dbg.declare(metadata i64* %rhs.dbg.spill.i, metadata !1251, metadata !DIExpression()) #12, !dbg !1257
  %4 = call { i64, i1 } @llvm.usub.with.overflow.i64(i64 %self, i64 %rhs) #12, !dbg !1258
  %5 = extractvalue { i64, i1 } %4, 0, !dbg !1258
  %6 = extractvalue { i64, i1 } %4, 1, !dbg !1258
  %7 = zext i1 %6 to i8, !dbg !1258
  %8 = bitcast { i64, i8 }* %0 to i64*, !dbg !1258
  store i64 %5, i64* %8, align 8, !dbg !1258
  %9 = getelementptr inbounds { i64, i8 }, { i64, i8 }* %0, i32 0, i32 1, !dbg !1258
  store i8 %7, i8* %9, align 8, !dbg !1258
  %10 = getelementptr inbounds { i64, i8 }, { i64, i8 }* %0, i32 0, i32 0, !dbg !1258
  %_5.0.i = load i64, i64* %10, align 8, !dbg !1258
  %11 = getelementptr inbounds { i64, i8 }, { i64, i8 }* %0, i32 0, i32 1, !dbg !1258
  %12 = load i8, i8* %11, align 8, !dbg !1258, !range !669
  %_5.1.i = trunc i8 %12 to i1, !dbg !1258
  store i64 %_5.0.i, i64* %a.dbg.spill.i, align 8, !dbg !1259
  call void @llvm.dbg.declare(metadata i64* %a.dbg.spill.i, metadata !1252, metadata !DIExpression()) #12, !dbg !1260
  %13 = zext i1 %_5.1.i to i8, !dbg !1261
  store i8 %13, i8* %b.dbg.spill.i, align 1, !dbg !1261
  call void @llvm.dbg.declare(metadata i8* %b.dbg.spill.i, metadata !1254, metadata !DIExpression()) #12, !dbg !1262
  %14 = bitcast { i64, i8 }* %1 to i64*, !dbg !1263
  store i64 %_5.0.i, i64* %14, align 8, !dbg !1263
  %15 = getelementptr inbounds { i64, i8 }, { i64, i8 }* %1, i32 0, i32 1, !dbg !1263
  %16 = zext i1 %_5.1.i to i8, !dbg !1263
  store i8 %16, i8* %15, align 8, !dbg !1263
  %17 = getelementptr inbounds { i64, i8 }, { i64, i8 }* %1, i32 0, i32 0, !dbg !1264
  %18 = load i64, i64* %17, align 8, !dbg !1264
  %19 = getelementptr inbounds { i64, i8 }, { i64, i8 }* %1, i32 0, i32 1, !dbg !1264
  %20 = load i8, i8* %19, align 8, !dbg !1264, !range !669
  %21 = trunc i8 %20 to i1, !dbg !1264
  %22 = zext i1 %21 to i8, !dbg !1264
  %23 = insertvalue { i64, i8 } undef, i64 %18, 0, !dbg !1264
  %24 = insertvalue { i64, i8 } %23, i8 %22, 1, !dbg !1264
  %_5.0 = extractvalue { i64, i8 } %24, 0, !dbg !1265
  %25 = extractvalue { i64, i8 } %24, 1, !dbg !1265
  %_5.1 = trunc i8 %25 to i1, !dbg !1265
  br label %bb1, !dbg !1265

bb1:                                              ; preds = %start
  store i64 %_5.0, i64* %a.dbg.spill, align 8, !dbg !1266
  call void @llvm.dbg.declare(metadata i64* %a.dbg.spill, metadata !1243, metadata !DIExpression()), !dbg !1267
  %26 = zext i1 %_5.1 to i8, !dbg !1268
  store i8 %26, i8* %b.dbg.spill, align 1, !dbg !1268
  call void @llvm.dbg.declare(metadata i8* %b.dbg.spill, metadata !1245, metadata !DIExpression()), !dbg !1269
  %27 = call i1 @llvm.expect.i1(i1 %_5.1, i1 false), !dbg !1270
  %28 = zext i1 %27 to i8, !dbg !1270
  store i8 %28, i8* %2, align 1, !dbg !1270
  %29 = load i8, i8* %2, align 1, !dbg !1270, !range !669
  %_8 = trunc i8 %29 to i1, !dbg !1270
  br label %bb2, !dbg !1270

bb2:                                              ; preds = %bb1
  br i1 %_8, label %bb3, label %bb4, !dbg !1270

bb4:                                              ; preds = %bb2
  %30 = bitcast { i64, i64 }* %3 to %"std::option::Option<usize>::Some"*, !dbg !1271
  %31 = getelementptr inbounds %"std::option::Option<usize>::Some", %"std::option::Option<usize>::Some"* %30, i32 0, i32 1, !dbg !1271
  store i64 %_5.0, i64* %31, align 8, !dbg !1271
  %32 = bitcast { i64, i64 }* %3 to i64*, !dbg !1271
  store i64 1, i64* %32, align 8, !dbg !1271
  br label %bb5, !dbg !1272

bb3:                                              ; preds = %bb2
  %33 = bitcast { i64, i64 }* %3 to i64*, !dbg !1273
  store i64 0, i64* %33, align 8, !dbg !1273
  br label %bb5, !dbg !1272

bb5:                                              ; preds = %bb4, %bb3
  %34 = getelementptr inbounds { i64, i64 }, { i64, i64 }* %3, i32 0, i32 0, !dbg !1274
  %35 = load i64, i64* %34, align 8, !dbg !1274, !range !1202
  %36 = getelementptr inbounds { i64, i64 }, { i64, i64 }* %3, i32 0, i32 1, !dbg !1274
  %37 = load i64, i64* %36, align 8, !dbg !1274
  %38 = insertvalue { i64, i64 } undef, i64 %35, 0, !dbg !1274
  %39 = insertvalue { i64, i64 } %38, i64 %37, 1, !dbg !1274
  ret { i64, i64 } %39, !dbg !1274
}

; core::num::nonzero::NonZeroUsize::new_unchecked
; Function Attrs: inlinehint nounwind
define internal i64 @_ZN4core3num7nonzero12NonZeroUsize13new_unchecked17hd28c89d6839f40a2E(i64 %n) unnamed_addr #0 !dbg !1275 {
start:
  %n.dbg.spill = alloca i64, align 8
  %0 = alloca i64, align 8
  store i64 %n, i64* %n.dbg.spill, align 8
  call void @llvm.dbg.declare(metadata i64* %n.dbg.spill, metadata !1280, metadata !DIExpression()), !dbg !1281
  store i64 %n, i64* %0, align 8, !dbg !1282
  %1 = load i64, i64* %0, align 8, !dbg !1283, !range !1284
  ret i64 %1, !dbg !1283
}

; core::num::nonzero::NonZeroUsize::get
; Function Attrs: inlinehint nounwind
define internal i64 @_ZN4core3num7nonzero12NonZeroUsize3get17h458dba242e4aeebbE(i64 %self) unnamed_addr #0 !dbg !1285 {
start:
  %self.dbg.spill = alloca i64, align 8
  store i64 %self, i64* %self.dbg.spill, align 8
  call void @llvm.dbg.declare(metadata i64* %self.dbg.spill, metadata !1289, metadata !DIExpression()), !dbg !1290
  ret i64 %self, !dbg !1291
}

; core::ops::function::FnOnce::call_once
; Function Attrs: inlinehint nounwind
define internal i8 @_ZN4core3ops8function6FnOnce9call_once17h64bb9e7959e17e58E(i64* align 8 dereferenceable(8) %0, i64* align 8 dereferenceable(8) %1) unnamed_addr #0 !dbg !1292 {
start:
  %_1.dbg.spill = alloca {}, align 1
  %_2 = alloca { i64*, i64* }, align 8
  %2 = bitcast { i64*, i64* }* %_2 to i64**
  store i64* %0, i64** %2, align 8
  %3 = getelementptr inbounds { i64*, i64* }, { i64*, i64* }* %_2, i32 0, i32 1
  store i64* %1, i64** %3, align 8
  call void @llvm.dbg.declare(metadata {}* %_1.dbg.spill, metadata !1299, metadata !DIExpression()), !dbg !1308
  call void @llvm.dbg.declare(metadata { i64*, i64* }* %_2, metadata !1300, metadata !DIExpression()), !dbg !1308
  %4 = bitcast { i64*, i64* }* %_2 to i64**, !dbg !1308
  %5 = load i64*, i64** %4, align 8, !dbg !1308, !nonnull !4
  %6 = getelementptr inbounds { i64*, i64* }, { i64*, i64* }* %_2, i32 0, i32 1, !dbg !1308
  %7 = load i64*, i64** %6, align 8, !dbg !1308, !nonnull !4
; call core::cmp::impls::<impl core::cmp::Ord for usize>::cmp
  %8 = call i8 @"_ZN4core3cmp5impls50_$LT$impl$u20$core..cmp..Ord$u20$for$u20$usize$GT$3cmp17he9d47f91f55bfd10E"(i64* align 8 dereferenceable(8) %5, i64* align 8 dereferenceable(8) %7), !dbg !1308, !range !899
  br label %bb1, !dbg !1308

bb1:                                              ; preds = %start
  ret i8 %8, !dbg !1308
}

; core::ptr::slice_from_raw_parts
; Function Attrs: inlinehint nounwind
define { [0 x i8]*, i64 } @_ZN4core3ptr20slice_from_raw_parts17hff1b586a1ad451d5E(i8* %data, i64 %len) unnamed_addr #0 !dbg !1309 {
start:
  %len.dbg.spill = alloca i64, align 8
  %data.dbg.spill = alloca i8*, align 8
  store i8* %data, i8** %data.dbg.spill, align 8
  call void @llvm.dbg.declare(metadata i8** %data.dbg.spill, metadata !1314, metadata !DIExpression()), !dbg !1316
  store i64 %len, i64* %len.dbg.spill, align 8
  call void @llvm.dbg.declare(metadata i64* %len.dbg.spill, metadata !1315, metadata !DIExpression()), !dbg !1317
; call core::ptr::const_ptr::<impl *const T>::cast
  %_3 = call {}* @"_ZN4core3ptr9const_ptr33_$LT$impl$u20$$BP$const$u20$T$GT$4cast17hd10c413d61c24af9E"(i8* %data), !dbg !1318
  br label %bb1, !dbg !1318

bb1:                                              ; preds = %start
; call core::ptr::metadata::from_raw_parts
  %0 = call { [0 x i8]*, i64 } @_ZN4core3ptr8metadata14from_raw_parts17h2cacccae7c77a293E({}* %_3, i64 %len), !dbg !1319
  %1 = extractvalue { [0 x i8]*, i64 } %0, 0, !dbg !1319
  %2 = extractvalue { [0 x i8]*, i64 } %0, 1, !dbg !1319
  br label %bb2, !dbg !1319

bb2:                                              ; preds = %bb1
  %3 = insertvalue { [0 x i8]*, i64 } undef, [0 x i8]* %1, 0, !dbg !1320
  %4 = insertvalue { [0 x i8]*, i64 } %3, i64 %2, 1, !dbg !1320
  ret { [0 x i8]*, i64 } %4, !dbg !1320
}

; core::ptr::slice_from_raw_parts_mut
; Function Attrs: inlinehint nounwind
define { [0 x i8]*, i64 } @_ZN4core3ptr24slice_from_raw_parts_mut17h808069bf2fa712efE(i8* %data, i64 %len) unnamed_addr #0 !dbg !1321 {
start:
  %self.dbg.spill.i = alloca i8*, align 8
  %len.dbg.spill = alloca i64, align 8
  %data.dbg.spill = alloca i8*, align 8
  store i8* %data, i8** %data.dbg.spill, align 8
  call void @llvm.dbg.declare(metadata i8** %data.dbg.spill, metadata !1325, metadata !DIExpression()), !dbg !1327
  store i64 %len, i64* %len.dbg.spill, align 8
  call void @llvm.dbg.declare(metadata i64* %len.dbg.spill, metadata !1326, metadata !DIExpression()), !dbg !1328
  store i8* %data, i8** %self.dbg.spill.i, align 8
  call void @llvm.dbg.declare(metadata i8** %self.dbg.spill.i, metadata !1329, metadata !DIExpression()), !dbg !1337
  %0 = bitcast i8* %data to {}*, !dbg !1339
  br label %bb1, !dbg !1340

bb1:                                              ; preds = %start
; call core::ptr::metadata::from_raw_parts_mut
  %1 = call { [0 x i8]*, i64 } @_ZN4core3ptr8metadata18from_raw_parts_mut17h61252ae899d7367cE({}* %0, i64 %len), !dbg !1341
  %2 = extractvalue { [0 x i8]*, i64 } %1, 0, !dbg !1341
  %3 = extractvalue { [0 x i8]*, i64 } %1, 1, !dbg !1341
  br label %bb2, !dbg !1341

bb2:                                              ; preds = %bb1
  %4 = insertvalue { [0 x i8]*, i64 } undef, [0 x i8]* %2, 0, !dbg !1342
  %5 = insertvalue { [0 x i8]*, i64 } %4, i64 %3, 1, !dbg !1342
  ret { [0 x i8]*, i64 } %5, !dbg !1342
}

; core::ptr::drop_in_place<&u8>
; Function Attrs: inlinehint nounwind
define internal void @"_ZN4core3ptr27drop_in_place$LT$$RF$u8$GT$17h2747f93badf96cc3E"(i8** %_1) unnamed_addr #0 !dbg !1343 {
start:
  %_1.dbg.spill = alloca i8**, align 8
  store i8** %_1, i8*** %_1.dbg.spill, align 8
  call void @llvm.dbg.declare(metadata i8*** %_1.dbg.spill, metadata !1348, metadata !DIExpression()), !dbg !1349
  ret void, !dbg !1349
}

; core::ptr::drop_in_place<&bool>
; Function Attrs: inlinehint nounwind
define internal void @"_ZN4core3ptr29drop_in_place$LT$$RF$bool$GT$17he29f517b582b2d4aE"(i8** %_1) unnamed_addr #0 !dbg !1350 {
start:
  %_1.dbg.spill = alloca i8**, align 8
  store i8** %_1, i8*** %_1.dbg.spill, align 8
  call void @llvm.dbg.declare(metadata i8*** %_1.dbg.spill, metadata !1355, metadata !DIExpression()), !dbg !1358
  ret void, !dbg !1358
}

; core::ptr::drop_in_place<&usize>
; Function Attrs: inlinehint nounwind
define internal void @"_ZN4core3ptr30drop_in_place$LT$$RF$usize$GT$17h644d93ab1f04cae5E"(i64** %_1) unnamed_addr #0 !dbg !1359 {
start:
  %_1.dbg.spill = alloca i64**, align 8
  store i64** %_1, i64*** %_1.dbg.spill, align 8
  call void @llvm.dbg.declare(metadata i64*** %_1.dbg.spill, metadata !1364, metadata !DIExpression()), !dbg !1367
  ret void, !dbg !1367
}

; core::ptr::drop_in_place<&base64::CharacterSet>
; Function Attrs: inlinehint nounwind
define internal void @"_ZN4core3ptr45drop_in_place$LT$$RF$base64..CharacterSet$GT$17h07288ddd5b2375fbE"(i8** %_1) unnamed_addr #0 !dbg !1368 {
start:
  %_1.dbg.spill = alloca i8**, align 8
  store i8** %_1, i8*** %_1.dbg.spill, align 8
  call void @llvm.dbg.declare(metadata i8*** %_1.dbg.spill, metadata !1373, metadata !DIExpression()), !dbg !1376
  ret void, !dbg !1376
}

; core::ptr::drop_in_place<core::str::error::Utf8Error>
; Function Attrs: inlinehint nounwind
define internal void @"_ZN4core3ptr48drop_in_place$LT$core..str..error..Utf8Error$GT$17he3302857021bd81cE"(%"std::str::Utf8Error"* %_1) unnamed_addr #0 !dbg !1377 {
start:
  %_1.dbg.spill = alloca %"std::str::Utf8Error"*, align 8
  store %"std::str::Utf8Error"* %_1, %"std::str::Utf8Error"** %_1.dbg.spill, align 8
  call void @llvm.dbg.declare(metadata %"std::str::Utf8Error"** %_1.dbg.spill, metadata !1382, metadata !DIExpression()), !dbg !1385
  ret void, !dbg !1385
}

; core::ptr::read
; Function Attrs: inlinehint nounwind
define i64 @_ZN4core3ptr4read17hcc2213ce829579b8E(i64* %src) unnamed_addr #0 !dbg !1386 {
start:
  %self.dbg.spill.i1 = alloca i64*, align 8
  %slot.dbg.spill.i.i = alloca i64, align 8
  %self.dbg.spill.i = alloca i64, align 8
  %0 = alloca i64, align 8
  %src.dbg.spill = alloca i64*, align 8
  %tmp = alloca i64, align 8
  store i64* %src, i64** %src.dbg.spill, align 8
  call void @llvm.dbg.declare(metadata i64** %src.dbg.spill, metadata !1391, metadata !DIExpression()), !dbg !1403
  call void @llvm.dbg.declare(metadata i64* %tmp, metadata !1392, metadata !DIExpression()), !dbg !1404
  %1 = bitcast i64* %0 to {}*, !dbg !1405
  %2 = load i64, i64* %0, align 8, !dbg !1411
  store i64 %2, i64* %tmp, align 8, !dbg !1412
  br label %bb1, !dbg !1412

bb1:                                              ; preds = %start
  store i64* %tmp, i64** %self.dbg.spill.i1, align 8
  call void @llvm.dbg.declare(metadata i64** %self.dbg.spill.i1, metadata !1413, metadata !DIExpression()), !dbg !1420
  br label %bb2, !dbg !1422

bb2:                                              ; preds = %bb1
  %3 = bitcast i64* %tmp to i8*, !dbg !1423
  %4 = bitcast i64* %src to i8*, !dbg !1423
  call void @llvm.memcpy.p0i8.p0i8.i64(i8* align 8 %3, i8* align 8 %4, i64 8, i1 false), !dbg !1423
  %_6 = load i64, i64* %tmp, align 8, !dbg !1424
  store i64 %_6, i64* %self.dbg.spill.i, align 8
  call void @llvm.dbg.declare(metadata i64* %self.dbg.spill.i, metadata !1425, metadata !DIExpression()), !dbg !1430
  store i64 %_6, i64* %slot.dbg.spill.i.i, align 8
  call void @llvm.dbg.declare(metadata i64* %slot.dbg.spill.i.i, metadata !1432, metadata !DIExpression()), !dbg !1438
  br label %bb3, !dbg !1424

bb3:                                              ; preds = %bb2
  ret i64 %_6, !dbg !1440
}

; core::ptr::drop_in_place<core::array::TryFromSliceError>
; Function Attrs: inlinehint nounwind
define internal void @"_ZN4core3ptr51drop_in_place$LT$core..array..TryFromSliceError$GT$17h29be9cef0680fd88E"(%"std::array::TryFromSliceError"* %_1) unnamed_addr #0 !dbg !1441 {
start:
  %_1.dbg.spill = alloca %"std::array::TryFromSliceError"*, align 8
  store %"std::array::TryFromSliceError"* %_1, %"std::array::TryFromSliceError"** %_1.dbg.spill, align 8
  call void @llvm.dbg.declare(metadata %"std::array::TryFromSliceError"** %_1.dbg.spill, metadata !1446, metadata !DIExpression()), !dbg !1449
  ret void, !dbg !1449
}

; core::ptr::drop_in_place<core::alloc::layout::LayoutError>
; Function Attrs: inlinehint nounwind
define internal void @"_ZN4core3ptr53drop_in_place$LT$core..alloc..layout..LayoutError$GT$17h601ff0986ef5e0e7E"(%"std::alloc::LayoutError"* %_1) unnamed_addr #0 !dbg !1450 {
start:
  %_1.dbg.spill = alloca %"std::alloc::LayoutError"*, align 8
  store %"std::alloc::LayoutError"* %_1, %"std::alloc::LayoutError"** %_1.dbg.spill, align 8
  call void @llvm.dbg.declare(metadata %"std::alloc::LayoutError"** %_1.dbg.spill, metadata !1455, metadata !DIExpression()), !dbg !1458
  ret void, !dbg !1458
}

; core::ptr::write
; Function Attrs: inlinehint nounwind
define void @_ZN4core3ptr5write17hede3e19507b36777E(i64* %dst, i64 %0) unnamed_addr #0 !dbg !1459 {
start:
  %dst.dbg.spill = alloca i64*, align 8
  %src = alloca i64, align 8
  store i64 %0, i64* %src, align 8
  store i64* %dst, i64** %dst.dbg.spill, align 8
  call void @llvm.dbg.declare(metadata i64** %dst.dbg.spill, metadata !1463, metadata !DIExpression()), !dbg !1465
  call void @llvm.dbg.declare(metadata i64* %src, metadata !1464, metadata !DIExpression()), !dbg !1466
  %1 = bitcast i64* %dst to i8*, !dbg !1467
  %2 = bitcast i64* %src to i8*, !dbg !1467
  call void @llvm.memcpy.p0i8.p0i8.i64(i8* align 8 %1, i8* align 8 %2, i64 8, i1 false), !dbg !1467
  ret void, !dbg !1468
}

; core::ptr::unique::Unique<T>::new_unchecked
; Function Attrs: inlinehint nounwind
define nonnull i8* @"_ZN4core3ptr6unique15Unique$LT$T$GT$13new_unchecked17hde5b232dfedbca2fE"(i8* %ptr) unnamed_addr #0 !dbg !1469 {
start:
  %ptr.dbg.spill = alloca i8*, align 8
  %0 = alloca i8*, align 8
  store i8* %ptr, i8** %ptr.dbg.spill, align 8
  call void @llvm.dbg.declare(metadata i8** %ptr.dbg.spill, metadata !1474, metadata !DIExpression()), !dbg !1475
  store i8* %ptr, i8** %0, align 8, !dbg !1476
  %1 = load i8*, i8** %0, align 8, !dbg !1477, !nonnull !4
  ret i8* %1, !dbg !1477
}

; core::ptr::unique::Unique<T>::cast
; Function Attrs: inlinehint nounwind
define nonnull i8* @"_ZN4core3ptr6unique15Unique$LT$T$GT$4cast17hf231c292f916b7e4E"(i8* nonnull %self) unnamed_addr #0 !dbg !1478 {
start:
  %self.dbg.spill = alloca i8*, align 8
  store i8* %self, i8** %self.dbg.spill, align 8
  call void @llvm.dbg.declare(metadata i8** %self.dbg.spill, metadata !1482, metadata !DIExpression()), !dbg !1485
; call core::ptr::unique::Unique<T>::as_ptr
  %_3 = call i8* @"_ZN4core3ptr6unique15Unique$LT$T$GT$6as_ptr17he5d69e45e78cd043E"(i8* nonnull %self), !dbg !1486
  br label %bb1, !dbg !1486

bb1:                                              ; preds = %start
; call core::ptr::unique::Unique<T>::new_unchecked
  %0 = call nonnull i8* @"_ZN4core3ptr6unique15Unique$LT$T$GT$13new_unchecked17hde5b232dfedbca2fE"(i8* %_3), !dbg !1487
  br label %bb2, !dbg !1487

bb2:                                              ; preds = %bb1
  ret i8* %0, !dbg !1488
}

; core::ptr::unique::Unique<T>::as_ptr
; Function Attrs: inlinehint nounwind
define i8* @"_ZN4core3ptr6unique15Unique$LT$T$GT$6as_ptr17he5d69e45e78cd043E"(i8* nonnull %self) unnamed_addr #0 !dbg !1489 {
start:
  %self.dbg.spill = alloca i8*, align 8
  store i8* %self, i8** %self.dbg.spill, align 8
  call void @llvm.dbg.declare(metadata i8** %self.dbg.spill, metadata !1493, metadata !DIExpression()), !dbg !1494
  ret i8* %self, !dbg !1495
}

; core::ptr::mut_ptr::<impl *mut T>::guaranteed_eq
; Function Attrs: inlinehint nounwind
define zeroext i1 @"_ZN4core3ptr7mut_ptr31_$LT$impl$u20$$BP$mut$u20$T$GT$13guaranteed_eq17h1be5abe869fd48d5E"(i8* %self, i8* %other) unnamed_addr #0 !dbg !1496 {
start:
  %0 = alloca i8, align 1
  %other.dbg.spill = alloca i8*, align 8
  %self.dbg.spill = alloca i8*, align 8
  store i8* %self, i8** %self.dbg.spill, align 8
  call void @llvm.dbg.declare(metadata i8** %self.dbg.spill, metadata !1500, metadata !DIExpression()), !dbg !1502
  store i8* %other, i8** %other.dbg.spill, align 8
  call void @llvm.dbg.declare(metadata i8** %other.dbg.spill, metadata !1501, metadata !DIExpression()), !dbg !1503
  %1 = icmp eq i8* %self, %other, !dbg !1504
  %2 = zext i1 %1 to i8, !dbg !1504
  store i8 %2, i8* %0, align 1, !dbg !1504
  %3 = load i8, i8* %0, align 1, !dbg !1504, !range !669
  %4 = trunc i8 %3 to i1, !dbg !1504
  br label %bb1, !dbg !1504

bb1:                                              ; preds = %start
  ret i1 %4, !dbg !1505
}

; core::ptr::mut_ptr::<impl *mut T>::is_null
; Function Attrs: inlinehint nounwind
define zeroext i1 @"_ZN4core3ptr7mut_ptr31_$LT$impl$u20$$BP$mut$u20$T$GT$7is_null17h1f9b252d562c3132E"(i8* %self) unnamed_addr #0 !dbg !1506 {
start:
  %self.dbg.spill = alloca i8*, align 8
  store i8* %self, i8** %self.dbg.spill, align 8
  call void @llvm.dbg.declare(metadata i8** %self.dbg.spill, metadata !1510, metadata !DIExpression()), !dbg !1511
  br label %bb1, !dbg !1512

bb1:                                              ; preds = %start
; call core::ptr::mut_ptr::<impl *mut T>::guaranteed_eq
  %0 = call zeroext i1 @"_ZN4core3ptr7mut_ptr31_$LT$impl$u20$$BP$mut$u20$T$GT$13guaranteed_eq17h1be5abe869fd48d5E"(i8* %self, i8* null), !dbg !1513
  br label %bb2, !dbg !1513

bb2:                                              ; preds = %bb1
  ret i1 %0, !dbg !1514
}

; core::ptr::metadata::from_raw_parts
; Function Attrs: inlinehint nounwind
define { [0 x i8]*, i64 } @_ZN4core3ptr8metadata14from_raw_parts17h2cacccae7c77a293E({}* %data_address, i64 %metadata) unnamed_addr #0 !dbg !1515 {
start:
  %metadata.dbg.spill = alloca i64, align 8
  %data_address.dbg.spill = alloca {}*, align 8
  %_4 = alloca { i8*, i64 }, align 8
  %_3 = alloca %"std::ptr::metadata::PtrRepr<[u8]>", align 8
  store {}* %data_address, {}** %data_address.dbg.spill, align 8
  call void @llvm.dbg.declare(metadata {}** %data_address.dbg.spill, metadata !1522, metadata !DIExpression()), !dbg !1524
  store i64 %metadata, i64* %metadata.dbg.spill, align 8
  call void @llvm.dbg.declare(metadata i64* %metadata.dbg.spill, metadata !1523, metadata !DIExpression()), !dbg !1525
  %0 = bitcast { i8*, i64 }* %_4 to {}**, !dbg !1526
  store {}* %data_address, {}** %0, align 8, !dbg !1526
  %1 = getelementptr inbounds { i8*, i64 }, { i8*, i64 }* %_4, i32 0, i32 1, !dbg !1526
  store i64 %metadata, i64* %1, align 8, !dbg !1526
  %2 = bitcast %"std::ptr::metadata::PtrRepr<[u8]>"* %_3 to { i8*, i64 }*, !dbg !1527
  %3 = getelementptr inbounds { i8*, i64 }, { i8*, i64 }* %_4, i32 0, i32 0, !dbg !1527
  %4 = load i8*, i8** %3, align 8, !dbg !1527
  %5 = getelementptr inbounds { i8*, i64 }, { i8*, i64 }* %_4, i32 0, i32 1, !dbg !1527
  %6 = load i64, i64* %5, align 8, !dbg !1527
  %7 = getelementptr inbounds { i8*, i64 }, { i8*, i64 }* %2, i32 0, i32 0, !dbg !1527
  store i8* %4, i8** %7, align 8, !dbg !1527
  %8 = getelementptr inbounds { i8*, i64 }, { i8*, i64 }* %2, i32 0, i32 1, !dbg !1527
  store i64 %6, i64* %8, align 8, !dbg !1527
  %9 = bitcast %"std::ptr::metadata::PtrRepr<[u8]>"* %_3 to { [0 x i8]*, i64 }*, !dbg !1527
  %10 = getelementptr inbounds { [0 x i8]*, i64 }, { [0 x i8]*, i64 }* %9, i32 0, i32 0, !dbg !1527
  %11 = load [0 x i8]*, [0 x i8]** %10, align 8, !dbg !1527
  %12 = getelementptr inbounds { [0 x i8]*, i64 }, { [0 x i8]*, i64 }* %9, i32 0, i32 1, !dbg !1527
  %13 = load i64, i64* %12, align 8, !dbg !1527
  %14 = insertvalue { [0 x i8]*, i64 } undef, [0 x i8]* %11, 0, !dbg !1528
  %15 = insertvalue { [0 x i8]*, i64 } %14, i64 %13, 1, !dbg !1528
  ret { [0 x i8]*, i64 } %15, !dbg !1528
}

; core::ptr::metadata::from_raw_parts_mut
; Function Attrs: inlinehint nounwind
define { [0 x i8]*, i64 } @_ZN4core3ptr8metadata18from_raw_parts_mut17h61252ae899d7367cE({}* %data_address, i64 %metadata) unnamed_addr #0 !dbg !1529 {
start:
  %metadata.dbg.spill = alloca i64, align 8
  %data_address.dbg.spill = alloca {}*, align 8
  %_4 = alloca { i8*, i64 }, align 8
  %_3 = alloca %"std::ptr::metadata::PtrRepr<[u8]>", align 8
  store {}* %data_address, {}** %data_address.dbg.spill, align 8
  call void @llvm.dbg.declare(metadata {}** %data_address.dbg.spill, metadata !1533, metadata !DIExpression()), !dbg !1535
  store i64 %metadata, i64* %metadata.dbg.spill, align 8
  call void @llvm.dbg.declare(metadata i64* %metadata.dbg.spill, metadata !1534, metadata !DIExpression()), !dbg !1536
  %0 = bitcast { i8*, i64 }* %_4 to {}**, !dbg !1537
  store {}* %data_address, {}** %0, align 8, !dbg !1537
  %1 = getelementptr inbounds { i8*, i64 }, { i8*, i64 }* %_4, i32 0, i32 1, !dbg !1537
  store i64 %metadata, i64* %1, align 8, !dbg !1537
  %2 = bitcast %"std::ptr::metadata::PtrRepr<[u8]>"* %_3 to { i8*, i64 }*, !dbg !1538
  %3 = getelementptr inbounds { i8*, i64 }, { i8*, i64 }* %_4, i32 0, i32 0, !dbg !1538
  %4 = load i8*, i8** %3, align 8, !dbg !1538
  %5 = getelementptr inbounds { i8*, i64 }, { i8*, i64 }* %_4, i32 0, i32 1, !dbg !1538
  %6 = load i64, i64* %5, align 8, !dbg !1538
  %7 = getelementptr inbounds { i8*, i64 }, { i8*, i64 }* %2, i32 0, i32 0, !dbg !1538
  store i8* %4, i8** %7, align 8, !dbg !1538
  %8 = getelementptr inbounds { i8*, i64 }, { i8*, i64 }* %2, i32 0, i32 1, !dbg !1538
  store i64 %6, i64* %8, align 8, !dbg !1538
  %9 = bitcast %"std::ptr::metadata::PtrRepr<[u8]>"* %_3 to { [0 x i8]*, i64 }*, !dbg !1538
  %10 = getelementptr inbounds { [0 x i8]*, i64 }, { [0 x i8]*, i64 }* %9, i32 0, i32 0, !dbg !1538
  %11 = load [0 x i8]*, [0 x i8]** %10, align 8, !dbg !1538
  %12 = getelementptr inbounds { [0 x i8]*, i64 }, { [0 x i8]*, i64 }* %9, i32 0, i32 1, !dbg !1538
  %13 = load i64, i64* %12, align 8, !dbg !1538
  %14 = insertvalue { [0 x i8]*, i64 } undef, [0 x i8]* %11, 0, !dbg !1539
  %15 = insertvalue { [0 x i8]*, i64 } %14, i64 %13, 1, !dbg !1539
  ret { [0 x i8]*, i64 } %15, !dbg !1539
}

; core::ptr::metadata::metadata
; Function Attrs: inlinehint nounwind
define i64 @_ZN4core3ptr8metadata8metadata17h725a86abc3d48e13E([0 x i8]* %ptr.0, i64 %ptr.1) unnamed_addr #0 !dbg !1540 {
start:
  %ptr.dbg.spill = alloca { [0 x i8]*, i64 }, align 8
  %_2 = alloca %"std::ptr::metadata::PtrRepr<[u8]>", align 8
  %0 = getelementptr inbounds { [0 x i8]*, i64 }, { [0 x i8]*, i64 }* %ptr.dbg.spill, i32 0, i32 0
  store [0 x i8]* %ptr.0, [0 x i8]** %0, align 8
  %1 = getelementptr inbounds { [0 x i8]*, i64 }, { [0 x i8]*, i64 }* %ptr.dbg.spill, i32 0, i32 1
  store i64 %ptr.1, i64* %1, align 8
  call void @llvm.dbg.declare(metadata { [0 x i8]*, i64 }* %ptr.dbg.spill, metadata !1544, metadata !DIExpression()), !dbg !1545
  %2 = bitcast %"std::ptr::metadata::PtrRepr<[u8]>"* %_2 to { [0 x i8]*, i64 }*, !dbg !1546
  %3 = getelementptr inbounds { [0 x i8]*, i64 }, { [0 x i8]*, i64 }* %2, i32 0, i32 0, !dbg !1546
  store [0 x i8]* %ptr.0, [0 x i8]** %3, align 8, !dbg !1546
  %4 = getelementptr inbounds { [0 x i8]*, i64 }, { [0 x i8]*, i64 }* %2, i32 0, i32 1, !dbg !1546
  store i64 %ptr.1, i64* %4, align 8, !dbg !1546
  %5 = bitcast %"std::ptr::metadata::PtrRepr<[u8]>"* %_2 to { i8*, i64 }*, !dbg !1546
  %6 = getelementptr inbounds { i8*, i64 }, { i8*, i64 }* %5, i32 0, i32 1, !dbg !1546
  %7 = load i64, i64* %6, align 8, !dbg !1546
  ret i64 %7, !dbg !1547
}

; core::ptr::non_null::NonNull<T>::new_unchecked
; Function Attrs: inlinehint nounwind
define nonnull i8* @"_ZN4core3ptr8non_null16NonNull$LT$T$GT$13new_unchecked17h798f450c829937aaE"(i8* %ptr) unnamed_addr #0 !dbg !1548 {
start:
  %ptr.dbg.spill = alloca i8*, align 8
  %0 = alloca i8*, align 8
  store i8* %ptr, i8** %ptr.dbg.spill, align 8
  call void @llvm.dbg.declare(metadata i8** %ptr.dbg.spill, metadata !1552, metadata !DIExpression()), !dbg !1553
  store i8* %ptr, i8** %0, align 8, !dbg !1554
  %1 = load i8*, i8** %0, align 8, !dbg !1555, !nonnull !4
  ret i8* %1, !dbg !1555
}

; core::ptr::non_null::NonNull<T>::new_unchecked
; Function Attrs: inlinehint nounwind
define { i8*, i64 } @"_ZN4core3ptr8non_null16NonNull$LT$T$GT$13new_unchecked17hcb2192e54c474bd9E"([0 x i8]* %ptr.0, i64 %ptr.1) unnamed_addr #0 !dbg !1556 {
start:
  %ptr.dbg.spill = alloca { [0 x i8]*, i64 }, align 8
  %0 = alloca { i8*, i64 }, align 8
  %1 = getelementptr inbounds { [0 x i8]*, i64 }, { [0 x i8]*, i64 }* %ptr.dbg.spill, i32 0, i32 0
  store [0 x i8]* %ptr.0, [0 x i8]** %1, align 8
  %2 = getelementptr inbounds { [0 x i8]*, i64 }, { [0 x i8]*, i64 }* %ptr.dbg.spill, i32 0, i32 1
  store i64 %ptr.1, i64* %2, align 8
  call void @llvm.dbg.declare(metadata { [0 x i8]*, i64 }* %ptr.dbg.spill, metadata !1560, metadata !DIExpression()), !dbg !1561
  %3 = bitcast { i8*, i64 }* %0 to { [0 x i8]*, i64 }*, !dbg !1562
  %4 = getelementptr inbounds { [0 x i8]*, i64 }, { [0 x i8]*, i64 }* %3, i32 0, i32 0, !dbg !1562
  store [0 x i8]* %ptr.0, [0 x i8]** %4, align 8, !dbg !1562
  %5 = getelementptr inbounds { [0 x i8]*, i64 }, { [0 x i8]*, i64 }* %3, i32 0, i32 1, !dbg !1562
  store i64 %ptr.1, i64* %5, align 8, !dbg !1562
  %6 = getelementptr inbounds { i8*, i64 }, { i8*, i64 }* %0, i32 0, i32 0, !dbg !1563
  %7 = load i8*, i8** %6, align 8, !dbg !1563, !nonnull !4
  %8 = getelementptr inbounds { i8*, i64 }, { i8*, i64 }* %0, i32 0, i32 1, !dbg !1563
  %9 = load i64, i64* %8, align 8, !dbg !1563
  %10 = insertvalue { i8*, i64 } undef, i8* %7, 0, !dbg !1563
  %11 = insertvalue { i8*, i64 } %10, i64 %9, 1, !dbg !1563
  ret { i8*, i64 } %11, !dbg !1563
}

; core::ptr::non_null::NonNull<T>::new
; Function Attrs: inlinehint nounwind
define i8* @"_ZN4core3ptr8non_null16NonNull$LT$T$GT$3new17h349bd3bee514206bE"(i8* %ptr) unnamed_addr #0 !dbg !1564 {
start:
  %ptr.dbg.spill = alloca i8*, align 8
  %0 = alloca i8*, align 8
  store i8* %ptr, i8** %ptr.dbg.spill, align 8
  call void @llvm.dbg.declare(metadata i8** %ptr.dbg.spill, metadata !1580, metadata !DIExpression()), !dbg !1581
; call core::ptr::mut_ptr::<impl *mut T>::is_null
  %_3 = call zeroext i1 @"_ZN4core3ptr7mut_ptr31_$LT$impl$u20$$BP$mut$u20$T$GT$7is_null17h1f9b252d562c3132E"(i8* %ptr), !dbg !1582
  br label %bb1, !dbg !1582

bb1:                                              ; preds = %start
  %_2 = xor i1 %_3, true, !dbg !1583
  br i1 %_2, label %bb2, label %bb4, !dbg !1583

bb4:                                              ; preds = %bb1
  %1 = bitcast i8** %0 to {}**, !dbg !1584
  store {}* null, {}** %1, align 8, !dbg !1584
  br label %bb5, !dbg !1585

bb2:                                              ; preds = %bb1
; call core::ptr::non_null::NonNull<T>::new_unchecked
  %_5 = call nonnull i8* @"_ZN4core3ptr8non_null16NonNull$LT$T$GT$13new_unchecked17h798f450c829937aaE"(i8* %ptr), !dbg !1586
  br label %bb3, !dbg !1586

bb3:                                              ; preds = %bb2
  store i8* %_5, i8** %0, align 8, !dbg !1587
  br label %bb5, !dbg !1585

bb5:                                              ; preds = %bb4, %bb3
  %2 = load i8*, i8** %0, align 8, !dbg !1588
  ret i8* %2, !dbg !1588
}

; core::ptr::non_null::NonNull<T>::cast
; Function Attrs: inlinehint nounwind
define nonnull i8* @"_ZN4core3ptr8non_null16NonNull$LT$T$GT$4cast17h32573d73af02b004E"(i8* nonnull %self.0, i64 %self.1) unnamed_addr #0 !dbg !1589 {
start:
  %self.dbg.spill = alloca { i8*, i64 }, align 8
  %0 = getelementptr inbounds { i8*, i64 }, { i8*, i64 }* %self.dbg.spill, i32 0, i32 0
  store i8* %self.0, i8** %0, align 8
  %1 = getelementptr inbounds { i8*, i64 }, { i8*, i64 }* %self.dbg.spill, i32 0, i32 1
  store i64 %self.1, i64* %1, align 8
  call void @llvm.dbg.declare(metadata { i8*, i64 }* %self.dbg.spill, metadata !1593, metadata !DIExpression()), !dbg !1595
; call core::ptr::non_null::NonNull<T>::as_ptr
  %2 = call { [0 x i8]*, i64 } @"_ZN4core3ptr8non_null16NonNull$LT$T$GT$6as_ptr17hbf166fe06cdfed2fE"(i8* nonnull %self.0, i64 %self.1), !dbg !1596
  %_3.0 = extractvalue { [0 x i8]*, i64 } %2, 0, !dbg !1596
  %_3.1 = extractvalue { [0 x i8]*, i64 } %2, 1, !dbg !1596
  br label %bb1, !dbg !1596

bb1:                                              ; preds = %start
  %_2 = bitcast [0 x i8]* %_3.0 to i8*, !dbg !1596
; call core::ptr::non_null::NonNull<T>::new_unchecked
  %3 = call nonnull i8* @"_ZN4core3ptr8non_null16NonNull$LT$T$GT$13new_unchecked17h798f450c829937aaE"(i8* %_2), !dbg !1597
  br label %bb2, !dbg !1597

bb2:                                              ; preds = %bb1
  ret i8* %3, !dbg !1598
}

; core::ptr::non_null::NonNull<T>::as_ptr
; Function Attrs: inlinehint nounwind
define { [0 x i8]*, i64 } @"_ZN4core3ptr8non_null16NonNull$LT$T$GT$6as_ptr17hbf166fe06cdfed2fE"(i8* nonnull %self.0, i64 %self.1) unnamed_addr #0 !dbg !1599 {
start:
  %self.dbg.spill = alloca { i8*, i64 }, align 8
  %0 = getelementptr inbounds { i8*, i64 }, { i8*, i64 }* %self.dbg.spill, i32 0, i32 0
  store i8* %self.0, i8** %0, align 8
  %1 = getelementptr inbounds { i8*, i64 }, { i8*, i64 }* %self.dbg.spill, i32 0, i32 1
  store i64 %self.1, i64* %1, align 8
  call void @llvm.dbg.declare(metadata { i8*, i64 }* %self.dbg.spill, metadata !1603, metadata !DIExpression()), !dbg !1604
  %_2.0 = bitcast i8* %self.0 to [0 x i8]*, !dbg !1605
  %2 = insertvalue { [0 x i8]*, i64 } undef, [0 x i8]* %_2.0, 0, !dbg !1606
  %3 = insertvalue { [0 x i8]*, i64 } %2, i64 %self.1, 1, !dbg !1606
  ret { [0 x i8]*, i64 } %3, !dbg !1606
}

; core::ptr::non_null::NonNull<T>::as_ptr
; Function Attrs: inlinehint nounwind
define i8* @"_ZN4core3ptr8non_null16NonNull$LT$T$GT$6as_ptr17he28ddd79ad65c9f9E"(i8* nonnull %self) unnamed_addr #0 !dbg !1607 {
start:
  %self.dbg.spill = alloca i8*, align 8
  store i8* %self, i8** %self.dbg.spill, align 8
  call void @llvm.dbg.declare(metadata i8** %self.dbg.spill, metadata !1611, metadata !DIExpression()), !dbg !1612
  ret i8* %self, !dbg !1613
}

; core::ptr::non_null::NonNull<[T]>::as_mut_ptr
; Function Attrs: inlinehint nounwind
define i8* @"_ZN4core3ptr8non_null26NonNull$LT$$u5b$T$u5d$$GT$10as_mut_ptr17h4188c478b7037b90E"(i8* nonnull %self.0, i64 %self.1) unnamed_addr #0 !dbg !1614 {
start:
  %self.dbg.spill = alloca { i8*, i64 }, align 8
  %0 = getelementptr inbounds { i8*, i64 }, { i8*, i64 }* %self.dbg.spill, i32 0, i32 0
  store i8* %self.0, i8** %0, align 8
  %1 = getelementptr inbounds { i8*, i64 }, { i8*, i64 }* %self.dbg.spill, i32 0, i32 1
  store i64 %self.1, i64* %1, align 8
  call void @llvm.dbg.declare(metadata { i8*, i64 }* %self.dbg.spill, metadata !1618, metadata !DIExpression()), !dbg !1619
; call core::ptr::non_null::NonNull<[T]>::as_non_null_ptr
  %_2 = call nonnull i8* @"_ZN4core3ptr8non_null26NonNull$LT$$u5b$T$u5d$$GT$15as_non_null_ptr17h4586dfe21f8b9c5dE"(i8* nonnull %self.0, i64 %self.1), !dbg !1620
  br label %bb1, !dbg !1620

bb1:                                              ; preds = %start
; call core::ptr::non_null::NonNull<T>::as_ptr
  %2 = call i8* @"_ZN4core3ptr8non_null16NonNull$LT$T$GT$6as_ptr17he28ddd79ad65c9f9E"(i8* nonnull %_2), !dbg !1620
  br label %bb2, !dbg !1620

bb2:                                              ; preds = %bb1
  ret i8* %2, !dbg !1621
}

; core::ptr::non_null::NonNull<[T]>::as_non_null_ptr
; Function Attrs: inlinehint nounwind
define nonnull i8* @"_ZN4core3ptr8non_null26NonNull$LT$$u5b$T$u5d$$GT$15as_non_null_ptr17h4586dfe21f8b9c5dE"(i8* nonnull %self.0, i64 %self.1) unnamed_addr #0 !dbg !1622 {
start:
  %self.dbg.spill.i = alloca { [0 x i8]*, i64 }, align 8
  %self.dbg.spill = alloca { i8*, i64 }, align 8
  %0 = getelementptr inbounds { i8*, i64 }, { i8*, i64 }* %self.dbg.spill, i32 0, i32 0
  store i8* %self.0, i8** %0, align 8
  %1 = getelementptr inbounds { i8*, i64 }, { i8*, i64 }* %self.dbg.spill, i32 0, i32 1
  store i64 %self.1, i64* %1, align 8
  call void @llvm.dbg.declare(metadata { i8*, i64 }* %self.dbg.spill, metadata !1624, metadata !DIExpression()), !dbg !1625
; call core::ptr::non_null::NonNull<T>::as_ptr
  %2 = call { [0 x i8]*, i64 } @"_ZN4core3ptr8non_null16NonNull$LT$T$GT$6as_ptr17hbf166fe06cdfed2fE"(i8* nonnull %self.0, i64 %self.1), !dbg !1626
  %_3.0 = extractvalue { [0 x i8]*, i64 } %2, 0, !dbg !1626
  %_3.1 = extractvalue { [0 x i8]*, i64 } %2, 1, !dbg !1626
  br label %bb1, !dbg !1626

bb1:                                              ; preds = %start
  %3 = getelementptr inbounds { [0 x i8]*, i64 }, { [0 x i8]*, i64 }* %self.dbg.spill.i, i32 0, i32 0
  store [0 x i8]* %_3.0, [0 x i8]** %3, align 8
  %4 = getelementptr inbounds { [0 x i8]*, i64 }, { [0 x i8]*, i64 }* %self.dbg.spill.i, i32 0, i32 1
  store i64 %_3.1, i64* %4, align 8
  call void @llvm.dbg.declare(metadata { [0 x i8]*, i64 }* %self.dbg.spill.i, metadata !171, metadata !DIExpression()), !dbg !1627
  %5 = bitcast [0 x i8]* %_3.0 to i8*, !dbg !1629
  br label %bb2, !dbg !1626

bb2:                                              ; preds = %bb1
; call core::ptr::non_null::NonNull<T>::new_unchecked
  %6 = call nonnull i8* @"_ZN4core3ptr8non_null16NonNull$LT$T$GT$13new_unchecked17h798f450c829937aaE"(i8* %5), !dbg !1630
  br label %bb3, !dbg !1630

bb3:                                              ; preds = %bb2
  ret i8* %6, !dbg !1631
}

; core::ptr::non_null::NonNull<[T]>::slice_from_raw_parts
; Function Attrs: inlinehint nounwind
define { i8*, i64 } @"_ZN4core3ptr8non_null26NonNull$LT$$u5b$T$u5d$$GT$20slice_from_raw_parts17hd438f0971ae73bbfE"(i8* nonnull %data, i64 %len) unnamed_addr #0 !dbg !1632 {
start:
  %len.dbg.spill = alloca i64, align 8
  %data.dbg.spill = alloca i8*, align 8
  store i8* %data, i8** %data.dbg.spill, align 8
  call void @llvm.dbg.declare(metadata i8** %data.dbg.spill, metadata !1636, metadata !DIExpression()), !dbg !1638
  store i64 %len, i64* %len.dbg.spill, align 8
  call void @llvm.dbg.declare(metadata i64* %len.dbg.spill, metadata !1637, metadata !DIExpression()), !dbg !1639
; call core::ptr::non_null::NonNull<T>::as_ptr
  %_4 = call i8* @"_ZN4core3ptr8non_null16NonNull$LT$T$GT$6as_ptr17he28ddd79ad65c9f9E"(i8* nonnull %data), !dbg !1640
  br label %bb1, !dbg !1640

bb1:                                              ; preds = %start
; call core::ptr::slice_from_raw_parts_mut
  %0 = call { [0 x i8]*, i64 } @_ZN4core3ptr24slice_from_raw_parts_mut17h808069bf2fa712efE(i8* %_4, i64 %len), !dbg !1641
  %_3.0 = extractvalue { [0 x i8]*, i64 } %0, 0, !dbg !1641
  %_3.1 = extractvalue { [0 x i8]*, i64 } %0, 1, !dbg !1641
  br label %bb2, !dbg !1641

bb2:                                              ; preds = %bb1
; call core::ptr::non_null::NonNull<T>::new_unchecked
  %1 = call { i8*, i64 } @"_ZN4core3ptr8non_null16NonNull$LT$T$GT$13new_unchecked17hcb2192e54c474bd9E"([0 x i8]* %_3.0, i64 %_3.1), !dbg !1642
  %2 = extractvalue { i8*, i64 } %1, 0, !dbg !1642
  %3 = extractvalue { i8*, i64 } %1, 1, !dbg !1642
  br label %bb3, !dbg !1642

bb3:                                              ; preds = %bb2
  %4 = insertvalue { i8*, i64 } undef, i8* %2, 0, !dbg !1643
  %5 = insertvalue { i8*, i64 } %4, i64 %3, 1, !dbg !1643
  ret { i8*, i64 } %5, !dbg !1643
}

; core::ptr::non_null::NonNull<[T]>::len
; Function Attrs: inlinehint nounwind
define i64 @"_ZN4core3ptr8non_null26NonNull$LT$$u5b$T$u5d$$GT$3len17h5b5316406c8edcc3E"(i8* nonnull %self.0, i64 %self.1) unnamed_addr #0 !dbg !1644 {
start:
  %self.dbg.spill.i = alloca { [0 x i8]*, i64 }, align 8
  %self.dbg.spill = alloca { i8*, i64 }, align 8
  %0 = getelementptr inbounds { i8*, i64 }, { i8*, i64 }* %self.dbg.spill, i32 0, i32 0
  store i8* %self.0, i8** %0, align 8
  %1 = getelementptr inbounds { i8*, i64 }, { i8*, i64 }* %self.dbg.spill, i32 0, i32 1
  store i64 %self.1, i64* %1, align 8
  call void @llvm.dbg.declare(metadata { i8*, i64 }* %self.dbg.spill, metadata !1648, metadata !DIExpression()), !dbg !1649
; call core::ptr::non_null::NonNull<T>::as_ptr
  %2 = call { [0 x i8]*, i64 } @"_ZN4core3ptr8non_null16NonNull$LT$T$GT$6as_ptr17hbf166fe06cdfed2fE"(i8* nonnull %self.0, i64 %self.1), !dbg !1650
  %_2.0 = extractvalue { [0 x i8]*, i64 } %2, 0, !dbg !1650
  %_2.1 = extractvalue { [0 x i8]*, i64 } %2, 1, !dbg !1650
  br label %bb1, !dbg !1650

bb1:                                              ; preds = %start
  %3 = getelementptr inbounds { [0 x i8]*, i64 }, { [0 x i8]*, i64 }* %self.dbg.spill.i, i32 0, i32 0
  store [0 x i8]* %_2.0, [0 x i8]** %3, align 8
  %4 = getelementptr inbounds { [0 x i8]*, i64 }, { [0 x i8]*, i64 }* %self.dbg.spill.i, i32 0, i32 1
  store i64 %_2.1, i64* %4, align 8
  call void @llvm.dbg.declare(metadata { [0 x i8]*, i64 }* %self.dbg.spill.i, metadata !293, metadata !DIExpression()) #12, !dbg !1651
; call core::ptr::metadata::metadata
  %5 = call i64 @_ZN4core3ptr8metadata8metadata17h725a86abc3d48e13E([0 x i8]* %_2.0, i64 %_2.1) #12, !dbg !1653
  br label %bb2, !dbg !1650

bb2:                                              ; preds = %bb1
  ret i64 %5, !dbg !1654
}

; core::ptr::const_ptr::<impl *const T>::guaranteed_eq
; Function Attrs: inlinehint nounwind
define zeroext i1 @"_ZN4core3ptr9const_ptr33_$LT$impl$u20$$BP$const$u20$T$GT$13guaranteed_eq17h3589b1ddfd70936dE"(i8* %self, i8* %other) unnamed_addr #0 !dbg !1655 {
start:
  %0 = alloca i8, align 1
  %other.dbg.spill = alloca i8*, align 8
  %self.dbg.spill = alloca i8*, align 8
  store i8* %self, i8** %self.dbg.spill, align 8
  call void @llvm.dbg.declare(metadata i8** %self.dbg.spill, metadata !1659, metadata !DIExpression()), !dbg !1661
  store i8* %other, i8** %other.dbg.spill, align 8
  call void @llvm.dbg.declare(metadata i8** %other.dbg.spill, metadata !1660, metadata !DIExpression()), !dbg !1662
  %1 = icmp eq i8* %self, %other, !dbg !1663
  %2 = zext i1 %1 to i8, !dbg !1663
  store i8 %2, i8* %0, align 1, !dbg !1663
  %3 = load i8, i8* %0, align 1, !dbg !1663, !range !669
  %4 = trunc i8 %3 to i1, !dbg !1663
  br label %bb1, !dbg !1663

bb1:                                              ; preds = %start
  ret i1 %4, !dbg !1664
}

; core::ptr::const_ptr::<impl *const T>::cast
; Function Attrs: inlinehint nounwind
define {}* @"_ZN4core3ptr9const_ptr33_$LT$impl$u20$$BP$const$u20$T$GT$4cast17hd10c413d61c24af9E"(i8* %self) unnamed_addr #0 !dbg !1665 {
start:
  %self.dbg.spill = alloca i8*, align 8
  store i8* %self, i8** %self.dbg.spill, align 8
  call void @llvm.dbg.declare(metadata i8** %self.dbg.spill, metadata !1669, metadata !DIExpression()), !dbg !1670
  %0 = bitcast i8* %self to {}*, !dbg !1671
  ret {}* %0, !dbg !1672
}

; core::ptr::const_ptr::<impl *const T>::is_null
; Function Attrs: inlinehint nounwind
define zeroext i1 @"_ZN4core3ptr9const_ptr33_$LT$impl$u20$$BP$const$u20$T$GT$7is_null17hdd278f7c65bef5d2E"(i8* %self) unnamed_addr #0 !dbg !1673 {
start:
  %self.dbg.spill = alloca i8*, align 8
  store i8* %self, i8** %self.dbg.spill, align 8
  call void @llvm.dbg.declare(metadata i8** %self.dbg.spill, metadata !1677, metadata !DIExpression()), !dbg !1678
  br label %bb1, !dbg !1679

bb1:                                              ; preds = %start
; call core::ptr::const_ptr::<impl *const T>::guaranteed_eq
  %0 = call zeroext i1 @"_ZN4core3ptr9const_ptr33_$LT$impl$u20$$BP$const$u20$T$GT$13guaranteed_eq17h3589b1ddfd70936dE"(i8* %self, i8* null), !dbg !1680
  br label %bb2, !dbg !1680

bb2:                                              ; preds = %bb1
  ret i1 %0, !dbg !1681
}

; core::ptr::const_ptr::<impl *const [T]>::len
; Function Attrs: inlinehint nounwind
define i64 @"_ZN4core3ptr9const_ptr43_$LT$impl$u20$$BP$const$u20$$u5b$T$u5d$$GT$3len17h072db4e2e33b785dE"([0 x i8]* %self.0, i64 %self.1) unnamed_addr #0 !dbg !1682 {
start:
  %self.dbg.spill = alloca { [0 x i8]*, i64 }, align 8
  %0 = getelementptr inbounds { [0 x i8]*, i64 }, { [0 x i8]*, i64 }* %self.dbg.spill, i32 0, i32 0
  store [0 x i8]* %self.0, [0 x i8]** %0, align 8
  %1 = getelementptr inbounds { [0 x i8]*, i64 }, { [0 x i8]*, i64 }* %self.dbg.spill, i32 0, i32 1
  store i64 %self.1, i64* %1, align 8
  call void @llvm.dbg.declare(metadata { [0 x i8]*, i64 }* %self.dbg.spill, metadata !1685, metadata !DIExpression()), !dbg !1686
; call core::ptr::metadata::metadata
  %2 = call i64 @_ZN4core3ptr8metadata8metadata17h725a86abc3d48e13E([0 x i8]* %self.0, i64 %self.1), !dbg !1687
  br label %bb1, !dbg !1687

bb1:                                              ; preds = %start
  ret i64 %2, !dbg !1688
}

; core::ptr::const_ptr::<impl *const [T]>::as_ptr
; Function Attrs: inlinehint nounwind
define i8* @"_ZN4core3ptr9const_ptr43_$LT$impl$u20$$BP$const$u20$$u5b$T$u5d$$GT$6as_ptr17hb891ac95b6994738E"([0 x i8]* %self.0, i64 %self.1) unnamed_addr #0 !dbg !1689 {
start:
  %self.dbg.spill = alloca { [0 x i8]*, i64 }, align 8
  %0 = getelementptr inbounds { [0 x i8]*, i64 }, { [0 x i8]*, i64 }* %self.dbg.spill, i32 0, i32 0
  store [0 x i8]* %self.0, [0 x i8]** %0, align 8
  %1 = getelementptr inbounds { [0 x i8]*, i64 }, { [0 x i8]*, i64 }* %self.dbg.spill, i32 0, i32 1
  store i64 %self.1, i64* %1, align 8
  call void @llvm.dbg.declare(metadata { [0 x i8]*, i64 }* %self.dbg.spill, metadata !1693, metadata !DIExpression()), !dbg !1694
  %2 = bitcast [0 x i8]* %self.0 to i8*, !dbg !1695
  ret i8* %2, !dbg !1696
}

; core::iter::range::<impl core::iter::traits::iterator::Iterator for core::ops::range::Range<A>>::next
; Function Attrs: inlinehint nounwind
define { i64, i64 } @"_ZN4core4iter5range101_$LT$impl$u20$core..iter..traits..iterator..Iterator$u20$for$u20$core..ops..range..Range$LT$A$GT$$GT$4next17h6b597f304f210581E"({ i64, i64 }* align 8 dereferenceable(16) %self) unnamed_addr #0 !dbg !1697 {
start:
  %self.dbg.spill = alloca { i64, i64 }*, align 8
  store { i64, i64 }* %self, { i64, i64 }** %self.dbg.spill, align 8
  call void @llvm.dbg.declare(metadata { i64, i64 }** %self.dbg.spill, metadata !1703, metadata !DIExpression()), !dbg !1706
; call <core::ops::range::Range<T> as core::iter::range::RangeIteratorImpl>::spec_next
  %0 = call { i64, i64 } @"_ZN89_$LT$core..ops..range..Range$LT$T$GT$$u20$as$u20$core..iter..range..RangeIteratorImpl$GT$9spec_next17h3f59e5d448d51f31E"({ i64, i64 }* align 8 dereferenceable(16) %self), !dbg !1707
  %1 = extractvalue { i64, i64 } %0, 0, !dbg !1707
  %2 = extractvalue { i64, i64 } %0, 1, !dbg !1707
  br label %bb1, !dbg !1707

bb1:                                              ; preds = %start
  %3 = insertvalue { i64, i64 } undef, i64 %1, 0, !dbg !1708
  %4 = insertvalue { i64, i64 } %3, i64 %2, 1, !dbg !1708
  ret { i64, i64 } %4, !dbg !1708
}

; core::alloc::layout::size_align
; Function Attrs: nounwind
define { i64, i64 } @_ZN4core5alloc6layout10size_align17h8973d6f27cea8369E() unnamed_addr #1 !dbg !1709 {
start:
  %0 = alloca i64, align 8
  %1 = alloca { i64, i64 }, align 8
  br label %bb1, !dbg !1717

bb1:                                              ; preds = %start
  store i64 1, i64* %0, align 8, !dbg !1718
  %2 = load i64, i64* %0, align 8, !dbg !1718
  br label %bb2, !dbg !1723

bb2:                                              ; preds = %bb1
  %3 = bitcast { i64, i64 }* %1 to i64*, !dbg !1724
  store i64 1, i64* %3, align 8, !dbg !1724
  %4 = getelementptr inbounds { i64, i64 }, { i64, i64 }* %1, i32 0, i32 1, !dbg !1724
  store i64 %2, i64* %4, align 8, !dbg !1724
  %5 = getelementptr inbounds { i64, i64 }, { i64, i64 }* %1, i32 0, i32 0, !dbg !1725
  %6 = load i64, i64* %5, align 8, !dbg !1725
  %7 = getelementptr inbounds { i64, i64 }, { i64, i64 }* %1, i32 0, i32 1, !dbg !1725
  %8 = load i64, i64* %7, align 8, !dbg !1725
  %9 = insertvalue { i64, i64 } undef, i64 %6, 0, !dbg !1725
  %10 = insertvalue { i64, i64 } %9, i64 %8, 1, !dbg !1725
  ret { i64, i64 } %10, !dbg !1725
}

; core::alloc::layout::Layout::pad_to_align
; Function Attrs: inlinehint nounwind
define internal { i64, i64 } @_ZN4core5alloc6layout6Layout12pad_to_align17h356c043d8961d2f8E({ i64, i64 }* align 8 dereferenceable(16) %self) unnamed_addr #0 !dbg !1726 {
start:
  %new_size.dbg.spill = alloca i64, align 8
  %pad.dbg.spill = alloca i64, align 8
  %self.dbg.spill = alloca { i64, i64 }*, align 8
  store { i64, i64 }* %self, { i64, i64 }** %self.dbg.spill, align 8
  call void @llvm.dbg.declare(metadata { i64, i64 }** %self.dbg.spill, metadata !1731, metadata !DIExpression()), !dbg !1736
; call core::alloc::layout::Layout::align
  %_4 = call i64 @_ZN4core5alloc6layout6Layout5align17h71b09892f817aae5E({ i64, i64 }* align 8 dereferenceable(16) %self), !dbg !1737
  br label %bb1, !dbg !1737

bb1:                                              ; preds = %start
; call core::alloc::layout::Layout::padding_needed_for
  %pad = call i64 @_ZN4core5alloc6layout6Layout18padding_needed_for17hf1fc490a8f5f2505E({ i64, i64 }* align 8 dereferenceable(16) %self, i64 %_4), !dbg !1738
  store i64 %pad, i64* %pad.dbg.spill, align 8, !dbg !1738
  call void @llvm.dbg.declare(metadata i64* %pad.dbg.spill, metadata !1732, metadata !DIExpression()), !dbg !1739
  br label %bb2, !dbg !1738

bb2:                                              ; preds = %bb1
; call core::alloc::layout::Layout::size
  %_7 = call i64 @_ZN4core5alloc6layout6Layout4size17h7a284e541e70fd8bE({ i64, i64 }* align 8 dereferenceable(16) %self), !dbg !1740
  br label %bb3, !dbg !1740

bb3:                                              ; preds = %bb2
  %new_size = add i64 %_7, %pad, !dbg !1740
  store i64 %new_size, i64* %new_size.dbg.spill, align 8, !dbg !1740
  call void @llvm.dbg.declare(metadata i64* %new_size.dbg.spill, metadata !1734, metadata !DIExpression()), !dbg !1741
; call core::alloc::layout::Layout::align
  %_12 = call i64 @_ZN4core5alloc6layout6Layout5align17h71b09892f817aae5E({ i64, i64 }* align 8 dereferenceable(16) %self), !dbg !1742
  br label %bb4, !dbg !1742

bb4:                                              ; preds = %bb3
; call core::alloc::layout::Layout::from_size_align
  %0 = call { i64, i64 } @_ZN4core5alloc6layout6Layout15from_size_align17h31000980634a8d62E(i64 %new_size, i64 %_12), !dbg !1743
  %_10.0 = extractvalue { i64, i64 } %0, 0, !dbg !1743
  %_10.1 = extractvalue { i64, i64 } %0, 1, !dbg !1743
  br label %bb5, !dbg !1743

bb5:                                              ; preds = %bb4
; call core::result::Result<T,E>::unwrap
  %1 = call { i64, i64 } @"_ZN4core6result19Result$LT$T$C$E$GT$6unwrap17h30a0b31dcf695d90E"(i64 %_10.0, i64 %_10.1, %"std::panic::Location"* align 8 dereferenceable(24) bitcast (<{ i8*, [16 x i8] }>* @alloc593 to %"std::panic::Location"*)), !dbg !1743
  %2 = extractvalue { i64, i64 } %1, 0, !dbg !1743
  %3 = extractvalue { i64, i64 } %1, 1, !dbg !1743
  br label %bb6, !dbg !1743

bb6:                                              ; preds = %bb5
  %4 = insertvalue { i64, i64 } undef, i64 %2, 0, !dbg !1744
  %5 = insertvalue { i64, i64 } %4, i64 %3, 1, !dbg !1744
  ret { i64, i64 } %5, !dbg !1744
}

; core::alloc::layout::Layout::from_size_align
; Function Attrs: inlinehint nounwind
define internal { i64, i64 } @_ZN4core5alloc6layout6Layout15from_size_align17h31000980634a8d62E(i64 %size, i64 %align) unnamed_addr #0 !dbg !1745 {
start:
  %0 = alloca i64, align 8
  %self.dbg.spill.i.i = alloca i64, align 8
  %self.dbg.spill.i = alloca i64, align 8
  %align.dbg.spill = alloca i64, align 8
  %size.dbg.spill = alloca i64, align 8
  %1 = alloca { i64, i64 }, align 8
  store i64 %size, i64* %size.dbg.spill, align 8
  call void @llvm.dbg.declare(metadata i64* %size.dbg.spill, metadata !1749, metadata !DIExpression()), !dbg !1751
  store i64 %align, i64* %align.dbg.spill, align 8
  call void @llvm.dbg.declare(metadata i64* %align.dbg.spill, metadata !1750, metadata !DIExpression()), !dbg !1752
  store i64 %align, i64* %self.dbg.spill.i, align 8
  call void @llvm.dbg.declare(metadata i64* %self.dbg.spill.i, metadata !1753, metadata !DIExpression()) #12, !dbg !1758
  store i64 %align, i64* %self.dbg.spill.i.i, align 8
  call void @llvm.dbg.declare(metadata i64* %self.dbg.spill.i.i, metadata !1760, metadata !DIExpression()) #12, !dbg !1765
  %2 = call i64 @llvm.ctpop.i64(i64 %align) #12, !dbg !1767
  store i64 %2, i64* %0, align 8, !dbg !1767
  %_2.i.i = load i64, i64* %0, align 8, !dbg !1767
  %3 = trunc i64 %_2.i.i to i32, !dbg !1767
  %4 = icmp eq i32 %3, 1, !dbg !1768
  br label %bb1, !dbg !1769

bb1:                                              ; preds = %start
  %_3 = xor i1 %4, true, !dbg !1770
  br i1 %_3, label %bb2, label %bb3, !dbg !1770

bb3:                                              ; preds = %bb1
  %_9 = sub i64 %align, 1, !dbg !1771
  %_8 = sub i64 -1, %_9, !dbg !1772
  %_6 = icmp ugt i64 %size, %_8, !dbg !1773
  br i1 %_6, label %bb4, label %bb5, !dbg !1773

bb2:                                              ; preds = %bb1
  %5 = getelementptr inbounds { i64, i64 }, { i64, i64 }* %1, i32 0, i32 1, !dbg !1774
  store i64 0, i64* %5, align 8, !dbg !1774
  br label %bb7, !dbg !1775

bb7:                                              ; preds = %bb6, %bb4, %bb2
  %6 = getelementptr inbounds { i64, i64 }, { i64, i64 }* %1, i32 0, i32 0, !dbg !1778
  %7 = load i64, i64* %6, align 8, !dbg !1778
  %8 = getelementptr inbounds { i64, i64 }, { i64, i64 }* %1, i32 0, i32 1, !dbg !1778
  %9 = load i64, i64* %8, align 8, !dbg !1778
  %10 = insertvalue { i64, i64 } undef, i64 %7, 0, !dbg !1778
  %11 = insertvalue { i64, i64 } %10, i64 %9, 1, !dbg !1778
  ret { i64, i64 } %11, !dbg !1778

bb5:                                              ; preds = %bb3
; call core::alloc::layout::Layout::from_size_align_unchecked
  %12 = call { i64, i64 } @_ZN4core5alloc6layout6Layout25from_size_align_unchecked17h7d3db9df0e7e4b98E(i64 %size, i64 %align), !dbg !1779
  %_11.0 = extractvalue { i64, i64 } %12, 0, !dbg !1779
  %_11.1 = extractvalue { i64, i64 } %12, 1, !dbg !1779
  br label %bb6, !dbg !1779

bb4:                                              ; preds = %bb3
  %13 = getelementptr inbounds { i64, i64 }, { i64, i64 }* %1, i32 0, i32 1, !dbg !1780
  store i64 0, i64* %13, align 8, !dbg !1780
  br label %bb7, !dbg !1775

bb6:                                              ; preds = %bb5
  %14 = getelementptr inbounds { i64, i64 }, { i64, i64 }* %1, i32 0, i32 0, !dbg !1781
  store i64 %_11.0, i64* %14, align 8, !dbg !1781
  %15 = getelementptr inbounds { i64, i64 }, { i64, i64 }* %1, i32 0, i32 1, !dbg !1781
  store i64 %_11.1, i64* %15, align 8, !dbg !1781
  br label %bb7, !dbg !1778
}

; core::alloc::layout::Layout::padding_needed_for
; Function Attrs: inlinehint nounwind
define internal i64 @_ZN4core5alloc6layout6Layout18padding_needed_for17hf1fc490a8f5f2505E({ i64, i64 }* align 8 dereferenceable(16) %self, i64 %align) unnamed_addr #0 !dbg !1782 {
start:
  %rhs.dbg.spill.i5 = alloca i64, align 8
  %self.dbg.spill.i6 = alloca i64, align 8
  %rhs.dbg.spill.i3 = alloca i64, align 8
  %self.dbg.spill.i4 = alloca i64, align 8
  %rhs.dbg.spill.i1 = alloca i64, align 8
  %self.dbg.spill.i2 = alloca i64, align 8
  %rhs.dbg.spill.i = alloca i64, align 8
  %self.dbg.spill.i = alloca i64, align 8
  %len_rounded_up.dbg.spill = alloca i64, align 8
  %len.dbg.spill = alloca i64, align 8
  %align.dbg.spill = alloca i64, align 8
  %self.dbg.spill = alloca { i64, i64 }*, align 8
  store { i64, i64 }* %self, { i64, i64 }** %self.dbg.spill, align 8
  call void @llvm.dbg.declare(metadata { i64, i64 }** %self.dbg.spill, metadata !1786, metadata !DIExpression()), !dbg !1792
  store i64 %align, i64* %align.dbg.spill, align 8
  call void @llvm.dbg.declare(metadata i64* %align.dbg.spill, metadata !1787, metadata !DIExpression()), !dbg !1793
; call core::alloc::layout::Layout::size
  %len = call i64 @_ZN4core5alloc6layout6Layout4size17h7a284e541e70fd8bE({ i64, i64 }* align 8 dereferenceable(16) %self), !dbg !1794
  store i64 %len, i64* %len.dbg.spill, align 8, !dbg !1794
  call void @llvm.dbg.declare(metadata i64* %len.dbg.spill, metadata !1788, metadata !DIExpression()), !dbg !1795
  br label %bb1, !dbg !1794

bb1:                                              ; preds = %start
  store i64 %len, i64* %self.dbg.spill.i, align 8
  call void @llvm.dbg.declare(metadata i64* %self.dbg.spill.i, metadata !1796, metadata !DIExpression()), !dbg !1800
  store i64 %align, i64* %rhs.dbg.spill.i, align 8
  call void @llvm.dbg.declare(metadata i64* %rhs.dbg.spill.i, metadata !1799, metadata !DIExpression()), !dbg !1802
  %0 = add i64 %len, %align, !dbg !1803
  br label %bb2, !dbg !1804

bb2:                                              ; preds = %bb1
  store i64 %0, i64* %self.dbg.spill.i6, align 8
  call void @llvm.dbg.declare(metadata i64* %self.dbg.spill.i6, metadata !1805, metadata !DIExpression()), !dbg !1809
  store i64 1, i64* %rhs.dbg.spill.i5, align 8
  call void @llvm.dbg.declare(metadata i64* %rhs.dbg.spill.i5, metadata !1808, metadata !DIExpression()), !dbg !1811
  %1 = sub i64 %0, 1, !dbg !1812
  br label %bb3, !dbg !1804

bb3:                                              ; preds = %bb2
  store i64 %align, i64* %self.dbg.spill.i4, align 8
  call void @llvm.dbg.declare(metadata i64* %self.dbg.spill.i4, metadata !1805, metadata !DIExpression()), !dbg !1813
  store i64 1, i64* %rhs.dbg.spill.i3, align 8
  call void @llvm.dbg.declare(metadata i64* %rhs.dbg.spill.i3, metadata !1808, metadata !DIExpression()), !dbg !1815
  %2 = sub i64 %align, 1, !dbg !1816
  br label %bb4, !dbg !1817

bb4:                                              ; preds = %bb3
  %_10 = xor i64 %2, -1, !dbg !1818
  %len_rounded_up = and i64 %1, %_10, !dbg !1804
  store i64 %len_rounded_up, i64* %len_rounded_up.dbg.spill, align 8, !dbg !1804
  call void @llvm.dbg.declare(metadata i64* %len_rounded_up.dbg.spill, metadata !1790, metadata !DIExpression()), !dbg !1819
  store i64 %len_rounded_up, i64* %self.dbg.spill.i2, align 8
  call void @llvm.dbg.declare(metadata i64* %self.dbg.spill.i2, metadata !1805, metadata !DIExpression()), !dbg !1820
  store i64 %len, i64* %rhs.dbg.spill.i1, align 8
  call void @llvm.dbg.declare(metadata i64* %rhs.dbg.spill.i1, metadata !1808, metadata !DIExpression()), !dbg !1822
  %3 = sub i64 %len_rounded_up, %len, !dbg !1823
  br label %bb5, !dbg !1824

bb5:                                              ; preds = %bb4
  ret i64 %3, !dbg !1825
}

; core::alloc::layout::Layout::from_size_align_unchecked
; Function Attrs: inlinehint nounwind
define internal { i64, i64 } @_ZN4core5alloc6layout6Layout25from_size_align_unchecked17h7d3db9df0e7e4b98E(i64 %size, i64 %align) unnamed_addr #0 !dbg !1826 {
start:
  %align.dbg.spill = alloca i64, align 8
  %size.dbg.spill = alloca i64, align 8
  %0 = alloca { i64, i64 }, align 8
  store i64 %size, i64* %size.dbg.spill, align 8
  call void @llvm.dbg.declare(metadata i64* %size.dbg.spill, metadata !1830, metadata !DIExpression()), !dbg !1832
  store i64 %align, i64* %align.dbg.spill, align 8
  call void @llvm.dbg.declare(metadata i64* %align.dbg.spill, metadata !1831, metadata !DIExpression()), !dbg !1833
; call core::num::nonzero::NonZeroUsize::new_unchecked
  %_4 = call i64 @_ZN4core3num7nonzero12NonZeroUsize13new_unchecked17hd28c89d6839f40a2E(i64 %align), !dbg !1834, !range !1284
  br label %bb1, !dbg !1834

bb1:                                              ; preds = %start
  %1 = bitcast { i64, i64 }* %0 to i64*, !dbg !1835
  store i64 %size, i64* %1, align 8, !dbg !1835
  %2 = getelementptr inbounds { i64, i64 }, { i64, i64 }* %0, i32 0, i32 1, !dbg !1835
  store i64 %_4, i64* %2, align 8, !dbg !1835
  %3 = getelementptr inbounds { i64, i64 }, { i64, i64 }* %0, i32 0, i32 0, !dbg !1836
  %4 = load i64, i64* %3, align 8, !dbg !1836
  %5 = getelementptr inbounds { i64, i64 }, { i64, i64 }* %0, i32 0, i32 1, !dbg !1836
  %6 = load i64, i64* %5, align 8, !dbg !1836, !range !1284
  %7 = insertvalue { i64, i64 } undef, i64 %4, 0, !dbg !1836
  %8 = insertvalue { i64, i64 } %7, i64 %6, 1, !dbg !1836
  ret { i64, i64 } %8, !dbg !1836
}

; core::alloc::layout::Layout::new
; Function Attrs: inlinehint nounwind
define { i64, i64 } @_ZN4core5alloc6layout6Layout3new17h6ff726810dd00e39E() unnamed_addr #0 !dbg !1837 {
start:
  %align.dbg.spill = alloca i64, align 8, !dbg !1844
  %size.dbg.spill = alloca i64, align 8, !dbg !1844
; call core::alloc::layout::size_align
  %0 = call { i64, i64 } @_ZN4core5alloc6layout10size_align17h8973d6f27cea8369E(), !dbg !1844
  %_3.0 = extractvalue { i64, i64 } %0, 0, !dbg !1844
  %_3.1 = extractvalue { i64, i64 } %0, 1, !dbg !1844
  br label %bb1, !dbg !1844

bb1:                                              ; preds = %start
  store i64 %_3.0, i64* %size.dbg.spill, align 8, !dbg !1845
  call void @llvm.dbg.declare(metadata i64* %size.dbg.spill, metadata !1841, metadata !DIExpression()), !dbg !1846
  store i64 %_3.1, i64* %align.dbg.spill, align 8, !dbg !1847
  call void @llvm.dbg.declare(metadata i64* %align.dbg.spill, metadata !1843, metadata !DIExpression()), !dbg !1848
; call core::alloc::layout::Layout::from_size_align_unchecked
  %1 = call { i64, i64 } @_ZN4core5alloc6layout6Layout25from_size_align_unchecked17h7d3db9df0e7e4b98E(i64 %_3.0, i64 %_3.1), !dbg !1849
  %2 = extractvalue { i64, i64 } %1, 0, !dbg !1849
  %3 = extractvalue { i64, i64 } %1, 1, !dbg !1849
  br label %bb2, !dbg !1849

bb2:                                              ; preds = %bb1
  %4 = insertvalue { i64, i64 } undef, i64 %2, 0, !dbg !1850
  %5 = insertvalue { i64, i64 } %4, i64 %3, 1, !dbg !1850
  ret { i64, i64 } %5, !dbg !1850
}

; core::alloc::layout::Layout::size
; Function Attrs: inlinehint nounwind
define internal i64 @_ZN4core5alloc6layout6Layout4size17h7a284e541e70fd8bE({ i64, i64 }* align 8 dereferenceable(16) %self) unnamed_addr #0 !dbg !1851 {
start:
  %self.dbg.spill = alloca { i64, i64 }*, align 8
  store { i64, i64 }* %self, { i64, i64 }** %self.dbg.spill, align 8
  call void @llvm.dbg.declare(metadata { i64, i64 }** %self.dbg.spill, metadata !1855, metadata !DIExpression()), !dbg !1856
  %0 = bitcast { i64, i64 }* %self to i64*, !dbg !1857
  %1 = load i64, i64* %0, align 8, !dbg !1857
  ret i64 %1, !dbg !1858
}

; core::alloc::layout::Layout::align
; Function Attrs: inlinehint nounwind
define internal i64 @_ZN4core5alloc6layout6Layout5align17h71b09892f817aae5E({ i64, i64 }* align 8 dereferenceable(16) %self) unnamed_addr #0 !dbg !1859 {
start:
  %self.dbg.spill = alloca { i64, i64 }*, align 8
  store { i64, i64 }* %self, { i64, i64 }** %self.dbg.spill, align 8
  call void @llvm.dbg.declare(metadata { i64, i64 }** %self.dbg.spill, metadata !1861, metadata !DIExpression()), !dbg !1862
  %0 = getelementptr inbounds { i64, i64 }, { i64, i64 }* %self, i32 0, i32 1, !dbg !1863
  %_2 = load i64, i64* %0, align 8, !dbg !1863, !range !1284
; call core::num::nonzero::NonZeroUsize::get
  %1 = call i64 @_ZN4core3num7nonzero12NonZeroUsize3get17h458dba242e4aeebbE(i64 %_2), !dbg !1863
  br label %bb1, !dbg !1863

bb1:                                              ; preds = %start
  ret i64 %1, !dbg !1864
}

; core::alloc::layout::Layout::array
; Function Attrs: inlinehint nounwind
define { i64, i64 } @_ZN4core5alloc6layout6Layout5array17h1035d8e9ef9f5dd1E(i64 %n) unnamed_addr #0 !dbg !1865 {
start:
  %offset.dbg.spill = alloca i64, align 8
  %residual.dbg.spill = alloca %"std::result::Result<std::convert::Infallible, std::alloc::LayoutError>::Err", align 1
  %n.dbg.spill = alloca i64, align 8
  %val = alloca { { i64, i64 }, i64 }, align 8
  %_8 = alloca { i64, i64 }, align 8
  %_6 = alloca %"std::result::Result<(std::alloc::Layout, usize), std::alloc::LayoutError>", align 8
  %_5 = alloca %"std::ops::ControlFlow<std::result::Result<std::convert::Infallible, std::alloc::LayoutError>, (std::alloc::Layout, usize)>", align 8
  %_4 = alloca { { i64, i64 }, i64 }, align 8
  %layout = alloca { i64, i64 }, align 8
  %0 = alloca { i64, i64 }, align 8
  store i64 %n, i64* %n.dbg.spill, align 8
  call void @llvm.dbg.declare(metadata i64* %n.dbg.spill, metadata !1869, metadata !DIExpression()), !dbg !1885
  call void @llvm.dbg.declare(metadata { i64, i64 }* %layout, metadata !1870, metadata !DIExpression()), !dbg !1886
  call void @llvm.dbg.declare(metadata %"std::result::Result<std::convert::Infallible, std::alloc::LayoutError>::Err"* %residual.dbg.spill, metadata !1873, metadata !DIExpression()), !dbg !1887
  call void @llvm.dbg.declare(metadata { { i64, i64 }, i64 }* %val, metadata !1875, metadata !DIExpression()), !dbg !1888
; call core::alloc::layout::Layout::new
  %1 = call { i64, i64 } @_ZN4core5alloc6layout6Layout3new17h6ff726810dd00e39E(), !dbg !1889
  store { i64, i64 } %1, { i64, i64 }* %_8, align 8, !dbg !1889
  br label %bb1, !dbg !1889

bb1:                                              ; preds = %start
; call core::alloc::layout::Layout::repeat
  call void @_ZN4core5alloc6layout6Layout6repeat17h429e1d1584eb7728E(%"std::result::Result<(std::alloc::Layout, usize), std::alloc::LayoutError>"* noalias nocapture sret(%"std::result::Result<(std::alloc::Layout, usize), std::alloc::LayoutError>") dereferenceable(24) %_6, { i64, i64 }* align 8 dereferenceable(16) %_8, i64 %n), !dbg !1889
  br label %bb2, !dbg !1889

bb2:                                              ; preds = %bb1
; call <core::result::Result<T,E> as core::ops::try_trait::Try>::branch
  call void @"_ZN79_$LT$core..result..Result$LT$T$C$E$GT$$u20$as$u20$core..ops..try_trait..Try$GT$6branch17h3787c517dd758825E"(%"std::ops::ControlFlow<std::result::Result<std::convert::Infallible, std::alloc::LayoutError>, (std::alloc::Layout, usize)>"* noalias nocapture sret(%"std::ops::ControlFlow<std::result::Result<std::convert::Infallible, std::alloc::LayoutError>, (std::alloc::Layout, usize)>") dereferenceable(24) %_5, %"std::result::Result<(std::alloc::Layout, usize), std::alloc::LayoutError>"* noalias nocapture dereferenceable(24) %_6), !dbg !1889
  br label %bb3, !dbg !1889

bb3:                                              ; preds = %bb2
  %2 = getelementptr inbounds %"std::ops::ControlFlow<std::result::Result<std::convert::Infallible, std::alloc::LayoutError>, (std::alloc::Layout, usize)>", %"std::ops::ControlFlow<std::result::Result<std::convert::Infallible, std::alloc::LayoutError>, (std::alloc::Layout, usize)>"* %_5, i32 0, i32 1, !dbg !1889
  %3 = load i64, i64* %2, align 8, !dbg !1889
  %4 = icmp eq i64 %3, 0, !dbg !1889
  %_10 = select i1 %4, i64 1, i64 0, !dbg !1889
  switch i64 %_10, label %bb5 [
    i64 0, label %bb4
    i64 1, label %bb6
  ], !dbg !1889

bb5:                                              ; preds = %bb3
  unreachable, !dbg !1889

bb4:                                              ; preds = %bb3
  %5 = bitcast %"std::ops::ControlFlow<std::result::Result<std::convert::Infallible, std::alloc::LayoutError>, (std::alloc::Layout, usize)>"* %_5 to %"std::ops::ControlFlow<std::result::Result<std::convert::Infallible, std::alloc::LayoutError>, (std::alloc::Layout, usize)>::Continue"*, !dbg !1889
  %6 = bitcast %"std::ops::ControlFlow<std::result::Result<std::convert::Infallible, std::alloc::LayoutError>, (std::alloc::Layout, usize)>::Continue"* %5 to { { i64, i64 }, i64 }*, !dbg !1889
  %7 = bitcast { { i64, i64 }, i64 }* %val to i8*, !dbg !1889
  %8 = bitcast { { i64, i64 }, i64 }* %6 to i8*, !dbg !1889
  call void @llvm.memcpy.p0i8.p0i8.i64(i8* align 8 %7, i8* align 8 %8, i64 24, i1 false), !dbg !1889
  %9 = bitcast { { i64, i64 }, i64 }* %_4 to i8*, !dbg !1888
  %10 = bitcast { { i64, i64 }, i64 }* %val to i8*, !dbg !1888
  call void @llvm.memcpy.p0i8.p0i8.i64(i8* align 8 %9, i8* align 8 %10, i64 24, i1 false), !dbg !1888
  %11 = bitcast { { i64, i64 }, i64 }* %_4 to { i64, i64 }*, !dbg !1890
  %12 = getelementptr inbounds { i64, i64 }, { i64, i64 }* %11, i32 0, i32 0, !dbg !1890
  %13 = load i64, i64* %12, align 8, !dbg !1890
  %14 = getelementptr inbounds { i64, i64 }, { i64, i64 }* %11, i32 0, i32 1, !dbg !1890
  %15 = load i64, i64* %14, align 8, !dbg !1890, !range !1284
  %16 = getelementptr inbounds { i64, i64 }, { i64, i64 }* %layout, i32 0, i32 0, !dbg !1890
  store i64 %13, i64* %16, align 8, !dbg !1890
  %17 = getelementptr inbounds { i64, i64 }, { i64, i64 }* %layout, i32 0, i32 1, !dbg !1890
  store i64 %15, i64* %17, align 8, !dbg !1890
  %18 = getelementptr inbounds { { i64, i64 }, i64 }, { { i64, i64 }, i64 }* %_4, i32 0, i32 1, !dbg !1891
  %offset = load i64, i64* %18, align 8, !dbg !1891
  store i64 %offset, i64* %offset.dbg.spill, align 8, !dbg !1891
  call void @llvm.dbg.declare(metadata i64* %offset.dbg.spill, metadata !1872, metadata !DIExpression()), !dbg !1892
; call core::alloc::layout::Layout::pad_to_align
  %19 = call { i64, i64 } @_ZN4core5alloc6layout6Layout12pad_to_align17h356c043d8961d2f8E({ i64, i64 }* align 8 dereferenceable(16) %layout), !dbg !1893
  %_17.0 = extractvalue { i64, i64 } %19, 0, !dbg !1893
  %_17.1 = extractvalue { i64, i64 } %19, 1, !dbg !1893
  br label %bb8, !dbg !1893

bb6:                                              ; preds = %bb3
; call <core::result::Result<T,F> as core::ops::try_trait::FromResidual<core::result::Result<core::convert::Infallible,E>>>::from_residual
  %20 = call { i64, i64 } @"_ZN153_$LT$core..result..Result$LT$T$C$F$GT$$u20$as$u20$core..ops..try_trait..FromResidual$LT$core..result..Result$LT$core..convert..Infallible$C$E$GT$$GT$$GT$13from_residual17h8673e32ce17afa86E"(), !dbg !1894
  store { i64, i64 } %20, { i64, i64 }* %0, align 8, !dbg !1894
  br label %bb7, !dbg !1894

bb7:                                              ; preds = %bb6
  br label %bb9, !dbg !1895

bb9:                                              ; preds = %bb8, %bb7
  %21 = getelementptr inbounds { i64, i64 }, { i64, i64 }* %0, i32 0, i32 0, !dbg !1895
  %22 = load i64, i64* %21, align 8, !dbg !1895
  %23 = getelementptr inbounds { i64, i64 }, { i64, i64 }* %0, i32 0, i32 1, !dbg !1895
  %24 = load i64, i64* %23, align 8, !dbg !1895
  %25 = insertvalue { i64, i64 } undef, i64 %22, 0, !dbg !1895
  %26 = insertvalue { i64, i64 } %25, i64 %24, 1, !dbg !1895
  ret { i64, i64 } %26, !dbg !1895

bb8:                                              ; preds = %bb4
  %27 = getelementptr inbounds { i64, i64 }, { i64, i64 }* %0, i32 0, i32 0, !dbg !1896
  store i64 %_17.0, i64* %27, align 8, !dbg !1896
  %28 = getelementptr inbounds { i64, i64 }, { i64, i64 }* %0, i32 0, i32 1, !dbg !1896
  store i64 %_17.1, i64* %28, align 8, !dbg !1896
  br label %bb9, !dbg !1895
}

; core::alloc::layout::Layout::repeat
; Function Attrs: inlinehint nounwind
define internal void @_ZN4core5alloc6layout6Layout6repeat17h429e1d1584eb7728E(%"std::result::Result<(std::alloc::Layout, usize), std::alloc::LayoutError>"* noalias nocapture sret(%"std::result::Result<(std::alloc::Layout, usize), std::alloc::LayoutError>") dereferenceable(24) %0, { i64, i64 }* align 8 dereferenceable(16) %self, i64 %n) unnamed_addr #0 !dbg !1897 {
start:
  %alloc_size.dbg.spill = alloca i64, align 8
  %val.dbg.spill = alloca i64, align 8
  %padded_size.dbg.spill = alloca i64, align 8
  %residual.dbg.spill = alloca %"std::result::Result<std::convert::Infallible, std::alloc::LayoutError>::Err", align 1
  %n.dbg.spill = alloca i64, align 8
  %self.dbg.spill = alloca { i64, i64 }*, align 8
  %_21 = alloca { { i64, i64 }, i64 }, align 8
  %_11 = alloca { i64, i64 }, align 8
  store { i64, i64 }* %self, { i64, i64 }** %self.dbg.spill, align 8
  call void @llvm.dbg.declare(metadata { i64, i64 }** %self.dbg.spill, metadata !1901, metadata !DIExpression()), !dbg !1911
  store i64 %n, i64* %n.dbg.spill, align 8
  call void @llvm.dbg.declare(metadata i64* %n.dbg.spill, metadata !1902, metadata !DIExpression()), !dbg !1912
  call void @llvm.dbg.declare(metadata %"std::result::Result<std::convert::Infallible, std::alloc::LayoutError>::Err"* %residual.dbg.spill, metadata !1907, metadata !DIExpression()), !dbg !1913
; call core::alloc::layout::Layout::size
  %_4 = call i64 @_ZN4core5alloc6layout6Layout4size17h7a284e541e70fd8bE({ i64, i64 }* align 8 dereferenceable(16) %self), !dbg !1914
  br label %bb1, !dbg !1914

bb1:                                              ; preds = %start
; call core::alloc::layout::Layout::align
  %_8 = call i64 @_ZN4core5alloc6layout6Layout5align17h71b09892f817aae5E({ i64, i64 }* align 8 dereferenceable(16) %self), !dbg !1915
  br label %bb2, !dbg !1915

bb2:                                              ; preds = %bb1
; call core::alloc::layout::Layout::padding_needed_for
  %_6 = call i64 @_ZN4core5alloc6layout6Layout18padding_needed_for17hf1fc490a8f5f2505E({ i64, i64 }* align 8 dereferenceable(16) %self, i64 %_8), !dbg !1916
  br label %bb3, !dbg !1916

bb3:                                              ; preds = %bb2
  %padded_size = add i64 %_4, %_6, !dbg !1914
  store i64 %padded_size, i64* %padded_size.dbg.spill, align 8, !dbg !1914
  call void @llvm.dbg.declare(metadata i64* %padded_size.dbg.spill, metadata !1903, metadata !DIExpression()), !dbg !1917
; call core::num::<impl usize>::checked_mul
  %1 = call { i64, i64 } @"_ZN4core3num23_$LT$impl$u20$usize$GT$11checked_mul17hd802f3514088ff87E"(i64 %padded_size, i64 %n), !dbg !1918
  %_13.0 = extractvalue { i64, i64 } %1, 0, !dbg !1918
  %_13.1 = extractvalue { i64, i64 } %1, 1, !dbg !1918
  br label %bb4, !dbg !1918

bb4:                                              ; preds = %bb3
; call core::option::Option<T>::ok_or
  %2 = call { i64, i64 } @"_ZN4core6option15Option$LT$T$GT$5ok_or17h9e999bc306c8c66aE"(i64 %_13.0, i64 %_13.1), !dbg !1918
  %_12.0 = extractvalue { i64, i64 } %2, 0, !dbg !1918
  %_12.1 = extractvalue { i64, i64 } %2, 1, !dbg !1918
  br label %bb5, !dbg !1918

bb5:                                              ; preds = %bb4
; call <core::result::Result<T,E> as core::ops::try_trait::Try>::branch
  %3 = call { i64, i64 } @"_ZN79_$LT$core..result..Result$LT$T$C$E$GT$$u20$as$u20$core..ops..try_trait..Try$GT$6branch17hc80254b40107cb29E"(i64 %_12.0, i64 %_12.1), !dbg !1918
  store { i64, i64 } %3, { i64, i64 }* %_11, align 8, !dbg !1918
  br label %bb6, !dbg !1918

bb6:                                              ; preds = %bb5
  %4 = bitcast { i64, i64 }* %_11 to i64*, !dbg !1918
  %_17 = load i64, i64* %4, align 8, !dbg !1918, !range !1202
  switch i64 %_17, label %bb8 [
    i64 0, label %bb7
    i64 1, label %bb9
  ], !dbg !1918

bb8:                                              ; preds = %bb6
  unreachable, !dbg !1918

bb7:                                              ; preds = %bb6
  %5 = bitcast { i64, i64 }* %_11 to %"std::ops::ControlFlow<std::result::Result<std::convert::Infallible, std::alloc::LayoutError>, usize>::Continue"*, !dbg !1918
  %6 = getelementptr inbounds %"std::ops::ControlFlow<std::result::Result<std::convert::Infallible, std::alloc::LayoutError>, usize>::Continue", %"std::ops::ControlFlow<std::result::Result<std::convert::Infallible, std::alloc::LayoutError>, usize>::Continue"* %5, i32 0, i32 1, !dbg !1918
  %val = load i64, i64* %6, align 8, !dbg !1918
  store i64 %val, i64* %val.dbg.spill, align 8, !dbg !1918
  call void @llvm.dbg.declare(metadata i64* %val.dbg.spill, metadata !1909, metadata !DIExpression()), !dbg !1919
  store i64 %val, i64* %alloc_size.dbg.spill, align 8, !dbg !1919
  call void @llvm.dbg.declare(metadata i64* %alloc_size.dbg.spill, metadata !1905, metadata !DIExpression()), !dbg !1920
; call core::alloc::layout::Layout::align
  %_24 = call i64 @_ZN4core5alloc6layout6Layout5align17h71b09892f817aae5E({ i64, i64 }* align 8 dereferenceable(16) %self), !dbg !1921
  br label %bb11, !dbg !1921

bb9:                                              ; preds = %bb6
; call <core::result::Result<T,F> as core::ops::try_trait::FromResidual<core::result::Result<core::convert::Infallible,E>>>::from_residual
  call void @"_ZN153_$LT$core..result..Result$LT$T$C$F$GT$$u20$as$u20$core..ops..try_trait..FromResidual$LT$core..result..Result$LT$core..convert..Infallible$C$E$GT$$GT$$GT$13from_residual17h36480700bbcbd701E"(%"std::result::Result<(std::alloc::Layout, usize), std::alloc::LayoutError>"* noalias nocapture sret(%"std::result::Result<(std::alloc::Layout, usize), std::alloc::LayoutError>") dereferenceable(24) %0), !dbg !1922
  br label %bb10, !dbg !1922

bb10:                                             ; preds = %bb9
  br label %bb13, !dbg !1923

bb13:                                             ; preds = %bb12, %bb10
  ret void, !dbg !1923

bb11:                                             ; preds = %bb7
; call core::alloc::layout::Layout::from_size_align_unchecked
  %7 = call { i64, i64 } @_ZN4core5alloc6layout6Layout25from_size_align_unchecked17h7d3db9df0e7e4b98E(i64 %val, i64 %_24), !dbg !1924
  %_22.0 = extractvalue { i64, i64 } %7, 0, !dbg !1924
  %_22.1 = extractvalue { i64, i64 } %7, 1, !dbg !1924
  br label %bb12, !dbg !1924

bb12:                                             ; preds = %bb11
  %8 = bitcast { { i64, i64 }, i64 }* %_21 to { i64, i64 }*, !dbg !1925
  %9 = getelementptr inbounds { i64, i64 }, { i64, i64 }* %8, i32 0, i32 0, !dbg !1925
  store i64 %_22.0, i64* %9, align 8, !dbg !1925
  %10 = getelementptr inbounds { i64, i64 }, { i64, i64 }* %8, i32 0, i32 1, !dbg !1925
  store i64 %_22.1, i64* %10, align 8, !dbg !1925
  %11 = getelementptr inbounds { { i64, i64 }, i64 }, { { i64, i64 }, i64 }* %_21, i32 0, i32 1, !dbg !1925
  store i64 %padded_size, i64* %11, align 8, !dbg !1925
  %12 = bitcast %"std::result::Result<(std::alloc::Layout, usize), std::alloc::LayoutError>"* %0 to %"std::result::Result<(std::alloc::Layout, usize), std::alloc::LayoutError>::Ok"*, !dbg !1926
  %13 = bitcast %"std::result::Result<(std::alloc::Layout, usize), std::alloc::LayoutError>::Ok"* %12 to { { i64, i64 }, i64 }*, !dbg !1926
  %14 = bitcast { { i64, i64 }, i64 }* %13 to i8*, !dbg !1926
  %15 = bitcast { { i64, i64 }, i64 }* %_21 to i8*, !dbg !1926
  call void @llvm.memcpy.p0i8.p0i8.i64(i8* align 8 %14, i8* align 8 %15, i64 24, i1 false), !dbg !1926
  br label %bb13, !dbg !1923
}

; core::alloc::layout::Layout::dangling
; Function Attrs: inlinehint nounwind
define internal nonnull i8* @_ZN4core5alloc6layout6Layout8dangling17hd9dc7e269411dacaE({ i64, i64 }* align 8 dereferenceable(16) %self) unnamed_addr #0 !dbg !1927 {
start:
  %self.dbg.spill = alloca { i64, i64 }*, align 8
  store { i64, i64 }* %self, { i64, i64 }** %self.dbg.spill, align 8
  call void @llvm.dbg.declare(metadata { i64, i64 }** %self.dbg.spill, metadata !1931, metadata !DIExpression()), !dbg !1932
; call core::alloc::layout::Layout::align
  %_3 = call i64 @_ZN4core5alloc6layout6Layout5align17h71b09892f817aae5E({ i64, i64 }* align 8 dereferenceable(16) %self), !dbg !1933
  br label %bb1, !dbg !1933

bb1:                                              ; preds = %start
  %_2 = inttoptr i64 %_3 to i8*, !dbg !1933
; call core::ptr::non_null::NonNull<T>::new_unchecked
  %0 = call nonnull i8* @"_ZN4core3ptr8non_null16NonNull$LT$T$GT$13new_unchecked17h798f450c829937aaE"(i8* %_2), !dbg !1934
  br label %bb2, !dbg !1934

bb2:                                              ; preds = %bb1
  ret i8* %0, !dbg !1935
}

; core::array::<impl core::convert::TryFrom<&[T]> for &[T; N]>::try_from
; Function Attrs: nounwind
define align 1 dereferenceable_or_null(8) i8* @"_ZN4core5array102_$LT$impl$u20$core..convert..TryFrom$LT$$RF$$u5b$T$u5d$$GT$$u20$for$u20$$RF$$u5b$T$u3b$$u20$N$u5d$$GT$8try_from17hd234cc5c4292c193E"([0 x i8]* nonnull align 1 %slice.0, i64 %slice.1) unnamed_addr #1 !dbg !1936 {
start:
  %ptr.dbg.spill = alloca [8 x i8]*, align 8
  %slice.dbg.spill = alloca { [0 x i8]*, i64 }, align 8
  %0 = alloca i8*, align 8
  %1 = getelementptr inbounds { [0 x i8]*, i64 }, { [0 x i8]*, i64 }* %slice.dbg.spill, i32 0, i32 0
  store [0 x i8]* %slice.0, [0 x i8]** %1, align 8
  %2 = getelementptr inbounds { [0 x i8]*, i64 }, { [0 x i8]*, i64 }* %slice.dbg.spill, i32 0, i32 1
  store i64 %slice.1, i64* %2, align 8
  call void @llvm.dbg.declare(metadata { [0 x i8]*, i64 }* %slice.dbg.spill, metadata !1958, metadata !DIExpression()), !dbg !1962
  %_2 = icmp eq i64 %slice.1, 8, !dbg !1963
  br i1 %_2, label %bb1, label %bb3, !dbg !1963

bb3:                                              ; preds = %start
  %3 = bitcast i8** %0 to {}**, !dbg !1964
  store {}* null, {}** %3, align 8, !dbg !1964
  br label %bb4, !dbg !1965

bb1:                                              ; preds = %start
; call core::slice::<impl [T]>::as_ptr
  %_6 = call i8* @"_ZN4core5slice29_$LT$impl$u20$$u5b$T$u5d$$GT$6as_ptr17h4a1dfe72a7ae1c25E"([0 x i8]* nonnull align 1 %slice.0, i64 %slice.1), !dbg !1966
  br label %bb2, !dbg !1966

bb2:                                              ; preds = %bb1
  %ptr = bitcast i8* %_6 to [8 x i8]*, !dbg !1966
  store [8 x i8]* %ptr, [8 x i8]** %ptr.dbg.spill, align 8, !dbg !1966
  call void @llvm.dbg.declare(metadata [8 x i8]** %ptr.dbg.spill, metadata !1959, metadata !DIExpression()), !dbg !1967
  %4 = bitcast i8** %0 to [8 x i8]**, !dbg !1968
  store [8 x i8]* %ptr, [8 x i8]** %4, align 8, !dbg !1968
  br label %bb4, !dbg !1965

bb4:                                              ; preds = %bb3, %bb2
  %5 = load i8*, i8** %0, align 8, !dbg !1969
  ret i8* %5, !dbg !1969
}

; core::array::<impl core::ops::index::Index<I> for [T; N]>::index
; Function Attrs: inlinehint nounwind
define { [0 x i8]*, i64 } @"_ZN4core5array85_$LT$impl$u20$core..ops..index..Index$LT$I$GT$$u20$for$u20$$u5b$T$u3b$$u20$N$u5d$$GT$5index17hf860101d79e0a39dE"([1024 x i8]* align 1 dereferenceable(1024) %self, i64 %index.0, i64 %index.1, %"std::panic::Location"* align 8 dereferenceable(24) %0) unnamed_addr #0 !dbg !1970 {
start:
  %index.dbg.spill = alloca { i64, i64 }, align 8
  %self.dbg.spill = alloca [1024 x i8]*, align 8
  store [1024 x i8]* %self, [1024 x i8]** %self.dbg.spill, align 8
  call void @llvm.dbg.declare(metadata [1024 x i8]** %self.dbg.spill, metadata !1979, metadata !DIExpression()), !dbg !1983
  %1 = getelementptr inbounds { i64, i64 }, { i64, i64 }* %index.dbg.spill, i32 0, i32 0
  store i64 %index.0, i64* %1, align 8
  %2 = getelementptr inbounds { i64, i64 }, { i64, i64 }* %index.dbg.spill, i32 0, i32 1
  store i64 %index.1, i64* %2, align 8
  call void @llvm.dbg.declare(metadata { i64, i64 }* %index.dbg.spill, metadata !1980, metadata !DIExpression()), !dbg !1984
