; ModuleID = 'bincode.387ff269-cgu.0'
source_filename = "bincode.387ff269-cgu.0"
target datalayout = "e-m:e-p:64:64-i64:64-n32:64-S128"
target triple = "bpfel"

%"std::alloc::AllocError" = type {}
%"std::result::Result<std::convert::Infallible, std::alloc::AllocError>::Err" = type { %"std::alloc::AllocError" }
%"std::result::Result<std::ptr::NonNull<[u8]>, std::alloc::AllocError>::Err" = type { %"std::alloc::AllocError" }
%"std::io::Error" = type { %"std::io::error::Repr" }
%"std::io::error::Repr" = type { i8, [15 x i8] }
%"std::error::private::Internal" = type {}
%"std::fmt::Formatter" = type { { i64, i64 }, { i64, i64 }, { {}*, [3 x i64]* }, i32, i32, i8, [7 x i8] }
%"std::str::Utf8Error" = type { i64, { i8, i8 }, [6 x i8] }
%"core::fmt::Opaque" = type {}
%"std::fmt::Arguments" = type { { [0 x { [0 x i8]*, i64 }]*, i64 }, { i64*, i64 }, { [0 x { i8*, i64* }]*, i64 } }
%"std::panic::Location" = type { { [0 x i8]*, i64 }, i32, i32 }
%"std::io::error::Repr::Custom" = type { [1 x i64], %"std::io::error::Custom"* }
%"std::io::error::Custom" = type { { {}*, [3 x i64]* }, i8, [7 x i8] }
%"std::string::String" = type { %"std::vec::Vec<u8>" }
%"std::vec::Vec<u8>" = type { { i8*, i64 }, i64 }
%"std::result::Result<std::ptr::NonNull<u8>, std::alloc::AllocError>::Err" = type { %"std::alloc::AllocError" }
%"error::ErrorKind" = type { i8, [31 x i8] }
%"std::alloc::Global" = type {}
%"std::ops::ControlFlow<std::result::Result<std::convert::Infallible, std::alloc::AllocError>, std::ptr::NonNull<u8>>::Break" = type { %"std::result::Result<std::convert::Infallible, std::alloc::AllocError>::Err" }
%"std::result::Result<usize, std::boxed::Box<error::ErrorKind>>" = type { i64, [1 x i64] }
%"std::result::Result<usize, std::boxed::Box<error::ErrorKind>>::Ok" = type { [1 x i64], i64 }
%"error::ErrorKind::Custom" = type { [1 x i64], %"std::string::String" }
%"std::result::Result<usize, std::boxed::Box<error::ErrorKind>>::Err" = type { [1 x i64], %"error::ErrorKind"* }
%"std::result::Result<u32, std::boxed::Box<error::ErrorKind>>" = type { i32, [3 x i32] }
%"std::result::Result<u32, std::boxed::Box<error::ErrorKind>>::Ok" = type { [1 x i32], i32 }
%"std::result::Result<u32, std::boxed::Box<error::ErrorKind>>::Err" = type { [1 x i64], %"error::ErrorKind"* }
%"std::result::Result<u16, std::boxed::Box<error::ErrorKind>>" = type { i16, [7 x i16] }
%"std::result::Result<u16, std::boxed::Box<error::ErrorKind>>::Ok" = type { [1 x i16], i16 }
%"std::result::Result<u16, std::boxed::Box<error::ErrorKind>>::Err" = type { [1 x i64], %"error::ErrorKind"* }
%"std::result::Result<i32, std::boxed::Box<error::ErrorKind>>" = type { i32, [3 x i32] }
%"std::result::Result<i32, std::boxed::Box<error::ErrorKind>>::Ok" = type { [1 x i32], i32 }
%"std::result::Result<i32, std::boxed::Box<error::ErrorKind>>::Err" = type { [1 x i64], %"error::ErrorKind"* }
%"std::result::Result<i16, std::boxed::Box<error::ErrorKind>>" = type { i16, [7 x i16] }
%"std::result::Result<i16, std::boxed::Box<error::ErrorKind>>::Ok" = type { [1 x i16], i16 }
%"std::result::Result<i16, std::boxed::Box<error::ErrorKind>>::Err" = type { [1 x i64], %"error::ErrorKind"* }
%"error::ErrorKind::Io" = type { [1 x i64], %"std::io::Error" }
%"error::ErrorKind::InvalidUtf8Encoding" = type { [1 x i64], %"std::str::Utf8Error" }
%"error::ErrorKind::InvalidBoolEncoding" = type { [1 x i8], i8 }
%"error::ErrorKind::InvalidTagEncoding" = type { [1 x i64], i64 }
%"ser::EncodeUtf8" = type { i64, [4 x i8], [4 x i8] }
%"config::legacy::Config" = type { { i64, i64 }, i8, [7 x i8] }
%"std::fmt::DebugStruct" = type { %"std::fmt::Formatter"*, i8, i8, [6 x i8] }
%"std::fmt::DebugTuple" = type { %"std::fmt::Formatter"*, i64, i8, i8, [6 x i8] }
%"config::legacy::LimitOption::Limited" = type { [1 x i64], i64 }

@alloc774 = private unnamed_addr constant <{ [12 x i8] }> <{ [12 x i8] c"invalid args" }>, align 1
@alloc775 = private unnamed_addr constant <{ [74 x i8] }> <{ [74 x i8] c"/home/runner/work/bpf-tools/bpf-tools/out/rust/library/core/src/fmt/mod.rs" }>, align 1
@alloc776 = private unnamed_addr constant <{ i8*, [16 x i8] }> <{ i8* getelementptr inbounds (<{ [74 x i8] }>, <{ [74 x i8] }>* @alloc775, i32 0, i32 0, i32 0), [16 x i8] c"J\00\00\00\00\00\00\00c\01\00\00\0D\00\00\00" }>, align 8
@alloc677 = private unnamed_addr constant <{ [0 x i8] }> zeroinitializer, align 8
@alloc810 = private unnamed_addr constant <{ [94 x i8] }> <{ [94 x i8] c"/home/seaceved/.cargo/registry/src/github.com-1ecc6299db9ec823/bincode-1.3.3/src/config/int.rs" }>, align 1
@alloc778 = private unnamed_addr constant <{ i8*, [16 x i8] }> <{ i8* getelementptr inbounds (<{ [94 x i8] }>, <{ [94 x i8] }>* @alloc810, i32 0, i32 0, i32 0), [16 x i8] c"^\00\00\00\00\00\00\00\BB\00\00\00\0D\00\00\00" }>, align 8
@str.0 = internal constant [28 x i8] c"attempt to add with overflow"
@alloc780 = private unnamed_addr constant <{ i8*, [16 x i8] }> <{ i8* getelementptr inbounds (<{ [94 x i8] }>, <{ [94 x i8] }>* @alloc810, i32 0, i32 0, i32 0), [16 x i8] c"^\00\00\00\00\00\00\00\BD\00\00\00\0D\00\00\00" }>, align 8
@alloc782 = private unnamed_addr constant <{ i8*, [16 x i8] }> <{ i8* getelementptr inbounds (<{ [94 x i8] }>, <{ [94 x i8] }>* @alloc810, i32 0, i32 0, i32 0), [16 x i8] c"^\00\00\00\00\00\00\00\BF\00\00\00\0D\00\00\00" }>, align 8
@alloc563 = private unnamed_addr constant <{ [8 x i8] }> <{ [8 x i8] c"\FF\FF\FF\FF\FF\FF\FF\FF" }>, align 8
@alloc569 = private unnamed_addr constant <{ [13 x i8] }> <{ [13 x i8] c"Invalid size " }>, align 1
@alloc571 = private unnamed_addr constant <{ [34 x i8] }> <{ [34 x i8] c": sizes must fit in a usize (0 to " }>, align 1
@alloc572 = private unnamed_addr constant <{ [1 x i8] }> <{ [1 x i8] c")" }>, align 1
@alloc570 = private unnamed_addr constant <{ i8*, [8 x i8], i8*, [8 x i8], i8*, [8 x i8] }> <{ i8* getelementptr inbounds (<{ [13 x i8] }>, <{ [13 x i8] }>* @alloc569, i32 0, i32 0, i32 0), [8 x i8] c"\0D\00\00\00\00\00\00\00", i8* getelementptr inbounds (<{ [34 x i8] }>, <{ [34 x i8] }>* @alloc571, i32 0, i32 0, i32 0), [8 x i8] c"\22\00\00\00\00\00\00\00", i8* getelementptr inbounds (<{ [1 x i8] }>, <{ [1 x i8] }>* @alloc572, i32 0, i32 0, i32 0), [8 x i8] c"\01\00\00\00\00\00\00\00" }>, align 8
@alloc584 = private unnamed_addr constant <{ [12 x i8] }> <{ [12 x i8] c"Invalid u32 " }>, align 1
@alloc626 = private unnamed_addr constant <{ [38 x i8] }> <{ [38 x i8] c": you may have a version disagreement?" }>, align 1
@alloc585 = private unnamed_addr constant <{ i8*, [8 x i8], i8*, [8 x i8] }> <{ i8* getelementptr inbounds (<{ [12 x i8] }>, <{ [12 x i8] }>* @alloc584, i32 0, i32 0, i32 0), [8 x i8] c"\0C\00\00\00\00\00\00\00", i8* getelementptr inbounds (<{ [38 x i8] }>, <{ [38 x i8] }>* @alloc626, i32 0, i32 0, i32 0), [8 x i8] c"&\00\00\00\00\00\00\00" }>, align 8
@alloc596 = private unnamed_addr constant <{ [12 x i8] }> <{ [12 x i8] c"Invalid u16 " }>, align 1
@alloc597 = private unnamed_addr constant <{ i8*, [8 x i8], i8*, [8 x i8] }> <{ i8* getelementptr inbounds (<{ [12 x i8] }>, <{ [12 x i8] }>* @alloc596, i32 0, i32 0, i32 0), [8 x i8] c"\0C\00\00\00\00\00\00\00", i8* getelementptr inbounds (<{ [38 x i8] }>, <{ [38 x i8] }>* @alloc626, i32 0, i32 0, i32 0), [8 x i8] c"&\00\00\00\00\00\00\00" }>, align 8
@alloc609 = private unnamed_addr constant <{ [12 x i8] }> <{ [12 x i8] c"Invalid i32 " }>, align 1
@alloc610 = private unnamed_addr constant <{ i8*, [8 x i8], i8*, [8 x i8] }> <{ i8* getelementptr inbounds (<{ [12 x i8] }>, <{ [12 x i8] }>* @alloc609, i32 0, i32 0, i32 0), [8 x i8] c"\0C\00\00\00\00\00\00\00", i8* getelementptr inbounds (<{ [38 x i8] }>, <{ [38 x i8] }>* @alloc626, i32 0, i32 0, i32 0), [8 x i8] c"&\00\00\00\00\00\00\00" }>, align 8
@alloc624 = private unnamed_addr constant <{ [12 x i8] }> <{ [12 x i8] c"Invalid i16 " }>, align 1
@alloc625 = private unnamed_addr constant <{ i8*, [8 x i8], i8*, [8 x i8] }> <{ i8* getelementptr inbounds (<{ [12 x i8] }>, <{ [12 x i8] }>* @alloc624, i32 0, i32 0, i32 0), [8 x i8] c"\0C\00\00\00\00\00\00\00", i8* getelementptr inbounds (<{ [38 x i8] }>, <{ [38 x i8] }>* @alloc626, i32 0, i32 0, i32 0), [8 x i8] c"&\00\00\00\00\00\00\00" }>, align 8
@_ZN7bincode2de15UTF8_CHAR_WIDTH17h64d6f0de52a44931E = internal constant <{ [256 x i8] }> <{ [256 x i8] c"\01\01\01\01\01\01\01\01\01\01\01\01\01\01\01\01\01\01\01\01\01\01\01\01\01\01\01\01\01\01\01\01\01\01\01\01\01\01\01\01\01\01\01\01\01\01\01\01\01\01\01\01\01\01\01\01\01\01\01\01\01\01\01\01\01\01\01\01\01\01\01\01\01\01\01\01\01\01\01\01\01\01\01\01\01\01\01\01\01\01\01\01\01\01\01\01\01\01\01\01\01\01\01\01\01\01\01\01\01\01\01\01\01\01\01\01\01\01\01\01\01\01\01\01\01\01\01\01\00\00\00\00\00\00\00\00\00\00\00\00\00\00\00\00\00\00\00\00\00\00\00\00\00\00\00\00\00\00\00\00\00\00\00\00\00\00\00\00\00\00\00\00\00\00\00\00\00\00\00\00\00\00\00\00\00\00\00\00\00\00\00\00\00\00\02\02\02\02\02\02\02\02\02\02\02\02\02\02\02\02\02\02\02\02\02\02\02\02\02\02\02\02\02\02\03\03\03\03\03\03\03\03\03\03\03\03\03\03\03\03\04\04\04\04\04\00\00\00\00\00\00\00\00\00\00\00" }>, align 1, !dbg !0
@alloc783 = private unnamed_addr constant <{ [90 x i8] }> <{ [90 x i8] c"/home/seaceved/.cargo/registry/src/github.com-1ecc6299db9ec823/bincode-1.3.3/src/de/mod.rs" }>, align 1
@alloc784 = private unnamed_addr constant <{ i8*, [16 x i8] }> <{ i8* getelementptr inbounds (<{ [90 x i8] }>, <{ [90 x i8] }>* @alloc783, i32 0, i32 0, i32 0), [16 x i8] c"Z\00\00\00\00\00\00\00\02\02\00\00\05\00\00\00" }>, align 8
@alloc785 = private unnamed_addr constant <{ [82 x i8] }> <{ [82 x i8] c"Bincode can only encode sequences and maps that have a knowable size ahead of time" }>, align 1
@alloc786 = private unnamed_addr constant <{ [31 x i8] }> <{ [31 x i8] c"the size limit has been reached" }>, align 1
@alloc787 = private unnamed_addr constant <{ [60 x i8] }> <{ [60 x i8] c"Bincode doesn't support serde::Deserializer::deserialize_any" }>, align 1
@alloc788 = private unnamed_addr constant <{ [25 x i8] }> <{ [25 x i8] c"tag for enum is not valid" }>, align 1
@alloc789 = private unnamed_addr constant <{ [17 x i8] }> <{ [17 x i8] c"char is not valid" }>, align 1
@alloc790 = private unnamed_addr constant <{ [30 x i8] }> <{ [30 x i8] c"invalid u8 while decoding bool" }>, align 1
@alloc791 = private unnamed_addr constant <{ [24 x i8] }> <{ [24 x i8] c"string is not valid utf8" }>, align 1
@alloc796 = private unnamed_addr constant <{ i8*, [16 x i8], i8*, [0 x i8] }> <{ i8* bitcast (void (%"std::io::Error"*)* @"_ZN4core3ptr42drop_in_place$LT$std..io..error..Error$GT$17hb3d9e365545d253bE" to i8*), [16 x i8] c"\10\00\00\00\00\00\00\00\08\00\00\00\00\00\00\00", i8* bitcast (i1 (%"std::io::Error"*, %"std::fmt::Formatter"*)* @"_ZN60_$LT$std..io..error..Error$u20$as$u20$core..fmt..Display$GT$3fmt17h3a79b1a6eb2a4ee0E" to i8*), [0 x i8] zeroinitializer }>, align 8
@vtable.1 = private unnamed_addr constant <{ i8*, [16 x i8], i8*, i8*, i8*, i8*, i8*, i8*, i8*, [0 x i8] }> <{ i8* bitcast (void (%"std::io::Error"*)* @"_ZN4core3ptr42drop_in_place$LT$std..io..error..Error$GT$17hb3d9e365545d253bE" to i8*), [16 x i8] c"\10\00\00\00\00\00\00\00\08\00\00\00\00\00\00\00", i8* bitcast (i1 (%"std::io::Error"*, %"std::fmt::Formatter"*)* @"_ZN58_$LT$std..io..error..Error$u20$as$u20$core..fmt..Debug$GT$3fmt17ha495cdbaf19f3b15E" to i8*), i8* bitcast (i1 (%"std::io::Error"*, %"std::fmt::Formatter"*)* @"_ZN60_$LT$std..io..error..Error$u20$as$u20$core..fmt..Display$GT$3fmt17h3a79b1a6eb2a4ee0E" to i8*), i8* bitcast (<{ i8*, [16 x i8], i8*, [0 x i8] }>* @alloc796 to i8*), i8* bitcast ({ i8*, i8* } (%"std::io::Error"*)* @"_ZN59_$LT$std..io..error..Error$u20$as$u20$std..error..Error$GT$6source17he1f5baf90efd9659E" to i8*), i8* bitcast (i64 (%"std::io::Error"*)* @_ZN3std5error5Error7type_id17h9093c8fc689eca4cE to i8*), i8* bitcast ({ [0 x i8]*, i64 } (%"std::io::Error"*)* @"_ZN59_$LT$std..io..error..Error$u20$as$u20$std..error..Error$GT$11description17h7b9a5b4d3602366aE" to i8*), i8* bitcast ({ i8*, i8* } (%"std::io::Error"*)* @"_ZN59_$LT$std..io..error..Error$u20$as$u20$std..error..Error$GT$5cause17h15319ea59544e888E" to i8*), [0 x i8] zeroinitializer }>, align 8, !dbg !9
@alloc692 = private unnamed_addr constant <{ i8*, [8 x i8] }> <{ i8* getelementptr inbounds (<{ [0 x i8] }>, <{ [0 x i8] }>* @alloc677, i32 0, i32 0, i32 0), [8 x i8] zeroinitializer }>, align 8
@alloc713 = private unnamed_addr constant <{ [72 x i8] }> <{ [72 x i8] c"Bincode does not support the serde::Deserializer::deserialize_any method" }>, align 1
@alloc714 = private unnamed_addr constant <{ i8*, [8 x i8] }> <{ i8* getelementptr inbounds (<{ [72 x i8] }>, <{ [72 x i8] }>* @alloc713, i32 0, i32 0, i32 0), [8 x i8] c"H\00\00\00\00\00\00\00" }>, align 8
@alloc699 = private unnamed_addr constant <{ [8 x i8] }> <{ [8 x i8] c", found " }>, align 1
@alloc698 = private unnamed_addr constant <{ i8*, [8 x i8], i8*, [8 x i8] }> <{ i8* getelementptr inbounds (<{ [0 x i8] }>, <{ [0 x i8] }>* @alloc677, i32 0, i32 0, i32 0), [8 x i8] zeroinitializer, i8* getelementptr inbounds (<{ [8 x i8] }>, <{ [8 x i8] }>* @alloc699, i32 0, i32 0, i32 0), [8 x i8] c"\08\00\00\00\00\00\00\00" }>, align 8
@alloc687 = private unnamed_addr constant <{ [25 x i8] }> <{ [25 x i8] c", expected 0 or 1, found " }>, align 1
@alloc686 = private unnamed_addr constant <{ i8*, [8 x i8], i8*, [8 x i8] }> <{ i8* getelementptr inbounds (<{ [0 x i8] }>, <{ [0 x i8] }>* @alloc677, i32 0, i32 0, i32 0), [8 x i8] zeroinitializer, i8* getelementptr inbounds (<{ [25 x i8] }>, <{ [25 x i8] }>* @alloc687, i32 0, i32 0, i32 0), [8 x i8] c"\19\00\00\00\00\00\00\00" }>, align 8
@alloc679 = private unnamed_addr constant <{ [2 x i8] }> <{ [2 x i8] c": " }>, align 1
@alloc678 = private unnamed_addr constant <{ i8*, [8 x i8], i8*, [8 x i8] }> <{ i8* getelementptr inbounds (<{ [0 x i8] }>, <{ [0 x i8] }>* @alloc677, i32 0, i32 0, i32 0), [8 x i8] zeroinitializer, i8* getelementptr inbounds (<{ [2 x i8] }>, <{ [2 x i8] }>* @alloc679, i32 0, i32 0, i32 0), [8 x i8] c"\02\00\00\00\00\00\00\00" }>, align 8
@alloc670 = private unnamed_addr constant <{ [10 x i8] }> <{ [10 x i8] c"io error: " }>, align 1
@alloc671 = private unnamed_addr constant <{ i8*, [8 x i8] }> <{ i8* getelementptr inbounds (<{ [10 x i8] }>, <{ [10 x i8] }>* @alloc670, i32 0, i32 0, i32 0), [8 x i8] c"\0A\00\00\00\00\00\00\00" }>, align 8
@alloc802 = private unnamed_addr constant <{ [91 x i8] }> <{ [91 x i8] c"/home/seaceved/.cargo/registry/src/github.com-1ecc6299db9ec823/bincode-1.3.3/src/ser/mod.rs" }>, align 1
@alloc803 = private unnamed_addr constant <{ i8*, [16 x i8] }> <{ i8* getelementptr inbounds (<{ [91 x i8] }>, <{ [91 x i8] }>* @alloc802, i32 0, i32 0, i32 0), [16 x i8] c"[\00\00\00\00\00\00\00\02\03\00\00\0A\00\00\00" }>, align 8
@alloc805 = private unnamed_addr constant <{ i8*, [16 x i8] }> <{ i8* getelementptr inbounds (<{ [94 x i8] }>, <{ [94 x i8] }>* @alloc810, i32 0, i32 0, i32 0), [16 x i8] c"^\00\00\00\00\00\00\00\1B\01\00\00\11\00\00\00" }>, align 8
@alloc807 = private unnamed_addr constant <{ i8*, [16 x i8] }> <{ i8* getelementptr inbounds (<{ [94 x i8] }>, <{ [94 x i8] }>* @alloc810, i32 0, i32 0, i32 0), [16 x i8] c"^\00\00\00\00\00\00\00\1D\01\00\00\11\00\00\00" }>, align 8
@alloc809 = private unnamed_addr constant <{ i8*, [16 x i8] }> <{ i8* getelementptr inbounds (<{ [94 x i8] }>, <{ [94 x i8] }>* @alloc810, i32 0, i32 0, i32 0), [16 x i8] c"^\00\00\00\00\00\00\00\1F\01\00\00\11\00\00\00" }>, align 8
@alloc811 = private unnamed_addr constant <{ i8*, [16 x i8] }> <{ i8* getelementptr inbounds (<{ [94 x i8] }>, <{ [94 x i8] }>* @alloc810, i32 0, i32 0, i32 0), [16 x i8] c"^\00\00\00\00\00\00\00!\01\00\00\11\00\00\00" }>, align 8
@alloc812 = private unnamed_addr constant <{ [6 x i8] }> <{ [6 x i8] c"Config" }>, align 1
@alloc813 = private unnamed_addr constant <{ [5 x i8] }> <{ [5 x i8] c"limit" }>, align 1
@vtable.2 = private unnamed_addr constant <{ i8*, [16 x i8], i8*, [0 x i8] }> <{ i8* bitcast (void ({ i64, i64 }**)* @"_ZN4core3ptr61drop_in_place$LT$$RF$bincode..config..legacy..LimitOption$GT$17h6410e42c6ef49a47E" to i8*), [16 x i8] c"\08\00\00\00\00\00\00\00\08\00\00\00\00\00\00\00", i8* bitcast (i1 ({ i64, i64 }**, %"std::fmt::Formatter"*)* @"_ZN42_$LT$$RF$T$u20$as$u20$core..fmt..Debug$GT$3fmt17h0f35a2ef15ff3f08E" to i8*), [0 x i8] zeroinitializer }>, align 8, !dbg !118
@alloc817 = private unnamed_addr constant <{ [6 x i8] }> <{ [6 x i8] c"endian" }>, align 1
@vtable.3 = private unnamed_addr constant <{ i8*, [16 x i8], i8*, [0 x i8] }> <{ i8* bitcast (void (i8**)* @"_ZN4core3ptr62drop_in_place$LT$$RF$bincode..config..legacy..EndianOption$GT$17hd8787a4fbc8e818aE" to i8*), [16 x i8] c"\08\00\00\00\00\00\00\00\08\00\00\00\00\00\00\00", i8* bitcast (i1 (i8**, %"std::fmt::Formatter"*)* @"_ZN42_$LT$$RF$T$u20$as$u20$core..fmt..Debug$GT$3fmt17hd575538cc6e8e1adE" to i8*), [0 x i8] zeroinitializer }>, align 8, !dbg !136
@alloc821 = private unnamed_addr constant <{ [7 x i8] }> <{ [7 x i8] c"Limited" }>, align 1
@vtable.4 = private unnamed_addr constant <{ i8*, [16 x i8], i8*, [0 x i8] }> <{ i8* bitcast (void (i64**)* @"_ZN4core3ptr28drop_in_place$LT$$RF$u64$GT$17h879d13d0aa2996b1E" to i8*), [16 x i8] c"\08\00\00\00\00\00\00\00\08\00\00\00\00\00\00\00", i8* bitcast (i1 (i64**, %"std::fmt::Formatter"*)* @"_ZN42_$LT$$RF$T$u20$as$u20$core..fmt..Debug$GT$3fmt17he3e676c6b7a7d578E" to i8*), [0 x i8] zeroinitializer }>, align 8, !dbg !145
@alloc825 = private unnamed_addr constant <{ [9 x i8] }> <{ [9 x i8] c"Unlimited" }>, align 1
@alloc826 = private unnamed_addr constant <{ [6 x i8] }> <{ [6 x i8] c"Native" }>, align 1
@alloc827 = private unnamed_addr constant <{ [6 x i8] }> <{ [6 x i8] c"Little" }>, align 1
@alloc828 = private unnamed_addr constant <{ [3 x i8] }> <{ [3 x i8] c"Big" }>, align 1
@alloc829 = private unnamed_addr constant <{ [6 x i8] }> <{ [6 x i8] c"Custom" }>, align 1
@vtable.5 = private unnamed_addr constant <{ i8*, [16 x i8], i8*, [0 x i8] }> <{ i8* bitcast (void (%"std::string::String"**)* @"_ZN4core3ptr46drop_in_place$LT$$RF$alloc..string..String$GT$17ha8990489da3ccc1aE" to i8*), [16 x i8] c"\08\00\00\00\00\00\00\00\08\00\00\00\00\00\00\00", i8* bitcast (i1 (%"std::string::String"**, %"std::fmt::Formatter"*)* @"_ZN42_$LT$$RF$T$u20$as$u20$core..fmt..Debug$GT$3fmt17h692bfbc5d975befeE" to i8*), [0 x i8] zeroinitializer }>, align 8, !dbg !149
@alloc833 = private unnamed_addr constant <{ [22 x i8] }> <{ [22 x i8] c"SequenceMustHaveLength" }>, align 1
@alloc834 = private unnamed_addr constant <{ [9 x i8] }> <{ [9 x i8] c"SizeLimit" }>, align 1
@alloc835 = private unnamed_addr constant <{ [26 x i8] }> <{ [26 x i8] c"DeserializeAnyNotSupported" }>, align 1
@alloc836 = private unnamed_addr constant <{ [18 x i8] }> <{ [18 x i8] c"InvalidTagEncoding" }>, align 1
@vtable.6 = private unnamed_addr constant <{ i8*, [16 x i8], i8*, [0 x i8] }> <{ i8* bitcast (void (i64**)* @"_ZN4core3ptr30drop_in_place$LT$$RF$usize$GT$17h6681ab33a1305f78E" to i8*), [16 x i8] c"\08\00\00\00\00\00\00\00\08\00\00\00\00\00\00\00", i8* bitcast (i1 (i64**, %"std::fmt::Formatter"*)* @"_ZN42_$LT$$RF$T$u20$as$u20$core..fmt..Debug$GT$3fmt17h30f16cb7a27c1145E" to i8*), [0 x i8] zeroinitializer }>, align 8, !dbg !180
@alloc840 = private unnamed_addr constant <{ [19 x i8] }> <{ [19 x i8] c"InvalidCharEncoding" }>, align 1
@alloc841 = private unnamed_addr constant <{ [19 x i8] }> <{ [19 x i8] c"InvalidBoolEncoding" }>, align 1
@vtable.7 = private unnamed_addr constant <{ i8*, [16 x i8], i8*, [0 x i8] }> <{ i8* bitcast (void (i8**)* @"_ZN4core3ptr27drop_in_place$LT$$RF$u8$GT$17h602c428d0791a7abE" to i8*), [16 x i8] c"\08\00\00\00\00\00\00\00\08\00\00\00\00\00\00\00", i8* bitcast (i1 (i8**, %"std::fmt::Formatter"*)* @"_ZN42_$LT$$RF$T$u20$as$u20$core..fmt..Debug$GT$3fmt17h558dc96ad6f3107eE" to i8*), [0 x i8] zeroinitializer }>, align 8, !dbg !184
@alloc845 = private unnamed_addr constant <{ [19 x i8] }> <{ [19 x i8] c"InvalidUtf8Encoding" }>, align 1
@vtable.8 = private unnamed_addr constant <{ i8*, [16 x i8], i8*, [0 x i8] }> <{ i8* bitcast (void (%"std::str::Utf8Error"**)* @"_ZN4core3ptr52drop_in_place$LT$$RF$core..str..error..Utf8Error$GT$17h781d4f66bf739f6bE" to i8*), [16 x i8] c"\08\00\00\00\00\00\00\00\08\00\00\00\00\00\00\00", i8* bitcast (i1 (%"std::str::Utf8Error"**, %"std::fmt::Formatter"*)* @"_ZN42_$LT$$RF$T$u20$as$u20$core..fmt..Debug$GT$3fmt17hf95ee69dc30483c5E" to i8*), [0 x i8] zeroinitializer }>, align 8, !dbg !188
@alloc849 = private unnamed_addr constant <{ [2 x i8] }> <{ [2 x i8] c"Io" }>, align 1
@vtable.9 = private unnamed_addr constant <{ i8*, [16 x i8], i8*, [0 x i8] }> <{ i8* bitcast (void (%"std::io::Error"**)* @"_ZN4core3ptr46drop_in_place$LT$$RF$std..io..error..Error$GT$17h2138972fddb273f3E" to i8*), [16 x i8] c"\08\00\00\00\00\00\00\00\08\00\00\00\00\00\00\00", i8* bitcast (i1 (%"std::io::Error"**, %"std::fmt::Formatter"*)* @"_ZN42_$LT$$RF$T$u20$as$u20$core..fmt..Debug$GT$3fmt17h6e3844fb430a6e0bE" to i8*), [0 x i8] zeroinitializer }>, align 8, !dbg !210

; <core::result::Result<T,F> as core::ops::try_trait::FromResidual<core::result::Result<core::convert::Infallible,E>>>::from_residual
; Function Attrs: inlinehint nounwind
define { i8*, i64 } @"_ZN153_$LT$core..result..Result$LT$T$C$F$GT$$u20$as$u20$core..ops..try_trait..FromResidual$LT$core..result..Result$LT$core..convert..Infallible$C$E$GT$$GT$$GT$13from_residual17h28826879cc569142E"() unnamed_addr #0 !dbg !234 {
start:
  %e.dbg.spill = alloca %"std::alloc::AllocError", align 1
  %residual.dbg.spill = alloca %"std::result::Result<std::convert::Infallible, std::alloc::AllocError>::Err", align 1
  %0 = alloca { i8*, i64 }, align 8
  call void @llvm.dbg.declare(metadata %"std::result::Result<std::convert::Infallible, std::alloc::AllocError>::Err"* %residual.dbg.spill, metadata !285, metadata !DIExpression()), !dbg !290
  call void @llvm.dbg.declare(metadata %"std::alloc::AllocError"* %e.dbg.spill, metadata !286, metadata !DIExpression()), !dbg !291
; call <T as core::convert::From<T>>::from
  call void @"_ZN50_$LT$T$u20$as$u20$core..convert..From$LT$T$GT$$GT$4from17hed36b0b3981b9423E"(), !dbg !292
  br label %bb1, !dbg !292

bb1:                                              ; preds = %start
  %1 = bitcast { i8*, i64 }* %0 to %"std::result::Result<std::ptr::NonNull<[u8]>, std::alloc::AllocError>::Err"*, !dbg !293
  %2 = bitcast %"std::result::Result<std::ptr::NonNull<[u8]>, std::alloc::AllocError>::Err"* %1 to %"std::alloc::AllocError"*, !dbg !293
  %3 = bitcast { i8*, i64 }* %0 to {}**, !dbg !293
  store {}* null, {}** %3, align 8, !dbg !293
  %4 = getelementptr inbounds { i8*, i64 }, { i8*, i64 }* %0, i32 0, i32 0, !dbg !294
  %5 = load i8*, i8** %4, align 8, !dbg !294
  %6 = getelementptr inbounds { i8*, i64 }, { i8*, i64 }* %0, i32 0, i32 1, !dbg !294
  %7 = load i64, i64* %6, align 8, !dbg !294
  %8 = insertvalue { i8*, i64 } undef, i8* %5, 0, !dbg !294
  %9 = insertvalue { i8*, i64 } %8, i64 %7, 1, !dbg !294
  ret { i8*, i64 } %9, !dbg !294
}

; std::error::Error::type_id
; Function Attrs: nounwind
define i64 @_ZN3std5error5Error7type_id17h9093c8fc689eca4cE(%"std::io::Error"* align 8 dereferenceable(16) %self) unnamed_addr #1 !dbg !295 {
start:
  %_2.dbg.spill = alloca %"std::error::private::Internal", align 1
  %self.dbg.spill = alloca %"std::io::Error"*, align 8
  store %"std::io::Error"* %self, %"std::io::Error"** %self.dbg.spill, align 8
  call void @llvm.dbg.declare(metadata %"std::io::Error"** %self.dbg.spill, metadata !308, metadata !DIExpression()), !dbg !312
  call void @llvm.dbg.declare(metadata %"std::error::private::Internal"* %_2.dbg.spill, metadata !309, metadata !DIExpression()), !dbg !313
; call core::any::TypeId::of
  %0 = call i64 @_ZN4core3any6TypeId2of17h6c5af734362be20fE(), !dbg !314
  br label %bb1, !dbg !314

bb1:                                              ; preds = %start
  ret i64 %0, !dbg !315
}

; <&T as core::fmt::Debug>::fmt
; Function Attrs: nounwind
define zeroext i1 @"_ZN42_$LT$$RF$T$u20$as$u20$core..fmt..Debug$GT$3fmt17h0f35a2ef15ff3f08E"({ i64, i64 }** align 8 dereferenceable(8) %self, %"std::fmt::Formatter"* align 8 dereferenceable(64) %f) unnamed_addr #1 !dbg !316 {
start:
  %f.dbg.spill = alloca %"std::fmt::Formatter"*, align 8
  %self.dbg.spill = alloca { i64, i64 }**, align 8
  store { i64, i64 }** %self, { i64, i64 }*** %self.dbg.spill, align 8
  call void @llvm.dbg.declare(metadata { i64, i64 }*** %self.dbg.spill, metadata !351, metadata !DIExpression()), !dbg !355
  store %"std::fmt::Formatter"* %f, %"std::fmt::Formatter"** %f.dbg.spill, align 8
  call void @llvm.dbg.declare(metadata %"std::fmt::Formatter"** %f.dbg.spill, metadata !352, metadata !DIExpression()), !dbg !356
  %_4 = load { i64, i64 }*, { i64, i64 }** %self, align 8, !dbg !357, !nonnull !13
; call <bincode::config::legacy::LimitOption as core::fmt::Debug>::fmt
  %0 = call zeroext i1 @"_ZN73_$LT$bincode..config..legacy..LimitOption$u20$as$u20$core..fmt..Debug$GT$3fmt17hcad34127a3d023eaE"({ i64, i64 }* align 8 dereferenceable(16) %_4, %"std::fmt::Formatter"* align 8 dereferenceable(64) %f), !dbg !358
  br label %bb1, !dbg !358

bb1:                                              ; preds = %start
  ret i1 %0, !dbg !359
}

; <&T as core::fmt::Debug>::fmt
; Function Attrs: nounwind
define zeroext i1 @"_ZN42_$LT$$RF$T$u20$as$u20$core..fmt..Debug$GT$3fmt17h30f16cb7a27c1145E"(i64** align 8 dereferenceable(8) %self, %"std::fmt::Formatter"* align 8 dereferenceable(64) %f) unnamed_addr #1 !dbg !360 {
start:
  %f.dbg.spill = alloca %"std::fmt::Formatter"*, align 8
  %self.dbg.spill = alloca i64**, align 8
  store i64** %self, i64*** %self.dbg.spill, align 8
  call void @llvm.dbg.declare(metadata i64*** %self.dbg.spill, metadata !365, metadata !DIExpression()), !dbg !367
  store %"std::fmt::Formatter"* %f, %"std::fmt::Formatter"** %f.dbg.spill, align 8
  call void @llvm.dbg.declare(metadata %"std::fmt::Formatter"** %f.dbg.spill, metadata !366, metadata !DIExpression()), !dbg !368
  %_4 = load i64*, i64** %self, align 8, !dbg !369, !nonnull !13
; call core::fmt::num::<impl core::fmt::Debug for usize>::fmt
  %0 = call zeroext i1 @"_ZN4core3fmt3num52_$LT$impl$u20$core..fmt..Debug$u20$for$u20$usize$GT$3fmt17h52ac96217163bc18E"(i64* align 8 dereferenceable(8) %_4, %"std::fmt::Formatter"* align 8 dereferenceable(64) %f), !dbg !370
  br label %bb1, !dbg !370

bb1:                                              ; preds = %start
  ret i1 %0, !dbg !371
}

; <&T as core::fmt::Debug>::fmt
; Function Attrs: nounwind
define zeroext i1 @"_ZN42_$LT$$RF$T$u20$as$u20$core..fmt..Debug$GT$3fmt17h6e3844fb430a6e0bE"(%"std::io::Error"** align 8 dereferenceable(8) %self, %"std::fmt::Formatter"* align 8 dereferenceable(64) %f) unnamed_addr #1 !dbg !372 {
start:
  %f.dbg.spill = alloca %"std::fmt::Formatter"*, align 8
  %self.dbg.spill = alloca %"std::io::Error"**, align 8
  store %"std::io::Error"** %self, %"std::io::Error"*** %self.dbg.spill, align 8
  call void @llvm.dbg.declare(metadata %"std::io::Error"*** %self.dbg.spill, metadata !377, metadata !DIExpression()), !dbg !381
  store %"std::fmt::Formatter"* %f, %"std::fmt::Formatter"** %f.dbg.spill, align 8
  call void @llvm.dbg.declare(metadata %"std::fmt::Formatter"** %f.dbg.spill, metadata !378, metadata !DIExpression()), !dbg !382
  %_4 = load %"std::io::Error"*, %"std::io::Error"** %self, align 8, !dbg !383, !nonnull !13
; call <std::io::error::Error as core::fmt::Debug>::fmt
  %0 = call zeroext i1 @"_ZN58_$LT$std..io..error..Error$u20$as$u20$core..fmt..Debug$GT$3fmt17ha495cdbaf19f3b15E"(%"std::io::Error"* align 8 dereferenceable(16) %_4, %"std::fmt::Formatter"* align 8 dereferenceable(64) %f), !dbg !384
  br label %bb1, !dbg !384

bb1:                                              ; preds = %start
  ret i1 %0, !dbg !385
}

; <&T as core::fmt::Debug>::fmt
; Function Attrs: nounwind
define zeroext i1 @"_ZN42_$LT$$RF$T$u20$as$u20$core..fmt..Debug$GT$3fmt17hd575538cc6e8e1adE"(i8** align 8 dereferenceable(8) %self, %"std::fmt::Formatter"* align 8 dereferenceable(64) %f) unnamed_addr #1 !dbg !386 {
start:
  %f.dbg.spill = alloca %"std::fmt::Formatter"*, align 8
  %self.dbg.spill = alloca i8**, align 8
  store i8** %self, i8*** %self.dbg.spill, align 8
  call void @llvm.dbg.declare(metadata i8*** %self.dbg.spill, metadata !391, metadata !DIExpression()), !dbg !395
  store %"std::fmt::Formatter"* %f, %"std::fmt::Formatter"** %f.dbg.spill, align 8
  call void @llvm.dbg.declare(metadata %"std::fmt::Formatter"** %f.dbg.spill, metadata !392, metadata !DIExpression()), !dbg !396
  %_4 = load i8*, i8** %self, align 8, !dbg !397, !nonnull !13
; call <bincode::config::legacy::EndianOption as core::fmt::Debug>::fmt
  %0 = call zeroext i1 @"_ZN74_$LT$bincode..config..legacy..EndianOption$u20$as$u20$core..fmt..Debug$GT$3fmt17hc1a1f91d5d18a65fE"(i8* align 1 dereferenceable(1) %_4, %"std::fmt::Formatter"* align 8 dereferenceable(64) %f), !dbg !398
  br label %bb1, !dbg !398

bb1:                                              ; preds = %start
  ret i1 %0, !dbg !399
}

; <&T as core::fmt::Debug>::fmt
; Function Attrs: nounwind
define zeroext i1 @"_ZN42_$LT$$RF$T$u20$as$u20$core..fmt..Debug$GT$3fmt17hf95ee69dc30483c5E"(%"std::str::Utf8Error"** align 8 dereferenceable(8) %self, %"std::fmt::Formatter"* align 8 dereferenceable(64) %f) unnamed_addr #1 !dbg !400 {
start:
  %f.dbg.spill = alloca %"std::fmt::Formatter"*, align 8
  %self.dbg.spill = alloca %"std::str::Utf8Error"**, align 8
  store %"std::str::Utf8Error"** %self, %"std::str::Utf8Error"*** %self.dbg.spill, align 8
  call void @llvm.dbg.declare(metadata %"std::str::Utf8Error"*** %self.dbg.spill, metadata !405, metadata !DIExpression()), !dbg !409
  store %"std::fmt::Formatter"* %f, %"std::fmt::Formatter"** %f.dbg.spill, align 8
  call void @llvm.dbg.declare(metadata %"std::fmt::Formatter"** %f.dbg.spill, metadata !406, metadata !DIExpression()), !dbg !410
  %_4 = load %"std::str::Utf8Error"*, %"std::str::Utf8Error"** %self, align 8, !dbg !411, !nonnull !13
; call <core::str::error::Utf8Error as core::fmt::Debug>::fmt
  %0 = call zeroext i1 @"_ZN64_$LT$core..str..error..Utf8Error$u20$as$u20$core..fmt..Debug$GT$3fmt17h30ca2bf48c13fed8E"(%"std::str::Utf8Error"* align 8 dereferenceable(16) %_4, %"std::fmt::Formatter"* align 8 dereferenceable(64) %f), !dbg !412
  br label %bb1, !dbg !412

bb1:                                              ; preds = %start
  ret i1 %0, !dbg !413
}

; <&T as core::fmt::Display>::fmt
; Function Attrs: nounwind
define zeroext i1 @"_ZN44_$LT$$RF$T$u20$as$u20$core..fmt..Display$GT$3fmt17h5b3ba0f3642f3780E"(%"std::str::Utf8Error"** align 8 dereferenceable(8) %self, %"std::fmt::Formatter"* align 8 dereferenceable(64) %f) unnamed_addr #1 !dbg !414 {
start:
  %f.dbg.spill = alloca %"std::fmt::Formatter"*, align 8
  %self.dbg.spill = alloca %"std::str::Utf8Error"**, align 8
  store %"std::str::Utf8Error"** %self, %"std::str::Utf8Error"*** %self.dbg.spill, align 8
  call void @llvm.dbg.declare(metadata %"std::str::Utf8Error"*** %self.dbg.spill, metadata !417, metadata !DIExpression()), !dbg !419
  store %"std::fmt::Formatter"* %f, %"std::fmt::Formatter"** %f.dbg.spill, align 8
  call void @llvm.dbg.declare(metadata %"std::fmt::Formatter"** %f.dbg.spill, metadata !418, metadata !DIExpression()), !dbg !420
  %_4 = load %"std::str::Utf8Error"*, %"std::str::Utf8Error"** %self, align 8, !dbg !421, !nonnull !13
; call <core::str::error::Utf8Error as core::fmt::Display>::fmt
  %0 = call zeroext i1 @"_ZN66_$LT$core..str..error..Utf8Error$u20$as$u20$core..fmt..Display$GT$3fmt17h2b97486212cd7344E"(%"std::str::Utf8Error"* align 8 dereferenceable(16) %_4, %"std::fmt::Formatter"* align 8 dereferenceable(64) %f), !dbg !422
  br label %bb1, !dbg !422

bb1:                                              ; preds = %start
  ret i1 %0, !dbg !423
}

; <&T as core::fmt::Display>::fmt
; Function Attrs: nounwind
define zeroext i1 @"_ZN44_$LT$$RF$T$u20$as$u20$core..fmt..Display$GT$3fmt17hecc913130417192bE"(%"std::io::Error"** align 8 dereferenceable(8) %self, %"std::fmt::Formatter"* align 8 dereferenceable(64) %f) unnamed_addr #1 !dbg !424 {
start:
  %f.dbg.spill = alloca %"std::fmt::Formatter"*, align 8
  %self.dbg.spill = alloca %"std::io::Error"**, align 8
  store %"std::io::Error"** %self, %"std::io::Error"*** %self.dbg.spill, align 8
  call void @llvm.dbg.declare(metadata %"std::io::Error"*** %self.dbg.spill, metadata !426, metadata !DIExpression()), !dbg !428
  store %"std::fmt::Formatter"* %f, %"std::fmt::Formatter"** %f.dbg.spill, align 8
  call void @llvm.dbg.declare(metadata %"std::fmt::Formatter"** %f.dbg.spill, metadata !427, metadata !DIExpression()), !dbg !429
  %_4 = load %"std::io::Error"*, %"std::io::Error"** %self, align 8, !dbg !430, !nonnull !13
; call <std::io::error::Error as core::fmt::Display>::fmt
  %0 = call zeroext i1 @"_ZN60_$LT$std..io..error..Error$u20$as$u20$core..fmt..Display$GT$3fmt17h3a79b1a6eb2a4ee0E"(%"std::io::Error"* align 8 dereferenceable(16) %_4, %"std::fmt::Formatter"* align 8 dereferenceable(64) %f), !dbg !431
  br label %bb1, !dbg !431

bb1:                                              ; preds = %start
  ret i1 %0, !dbg !432
}

; core::any::TypeId::of
; Function Attrs: nounwind
define i64 @_ZN4core3any6TypeId2of17h6c5af734362be20fE() unnamed_addr #1 !dbg !433 {
start:
  %0 = alloca i64, align 8
  %1 = alloca i64, align 8
  store i64 7634157046488769891, i64* %0, align 8, !dbg !437
  %_1 = load i64, i64* %0, align 8, !dbg !437
  br label %bb1, !dbg !437

bb1:                                              ; preds = %start
  store i64 %_1, i64* %1, align 8, !dbg !438
  %2 = load i64, i64* %1, align 8, !dbg !439
  ret i64 %2, !dbg !439
}

; core::fmt::ArgumentV1::new
; Function Attrs: nounwind
define { i8*, i64* } @_ZN4core3fmt10ArgumentV13new17h875d115e42ed00aaE(i8* align 1 dereferenceable(1) %x, i1 (i8*, %"std::fmt::Formatter"*)* nonnull %f) unnamed_addr #1 !dbg !440 {
start:
  %0 = alloca %"core::fmt::Opaque"*, align 8
  %1 = alloca i1 (%"core::fmt::Opaque"*, %"std::fmt::Formatter"*)*, align 8
  %f.dbg.spill = alloca i1 (i8*, %"std::fmt::Formatter"*)*, align 8
  %x.dbg.spill = alloca i8*, align 8
  %2 = alloca { i8*, i64* }, align 8
  store i8* %x, i8** %x.dbg.spill, align 8
  call void @llvm.dbg.declare(metadata i8** %x.dbg.spill, metadata !456, metadata !DIExpression()), !dbg !458
  store i1 (i8*, %"std::fmt::Formatter"*)* %f, i1 (i8*, %"std::fmt::Formatter"*)** %f.dbg.spill, align 8
  call void @llvm.dbg.declare(metadata i1 (i8*, %"std::fmt::Formatter"*)** %f.dbg.spill, metadata !457, metadata !DIExpression()), !dbg !459
  %3 = bitcast i1 (i8*, %"std::fmt::Formatter"*)* %f to i1 (%"core::fmt::Opaque"*, %"std::fmt::Formatter"*)*, !dbg !460
  store i1 (%"core::fmt::Opaque"*, %"std::fmt::Formatter"*)* %3, i1 (%"core::fmt::Opaque"*, %"std::fmt::Formatter"*)** %1, align 8, !dbg !460
  %_3 = load i1 (%"core::fmt::Opaque"*, %"std::fmt::Formatter"*)*, i1 (%"core::fmt::Opaque"*, %"std::fmt::Formatter"*)** %1, align 8, !dbg !460, !nonnull !13
  br label %bb1, !dbg !460

bb1:                                              ; preds = %start
  %4 = bitcast i8* %x to %"core::fmt::Opaque"*, !dbg !461
  store %"core::fmt::Opaque"* %4, %"core::fmt::Opaque"** %0, align 8, !dbg !461
  %_5 = load %"core::fmt::Opaque"*, %"core::fmt::Opaque"** %0, align 8, !dbg !461, !nonnull !13
  br label %bb2, !dbg !461

bb2:                                              ; preds = %bb1
  %5 = bitcast { i8*, i64* }* %2 to %"core::fmt::Opaque"**, !dbg !462
  store %"core::fmt::Opaque"* %_5, %"core::fmt::Opaque"** %5, align 8, !dbg !462
  %6 = getelementptr inbounds { i8*, i64* }, { i8*, i64* }* %2, i32 0, i32 1, !dbg !462
  %7 = bitcast i64** %6 to i1 (%"core::fmt::Opaque"*, %"std::fmt::Formatter"*)**, !dbg !462
  store i1 (%"core::fmt::Opaque"*, %"std::fmt::Formatter"*)* %_3, i1 (%"core::fmt::Opaque"*, %"std::fmt::Formatter"*)** %7, align 8, !dbg !462
  %8 = getelementptr inbounds { i8*, i64* }, { i8*, i64* }* %2, i32 0, i32 0, !dbg !463
  %9 = load i8*, i8** %8, align 8, !dbg !463, !nonnull !13
  %10 = getelementptr inbounds { i8*, i64* }, { i8*, i64* }* %2, i32 0, i32 1, !dbg !463
  %11 = load i64*, i64** %10, align 8, !dbg !463, !nonnull !13
  %12 = insertvalue { i8*, i64* } undef, i8* %9, 0, !dbg !463
  %13 = insertvalue { i8*, i64* } %12, i64* %11, 1, !dbg !463
  ret { i8*, i64* } %13, !dbg !463
}

; core::fmt::ArgumentV1::new
; Function Attrs: nounwind
define { i8*, i64* } @_ZN4core3fmt10ArgumentV13new17h946d8ee7ced1454fE(%"std::str::Utf8Error"** align 8 dereferenceable(8) %x, i1 (%"std::str::Utf8Error"**, %"std::fmt::Formatter"*)* nonnull %f) unnamed_addr #1 !dbg !464 {
start:
  %0 = alloca %"core::fmt::Opaque"*, align 8
  %1 = alloca i1 (%"core::fmt::Opaque"*, %"std::fmt::Formatter"*)*, align 8
  %f.dbg.spill = alloca i1 (%"std::str::Utf8Error"**, %"std::fmt::Formatter"*)*, align 8
  %x.dbg.spill = alloca %"std::str::Utf8Error"**, align 8
  %2 = alloca { i8*, i64* }, align 8
  store %"std::str::Utf8Error"** %x, %"std::str::Utf8Error"*** %x.dbg.spill, align 8
  call void @llvm.dbg.declare(metadata %"std::str::Utf8Error"*** %x.dbg.spill, metadata !469, metadata !DIExpression()), !dbg !473
  store i1 (%"std::str::Utf8Error"**, %"std::fmt::Formatter"*)* %f, i1 (%"std::str::Utf8Error"**, %"std::fmt::Formatter"*)** %f.dbg.spill, align 8
  call void @llvm.dbg.declare(metadata i1 (%"std::str::Utf8Error"**, %"std::fmt::Formatter"*)** %f.dbg.spill, metadata !470, metadata !DIExpression()), !dbg !474
  %3 = bitcast i1 (%"std::str::Utf8Error"**, %"std::fmt::Formatter"*)* %f to i1 (%"core::fmt::Opaque"*, %"std::fmt::Formatter"*)*, !dbg !475
  store i1 (%"core::fmt::Opaque"*, %"std::fmt::Formatter"*)* %3, i1 (%"core::fmt::Opaque"*, %"std::fmt::Formatter"*)** %1, align 8, !dbg !475
  %_3 = load i1 (%"core::fmt::Opaque"*, %"std::fmt::Formatter"*)*, i1 (%"core::fmt::Opaque"*, %"std::fmt::Formatter"*)** %1, align 8, !dbg !475, !nonnull !13
  br label %bb1, !dbg !475

bb1:                                              ; preds = %start
  %4 = bitcast %"std::str::Utf8Error"** %x to %"core::fmt::Opaque"*, !dbg !476
  store %"core::fmt::Opaque"* %4, %"core::fmt::Opaque"** %0, align 8, !dbg !476
  %_5 = load %"core::fmt::Opaque"*, %"core::fmt::Opaque"** %0, align 8, !dbg !476, !nonnull !13
  br label %bb2, !dbg !476

bb2:                                              ; preds = %bb1
  %5 = bitcast { i8*, i64* }* %2 to %"core::fmt::Opaque"**, !dbg !477
  store %"core::fmt::Opaque"* %_5, %"core::fmt::Opaque"** %5, align 8, !dbg !477
  %6 = getelementptr inbounds { i8*, i64* }, { i8*, i64* }* %2, i32 0, i32 1, !dbg !477
  %7 = bitcast i64** %6 to i1 (%"core::fmt::Opaque"*, %"std::fmt::Formatter"*)**, !dbg !477
  store i1 (%"core::fmt::Opaque"*, %"std::fmt::Formatter"*)* %_3, i1 (%"core::fmt::Opaque"*, %"std::fmt::Formatter"*)** %7, align 8, !dbg !477
  %8 = getelementptr inbounds { i8*, i64* }, { i8*, i64* }* %2, i32 0, i32 0, !dbg !478
  %9 = load i8*, i8** %8, align 8, !dbg !478, !nonnull !13
  %10 = getelementptr inbounds { i8*, i64* }, { i8*, i64* }* %2, i32 0, i32 1, !dbg !478
  %11 = load i64*, i64** %10, align 8, !dbg !478, !nonnull !13
  %12 = insertvalue { i8*, i64* } undef, i8* %9, 0, !dbg !478
  %13 = insertvalue { i8*, i64* } %12, i64* %11, 1, !dbg !478
  ret { i8*, i64* } %13, !dbg !478
}

; core::fmt::ArgumentV1::new
; Function Attrs: nounwind
define { i8*, i64* } @_ZN4core3fmt10ArgumentV13new17hdb6324674e9146afE(%"std::io::Error"** align 8 dereferenceable(8) %x, i1 (%"std::io::Error"**, %"std::fmt::Formatter"*)* nonnull %f) unnamed_addr #1 !dbg !479 {
start:
  %0 = alloca %"core::fmt::Opaque"*, align 8
  %1 = alloca i1 (%"core::fmt::Opaque"*, %"std::fmt::Formatter"*)*, align 8
  %f.dbg.spill = alloca i1 (%"std::io::Error"**, %"std::fmt::Formatter"*)*, align 8
  %x.dbg.spill = alloca %"std::io::Error"**, align 8
  %2 = alloca { i8*, i64* }, align 8
  store %"std::io::Error"** %x, %"std::io::Error"*** %x.dbg.spill, align 8
  call void @llvm.dbg.declare(metadata %"std::io::Error"*** %x.dbg.spill, metadata !484, metadata !DIExpression()), !dbg !488
  store i1 (%"std::io::Error"**, %"std::fmt::Formatter"*)* %f, i1 (%"std::io::Error"**, %"std::fmt::Formatter"*)** %f.dbg.spill, align 8
  call void @llvm.dbg.declare(metadata i1 (%"std::io::Error"**, %"std::fmt::Formatter"*)** %f.dbg.spill, metadata !485, metadata !DIExpression()), !dbg !489
  %3 = bitcast i1 (%"std::io::Error"**, %"std::fmt::Formatter"*)* %f to i1 (%"core::fmt::Opaque"*, %"std::fmt::Formatter"*)*, !dbg !490
  store i1 (%"core::fmt::Opaque"*, %"std::fmt::Formatter"*)* %3, i1 (%"core::fmt::Opaque"*, %"std::fmt::Formatter"*)** %1, align 8, !dbg !490
  %_3 = load i1 (%"core::fmt::Opaque"*, %"std::fmt::Formatter"*)*, i1 (%"core::fmt::Opaque"*, %"std::fmt::Formatter"*)** %1, align 8, !dbg !490, !nonnull !13
  br label %bb1, !dbg !490

bb1:                                              ; preds = %start
  %4 = bitcast %"std::io::Error"** %x to %"core::fmt::Opaque"*, !dbg !491
  store %"core::fmt::Opaque"* %4, %"core::fmt::Opaque"** %0, align 8, !dbg !491
  %_5 = load %"core::fmt::Opaque"*, %"core::fmt::Opaque"** %0, align 8, !dbg !491, !nonnull !13
  br label %bb2, !dbg !491

bb2:                                              ; preds = %bb1
  %5 = bitcast { i8*, i64* }* %2 to %"core::fmt::Opaque"**, !dbg !492
  store %"core::fmt::Opaque"* %_5, %"core::fmt::Opaque"** %5, align 8, !dbg !492
  %6 = getelementptr inbounds { i8*, i64* }, { i8*, i64* }* %2, i32 0, i32 1, !dbg !492
  %7 = bitcast i64** %6 to i1 (%"core::fmt::Opaque"*, %"std::fmt::Formatter"*)**, !dbg !492
  store i1 (%"core::fmt::Opaque"*, %"std::fmt::Formatter"*)* %_3, i1 (%"core::fmt::Opaque"*, %"std::fmt::Formatter"*)** %7, align 8, !dbg !492
  %8 = getelementptr inbounds { i8*, i64* }, { i8*, i64* }* %2, i32 0, i32 0, !dbg !493
  %9 = load i8*, i8** %8, align 8, !dbg !493, !nonnull !13
  %10 = getelementptr inbounds { i8*, i64* }, { i8*, i64* }* %2, i32 0, i32 1, !dbg !493
  %11 = load i64*, i64** %10, align 8, !dbg !493, !nonnull !13
  %12 = insertvalue { i8*, i64* } undef, i8* %9, 0, !dbg !493
  %13 = insertvalue { i8*, i64* } %12, i64* %11, 1, !dbg !493
  ret { i8*, i64* } %13, !dbg !493
}

; core::fmt::num::<impl core::fmt::Debug for usize>::fmt
; Function Attrs: inlinehint nounwind
define internal zeroext i1 @"_ZN4core3fmt3num52_$LT$impl$u20$core..fmt..Debug$u20$for$u20$usize$GT$3fmt17h52ac96217163bc18E"(i64* align 8 dereferenceable(8) %self, %"std::fmt::Formatter"* align 8 dereferenceable(64) %f) unnamed_addr #0 !dbg !494 {
start:
  %f.dbg.spill = alloca %"std::fmt::Formatter"*, align 8
  %self.dbg.spill = alloca i64*, align 8
  %0 = alloca i8, align 1
  store i64* %self, i64** %self.dbg.spill, align 8
  call void @llvm.dbg.declare(metadata i64** %self.dbg.spill, metadata !501, metadata !DIExpression()), !dbg !503
  store %"std::fmt::Formatter"* %f, %"std::fmt::Formatter"** %f.dbg.spill, align 8
  call void @llvm.dbg.declare(metadata %"std::fmt::Formatter"** %f.dbg.spill, metadata !502, metadata !DIExpression()), !dbg !504
; call core::fmt::Formatter::debug_lower_hex
  %_3 = call zeroext i1 @_ZN4core3fmt9Formatter15debug_lower_hex17h636482c5eb85995eE(%"std::fmt::Formatter"* align 8 dereferenceable(64) %f), !dbg !505
  br label %bb1, !dbg !505

bb1:                                              ; preds = %start
  br i1 %_3, label %bb2, label %bb4, !dbg !505

bb4:                                              ; preds = %bb1
; call core::fmt::Formatter::debug_upper_hex
  %_7 = call zeroext i1 @_ZN4core3fmt9Formatter15debug_upper_hex17habda22bb62de5f0bE(%"std::fmt::Formatter"* align 8 dereferenceable(64) %f), !dbg !506
  br label %bb5, !dbg !506

bb2:                                              ; preds = %bb1
; call core::fmt::num::<impl core::fmt::LowerHex for usize>::fmt
  %1 = call zeroext i1 @"_ZN4core3fmt3num55_$LT$impl$u20$core..fmt..LowerHex$u20$for$u20$usize$GT$3fmt17h1a12a50969152654E"(i64* align 8 dereferenceable(8) %self, %"std::fmt::Formatter"* align 8 dereferenceable(64) %f), !dbg !507
  %2 = zext i1 %1 to i8, !dbg !507
  store i8 %2, i8* %0, align 1, !dbg !507
  br label %bb3, !dbg !507

bb3:                                              ; preds = %bb2
  br label %bb11, !dbg !508

bb11:                                             ; preds = %bb10, %bb3
  %3 = load i8, i8* %0, align 1, !dbg !509, !range !510
  %4 = trunc i8 %3 to i1, !dbg !509
  ret i1 %4, !dbg !509

bb5:                                              ; preds = %bb4
  br i1 %_7, label %bb6, label %bb8, !dbg !506

bb8:                                              ; preds = %bb5
; call core::fmt::num::imp::<impl core::fmt::Display for usize>::fmt
  %5 = call zeroext i1 @"_ZN4core3fmt3num3imp54_$LT$impl$u20$core..fmt..Display$u20$for$u20$usize$GT$3fmt17hcb6674a6899bd26aE"(i64* align 8 dereferenceable(8) %self, %"std::fmt::Formatter"* align 8 dereferenceable(64) %f), !dbg !511
  %6 = zext i1 %5 to i8, !dbg !511
  store i8 %6, i8* %0, align 1, !dbg !511
  br label %bb9, !dbg !511

bb6:                                              ; preds = %bb5
; call core::fmt::num::<impl core::fmt::UpperHex for usize>::fmt
  %7 = call zeroext i1 @"_ZN4core3fmt3num55_$LT$impl$u20$core..fmt..UpperHex$u20$for$u20$usize$GT$3fmt17h571918675fe47debE"(i64* align 8 dereferenceable(8) %self, %"std::fmt::Formatter"* align 8 dereferenceable(64) %f), !dbg !512
  %8 = zext i1 %7 to i8, !dbg !512
  store i8 %8, i8* %0, align 1, !dbg !512
  br label %bb7, !dbg !512

bb7:                                              ; preds = %bb6
  br label %bb10, !dbg !513

bb10:                                             ; preds = %bb9, %bb7
  br label %bb11, !dbg !508

bb9:                                              ; preds = %bb8
  br label %bb10, !dbg !513
}

; core::fmt::Arguments::new_v1
; Function Attrs: inlinehint nounwind
define internal void @_ZN4core3fmt9Arguments6new_v117hfa8576bb236f1c44E(%"std::fmt::Arguments"* noalias nocapture sret(%"std::fmt::Arguments") dereferenceable(48) %0, [0 x { [0 x i8]*, i64 }]* nonnull align 8 %pieces.0, i64 %pieces.1, [0 x { i8*, i64* }]* nonnull align 8 %args.0, i64 %args.1) unnamed_addr #0 !dbg !514 {
start:
  %args.dbg.spill = alloca { [0 x { i8*, i64* }]*, i64 }, align 8
  %pieces.dbg.spill = alloca { [0 x { [0 x i8]*, i64 }]*, i64 }, align 8
  %_16 = alloca { i64*, i64 }, align 8
  %_3 = alloca i8, align 1
  %1 = getelementptr inbounds { [0 x { [0 x i8]*, i64 }]*, i64 }, { [0 x { [0 x i8]*, i64 }]*, i64 }* %pieces.dbg.spill, i32 0, i32 0
  store [0 x { [0 x i8]*, i64 }]* %pieces.0, [0 x { [0 x i8]*, i64 }]** %1, align 8
  %2 = getelementptr inbounds { [0 x { [0 x i8]*, i64 }]*, i64 }, { [0 x { [0 x i8]*, i64 }]*, i64 }* %pieces.dbg.spill, i32 0, i32 1
  store i64 %pieces.1, i64* %2, align 8
  call void @llvm.dbg.declare(metadata { [0 x { [0 x i8]*, i64 }]*, i64 }* %pieces.dbg.spill, metadata !576, metadata !DIExpression()), !dbg !578
  %3 = getelementptr inbounds { [0 x { i8*, i64* }]*, i64 }, { [0 x { i8*, i64* }]*, i64 }* %args.dbg.spill, i32 0, i32 0
  store [0 x { i8*, i64* }]* %args.0, [0 x { i8*, i64* }]** %3, align 8
  %4 = getelementptr inbounds { [0 x { i8*, i64* }]*, i64 }, { [0 x { i8*, i64* }]*, i64 }* %args.dbg.spill, i32 0, i32 1
  store i64 %args.1, i64* %4, align 8
  call void @llvm.dbg.declare(metadata { [0 x { i8*, i64* }]*, i64 }* %args.dbg.spill, metadata !577, metadata !DIExpression()), !dbg !579
  %_4 = icmp ult i64 %pieces.1, %args.1, !dbg !580
  br i1 %_4, label %bb1, label %bb2, !dbg !580

bb2:                                              ; preds = %start
  %_12 = add i64 %args.1, 1, !dbg !581
  %_9 = icmp ugt i64 %pieces.1, %_12, !dbg !582
  %5 = zext i1 %_9 to i8, !dbg !580
  store i8 %5, i8* %_3, align 1, !dbg !580
  br label %bb3, !dbg !580

bb1:                                              ; preds = %start
  store i8 1, i8* %_3, align 1, !dbg !580
  br label %bb3, !dbg !580

bb3:                                              ; preds = %bb2, %bb1
  %6 = load i8, i8* %_3, align 1, !dbg !580, !range !510
  %7 = trunc i8 %6 to i1, !dbg !580
  br i1 %7, label %bb4, label %bb5, !dbg !580

bb5:                                              ; preds = %bb3
  %8 = bitcast { i64*, i64 }* %_16 to {}**, !dbg !583
  store {}* null, {}** %8, align 8, !dbg !583
  %9 = bitcast %"std::fmt::Arguments"* %0 to { [0 x { [0 x i8]*, i64 }]*, i64 }*, !dbg !584
  %10 = getelementptr inbounds { [0 x { [0 x i8]*, i64 }]*, i64 }, { [0 x { [0 x i8]*, i64 }]*, i64 }* %9, i32 0, i32 0, !dbg !584
  store [0 x { [0 x i8]*, i64 }]* %pieces.0, [0 x { [0 x i8]*, i64 }]** %10, align 8, !dbg !584
  %11 = getelementptr inbounds { [0 x { [0 x i8]*, i64 }]*, i64 }, { [0 x { [0 x i8]*, i64 }]*, i64 }* %9, i32 0, i32 1, !dbg !584
  store i64 %pieces.1, i64* %11, align 8, !dbg !584
  %12 = getelementptr inbounds %"std::fmt::Arguments", %"std::fmt::Arguments"* %0, i32 0, i32 1, !dbg !584
  %13 = getelementptr inbounds { i64*, i64 }, { i64*, i64 }* %_16, i32 0, i32 0, !dbg !584
  %14 = load i64*, i64** %13, align 8, !dbg !584
  %15 = getelementptr inbounds { i64*, i64 }, { i64*, i64 }* %_16, i32 0, i32 1, !dbg !584
  %16 = load i64, i64* %15, align 8, !dbg !584
  %17 = getelementptr inbounds { i64*, i64 }, { i64*, i64 }* %12, i32 0, i32 0, !dbg !584
  store i64* %14, i64** %17, align 8, !dbg !584
  %18 = getelementptr inbounds { i64*, i64 }, { i64*, i64 }* %12, i32 0, i32 1, !dbg !584
  store i64 %16, i64* %18, align 8, !dbg !584
  %19 = getelementptr inbounds %"std::fmt::Arguments", %"std::fmt::Arguments"* %0, i32 0, i32 2, !dbg !584
  %20 = getelementptr inbounds { [0 x { i8*, i64* }]*, i64 }, { [0 x { i8*, i64* }]*, i64 }* %19, i32 0, i32 0, !dbg !584
  store [0 x { i8*, i64* }]* %args.0, [0 x { i8*, i64* }]** %20, align 8, !dbg !584
  %21 = getelementptr inbounds { [0 x { i8*, i64* }]*, i64 }, { [0 x { i8*, i64* }]*, i64 }* %19, i32 0, i32 1, !dbg !584
  store i64 %args.1, i64* %21, align 8, !dbg !584
  ret void, !dbg !585

bb4:                                              ; preds = %bb3
; call core::panicking::panic
  call void @_ZN4core9panicking5panic17h560e3e4b7752857aE([0 x i8]* nonnull align 1 bitcast (<{ [12 x i8] }>* @alloc774 to [0 x i8]*), i64 12, %"std::panic::Location"* align 8 dereferenceable(24) bitcast (<{ i8*, [16 x i8] }>* @alloc776 to %"std::panic::Location"*)), !dbg !586
  unreachable, !dbg !586
}

; core::num::nonzero::NonZeroUsize::new_unchecked
; Function Attrs: inlinehint nounwind
define internal i64 @_ZN4core3num7nonzero12NonZeroUsize13new_unchecked17h45e7c761e36e08dbE(i64 %n) unnamed_addr #0 !dbg !587 {
start:
  %n.dbg.spill = alloca i64, align 8
  %0 = alloca i64, align 8
  store i64 %n, i64* %n.dbg.spill, align 8
  call void @llvm.dbg.declare(metadata i64* %n.dbg.spill, metadata !597, metadata !DIExpression()), !dbg !598
  store i64 %n, i64* %0, align 8, !dbg !599
  %1 = load i64, i64* %0, align 8, !dbg !600, !range !601
  ret i64 %1, !dbg !600
}

; core::num::nonzero::NonZeroUsize::get
; Function Attrs: inlinehint nounwind
define internal i64 @_ZN4core3num7nonzero12NonZeroUsize3get17h98dfe983fe5ae81aE(i64 %self) unnamed_addr #0 !dbg !602 {
start:
  %self.dbg.spill = alloca i64, align 8
  store i64 %self, i64* %self.dbg.spill, align 8
  call void @llvm.dbg.declare(metadata i64* %self.dbg.spill, metadata !606, metadata !DIExpression()), !dbg !607
  ret i64 %self, !dbg !608
}

; core::ptr::drop_in_place<alloc::boxed::Box<dyn std::error::Error+core::marker::Send+core::marker::Sync>>
; Function Attrs: nounwind
define void @"_ZN4core3ptr117drop_in_place$LT$alloc..boxed..Box$LT$dyn$u20$std..error..Error$u2b$core..marker..Send$u2b$core..marker..Sync$GT$$GT$17he60c5ca9cf7962b1E"({ {}*, [3 x i64]* }* %_1) unnamed_addr #1 !dbg !609 {
start:
  %_1.dbg.spill = alloca { {}*, [3 x i64]* }*, align 8
  store { {}*, [3 x i64]* }* %_1, { {}*, [3 x i64]* }** %_1.dbg.spill, align 8
  call void @llvm.dbg.declare(metadata { {}*, [3 x i64]* }** %_1.dbg.spill, metadata !615, metadata !DIExpression()), !dbg !618
  %0 = getelementptr inbounds { {}*, [3 x i64]* }, { {}*, [3 x i64]* }* %_1, i32 0, i32 0, !dbg !618
  %1 = load {}*, {}** %0, align 8, !dbg !618, !nonnull !13
  %2 = getelementptr inbounds { {}*, [3 x i64]* }, { {}*, [3 x i64]* }* %_1, i32 0, i32 1, !dbg !618
  %3 = load [3 x i64]*, [3 x i64]** %2, align 8, !dbg !618, !nonnull !13
  %4 = bitcast [3 x i64]* %3 to void ({}*)**, !dbg !618
  %5 = getelementptr inbounds void ({}*)*, void ({}*)** %4, i64 0, !dbg !618
  %6 = load void ({}*)*, void ({}*)** %5, align 8, !dbg !618, !invariant.load !13, !nonnull !13
  call void %6({}* %1), !dbg !618
  br label %bb2, !dbg !618

bb2:                                              ; preds = %start
  %7 = bitcast { {}*, [3 x i64]* }* %_1 to { i8*, i64* }*, !dbg !618
  %8 = getelementptr inbounds { i8*, i64* }, { i8*, i64* }* %7, i32 0, i32 0, !dbg !618
  %9 = load i8*, i8** %8, align 8, !dbg !618, !nonnull !13
  %10 = getelementptr inbounds { i8*, i64* }, { i8*, i64* }* %7, i32 0, i32 1, !dbg !618
  %11 = load i64*, i64** %10, align 8, !dbg !618, !nonnull !13
; call alloc::alloc::box_free
  call void @_ZN5alloc5alloc8box_free17hfcdff0f9a690de60E(i8* nonnull %9, i64* align 8 dereferenceable(24) %11), !dbg !618
  br label %bb1, !dbg !618

bb1:                                              ; preds = %bb2
  ret void, !dbg !618
}

; core::ptr::drop_in_place<&u8>
; Function Attrs: inlinehint nounwind
define internal void @"_ZN4core3ptr27drop_in_place$LT$$RF$u8$GT$17h602c428d0791a7abE"(i8** %_1) unnamed_addr #0 !dbg !619 {
start:
  %_1.dbg.spill = alloca i8**, align 8
  store i8** %_1, i8*** %_1.dbg.spill, align 8
  call void @llvm.dbg.declare(metadata i8*** %_1.dbg.spill, metadata !624, metadata !DIExpression()), !dbg !627
  ret void, !dbg !627
}

; core::ptr::drop_in_place<&u64>
; Function Attrs: inlinehint nounwind
define internal void @"_ZN4core3ptr28drop_in_place$LT$$RF$u64$GT$17h879d13d0aa2996b1E"(i64** %_1) unnamed_addr #0 !dbg !628 {
start:
  %_1.dbg.spill = alloca i64**, align 8
  store i64** %_1, i64*** %_1.dbg.spill, align 8
  call void @llvm.dbg.declare(metadata i64*** %_1.dbg.spill, metadata !633, metadata !DIExpression()), !dbg !636
  ret void, !dbg !636
}

; core::ptr::drop_in_place<&usize>
; Function Attrs: inlinehint nounwind
define internal void @"_ZN4core3ptr30drop_in_place$LT$$RF$usize$GT$17h6681ab33a1305f78E"(i64** %_1) unnamed_addr #0 !dbg !637 {
start:
  %_1.dbg.spill = alloca i64**, align 8
  store i64** %_1, i64*** %_1.dbg.spill, align 8
  call void @llvm.dbg.declare(metadata i64*** %_1.dbg.spill, metadata !642, metadata !DIExpression()), !dbg !645
  ret void, !dbg !645
}

; core::ptr::drop_in_place<std::io::error::Repr>
; Function Attrs: nounwind
define void @"_ZN4core3ptr41drop_in_place$LT$std..io..error..Repr$GT$17haa49c522d112b255E"(%"std::io::error::Repr"* %_1) unnamed_addr #1 !dbg !646 {
start:
  %_1.dbg.spill = alloca %"std::io::error::Repr"*, align 8
  store %"std::io::error::Repr"* %_1, %"std::io::error::Repr"** %_1.dbg.spill, align 8
  call void @llvm.dbg.declare(metadata %"std::io::error::Repr"** %_1.dbg.spill, metadata !651, metadata !DIExpression()), !dbg !654
  %0 = bitcast %"std::io::error::Repr"* %_1 to i8*, !dbg !654
  %1 = load i8, i8* %0, align 8, !dbg !654, !range !655
  %_2 = zext i8 %1 to i64, !dbg !654
  switch i64 %_2, label %bb2 [
    i64 0, label %bb1
    i64 1, label %bb1
    i64 2, label %bb1
  ], !dbg !654

bb2:                                              ; preds = %start
  %2 = bitcast %"std::io::error::Repr"* %_1 to %"std::io::error::Repr::Custom"*, !dbg !654
  %3 = getelementptr inbounds %"std::io::error::Repr::Custom", %"std::io::error::Repr::Custom"* %2, i32 0, i32 1, !dbg !654
; call core::ptr::drop_in_place<alloc::boxed::Box<std::io::error::Custom>>
  call void @"_ZN4core3ptr68drop_in_place$LT$alloc..boxed..Box$LT$std..io..error..Custom$GT$$GT$17h887881a27b76f43aE"(%"std::io::error::Custom"** %3), !dbg !654
  br label %bb1, !dbg !654

bb1:                                              ; preds = %bb2, %start, %start, %start
  ret void, !dbg !654
}

; core::ptr::drop_in_place<std::io::error::Error>
; Function Attrs: nounwind
define void @"_ZN4core3ptr42drop_in_place$LT$std..io..error..Error$GT$17hb3d9e365545d253bE"(%"std::io::Error"* %_1) unnamed_addr #1 !dbg !656 {
start:
  %_1.dbg.spill = alloca %"std::io::Error"*, align 8
  store %"std::io::Error"* %_1, %"std::io::Error"** %_1.dbg.spill, align 8
  call void @llvm.dbg.declare(metadata %"std::io::Error"** %_1.dbg.spill, metadata !661, metadata !DIExpression()), !dbg !662
  %0 = bitcast %"std::io::Error"* %_1 to %"std::io::error::Repr"*, !dbg !662
; call core::ptr::drop_in_place<std::io::error::Repr>
  call void @"_ZN4core3ptr41drop_in_place$LT$std..io..error..Repr$GT$17haa49c522d112b255E"(%"std::io::error::Repr"* %0), !dbg !662
  br label %bb1, !dbg !662

bb1:                                              ; preds = %start
  ret void, !dbg !662
}

; core::ptr::drop_in_place<std::io::error::Custom>
; Function Attrs: nounwind
define void @"_ZN4core3ptr43drop_in_place$LT$std..io..error..Custom$GT$17h3a1c52c4aa9a2226E"(%"std::io::error::Custom"* %_1) unnamed_addr #1 !dbg !663 {
start:
  %_1.dbg.spill = alloca %"std::io::error::Custom"*, align 8
  store %"std::io::error::Custom"* %_1, %"std::io::error::Custom"** %_1.dbg.spill, align 8
  call void @llvm.dbg.declare(metadata %"std::io::error::Custom"** %_1.dbg.spill, metadata !668, metadata !DIExpression()), !dbg !671
  %0 = bitcast %"std::io::error::Custom"* %_1 to { {}*, [3 x i64]* }*, !dbg !671
; call core::ptr::drop_in_place<alloc::boxed::Box<dyn std::error::Error+core::marker::Send+core::marker::Sync>>
  call void @"_ZN4core3ptr117drop_in_place$LT$alloc..boxed..Box$LT$dyn$u20$std..error..Error$u2b$core..marker..Send$u2b$core..marker..Sync$GT$$GT$17he60c5ca9cf7962b1E"({ {}*, [3 x i64]* }* %0), !dbg !671
  br label %bb1, !dbg !671

bb1:                                              ; preds = %start
  ret void, !dbg !671
}

; core::ptr::drop_in_place<&alloc::string::String>
; Function Attrs: inlinehint nounwind
define internal void @"_ZN4core3ptr46drop_in_place$LT$$RF$alloc..string..String$GT$17ha8990489da3ccc1aE"(%"std::string::String"** %_1) unnamed_addr #0 !dbg !672 {
start:
  %_1.dbg.spill = alloca %"std::string::String"**, align 8
  store %"std::string::String"** %_1, %"std::string::String"*** %_1.dbg.spill, align 8
  call void @llvm.dbg.declare(metadata %"std::string::String"*** %_1.dbg.spill, metadata !677, metadata !DIExpression()), !dbg !680
  ret void, !dbg !680
}

; core::ptr::drop_in_place<&std::io::error::Error>
; Function Attrs: inlinehint nounwind
define internal void @"_ZN4core3ptr46drop_in_place$LT$$RF$std..io..error..Error$GT$17h2138972fddb273f3E"(%"std::io::Error"** %_1) unnamed_addr #0 !dbg !681 {
start:
  %_1.dbg.spill = alloca %"std::io::Error"**, align 8
  store %"std::io::Error"** %_1, %"std::io::Error"*** %_1.dbg.spill, align 8
  call void @llvm.dbg.declare(metadata %"std::io::Error"*** %_1.dbg.spill, metadata !686, metadata !DIExpression()), !dbg !687
  ret void, !dbg !687
}

; core::ptr::drop_in_place<&core::str::error::Utf8Error>
; Function Attrs: inlinehint nounwind
define internal void @"_ZN4core3ptr52drop_in_place$LT$$RF$core..str..error..Utf8Error$GT$17h781d4f66bf739f6bE"(%"std::str::Utf8Error"** %_1) unnamed_addr #0 !dbg !688 {
start:
  %_1.dbg.spill = alloca %"std::str::Utf8Error"**, align 8
  store %"std::str::Utf8Error"** %_1, %"std::str::Utf8Error"*** %_1.dbg.spill, align 8
  call void @llvm.dbg.declare(metadata %"std::str::Utf8Error"*** %_1.dbg.spill, metadata !693, metadata !DIExpression()), !dbg !694
  ret void, !dbg !694
}

; core::ptr::drop_in_place<&bincode::config::legacy::LimitOption>
; Function Attrs: inlinehint nounwind
define internal void @"_ZN4core3ptr61drop_in_place$LT$$RF$bincode..config..legacy..LimitOption$GT$17h6410e42c6ef49a47E"({ i64, i64 }** %_1) unnamed_addr #0 !dbg !695 {
start:
  %_1.dbg.spill = alloca { i64, i64 }**, align 8
  store { i64, i64 }** %_1, { i64, i64 }*** %_1.dbg.spill, align 8
  call void @llvm.dbg.declare(metadata { i64, i64 }*** %_1.dbg.spill, metadata !700, metadata !DIExpression()), !dbg !703
  ret void, !dbg !703
}

; core::ptr::drop_in_place<&bincode::config::legacy::EndianOption>
; Function Attrs: inlinehint nounwind
define internal void @"_ZN4core3ptr62drop_in_place$LT$$RF$bincode..config..legacy..EndianOption$GT$17hd8787a4fbc8e818aE"(i8** %_1) unnamed_addr #0 !dbg !704 {
start:
  %_1.dbg.spill = alloca i8**, align 8
  store i8** %_1, i8*** %_1.dbg.spill, align 8
  call void @llvm.dbg.declare(metadata i8*** %_1.dbg.spill, metadata !709, metadata !DIExpression()), !dbg !712
  ret void, !dbg !712
}

; core::ptr::drop_in_place<alloc::boxed::Box<std::io::error::Custom>>
; Function Attrs: nounwind
define void @"_ZN4core3ptr68drop_in_place$LT$alloc..boxed..Box$LT$std..io..error..Custom$GT$$GT$17h887881a27b76f43aE"(%"std::io::error::Custom"** %_1) unnamed_addr #1 !dbg !713 {
start:
  %_1.dbg.spill = alloca %"std::io::error::Custom"**, align 8
  store %"std::io::error::Custom"** %_1, %"std::io::error::Custom"*** %_1.dbg.spill, align 8
  call void @llvm.dbg.declare(metadata %"std::io::error::Custom"*** %_1.dbg.spill, metadata !718, metadata !DIExpression()), !dbg !721
  %0 = load %"std::io::error::Custom"*, %"std::io::error::Custom"** %_1, align 8, !dbg !721, !nonnull !13
; call core::ptr::drop_in_place<std::io::error::Custom>
  call void @"_ZN4core3ptr43drop_in_place$LT$std..io..error..Custom$GT$17h3a1c52c4aa9a2226E"(%"std::io::error::Custom"* %0), !dbg !721
  br label %bb2, !dbg !721

bb2:                                              ; preds = %start
  %1 = bitcast %"std::io::error::Custom"** %_1 to i64**, !dbg !721
  %2 = load i64*, i64** %1, align 8, !dbg !721, !nonnull !13
; call alloc::alloc::box_free
  call void @_ZN5alloc5alloc8box_free17h65b6acc24e7e2668E(i64* nonnull %2), !dbg !721
  br label %bb1, !dbg !721

bb1:                                              ; preds = %bb2
  ret void, !dbg !721
}

; core::ptr::unique::Unique<T>::cast
; Function Attrs: inlinehint nounwind
define nonnull i8* @"_ZN4core3ptr6unique15Unique$LT$T$GT$4cast17h16b27b0f07aa404bE"(i64* nonnull %self) unnamed_addr #0 !dbg !722 {
start:
  %self.dbg.spill = alloca i64*, align 8
  store i64* %self, i64** %self.dbg.spill, align 8
  call void @llvm.dbg.declare(metadata i64** %self.dbg.spill, metadata !733, metadata !DIExpression()), !dbg !736
; call core::ptr::unique::Unique<T>::as_ptr
  %_3 = call %"std::io::error::Custom"* @"_ZN4core3ptr6unique15Unique$LT$T$GT$6as_ptr17h780996d243d57c1dE"(i64* nonnull %self), !dbg !737
  br label %bb1, !dbg !737

bb1:                                              ; preds = %start
  %_2 = bitcast %"std::io::error::Custom"* %_3 to i8*, !dbg !737
; call core::ptr::unique::Unique<T>::new_unchecked
  %0 = call nonnull i8* @"_ZN4core3ptr6unique15Unique$LT$T$GT$13new_unchecked17ha3783e483e1f9c55E"(i8* %_2), !dbg !738
  br label %bb2, !dbg !738

bb2:                                              ; preds = %bb1
  ret i8* %0, !dbg !739
}

; core::ptr::unique::Unique<T>::cast
; Function Attrs: inlinehint nounwind
define nonnull i8* @"_ZN4core3ptr6unique15Unique$LT$T$GT$4cast17hc46b4a40e02a2db1E"(i8* nonnull %self.0, i64* align 8 dereferenceable(24) %self.1) unnamed_addr #0 !dbg !740 {
start:
  %self.dbg.spill = alloca { i8*, i64* }, align 8
  %0 = getelementptr inbounds { i8*, i64* }, { i8*, i64* }* %self.dbg.spill, i32 0, i32 0
  store i8* %self.0, i8** %0, align 8
  %1 = getelementptr inbounds { i8*, i64* }, { i8*, i64* }* %self.dbg.spill, i32 0, i32 1
  store i64* %self.1, i64** %1, align 8
  call void @llvm.dbg.declare(metadata { i8*, i64* }* %self.dbg.spill, metadata !754, metadata !DIExpression()), !dbg !756
; call core::ptr::unique::Unique<T>::as_ptr
  %2 = call { {}*, [3 x i64]* } @"_ZN4core3ptr6unique15Unique$LT$T$GT$6as_ptr17h05dc3dcf107ef0c9E"(i8* nonnull %self.0, i64* align 8 dereferenceable(24) %self.1), !dbg !757
  %_3.0 = extractvalue { {}*, [3 x i64]* } %2, 0, !dbg !757
  %_3.1 = extractvalue { {}*, [3 x i64]* } %2, 1, !dbg !757
  br label %bb1, !dbg !757

bb1:                                              ; preds = %start
  %_2 = bitcast {}* %_3.0 to i8*, !dbg !757
; call core::ptr::unique::Unique<T>::new_unchecked
  %3 = call nonnull i8* @"_ZN4core3ptr6unique15Unique$LT$T$GT$13new_unchecked17ha3783e483e1f9c55E"(i8* %_2), !dbg !758
  br label %bb2, !dbg !758

bb2:                                              ; preds = %bb1
  ret i8* %3, !dbg !759
}

; core::ptr::unique::Unique<T>::as_ptr
; Function Attrs: inlinehint nounwind
define { {}*, [3 x i64]* } @"_ZN4core3ptr6unique15Unique$LT$T$GT$6as_ptr17h05dc3dcf107ef0c9E"(i8* nonnull %self.0, i64* align 8 dereferenceable(24) %self.1) unnamed_addr #0 !dbg !760 {
start:
  %self.dbg.spill = alloca { i8*, i64* }, align 8
  %0 = getelementptr inbounds { i8*, i64* }, { i8*, i64* }* %self.dbg.spill, i32 0, i32 0
  store i8* %self.0, i8** %0, align 8
  %1 = getelementptr inbounds { i8*, i64* }, { i8*, i64* }* %self.dbg.spill, i32 0, i32 1
  store i64* %self.1, i64** %1, align 8
  call void @llvm.dbg.declare(metadata { i8*, i64* }* %self.dbg.spill, metadata !768, metadata !DIExpression()), !dbg !769
  %_2.0 = bitcast i8* %self.0 to {}*, !dbg !770
  %_2.1 = bitcast i64* %self.1 to [3 x i64]*, !dbg !770
  %2 = insertvalue { {}*, [3 x i64]* } undef, {}* %_2.0, 0, !dbg !771
  %3 = insertvalue { {}*, [3 x i64]* } %2, [3 x i64]* %_2.1, 1, !dbg !771
  ret { {}*, [3 x i64]* } %3, !dbg !771
}

; core::ptr::unique::Unique<T>::as_ptr
; Function Attrs: inlinehint nounwind
define %"std::io::error::Custom"* @"_ZN4core3ptr6unique15Unique$LT$T$GT$6as_ptr17h780996d243d57c1dE"(i64* nonnull %self) unnamed_addr #0 !dbg !772 {
start:
  %self.dbg.spill = alloca i64*, align 8
  store i64* %self, i64** %self.dbg.spill, align 8
  call void @llvm.dbg.declare(metadata i64** %self.dbg.spill, metadata !776, metadata !DIExpression()), !dbg !777
  %_2 = bitcast i64* %self to %"std::io::error::Custom"*, !dbg !778
  ret %"std::io::error::Custom"* %_2, !dbg !779
}

; core::ptr::unique::Unique<T>::as_ref
; Function Attrs: inlinehint nounwind
define { {}*, [3 x i64]* } @"_ZN4core3ptr6unique15Unique$LT$T$GT$6as_ref17h93f3a7c2f720d8e0E"({ i8*, i64* }* align 8 dereferenceable(16) %self) unnamed_addr #0 !dbg !780 {
start:
  %self.dbg.spill = alloca { i8*, i64* }*, align 8
  store { i8*, i64* }* %self, { i8*, i64* }** %self.dbg.spill, align 8
  call void @llvm.dbg.declare(metadata { i8*, i64* }** %self.dbg.spill, metadata !789, metadata !DIExpression()), !dbg !790
  %0 = getelementptr inbounds { i8*, i64* }, { i8*, i64* }* %self, i32 0, i32 0, !dbg !791
  %_3.0 = load i8*, i8** %0, align 8, !dbg !791, !nonnull !13
  %1 = getelementptr inbounds { i8*, i64* }, { i8*, i64* }* %self, i32 0, i32 1, !dbg !791
  %_3.1 = load i64*, i64** %1, align 8, !dbg !791, !nonnull !13
; call core::ptr::unique::Unique<T>::as_ptr
  %2 = call { {}*, [3 x i64]* } @"_ZN4core3ptr6unique15Unique$LT$T$GT$6as_ptr17h05dc3dcf107ef0c9E"(i8* nonnull %_3.0, i64* align 8 dereferenceable(24) %_3.1), !dbg !791
  %_2.0 = extractvalue { {}*, [3 x i64]* } %2, 0, !dbg !791
  %_2.1 = extractvalue { {}*, [3 x i64]* } %2, 1, !dbg !791
  br label %bb1, !dbg !791

bb1:                                              ; preds = %start
  %3 = insertvalue { {}*, [3 x i64]* } undef, {}* %_2.0, 0, !dbg !792
  %4 = insertvalue { {}*, [3 x i64]* } %3, [3 x i64]* %_2.1, 1, !dbg !792
  ret { {}*, [3 x i64]* } %4, !dbg !792
}

; core::ptr::unique::Unique<T>::as_ref
; Function Attrs: inlinehint nounwind
define align 8 dereferenceable(24) %"std::io::error::Custom"* @"_ZN4core3ptr6unique15Unique$LT$T$GT$6as_ref17hbd414d60a9c6bba4E"(i64** align 8 dereferenceable(8) %self) unnamed_addr #0 !dbg !793 {
start:
  %self.dbg.spill = alloca i64**, align 8
  store i64** %self, i64*** %self.dbg.spill, align 8
  call void @llvm.dbg.declare(metadata i64*** %self.dbg.spill, metadata !799, metadata !DIExpression()), !dbg !800
  %_3 = load i64*, i64** %self, align 8, !dbg !801, !nonnull !13
; call core::ptr::unique::Unique<T>::as_ptr
  %_2 = call %"std::io::error::Custom"* @"_ZN4core3ptr6unique15Unique$LT$T$GT$6as_ptr17h780996d243d57c1dE"(i64* nonnull %_3), !dbg !801
  br label %bb1, !dbg !801

bb1:                                              ; preds = %start
  ret %"std::io::error::Custom"* %_2, !dbg !802
}

; core::ptr::non_null::NonNull<T>::new_unchecked
; Function Attrs: inlinehint nounwind
define { i8*, i64 } @"_ZN4core3ptr8non_null16NonNull$LT$T$GT$13new_unchecked17h929f204af1916641E"([0 x i8]* %ptr.0, i64 %ptr.1) unnamed_addr #0 !dbg !803 {
start:
  %ptr.dbg.spill = alloca { [0 x i8]*, i64 }, align 8
  %0 = alloca { i8*, i64 }, align 8
  %1 = getelementptr inbounds { [0 x i8]*, i64 }, { [0 x i8]*, i64 }* %ptr.dbg.spill, i32 0, i32 0
  store [0 x i8]* %ptr.0, [0 x i8]** %1, align 8
  %2 = getelementptr inbounds { [0 x i8]*, i64 }, { [0 x i8]*, i64 }* %ptr.dbg.spill, i32 0, i32 1
  store i64 %ptr.1, i64* %2, align 8
  call void @llvm.dbg.declare(metadata { [0 x i8]*, i64 }* %ptr.dbg.spill, metadata !812, metadata !DIExpression()), !dbg !813
  %3 = bitcast { i8*, i64 }* %0 to { [0 x i8]*, i64 }*, !dbg !814
  %4 = getelementptr inbounds { [0 x i8]*, i64 }, { [0 x i8]*, i64 }* %3, i32 0, i32 0, !dbg !814
  store [0 x i8]* %ptr.0, [0 x i8]** %4, align 8, !dbg !814
  %5 = getelementptr inbounds { [0 x i8]*, i64 }, { [0 x i8]*, i64 }* %3, i32 0, i32 1, !dbg !814
  store i64 %ptr.1, i64* %5, align 8, !dbg !814
  %6 = getelementptr inbounds { i8*, i64 }, { i8*, i64 }* %0, i32 0, i32 0, !dbg !815
  %7 = load i8*, i8** %6, align 8, !dbg !815, !nonnull !13
  %8 = getelementptr inbounds { i8*, i64 }, { i8*, i64 }* %0, i32 0, i32 1, !dbg !815
  %9 = load i64, i64* %8, align 8, !dbg !815
  %10 = insertvalue { i8*, i64 } undef, i8* %7, 0, !dbg !815
  %11 = insertvalue { i8*, i64 } %10, i64 %9, 1, !dbg !815
  ret { i8*, i64 } %11, !dbg !815
}

; core::ptr::non_null::NonNull<T>::new
; Function Attrs: inlinehint nounwind
define i8* @"_ZN4core3ptr8non_null16NonNull$LT$T$GT$3new17h4a0f0e04f46f0707E"(i8* %ptr) unnamed_addr #0 !dbg !816 {
start:
  %ptr.dbg.spill = alloca i8*, align 8
  %0 = alloca i8*, align 8
  store i8* %ptr, i8** %ptr.dbg.spill, align 8
  call void @llvm.dbg.declare(metadata i8** %ptr.dbg.spill, metadata !835, metadata !DIExpression()), !dbg !836
; call core::ptr::mut_ptr::<impl *mut T>::is_null
  %_3 = call zeroext i1 @"_ZN4core3ptr7mut_ptr31_$LT$impl$u20$$BP$mut$u20$T$GT$7is_null17h6a2a0bd716f25be5E"(i8* %ptr), !dbg !837
  br label %bb1, !dbg !837

bb1:                                              ; preds = %start
  %_2 = xor i1 %_3, true, !dbg !838
  br i1 %_2, label %bb2, label %bb4, !dbg !838

bb4:                                              ; preds = %bb1
  %1 = bitcast i8** %0 to {}**, !dbg !839
  store {}* null, {}** %1, align 8, !dbg !839
  br label %bb5, !dbg !840

bb2:                                              ; preds = %bb1
; call core::ptr::non_null::NonNull<T>::new_unchecked
  %_5 = call nonnull i8* @"_ZN4core3ptr8non_null16NonNull$LT$T$GT$13new_unchecked17hc2da2043f3870a87E"(i8* %ptr), !dbg !841
  br label %bb3, !dbg !841

bb3:                                              ; preds = %bb2
  store i8* %_5, i8** %0, align 8, !dbg !842
  br label %bb5, !dbg !840

bb5:                                              ; preds = %bb4, %bb3
  %2 = load i8*, i8** %0, align 8, !dbg !843
  ret i8* %2, !dbg !843
}

; core::ptr::non_null::NonNull<T>::as_ptr
; Function Attrs: inlinehint nounwind
define { [0 x i8]*, i64 } @"_ZN4core3ptr8non_null16NonNull$LT$T$GT$6as_ptr17h63e4d961fd38e074E"(i8* nonnull %self.0, i64 %self.1) unnamed_addr #0 !dbg !844 {
start:
  %self.dbg.spill = alloca { i8*, i64 }, align 8
  %0 = getelementptr inbounds { i8*, i64 }, { i8*, i64 }* %self.dbg.spill, i32 0, i32 0
  store i8* %self.0, i8** %0, align 8
  %1 = getelementptr inbounds { i8*, i64 }, { i8*, i64 }* %self.dbg.spill, i32 0, i32 1
  store i64 %self.1, i64* %1, align 8
  call void @llvm.dbg.declare(metadata { i8*, i64 }* %self.dbg.spill, metadata !848, metadata !DIExpression()), !dbg !849
  %_2.0 = bitcast i8* %self.0 to [0 x i8]*, !dbg !850
  %2 = insertvalue { [0 x i8]*, i64 } undef, [0 x i8]* %_2.0, 0, !dbg !851
  %3 = insertvalue { [0 x i8]*, i64 } %2, i64 %self.1, 1, !dbg !851
  ret { [0 x i8]*, i64 } %3, !dbg !851
}

; core::ptr::non_null::NonNull<[T]>::as_mut_ptr
; Function Attrs: inlinehint nounwind
define i8* @"_ZN4core3ptr8non_null26NonNull$LT$$u5b$T$u5d$$GT$10as_mut_ptr17hc65fe330e2062327E"(i8* nonnull %self.0, i64 %self.1) unnamed_addr #0 !dbg !852 {
start:
  %self.dbg.spill = alloca { i8*, i64 }, align 8
  %0 = getelementptr inbounds { i8*, i64 }, { i8*, i64 }* %self.dbg.spill, i32 0, i32 0
  store i8* %self.0, i8** %0, align 8
  %1 = getelementptr inbounds { i8*, i64 }, { i8*, i64 }* %self.dbg.spill, i32 0, i32 1
  store i64 %self.1, i64* %1, align 8
  call void @llvm.dbg.declare(metadata { i8*, i64 }* %self.dbg.spill, metadata !856, metadata !DIExpression()), !dbg !857
; call core::ptr::non_null::NonNull<[T]>::as_non_null_ptr
  %_2 = call nonnull i8* @"_ZN4core3ptr8non_null26NonNull$LT$$u5b$T$u5d$$GT$15as_non_null_ptr17h4ac6b6812e21f707E"(i8* nonnull %self.0, i64 %self.1), !dbg !858
  br label %bb1, !dbg !858

bb1:                                              ; preds = %start
; call core::ptr::non_null::NonNull<T>::as_ptr
  %2 = call i8* @"_ZN4core3ptr8non_null16NonNull$LT$T$GT$6as_ptr17hbde849f63aae2924E"(i8* nonnull %_2), !dbg !858
  br label %bb2, !dbg !858

bb2:                                              ; preds = %bb1
  ret i8* %2, !dbg !859
}

; core::ptr::non_null::NonNull<[T]>::as_non_null_ptr
; Function Attrs: inlinehint nounwind
define nonnull i8* @"_ZN4core3ptr8non_null26NonNull$LT$$u5b$T$u5d$$GT$15as_non_null_ptr17h4ac6b6812e21f707E"(i8* nonnull %self.0, i64 %self.1) unnamed_addr #0 !dbg !860 {
start:
  %self.dbg.spill.i = alloca { [0 x i8]*, i64 }, align 8
  %self.dbg.spill = alloca { i8*, i64 }, align 8
  %0 = getelementptr inbounds { i8*, i64 }, { i8*, i64 }* %self.dbg.spill, i32 0, i32 0
  store i8* %self.0, i8** %0, align 8
  %1 = getelementptr inbounds { i8*, i64 }, { i8*, i64 }* %self.dbg.spill, i32 0, i32 1
  store i64 %self.1, i64* %1, align 8
  call void @llvm.dbg.declare(metadata { i8*, i64 }* %self.dbg.spill, metadata !864, metadata !DIExpression()), !dbg !865
; call core::ptr::non_null::NonNull<T>::as_ptr
  %2 = call { [0 x i8]*, i64 } @"_ZN4core3ptr8non_null16NonNull$LT$T$GT$6as_ptr17h63e4d961fd38e074E"(i8* nonnull %self.0, i64 %self.1), !dbg !866
  %_3.0 = extractvalue { [0 x i8]*, i64 } %2, 0, !dbg !866
  %_3.1 = extractvalue { [0 x i8]*, i64 } %2, 1, !dbg !866
  br label %bb1, !dbg !866

bb1:                                              ; preds = %start
  %3 = getelementptr inbounds { [0 x i8]*, i64 }, { [0 x i8]*, i64 }* %self.dbg.spill.i, i32 0, i32 0
  store [0 x i8]* %_3.0, [0 x i8]** %3, align 8
  %4 = getelementptr inbounds { [0 x i8]*, i64 }, { [0 x i8]*, i64 }* %self.dbg.spill.i, i32 0, i32 1
  store i64 %_3.1, i64* %4, align 8
  call void @llvm.dbg.declare(metadata { [0 x i8]*, i64 }* %self.dbg.spill.i, metadata !867, metadata !DIExpression()), !dbg !875
  %5 = bitcast [0 x i8]* %_3.0 to i8*, !dbg !877
  br label %bb2, !dbg !866

bb2:                                              ; preds = %bb1
; call core::ptr::non_null::NonNull<T>::new_unchecked
  %6 = call nonnull i8* @"_ZN4core3ptr8non_null16NonNull$LT$T$GT$13new_unchecked17hc2da2043f3870a87E"(i8* %5), !dbg !878
  br label %bb3, !dbg !878

bb3:                                              ; preds = %bb2
  ret i8* %6, !dbg !879
}

; core::ptr::non_null::NonNull<[T]>::slice_from_raw_parts
; Function Attrs: inlinehint nounwind
define { i8*, i64 } @"_ZN4core3ptr8non_null26NonNull$LT$$u5b$T$u5d$$GT$20slice_from_raw_parts17h0c360a9f7225f23fE"(i8* nonnull %data, i64 %len) unnamed_addr #0 !dbg !880 {
start:
  %len.dbg.spill = alloca i64, align 8
  %data.dbg.spill = alloca i8*, align 8
  store i8* %data, i8** %data.dbg.spill, align 8
  call void @llvm.dbg.declare(metadata i8** %data.dbg.spill, metadata !884, metadata !DIExpression()), !dbg !886
  store i64 %len, i64* %len.dbg.spill, align 8
  call void @llvm.dbg.declare(metadata i64* %len.dbg.spill, metadata !885, metadata !DIExpression()), !dbg !887
; call core::ptr::non_null::NonNull<T>::as_ptr
  %_4 = call i8* @"_ZN4core3ptr8non_null16NonNull$LT$T$GT$6as_ptr17hbde849f63aae2924E"(i8* nonnull %data), !dbg !888
  br label %bb1, !dbg !888

bb1:                                              ; preds = %start
; call core::ptr::slice_from_raw_parts_mut
  %0 = call { [0 x i8]*, i64 } @_ZN4core3ptr24slice_from_raw_parts_mut17ha423c167c8324f43E(i8* %_4, i64 %len), !dbg !889
  %_3.0 = extractvalue { [0 x i8]*, i64 } %0, 0, !dbg !889
  %_3.1 = extractvalue { [0 x i8]*, i64 } %0, 1, !dbg !889
  br label %bb2, !dbg !889

bb2:                                              ; preds = %bb1
; call core::ptr::non_null::NonNull<T>::new_unchecked
  %1 = call { i8*, i64 } @"_ZN4core3ptr8non_null16NonNull$LT$T$GT$13new_unchecked17h929f204af1916641E"([0 x i8]* %_3.0, i64 %_3.1), !dbg !890
  %2 = extractvalue { i8*, i64 } %1, 0, !dbg !890
  %3 = extractvalue { i8*, i64 } %1, 1, !dbg !890
  br label %bb3, !dbg !890

bb3:                                              ; preds = %bb2
  %4 = insertvalue { i8*, i64 } undef, i8* %2, 0, !dbg !891
  %5 = insertvalue { i8*, i64 } %4, i64 %3, 1, !dbg !891
  ret { i8*, i64 } %5, !dbg !891
}

; core::ptr::drop_in_place<dyn std::error::Error+core::marker::Send+core::marker::Sync>
; Function Attrs: nounwind
define void @"_ZN4core3ptr92drop_in_place$LT$dyn$u20$std..error..Error$u2b$core..marker..Send$u2b$core..marker..Sync$GT$17hc2c051a42da6a3a6E"({}* %_1.0, [3 x i64]* align 8 dereferenceable(24) %_1.1) unnamed_addr #1 !dbg !892 {
start:
  %_1.dbg.spill = alloca { {}*, [3 x i64]* }, align 8
  %0 = getelementptr inbounds { {}*, [3 x i64]* }, { {}*, [3 x i64]* }* %_1.dbg.spill, i32 0, i32 0
  store {}* %_1.0, {}** %0, align 8
  %1 = getelementptr inbounds { {}*, [3 x i64]* }, { {}*, [3 x i64]* }* %_1.dbg.spill, i32 0, i32 1
  store [3 x i64]* %_1.1, [3 x i64]** %1, align 8
  call void @llvm.dbg.declare(metadata { {}*, [3 x i64]* }* %_1.dbg.spill, metadata !896, metadata !DIExpression()), !dbg !897
  %2 = bitcast [3 x i64]* %_1.1 to void ({}*)**, !dbg !897
  %3 = getelementptr inbounds void ({}*)*, void ({}*)** %2, i64 0, !dbg !897
  %4 = load void ({}*)*, void ({}*)** %3, align 8, !dbg !897, !invariant.load !13, !nonnull !13
  call void %4({}* %_1.0), !dbg !897
  br label %bb1, !dbg !897

bb1:                                              ; preds = %start
  ret void, !dbg !897
}

; core::str::converts::from_utf8_unchecked
; Function Attrs: inlinehint nounwind
define internal { [0 x i8]*, i64 } @_ZN4core3str8converts19from_utf8_unchecked17h5deea88662b2cafcE([0 x i8]* nonnull align 1 %v.0, i64 %v.1) unnamed_addr #0 !dbg !898 {
start:
  %0 = alloca { [0 x i8]*, i64 }, align 8
  %v.dbg.spill = alloca { [0 x i8]*, i64 }, align 8
  %1 = getelementptr inbounds { [0 x i8]*, i64 }, { [0 x i8]*, i64 }* %v.dbg.spill, i32 0, i32 0
  store [0 x i8]* %v.0, [0 x i8]** %1, align 8
  %2 = getelementptr inbounds { [0 x i8]*, i64 }, { [0 x i8]*, i64 }* %v.dbg.spill, i32 0, i32 1
  store i64 %v.1, i64* %2, align 8
  call void @llvm.dbg.declare(metadata { [0 x i8]*, i64 }* %v.dbg.spill, metadata !908, metadata !DIExpression()), !dbg !909
  %3 = getelementptr inbounds { [0 x i8]*, i64 }, { [0 x i8]*, i64 }* %0, i32 0, i32 0, !dbg !910
  store [0 x i8]* %v.0, [0 x i8]** %3, align 8, !dbg !910
  %4 = getelementptr inbounds { [0 x i8]*, i64 }, { [0 x i8]*, i64 }* %0, i32 0, i32 1, !dbg !910
  store i64 %v.1, i64* %4, align 8, !dbg !910
  %5 = getelementptr inbounds { [0 x i8]*, i64 }, { [0 x i8]*, i64 }* %0, i32 0, i32 0, !dbg !910
  %6 = load [0 x i8]*, [0 x i8]** %5, align 8, !dbg !910, !nonnull !13
  %7 = getelementptr inbounds { [0 x i8]*, i64 }, { [0 x i8]*, i64 }* %0, i32 0, i32 1, !dbg !910
  %8 = load i64, i64* %7, align 8, !dbg !910
  br label %bb1, !dbg !910

bb1:                                              ; preds = %start
  %9 = insertvalue { [0 x i8]*, i64 } undef, [0 x i8]* %6, 0, !dbg !911
  %10 = insertvalue { [0 x i8]*, i64 } %9, i64 %8, 1, !dbg !911
  ret { [0 x i8]*, i64 } %10, !dbg !911
}

; core::alloc::layout::Layout::from_size_align_unchecked
; Function Attrs: inlinehint nounwind
define internal { i64, i64 } @_ZN4core5alloc6layout6Layout25from_size_align_unchecked17h7498c1c72bedad47E(i64 %size, i64 %align) unnamed_addr #0 !dbg !912 {
start:
  %align.dbg.spill = alloca i64, align 8
  %size.dbg.spill = alloca i64, align 8
  %0 = alloca { i64, i64 }, align 8
  store i64 %size, i64* %size.dbg.spill, align 8
  call void @llvm.dbg.declare(metadata i64* %size.dbg.spill, metadata !922, metadata !DIExpression()), !dbg !924
  store i64 %align, i64* %align.dbg.spill, align 8
  call void @llvm.dbg.declare(metadata i64* %align.dbg.spill, metadata !923, metadata !DIExpression()), !dbg !925
; call core::num::nonzero::NonZeroUsize::new_unchecked
  %_4 = call i64 @_ZN4core3num7nonzero12NonZeroUsize13new_unchecked17h45e7c761e36e08dbE(i64 %align), !dbg !926, !range !601
  br label %bb1, !dbg !926

bb1:                                              ; preds = %start
  %1 = bitcast { i64, i64 }* %0 to i64*, !dbg !927
  store i64 %size, i64* %1, align 8, !dbg !927
  %2 = getelementptr inbounds { i64, i64 }, { i64, i64 }* %0, i32 0, i32 1, !dbg !927
  store i64 %_4, i64* %2, align 8, !dbg !927
  %3 = getelementptr inbounds { i64, i64 }, { i64, i64 }* %0, i32 0, i32 0, !dbg !928
  %4 = load i64, i64* %3, align 8, !dbg !928
  %5 = getelementptr inbounds { i64, i64 }, { i64, i64 }* %0, i32 0, i32 1, !dbg !928
  %6 = load i64, i64* %5, align 8, !dbg !928, !range !601
  %7 = insertvalue { i64, i64 } undef, i64 %4, 0, !dbg !928
  %8 = insertvalue { i64, i64 } %7, i64 %6, 1, !dbg !928
  ret { i64, i64 } %8, !dbg !928
}

; core::alloc::layout::Layout::size
; Function Attrs: inlinehint nounwind
define internal i64 @_ZN4core5alloc6layout6Layout4size17hff04ee2e3bfef1b4E({ i64, i64 }* align 8 dereferenceable(16) %self) unnamed_addr #0 !dbg !929 {
start:
  %self.dbg.spill = alloca { i64, i64 }*, align 8
  store { i64, i64 }* %self, { i64, i64 }** %self.dbg.spill, align 8
  call void @llvm.dbg.declare(metadata { i64, i64 }** %self.dbg.spill, metadata !934, metadata !DIExpression()), !dbg !935
  %0 = bitcast { i64, i64 }* %self to i64*, !dbg !936
  %1 = load i64, i64* %0, align 8, !dbg !936
  ret i64 %1, !dbg !937
}

; core::alloc::layout::Layout::align
; Function Attrs: inlinehint nounwind
define internal i64 @_ZN4core5alloc6layout6Layout5align17h0e54ba3186edc6adE({ i64, i64 }* align 8 dereferenceable(16) %self) unnamed_addr #0 !dbg !938 {
start:
  %self.dbg.spill = alloca { i64, i64 }*, align 8
  store { i64, i64 }* %self, { i64, i64 }** %self.dbg.spill, align 8
  call void @llvm.dbg.declare(metadata { i64, i64 }** %self.dbg.spill, metadata !940, metadata !DIExpression()), !dbg !941
  %0 = getelementptr inbounds { i64, i64 }, { i64, i64 }* %self, i32 0, i32 1, !dbg !942
  %_2 = load i64, i64* %0, align 8, !dbg !942, !range !601
; call core::num::nonzero::NonZeroUsize::get
  %1 = call i64 @_ZN4core3num7nonzero12NonZeroUsize3get17h98dfe983fe5ae81aE(i64 %_2), !dbg !942
  br label %bb1, !dbg !942

bb1:                                              ; preds = %start
  ret i64 %1, !dbg !943
}

; core::alloc::layout::Layout::dangling
; Function Attrs: inlinehint nounwind
define internal nonnull i8* @_ZN4core5alloc6layout6Layout8dangling17hced4de6bc176bfeaE({ i64, i64 }* align 8 dereferenceable(16) %self) unnamed_addr #0 !dbg !944 {
start:
  %self.dbg.spill = alloca { i64, i64 }*, align 8
  store { i64, i64 }* %self, { i64, i64 }** %self.dbg.spill, align 8
  call void @llvm.dbg.declare(metadata { i64, i64 }** %self.dbg.spill, metadata !948, metadata !DIExpression()), !dbg !949
; call core::alloc::layout::Layout::align
  %_3 = call i64 @_ZN4core5alloc6layout6Layout5align17h0e54ba3186edc6adE({ i64, i64 }* align 8 dereferenceable(16) %self), !dbg !950
  br label %bb1, !dbg !950

bb1:                                              ; preds = %start
  %_2 = inttoptr i64 %_3 to i8*, !dbg !950
; call core::ptr::non_null::NonNull<T>::new_unchecked
  %0 = call nonnull i8* @"_ZN4core3ptr8non_null16NonNull$LT$T$GT$13new_unchecked17hc2da2043f3870a87E"(i8* %_2), !dbg !951
  br label %bb2, !dbg !951

bb2:                                              ; preds = %bb1
  ret i8* %0, !dbg !952
}

; core::slice::<impl [T]>::is_empty
; Function Attrs: inlinehint nounwind
define zeroext i1 @"_ZN4core5slice29_$LT$impl$u20$$u5b$T$u5d$$GT$8is_empty17h7a5df7d06847654aE"([0 x i8]* nonnull align 1 %self.0, i64 %self.1) unnamed_addr #0 !dbg !953 {
start:
  %self.dbg.spill = alloca { [0 x i8]*, i64 }, align 8
  %0 = getelementptr inbounds { [0 x i8]*, i64 }, { [0 x i8]*, i64 }* %self.dbg.spill, i32 0, i32 0
  store [0 x i8]* %self.0, [0 x i8]** %0, align 8
  %1 = getelementptr inbounds { [0 x i8]*, i64 }, { [0 x i8]*, i64 }* %self.dbg.spill, i32 0, i32 1
  store i64 %self.1, i64* %1, align 8
  call void @llvm.dbg.declare(metadata { [0 x i8]*, i64 }* %self.dbg.spill, metadata !961, metadata !DIExpression()), !dbg !962
  %2 = icmp eq i64 %self.1, 0, !dbg !963
  ret i1 %2, !dbg !964
}

; core::option::Option<T>::ok_or
; Function Attrs: inlinehint nounwind
define i8* @"_ZN4core6option15Option$LT$T$GT$5ok_or17h554ea27a79ee8bf7E"(i8* %0) unnamed_addr #0 !dbg !965 {
start:
  %v.dbg.spill = alloca i8*, align 8
  %err.dbg.spill = alloca %"std::alloc::AllocError", align 1
  %_7 = alloca i8, align 1
  %1 = alloca i8*, align 8
  %self = alloca i8*, align 8
  store i8* %0, i8** %self, align 8
  call void @llvm.dbg.declare(metadata i8** %self, metadata !983, metadata !DIExpression()), !dbg !987
  call void @llvm.dbg.declare(metadata %"std::alloc::AllocError"* %err.dbg.spill, metadata !984, metadata !DIExpression()), !dbg !988
  store i8 0, i8* %_7, align 1, !dbg !989
  store i8 1, i8* %_7, align 1, !dbg !989
  %2 = bitcast i8** %self to {}**, !dbg !989
  %3 = load {}*, {}** %2, align 8, !dbg !989
  %4 = icmp eq {}* %3, null, !dbg !989
  %_3 = select i1 %4, i64 0, i64 1, !dbg !989
  switch i64 %_3, label %bb2 [
    i64 0, label %bb1
    i64 1, label %bb3
  ], !dbg !990

bb2:                                              ; preds = %start
  unreachable, !dbg !989

bb1:                                              ; preds = %start
  store i8 0, i8* %_7, align 1, !dbg !991
  %5 = bitcast i8** %1 to %"std::result::Result<std::ptr::NonNull<u8>, std::alloc::AllocError>::Err"*, !dbg !992
  %6 = bitcast %"std::result::Result<std::ptr::NonNull<u8>, std::alloc::AllocError>::Err"* %5 to %"std::alloc::AllocError"*, !dbg !992
  %7 = bitcast i8** %1 to {}**, !dbg !992
  store {}* null, {}** %7, align 8, !dbg !992
  br label %bb4, !dbg !993

bb3:                                              ; preds = %start
  %v = load i8*, i8** %self, align 8, !dbg !994, !nonnull !13
  store i8* %v, i8** %v.dbg.spill, align 8, !dbg !994
  call void @llvm.dbg.declare(metadata i8** %v.dbg.spill, metadata !985, metadata !DIExpression()), !dbg !995
  store i8* %v, i8** %1, align 8, !dbg !996
  br label %bb4, !dbg !997

bb4:                                              ; preds = %bb1, %bb3
  %8 = load i8, i8* %_7, align 1, !dbg !998, !range !510
  %9 = trunc i8 %8 to i1, !dbg !998
  br i1 %9, label %bb6, label %bb5, !dbg !998

bb5:                                              ; preds = %bb6, %bb4
  %10 = load i8*, i8** %1, align 8, !dbg !999
  ret i8* %10, !dbg !999

bb6:                                              ; preds = %bb4
  br label %bb5, !dbg !998
}

; <T as core::convert::From<T>>::from
; Function Attrs: nounwind
define void @"_ZN50_$LT$T$u20$as$u20$core..convert..From$LT$T$GT$$GT$4from17hed36b0b3981b9423E"() unnamed_addr #1 !dbg !1000 {
start:
  %t.dbg.spill = alloca %"std::alloc::AllocError", align 1
  call void @llvm.dbg.declare(metadata %"std::alloc::AllocError"* %t.dbg.spill, metadata !1006, metadata !DIExpression()), !dbg !1009
  ret void, !dbg !1010
}

; <T as core::convert::Into<U>>::into
; Function Attrs: nounwind
define noalias nonnull align 8 %"error::ErrorKind"* @"_ZN50_$LT$T$u20$as$u20$core..convert..Into$LT$U$GT$$GT$4into17h74e6b2e9d2ec1e2cE"(%"error::ErrorKind"* noalias nocapture dereferenceable(32) %self) unnamed_addr #1 !dbg !1011 {
start:
  %_2 = alloca %"error::ErrorKind", align 8
  call void @llvm.dbg.declare(metadata %"error::ErrorKind"* %self, metadata !1051, metadata !DIExpression()), !dbg !1055
  %0 = bitcast %"error::ErrorKind"* %_2 to i8*, !dbg !1056
  %1 = bitcast %"error::ErrorKind"* %self to i8*, !dbg !1056
  call void @llvm.memcpy.p0i8.p0i8.i64(i8* align 8 %0, i8* align 8 %1, i64 32, i1 false), !dbg !1056
; call <alloc::boxed::Box<T> as core::convert::From<T>>::from
  %2 = call noalias nonnull align 8 %"error::ErrorKind"* @"_ZN75_$LT$alloc..boxed..Box$LT$T$GT$$u20$as$u20$core..convert..From$LT$T$GT$$GT$4from17ha41c8f3d0978ac29E"(%"error::ErrorKind"* noalias nocapture dereferenceable(32) %_2), !dbg !1057
  br label %bb1, !dbg !1057

bb1:                                              ; preds = %start
  ret %"error::ErrorKind"* %2, !dbg !1058
}

; alloc::alloc::alloc_zeroed
; Function Attrs: inlinehint nounwind
define internal i8* @_ZN5alloc5alloc12alloc_zeroed17h91350cc7d82e2f18E(i64 %0, i64 %1) unnamed_addr #0 !dbg !1059 {
start:
  %layout = alloca { i64, i64 }, align 8
  %2 = getelementptr inbounds { i64, i64 }, { i64, i64 }* %layout, i32 0, i32 0
  store i64 %0, i64* %2, align 8
  %3 = getelementptr inbounds { i64, i64 }, { i64, i64 }* %layout, i32 0, i32 1
  store i64 %1, i64* %3, align 8
  call void @llvm.dbg.declare(metadata { i64, i64 }* %layout, metadata !1064, metadata !DIExpression()), !dbg !1065
; call core::alloc::layout::Layout::size
  %_2 = call i64 @_ZN4core5alloc6layout6Layout4size17hff04ee2e3bfef1b4E({ i64, i64 }* align 8 dereferenceable(16) %layout), !dbg !1066
  br label %bb1, !dbg !1066

bb1:                                              ; preds = %start
; call core::alloc::layout::Layout::align
  %_4 = call i64 @_ZN4core5alloc6layout6Layout5align17h0e54ba3186edc6adE({ i64, i64 }* align 8 dereferenceable(16) %layout), !dbg !1067
  br label %bb2, !dbg !1067

bb2:                                              ; preds = %bb1
  %4 = call i8* @__rust_alloc_zeroed(i64 %_2, i64 %_4), !dbg !1068
  br label %bb3, !dbg !1068

bb3:                                              ; preds = %bb2
  ret i8* %4, !dbg !1069
}

; alloc::alloc::exchange_malloc
; Function Attrs: inlinehint nounwind
define internal i8* @_ZN5alloc5alloc15exchange_malloc17h4b1057b04d1951e7E(i64 %size, i64 %align) unnamed_addr #0 !dbg !1070 {
start:
  %ptr.dbg.spill = alloca { i8*, i64 }, align 8
  %layout.dbg.spill = alloca { i64, i64 }, align 8
  %align.dbg.spill = alloca i64, align 8
  %size.dbg.spill = alloca i64, align 8
  %_6 = alloca { i8*, i64 }, align 8
  store i64 %size, i64* %size.dbg.spill, align 8
  call void @llvm.dbg.declare(metadata i64* %size.dbg.spill, metadata !1074, metadata !DIExpression()), !dbg !1080
  store i64 %align, i64* %align.dbg.spill, align 8
  call void @llvm.dbg.declare(metadata i64* %align.dbg.spill, metadata !1075, metadata !DIExpression()), !dbg !1081
; call core::alloc::layout::Layout::from_size_align_unchecked
  %0 = call { i64, i64 } @_ZN4core5alloc6layout6Layout25from_size_align_unchecked17h7498c1c72bedad47E(i64 %size, i64 %align), !dbg !1082
  %layout.0 = extractvalue { i64, i64 } %0, 0, !dbg !1082
  %layout.1 = extractvalue { i64, i64 } %0, 1, !dbg !1082
  %1 = getelementptr inbounds { i64, i64 }, { i64, i64 }* %layout.dbg.spill, i32 0, i32 0, !dbg !1082
  store i64 %layout.0, i64* %1, align 8, !dbg !1082
  %2 = getelementptr inbounds { i64, i64 }, { i64, i64 }* %layout.dbg.spill, i32 0, i32 1, !dbg !1082
  store i64 %layout.1, i64* %2, align 8, !dbg !1082
  call void @llvm.dbg.declare(metadata { i64, i64 }* %layout.dbg.spill, metadata !1076, metadata !DIExpression()), !dbg !1083
  br label %bb1, !dbg !1082

bb1:                                              ; preds = %start
; call <alloc::alloc::Global as core::alloc::Allocator>::allocate
  %3 = call { i8*, i64 } @"_ZN63_$LT$alloc..alloc..Global$u20$as$u20$core..alloc..Allocator$GT$8allocate17h64875bc5d77341deE"(%"std::alloc::Global"* nonnull align 1 bitcast (<{ [0 x i8] }>* @alloc677 to %"std::alloc::Global"*), i64 %layout.0, i64 %layout.1), !dbg !1084
  store { i8*, i64 } %3, { i8*, i64 }* %_6, align 8, !dbg !1084
  br label %bb2, !dbg !1084

bb2:                                              ; preds = %bb1
  %4 = bitcast { i8*, i64 }* %_6 to {}**, !dbg !1084
  %5 = load {}*, {}** %4, align 8, !dbg !1084
  %6 = icmp eq {}* %5, null, !dbg !1084
  %_9 = select i1 %6, i64 1, i64 0, !dbg !1084
  switch i64 %_9, label %bb4 [
    i64 0, label %bb5
    i64 1, label %bb3
  ], !dbg !1085

bb4:                                              ; preds = %bb2
  unreachable, !dbg !1084

bb5:                                              ; preds = %bb2
  %7 = getelementptr inbounds { i8*, i64 }, { i8*, i64 }* %_6, i32 0, i32 0, !dbg !1086
  %ptr.0 = load i8*, i8** %7, align 8, !dbg !1086, !nonnull !13
  %8 = getelementptr inbounds { i8*, i64 }, { i8*, i64 }* %_6, i32 0, i32 1, !dbg !1086
  %ptr.1 = load i64, i64* %8, align 8, !dbg !1086
  %9 = getelementptr inbounds { i8*, i64 }, { i8*, i64 }* %ptr.dbg.spill, i32 0, i32 0, !dbg !1086
  store i8* %ptr.0, i8** %9, align 8, !dbg !1086
  %10 = getelementptr inbounds { i8*, i64 }, { i8*, i64 }* %ptr.dbg.spill, i32 0, i32 1, !dbg !1086
  store i64 %ptr.1, i64* %10, align 8, !dbg !1086
  call void @llvm.dbg.declare(metadata { i8*, i64 }* %ptr.dbg.spill, metadata !1078, metadata !DIExpression()), !dbg !1087
; call core::ptr::non_null::NonNull<[T]>::as_mut_ptr
  %11 = call i8* @"_ZN4core3ptr8non_null26NonNull$LT$$u5b$T$u5d$$GT$10as_mut_ptr17hc65fe330e2062327E"(i8* nonnull %ptr.0, i64 %ptr.1), !dbg !1088
  br label %bb6, !dbg !1088

bb3:                                              ; preds = %bb2
; call alloc::alloc::handle_alloc_error
  call void @_ZN5alloc5alloc18handle_alloc_error17hc3aabe6032ee3c5aE(i64 %layout.0, i64 %layout.1), !dbg !1089
  unreachable, !dbg !1089

bb6:                                              ; preds = %bb5
  ret i8* %11, !dbg !1090
}

; alloc::alloc::alloc
; Function Attrs: inlinehint nounwind
define internal i8* @_ZN5alloc5alloc5alloc17h18da2d60bfabbeebE(i64 %0, i64 %1) unnamed_addr #0 !dbg !1091 {
start:
  %layout = alloca { i64, i64 }, align 8
  %2 = getelementptr inbounds { i64, i64 }, { i64, i64 }* %layout, i32 0, i32 0
  store i64 %0, i64* %2, align 8
  %3 = getelementptr inbounds { i64, i64 }, { i64, i64 }* %layout, i32 0, i32 1
  store i64 %1, i64* %3, align 8
  call void @llvm.dbg.declare(metadata { i64, i64 }* %layout, metadata !1093, metadata !DIExpression()), !dbg !1094
; call core::alloc::layout::Layout::size
  %_2 = call i64 @_ZN4core5alloc6layout6Layout4size17hff04ee2e3bfef1b4E({ i64, i64 }* align 8 dereferenceable(16) %layout), !dbg !1095
  br label %bb1, !dbg !1095

bb1:                                              ; preds = %start
; call core::alloc::layout::Layout::align
  %_4 = call i64 @_ZN4core5alloc6layout6Layout5align17h0e54ba3186edc6adE({ i64, i64 }* align 8 dereferenceable(16) %layout), !dbg !1096
  br label %bb2, !dbg !1096

bb2:                                              ; preds = %bb1
  %4 = call i8* @__rust_alloc(i64 %_2, i64 %_4), !dbg !1097
  br label %bb3, !dbg !1097

bb3:                                              ; preds = %bb2
  ret i8* %4, !dbg !1098
}

; alloc::alloc::Global::alloc_impl
; Function Attrs: inlinehint nounwind
define internal { i8*, i64 } @_ZN5alloc5alloc6Global10alloc_impl17h14fb97032337eea6E(%"std::alloc::Global"* nonnull align 1 %self, i64 %0, i64 %1, i1 zeroext %zeroed) unnamed_addr #0 !dbg !1099 {
start:
  %ptr.dbg.spill = alloca i8*, align 8
  %val.dbg.spill = alloca i8*, align 8
  %size.dbg.spill = alloca i64, align 8
  %residual.dbg.spill = alloca %"std::result::Result<std::convert::Infallible, std::alloc::AllocError>::Err", align 1
  %zeroed.dbg.spill = alloca i8, align 1
  %self.dbg.spill = alloca %"std::alloc::Global"*, align 8
  %_15 = alloca i8*, align 8
  %raw_ptr = alloca i8*, align 8
  %2 = alloca { i8*, i64 }, align 8
  %layout = alloca { i64, i64 }, align 8
  %3 = getelementptr inbounds { i64, i64 }, { i64, i64 }* %layout, i32 0, i32 0
  store i64 %0, i64* %3, align 8
  %4 = getelementptr inbounds { i64, i64 }, { i64, i64 }* %layout, i32 0, i32 1
  store i64 %1, i64* %4, align 8
  store %"std::alloc::Global"* %self, %"std::alloc::Global"** %self.dbg.spill, align 8
  call void @llvm.dbg.declare(metadata %"std::alloc::Global"** %self.dbg.spill, metadata !1104, metadata !DIExpression()), !dbg !1117
  call void @llvm.dbg.declare(metadata { i64, i64 }* %layout, metadata !1105, metadata !DIExpression()), !dbg !1118
  %5 = zext i1 %zeroed to i8
  store i8 %5, i8* %zeroed.dbg.spill, align 1
  call void @llvm.dbg.declare(metadata i8* %zeroed.dbg.spill, metadata !1106, metadata !DIExpression()), !dbg !1119
  call void @llvm.dbg.declare(metadata i8** %raw_ptr, metadata !1109, metadata !DIExpression()), !dbg !1120
  call void @llvm.dbg.declare(metadata %"std::result::Result<std::convert::Infallible, std::alloc::AllocError>::Err"* %residual.dbg.spill, metadata !1113, metadata !DIExpression()), !dbg !1121
; call core::alloc::layout::Layout::size
  %_4 = call i64 @_ZN4core5alloc6layout6Layout4size17hff04ee2e3bfef1b4E({ i64, i64 }* align 8 dereferenceable(16) %layout), !dbg !1122
  br label %bb1, !dbg !1122

bb1:                                              ; preds = %start
  %6 = icmp eq i64 %_4, 0, !dbg !1123
  br i1 %6, label %bb3, label %bb2, !dbg !1123

bb3:                                              ; preds = %bb1
; call core::alloc::layout::Layout::dangling
  %_7 = call nonnull i8* @_ZN4core5alloc6layout6Layout8dangling17hced4de6bc176bfeaE({ i64, i64 }* align 8 dereferenceable(16) %layout), !dbg !1124
  br label %bb4, !dbg !1124

bb2:                                              ; preds = %bb1
  store i64 %_4, i64* %size.dbg.spill, align 8, !dbg !1125
  call void @llvm.dbg.declare(metadata i64* %size.dbg.spill, metadata !1107, metadata !DIExpression()), !dbg !1126
  br i1 %zeroed, label %bb6, label %bb8, !dbg !1127

bb8:                                              ; preds = %bb2
  %7 = getelementptr inbounds { i64, i64 }, { i64, i64 }* %layout, i32 0, i32 0, !dbg !1128
  %_13.0 = load i64, i64* %7, align 8, !dbg !1128
  %8 = getelementptr inbounds { i64, i64 }, { i64, i64 }* %layout, i32 0, i32 1, !dbg !1128
  %_13.1 = load i64, i64* %8, align 8, !dbg !1128, !range !601
; call alloc::alloc::alloc
  %9 = call i8* @_ZN5alloc5alloc5alloc17h18da2d60bfabbeebE(i64 %_13.0, i64 %_13.1), !dbg !1129
  store i8* %9, i8** %raw_ptr, align 8, !dbg !1129
  br label %bb9, !dbg !1129

bb6:                                              ; preds = %bb2
  %10 = getelementptr inbounds { i64, i64 }, { i64, i64 }* %layout, i32 0, i32 0, !dbg !1130
  %_12.0 = load i64, i64* %10, align 8, !dbg !1130
  %11 = getelementptr inbounds { i64, i64 }, { i64, i64 }* %layout, i32 0, i32 1, !dbg !1130
  %_12.1 = load i64, i64* %11, align 8, !dbg !1130, !range !601
; call alloc::alloc::alloc_zeroed
  %12 = call i8* @_ZN5alloc5alloc12alloc_zeroed17h91350cc7d82e2f18E(i64 %_12.0, i64 %_12.1), !dbg !1131
  store i8* %12, i8** %raw_ptr, align 8, !dbg !1131
  br label %bb7, !dbg !1131

bb7:                                              ; preds = %bb6
  br label %bb10, !dbg !1132

bb10:                                             ; preds = %bb9, %bb7
  %_18 = load i8*, i8** %raw_ptr, align 8, !dbg !1133
; call core::ptr::non_null::NonNull<T>::new
  %_17 = call i8* @"_ZN4core3ptr8non_null16NonNull$LT$T$GT$3new17h4a0f0e04f46f0707E"(i8* %_18), !dbg !1134
  br label %bb11, !dbg !1134

bb9:                                              ; preds = %bb8
  br label %bb10, !dbg !1132

bb11:                                             ; preds = %bb10
; call core::option::Option<T>::ok_or
  %_16 = call i8* @"_ZN4core6option15Option$LT$T$GT$5ok_or17h554ea27a79ee8bf7E"(i8* %_17), !dbg !1134
  br label %bb12, !dbg !1134

bb12:                                             ; preds = %bb11
; call <core::result::Result<T,E> as core::ops::try_trait::Try>::branch
  %13 = call i8* @"_ZN79_$LT$core..result..Result$LT$T$C$E$GT$$u20$as$u20$core..ops..try_trait..Try$GT$6branch17h08b10dae8fc80961E"(i8* %_16), !dbg !1134
  store i8* %13, i8** %_15, align 8, !dbg !1134
  br label %bb13, !dbg !1134

bb13:                                             ; preds = %bb12
  %14 = bitcast i8** %_15 to {}**, !dbg !1134
  %15 = load {}*, {}** %14, align 8, !dbg !1134
  %16 = icmp eq {}* %15, null, !dbg !1134
  %_20 = select i1 %16, i64 1, i64 0, !dbg !1134
  switch i64 %_20, label %bb15 [
    i64 0, label %bb14
    i64 1, label %bb16
  ], !dbg !1134

bb15:                                             ; preds = %bb13
  unreachable, !dbg !1134

bb14:                                             ; preds = %bb13
  %val = load i8*, i8** %_15, align 8, !dbg !1134, !nonnull !13
  store i8* %val, i8** %val.dbg.spill, align 8, !dbg !1134
  call void @llvm.dbg.declare(metadata i8** %val.dbg.spill, metadata !1115, metadata !DIExpression()), !dbg !1135
  store i8* %val, i8** %ptr.dbg.spill, align 8, !dbg !1135
  call void @llvm.dbg.declare(metadata i8** %ptr.dbg.spill, metadata !1111, metadata !DIExpression()), !dbg !1136
; call core::ptr::non_null::NonNull<[T]>::slice_from_raw_parts
  %17 = call { i8*, i64 } @"_ZN4core3ptr8non_null26NonNull$LT$$u5b$T$u5d$$GT$20slice_from_raw_parts17h0c360a9f7225f23fE"(i8* nonnull %val, i64 %_4), !dbg !1137
  %_24.0 = extractvalue { i8*, i64 } %17, 0, !dbg !1137
  %_24.1 = extractvalue { i8*, i64 } %17, 1, !dbg !1137
  br label %bb18, !dbg !1137

bb16:                                             ; preds = %bb13
; call <core::result::Result<T,F> as core::ops::try_trait::FromResidual<core::result::Result<core::convert::Infallible,E>>>::from_residual
  %18 = call { i8*, i64 } @"_ZN153_$LT$core..result..Result$LT$T$C$F$GT$$u20$as$u20$core..ops..try_trait..FromResidual$LT$core..result..Result$LT$core..convert..Infallible$C$E$GT$$GT$$GT$13from_residual17h28826879cc569142E"(), !dbg !1138
  store { i8*, i64 } %18, { i8*, i64 }* %2, align 8, !dbg !1138
  br label %bb17, !dbg !1138

bb17:                                             ; preds = %bb16
  br label %bb20, !dbg !1139

bb20:                                             ; preds = %bb19, %bb17
  %19 = getelementptr inbounds { i8*, i64 }, { i8*, i64 }* %2, i32 0, i32 0, !dbg !1139
  %20 = load i8*, i8** %19, align 8, !dbg !1139
  %21 = getelementptr inbounds { i8*, i64 }, { i8*, i64 }* %2, i32 0, i32 1, !dbg !1139
  %22 = load i64, i64* %21, align 8, !dbg !1139
  %23 = insertvalue { i8*, i64 } undef, i8* %20, 0, !dbg !1139
  %24 = insertvalue { i8*, i64 } %23, i64 %22, 1, !dbg !1139
  ret { i8*, i64 } %24, !dbg !1139

bb18:                                             ; preds = %bb14
  %25 = getelementptr inbounds { i8*, i64 }, { i8*, i64 }* %2, i32 0, i32 0, !dbg !1140
  store i8* %_24.0, i8** %25, align 8, !dbg !1140
  %26 = getelementptr inbounds { i8*, i64 }, { i8*, i64 }* %2, i32 0, i32 1, !dbg !1140
  store i64 %_24.1, i64* %26, align 8, !dbg !1140
  br label %bb19, !dbg !1141

bb19:                                             ; preds = %bb5, %bb18
  br label %bb20, !dbg !1139

bb4:                                              ; preds = %bb3
; call core::ptr::non_null::NonNull<[T]>::slice_from_raw_parts
  %27 = call { i8*, i64 } @"_ZN4core3ptr8non_null26NonNull$LT$$u5b$T$u5d$$GT$20slice_from_raw_parts17h0c360a9f7225f23fE"(i8* nonnull %_7, i64 0), !dbg !1142
  %_6.0 = extractvalue { i8*, i64 } %27, 0, !dbg !1142
  %_6.1 = extractvalue { i8*, i64 } %27, 1, !dbg !1142
  br label %bb5, !dbg !1142

bb5:                                              ; preds = %bb4
  %28 = getelementptr inbounds { i8*, i64 }, { i8*, i64 }* %2, i32 0, i32 0, !dbg !1143
  store i8* %_6.0, i8** %28, align 8, !dbg !1143
  %29 = getelementptr inbounds { i8*, i64 }, { i8*, i64 }* %2, i32 0, i32 1, !dbg !1143
  store i64 %_6.1, i64* %29, align 8, !dbg !1143
  br label %bb19, !dbg !1144
}

; alloc::alloc::dealloc
; Function Attrs: inlinehint nounwind
define internal void @_ZN5alloc5alloc7dealloc17h5db96f88ed764375E(i8* %ptr, i64 %0, i64 %1) unnamed_addr #0 !dbg !1145 {
start:
  %ptr.dbg.spill = alloca i8*, align 8
  %layout = alloca { i64, i64 }, align 8
  %2 = getelementptr inbounds { i64, i64 }, { i64, i64 }* %layout, i32 0, i32 0
  store i64 %0, i64* %2, align 8
  %3 = getelementptr inbounds { i64, i64 }, { i64, i64 }* %layout, i32 0, i32 1
  store i64 %1, i64* %3, align 8
  store i8* %ptr, i8** %ptr.dbg.spill, align 8
  call void @llvm.dbg.declare(metadata i8** %ptr.dbg.spill, metadata !1149, metadata !DIExpression()), !dbg !1151
  call void @llvm.dbg.declare(metadata { i64, i64 }* %layout, metadata !1150, metadata !DIExpression()), !dbg !1152
; call core::alloc::layout::Layout::size
  %_4 = call i64 @_ZN4core5alloc6layout6Layout4size17hff04ee2e3bfef1b4E({ i64, i64 }* align 8 dereferenceable(16) %layout), !dbg !1153
  br label %bb1, !dbg !1153

bb1:                                              ; preds = %start
; call core::alloc::layout::Layout::align
  %_6 = call i64 @_ZN4core5alloc6layout6Layout5align17h0e54ba3186edc6adE({ i64, i64 }* align 8 dereferenceable(16) %layout), !dbg !1154
  br label %bb2, !dbg !1154

bb2:                                              ; preds = %bb1
  call void @__rust_dealloc(i8* %ptr, i64 %_4, i64 %_6), !dbg !1155
  br label %bb3, !dbg !1155

bb3:                                              ; preds = %bb2
  ret void, !dbg !1156
}

; alloc::alloc::box_free
; Function Attrs: inlinehint nounwind
define void @_ZN5alloc5alloc8box_free17h65b6acc24e7e2668E(i64* nonnull %0) unnamed_addr #0 !dbg !1157 {
start:
  %layout.dbg.spill = alloca { i64, i64 }, align 8
  %align.dbg.spill = alloca i64, align 8
  %1 = alloca i64, align 8
  %size.dbg.spill = alloca i64, align 8
  %2 = alloca i64, align 8
  %alloc = alloca %"std::alloc::Global", align 1
  %ptr = alloca i64*, align 8
  store i64* %0, i64** %ptr, align 8
  call void @llvm.dbg.declare(metadata i64** %ptr, metadata !1161, metadata !DIExpression()), !dbg !1170
  call void @llvm.dbg.declare(metadata %"std::alloc::Global"* %alloc, metadata !1162, metadata !DIExpression()), !dbg !1171
; call core::ptr::unique::Unique<T>::as_ref
  %_5 = call align 8 dereferenceable(24) %"std::io::error::Custom"* @"_ZN4core3ptr6unique15Unique$LT$T$GT$6as_ref17hbd414d60a9c6bba4E"(i64** align 8 dereferenceable(8) %ptr), !dbg !1172
  br label %bb1, !dbg !1172

bb1:                                              ; preds = %start
  store i64 24, i64* %2, align 8, !dbg !1173
  %size = load i64, i64* %2, align 8, !dbg !1173
  store i64 %size, i64* %size.dbg.spill, align 8, !dbg !1173
  call void @llvm.dbg.declare(metadata i64* %size.dbg.spill, metadata !1163, metadata !DIExpression()), !dbg !1174
  br label %bb2, !dbg !1173

bb2:                                              ; preds = %bb1
; call core::ptr::unique::Unique<T>::as_ref
  %_9 = call align 8 dereferenceable(24) %"std::io::error::Custom"* @"_ZN4core3ptr6unique15Unique$LT$T$GT$6as_ref17hbd414d60a9c6bba4E"(i64** align 8 dereferenceable(8) %ptr), !dbg !1175
  br label %bb3, !dbg !1175

bb3:                                              ; preds = %bb2
  store i64 8, i64* %1, align 8, !dbg !1176
  %align = load i64, i64* %1, align 8, !dbg !1176
  store i64 %align, i64* %align.dbg.spill, align 8, !dbg !1176
  call void @llvm.dbg.declare(metadata i64* %align.dbg.spill, metadata !1165, metadata !DIExpression()), !dbg !1177
  br label %bb4, !dbg !1176

bb4:                                              ; preds = %bb3
; call core::alloc::layout::Layout::from_size_align_unchecked
  %3 = call { i64, i64 } @_ZN4core5alloc6layout6Layout25from_size_align_unchecked17h7498c1c72bedad47E(i64 %size, i64 %align), !dbg !1178
  %layout.0 = extractvalue { i64, i64 } %3, 0, !dbg !1178
  %layout.1 = extractvalue { i64, i64 } %3, 1, !dbg !1178
  %4 = getelementptr inbounds { i64, i64 }, { i64, i64 }* %layout.dbg.spill, i32 0, i32 0, !dbg !1178
  store i64 %layout.0, i64* %4, align 8, !dbg !1178
  %5 = getelementptr inbounds { i64, i64 }, { i64, i64 }* %layout.dbg.spill, i32 0, i32 1, !dbg !1178
  store i64 %layout.1, i64* %5, align 8, !dbg !1178
  call void @llvm.dbg.declare(metadata { i64, i64 }* %layout.dbg.spill, metadata !1167, metadata !DIExpression()), !dbg !1179
  br label %bb5, !dbg !1178

bb5:                                              ; preds = %bb4
  %_17 = load i64*, i64** %ptr, align 8, !dbg !1180, !nonnull !13
; call core::ptr::unique::Unique<T>::cast
  %_16 = call nonnull i8* @"_ZN4core3ptr6unique15Unique$LT$T$GT$4cast17h16b27b0f07aa404bE"(i64* nonnull %_17), !dbg !1180
  br label %bb6, !dbg !1180

bb6:                                              ; preds = %bb5
; call <T as core::convert::Into<U>>::into
  %_15 = call nonnull i8* @"_ZN50_$LT$T$u20$as$u20$core..convert..Into$LT$U$GT$$GT$4into17h699f074357053075E"(i8* nonnull %_16), !dbg !1180
  br label %bb7, !dbg !1180

bb7:                                              ; preds = %bb6
; call <alloc::alloc::Global as core::alloc::Allocator>::deallocate
  call void @"_ZN63_$LT$alloc..alloc..Global$u20$as$u20$core..alloc..Allocator$GT$10deallocate17h27c7b6c9f79411bbE"(%"std::alloc::Global"* nonnull align 1 %alloc, i8* nonnull %_15, i64 %layout.0, i64 %layout.1), !dbg !1181
  br label %bb8, !dbg !1181

bb8:                                              ; preds = %bb7
  br label %bb9, !dbg !1182

bb9:                                              ; preds = %bb8
  ret void, !dbg !1183
}

; alloc::alloc::box_free
; Function Attrs: inlinehint nounwind
define void @_ZN5alloc5alloc8box_free17hfcdff0f9a690de60E(i8* nonnull %0, i64* align 8 dereferenceable(24) %1) unnamed_addr #0 !dbg !1184 {
start:
  %layout.dbg.spill = alloca { i64, i64 }, align 8
  %align.dbg.spill = alloca i64, align 8
  %2 = alloca i64, align 8
  %size.dbg.spill = alloca i64, align 8
  %3 = alloca i64, align 8
  %alloc = alloca %"std::alloc::Global", align 1
  %ptr = alloca { i8*, i64* }, align 8
  %4 = getelementptr inbounds { i8*, i64* }, { i8*, i64* }* %ptr, i32 0, i32 0
  store i8* %0, i8** %4, align 8
  %5 = getelementptr inbounds { i8*, i64* }, { i8*, i64* }* %ptr, i32 0, i32 1
  store i64* %1, i64** %5, align 8
  call void @llvm.dbg.declare(metadata { i8*, i64* }* %ptr, metadata !1188, metadata !DIExpression()), !dbg !1196
  call void @llvm.dbg.declare(metadata %"std::alloc::Global"* %alloc, metadata !1189, metadata !DIExpression()), !dbg !1197
; call core::ptr::unique::Unique<T>::as_ref
  %6 = call { {}*, [3 x i64]* } @"_ZN4core3ptr6unique15Unique$LT$T$GT$6as_ref17h93f3a7c2f720d8e0E"({ i8*, i64* }* align 8 dereferenceable(16) %ptr), !dbg !1198
  %_5.0 = extractvalue { {}*, [3 x i64]* } %6, 0, !dbg !1198
  %_5.1 = extractvalue { {}*, [3 x i64]* } %6, 1, !dbg !1198
  br label %bb1, !dbg !1198

bb1:                                              ; preds = %start
  %7 = bitcast [3 x i64]* %_5.1 to i64*, !dbg !1199
  %8 = getelementptr inbounds i64, i64* %7, i64 1, !dbg !1199
  %9 = load i64, i64* %8, align 8, !dbg !1199, !invariant.load !13
  %10 = bitcast [3 x i64]* %_5.1 to i64*, !dbg !1199
  %11 = getelementptr inbounds i64, i64* %10, i64 2, !dbg !1199
  %12 = load i64, i64* %11, align 8, !dbg !1199, !invariant.load !13
  store i64 %9, i64* %3, align 8, !dbg !1199
  %size = load i64, i64* %3, align 8, !dbg !1199
  store i64 %size, i64* %size.dbg.spill, align 8, !dbg !1199
  call void @llvm.dbg.declare(metadata i64* %size.dbg.spill, metadata !1190, metadata !DIExpression()), !dbg !1200
  br label %bb2, !dbg !1199

bb2:                                              ; preds = %bb1
; call core::ptr::unique::Unique<T>::as_ref
  %13 = call { {}*, [3 x i64]* } @"_ZN4core3ptr6unique15Unique$LT$T$GT$6as_ref17h93f3a7c2f720d8e0E"({ i8*, i64* }* align 8 dereferenceable(16) %ptr), !dbg !1201
  %_9.0 = extractvalue { {}*, [3 x i64]* } %13, 0, !dbg !1201
  %_9.1 = extractvalue { {}*, [3 x i64]* } %13, 1, !dbg !1201
  br label %bb3, !dbg !1201

bb3:                                              ; preds = %bb2
  %14 = bitcast [3 x i64]* %_9.1 to i64*, !dbg !1202
  %15 = getelementptr inbounds i64, i64* %14, i64 1, !dbg !1202
  %16 = load i64, i64* %15, align 8, !dbg !1202, !invariant.load !13
  %17 = bitcast [3 x i64]* %_9.1 to i64*, !dbg !1202
  %18 = getelementptr inbounds i64, i64* %17, i64 2, !dbg !1202
  %19 = load i64, i64* %18, align 8, !dbg !1202, !invariant.load !13
  store i64 %19, i64* %2, align 8, !dbg !1202
  %align = load i64, i64* %2, align 8, !dbg !1202
  store i64 %align, i64* %align.dbg.spill, align 8, !dbg !1202
  call void @llvm.dbg.declare(metadata i64* %align.dbg.spill, metadata !1192, metadata !DIExpression()), !dbg !1203
  br label %bb4, !dbg !1202

bb4:                                              ; preds = %bb3
; call core::alloc::layout::Layout::from_size_align_unchecked
  %20 = call { i64, i64 } @_ZN4core5alloc6layout6Layout25from_size_align_unchecked17h7498c1c72bedad47E(i64 %size, i64 %align), !dbg !1204
  %layout.0 = extractvalue { i64, i64 } %20, 0, !dbg !1204
  %layout.1 = extractvalue { i64, i64 } %20, 1, !dbg !1204
  %21 = getelementptr inbounds { i64, i64 }, { i64, i64 }* %layout.dbg.spill, i32 0, i32 0, !dbg !1204
  store i64 %layout.0, i64* %21, align 8, !dbg !1204
  %22 = getelementptr inbounds { i64, i64 }, { i64, i64 }* %layout.dbg.spill, i32 0, i32 1, !dbg !1204
  store i64 %layout.1, i64* %22, align 8, !dbg !1204
  call void @llvm.dbg.declare(metadata { i64, i64 }* %layout.dbg.spill, metadata !1194, metadata !DIExpression()), !dbg !1205
  br label %bb5, !dbg !1204

bb5:                                              ; preds = %bb4
  %23 = getelementptr inbounds { i8*, i64* }, { i8*, i64* }* %ptr, i32 0, i32 0, !dbg !1206
  %_17.0 = load i8*, i8** %23, align 8, !dbg !1206, !nonnull !13
  %24 = getelementptr inbounds { i8*, i64* }, { i8*, i64* }* %ptr, i32 0, i32 1, !dbg !1206
  %_17.1 = load i64*, i64** %24, align 8, !dbg !1206, !nonnull !13
; call core::ptr::unique::Unique<T>::cast
  %_16 = call nonnull i8* @"_ZN4core3ptr6unique15Unique$LT$T$GT$4cast17hc46b4a40e02a2db1E"(i8* nonnull %_17.0, i64* align 8 dereferenceable(24) %_17.1), !dbg !1206
  br label %bb6, !dbg !1206

bb6:                                              ; preds = %bb5
; call <T as core::convert::Into<U>>::into
  %_15 = call nonnull i8* @"_ZN50_$LT$T$u20$as$u20$core..convert..Into$LT$U$GT$$GT$4into17h699f074357053075E"(i8* nonnull %_16), !dbg !1206
  br label %bb7, !dbg !1206

bb7:                                              ; preds = %bb6
; call <alloc::alloc::Global as core::alloc::Allocator>::deallocate
  call void @"_ZN63_$LT$alloc..alloc..Global$u20$as$u20$core..alloc..Allocator$GT$10deallocate17h27c7b6c9f79411bbE"(%"std::alloc::Global"* nonnull align 1 %alloc, i8* nonnull %_15, i64 %layout.0, i64 %layout.1), !dbg !1207
  br label %bb8, !dbg !1207

bb8:                                              ; preds = %bb7
  br label %bb9, !dbg !1208

bb9:                                              ; preds = %bb8
  ret void, !dbg !1209
}

; <alloc::string::String as core::fmt::Display>::fmt
; Function Attrs: inlinehint nounwind
define internal zeroext i1 @"_ZN60_$LT$alloc..string..String$u20$as$u20$core..fmt..Display$GT$3fmt17h8a0731d485b96e59E"(%"std::string::String"* align 8 dereferenceable(24) %self, %"std::fmt::Formatter"* align 8 dereferenceable(64) %f) unnamed_addr #0 !dbg !1210 {
start:
  %f.dbg.spill = alloca %"std::fmt::Formatter"*, align 8
  %self.dbg.spill = alloca %"std::string::String"*, align 8
  store %"std::string::String"* %self, %"std::string::String"** %self.dbg.spill, align 8
  call void @llvm.dbg.declare(metadata %"std::string::String"** %self.dbg.spill, metadata !1216, metadata !DIExpression()), !dbg !1218
  store %"std::fmt::Formatter"* %f, %"std::fmt::Formatter"** %f.dbg.spill, align 8
  call void @llvm.dbg.declare(metadata %"std::fmt::Formatter"** %f.dbg.spill, metadata !1217, metadata !DIExpression()), !dbg !1219
; call <alloc::string::String as core::ops::deref::Deref>::deref
  %0 = call { [0 x i8]*, i64 } @"_ZN65_$LT$alloc..string..String$u20$as$u20$core..ops..deref..Deref$GT$5deref17h24431e7a62bbcfa3E"(%"std::string::String"* align 8 dereferenceable(24) %self), !dbg !1220
  %_5.0 = extractvalue { [0 x i8]*, i64 } %0, 0, !dbg !1220
  %_5.1 = extractvalue { [0 x i8]*, i64 } %0, 1, !dbg !1220
  br label %bb1, !dbg !1220

bb1:                                              ; preds = %start
; call <str as core::fmt::Display>::fmt
  %1 = call zeroext i1 @"_ZN42_$LT$str$u20$as$u20$core..fmt..Display$GT$3fmt17h22e9b1a86f36eac1E"([0 x i8]* nonnull align 1 %_5.0, i64 %_5.1, %"std::fmt::Formatter"* align 8 dereferenceable(64) %f), !dbg !1221
  br label %bb2, !dbg !1221

bb2:                                              ; preds = %bb1
  ret i1 %1, !dbg !1222
}

; <alloc::alloc::Global as core::alloc::Allocator>::deallocate
; Function Attrs: inlinehint nounwind
define internal void @"_ZN63_$LT$alloc..alloc..Global$u20$as$u20$core..alloc..Allocator$GT$10deallocate17h27c7b6c9f79411bbE"(%"std::alloc::Global"* nonnull align 1 %self, i8* nonnull %ptr, i64 %0, i64 %1) unnamed_addr #0 !dbg !1223 {
start:
  %ptr.dbg.spill = alloca i8*, align 8
  %self.dbg.spill = alloca %"std::alloc::Global"*, align 8
  %layout = alloca { i64, i64 }, align 8
  %2 = getelementptr inbounds { i64, i64 }, { i64, i64 }* %layout, i32 0, i32 0
  store i64 %0, i64* %2, align 8
  %3 = getelementptr inbounds { i64, i64 }, { i64, i64 }* %layout, i32 0, i32 1
  store i64 %1, i64* %3, align 8
  store %"std::alloc::Global"* %self, %"std::alloc::Global"** %self.dbg.spill, align 8
  call void @llvm.dbg.declare(metadata %"std::alloc::Global"** %self.dbg.spill, metadata !1228, metadata !DIExpression()), !dbg !1231
  store i8* %ptr, i8** %ptr.dbg.spill, align 8
  call void @llvm.dbg.declare(metadata i8** %ptr.dbg.spill, metadata !1229, metadata !DIExpression()), !dbg !1232
  call void @llvm.dbg.declare(metadata { i64, i64 }* %layout, metadata !1230, metadata !DIExpression()), !dbg !1233
; call core::alloc::layout::Layout::size
  %_4 = call i64 @_ZN4core5alloc6layout6Layout4size17hff04ee2e3bfef1b4E({ i64, i64 }* align 8 dereferenceable(16) %layout), !dbg !1234
  br label %bb1, !dbg !1234

bb1:                                              ; preds = %start
  %4 = icmp eq i64 %_4, 0, !dbg !1234
  br i1 %4, label %bb5, label %bb2, !dbg !1234

bb5:                                              ; preds = %bb1
  br label %bb6, !dbg !1235

bb2:                                              ; preds = %bb1
; call core::ptr::non_null::NonNull<T>::as_ptr
  %_6 = call i8* @"_ZN4core3ptr8non_null16NonNull$LT$T$GT$6as_ptr17hbde849f63aae2924E"(i8* nonnull %ptr), !dbg !1236
  br label %bb3, !dbg !1236

bb3:                                              ; preds = %bb2
  %5 = getelementptr inbounds { i64, i64 }, { i64, i64 }* %layout, i32 0, i32 0, !dbg !1237
  %_8.0 = load i64, i64* %5, align 8, !dbg !1237
  %6 = getelementptr inbounds { i64, i64 }, { i64, i64 }* %layout, i32 0, i32 1, !dbg !1237
  %_8.1 = load i64, i64* %6, align 8, !dbg !1237, !range !601
; call alloc::alloc::dealloc
  call void @_ZN5alloc5alloc7dealloc17h5db96f88ed764375E(i8* %_6, i64 %_8.0, i64 %_8.1), !dbg !1238
  br label %bb4, !dbg !1238

bb4:                                              ; preds = %bb3
  br label %bb6, !dbg !1235

bb6:                                              ; preds = %bb5, %bb4
  ret void, !dbg !1239
}

; <alloc::alloc::Global as core::alloc::Allocator>::allocate
; Function Attrs: inlinehint nounwind
define internal { i8*, i64 } @"_ZN63_$LT$alloc..alloc..Global$u20$as$u20$core..alloc..Allocator$GT$8allocate17h64875bc5d77341deE"(%"std::alloc::Global"* nonnull align 1 %self, i64 %layout.0, i64 %layout.1) unnamed_addr #0 !dbg !1240 {
start:
  %layout.dbg.spill = alloca { i64, i64 }, align 8
  %self.dbg.spill = alloca %"std::alloc::Global"*, align 8
  store %"std::alloc::Global"* %self, %"std::alloc::Global"** %self.dbg.spill, align 8
  call void @llvm.dbg.declare(metadata %"std::alloc::Global"** %self.dbg.spill, metadata !1244, metadata !DIExpression()), !dbg !1246
  %0 = getelementptr inbounds { i64, i64 }, { i64, i64 }* %layout.dbg.spill, i32 0, i32 0
  store i64 %layout.0, i64* %0, align 8
  %1 = getelementptr inbounds { i64, i64 }, { i64, i64 }* %layout.dbg.spill, i32 0, i32 1
  store i64 %layout.1, i64* %1, align 8
  call void @llvm.dbg.declare(metadata { i64, i64 }* %layout.dbg.spill, metadata !1245, metadata !DIExpression()), !dbg !1247
; call alloc::alloc::Global::alloc_impl
  %2 = call { i8*, i64 } @_ZN5alloc5alloc6Global10alloc_impl17h14fb97032337eea6E(%"std::alloc::Global"* nonnull align 1 %self, i64 %layout.0, i64 %layout.1, i1 zeroext false), !dbg !1248
  %3 = extractvalue { i8*, i64 } %2, 0, !dbg !1248
  %4 = extractvalue { i8*, i64 } %2, 1, !dbg !1248
  br label %bb1, !dbg !1248

bb1:                                              ; preds = %start
  %5 = insertvalue { i8*, i64 } undef, i8* %3, 0, !dbg !1249
  %6 = insertvalue { i8*, i64 } %5, i64 %4, 1, !dbg !1249
  ret { i8*, i64 } %6, !dbg !1249
}

; <alloc::string::String as core::ops::deref::Deref>::deref
; Function Attrs: inlinehint nounwind
define internal { [0 x i8]*, i64 } @"_ZN65_$LT$alloc..string..String$u20$as$u20$core..ops..deref..Deref$GT$5deref17h24431e7a62bbcfa3E"(%"std::string::String"* align 8 dereferenceable(24) %self) unnamed_addr #0 !dbg !1250 {
start:
  %self.dbg.spill = alloca %"std::string::String"*, align 8
  store %"std::string::String"* %self, %"std::string::String"** %self.dbg.spill, align 8
  call void @llvm.dbg.declare(metadata %"std::string::String"** %self.dbg.spill, metadata !1255, metadata !DIExpression()), !dbg !1256
  %_5 = bitcast %"std::string::String"* %self to %"std::vec::Vec<u8>"*, !dbg !1257
; call <alloc::vec::Vec<T,A> as core::ops::deref::Deref>::deref
  %0 = call { [0 x i8]*, i64 } @"_ZN72_$LT$alloc..vec..Vec$LT$T$C$A$GT$$u20$as$u20$core..ops..deref..Deref$GT$5deref17hbf1e6ddcf298dc1eE"(%"std::vec::Vec<u8>"* align 8 dereferenceable(24) %_5), !dbg !1257
  %_3.0 = extractvalue { [0 x i8]*, i64 } %0, 0, !dbg !1257
  %_3.1 = extractvalue { [0 x i8]*, i64 } %0, 1, !dbg !1257
  br label %bb1, !dbg !1257

bb1:                                              ; preds = %start
; call core::str::converts::from_utf8_unchecked
  %1 = call { [0 x i8]*, i64 } @_ZN4core3str8converts19from_utf8_unchecked17h5deea88662b2cafcE([0 x i8]* nonnull align 1 %_3.0, i64 %_3.1), !dbg !1258
  %2 = extractvalue { [0 x i8]*, i64 } %1, 0, !dbg !1258
  %3 = extractvalue { [0 x i8]*, i64 } %1, 1, !dbg !1258
  br label %bb2, !dbg !1258

bb2:                                              ; preds = %bb1
  %4 = insertvalue { [0 x i8]*, i64 } undef, [0 x i8]* %2, 0, !dbg !1259
  %5 = insertvalue { [0 x i8]*, i64 } %4, i64 %3, 1, !dbg !1259
  ret { [0 x i8]*, i64 } %5, !dbg !1259
}

; <alloc::boxed::Box<T> as core::convert::From<T>>::from
; Function Attrs: nounwind
define noalias nonnull align 8 %"error::ErrorKind"* @"_ZN75_$LT$alloc..boxed..Box$LT$T$GT$$u20$as$u20$core..convert..From$LT$T$GT$$GT$4from17ha41c8f3d0978ac29E"(%"error::ErrorKind"* noalias nocapture dereferenceable(32) %t) unnamed_addr #1 !dbg !1260 {
start:
  %_2 = alloca %"error::ErrorKind", align 8
  call void @llvm.dbg.declare(metadata %"error::ErrorKind"* %t, metadata !1264, metadata !DIExpression()), !dbg !1266
  %0 = bitcast %"error::ErrorKind"* %_2 to i8*, !dbg !1267
  %1 = bitcast %"error::ErrorKind"* %t to i8*, !dbg !1267
  call void @llvm.memcpy.p0i8.p0i8.i64(i8* align 8 %0, i8* align 8 %1, i64 32, i1 false), !dbg !1267
  call void @llvm.experimental.noalias.scope.decl(metadata !1268), !dbg !1271
  call void @llvm.dbg.declare(metadata %"error::ErrorKind"* %_2, metadata !1272, metadata !DIExpression()) #9, !dbg !1276
; call alloc::alloc::exchange_malloc
  %2 = call i8* @_ZN5alloc5alloc15exchange_malloc17h4b1057b04d1951e7E(i64 32, i64 8) #9, !dbg !1278, !noalias !1268
  %3 = bitcast i8* %2 to %"error::ErrorKind"*, !dbg !1278
  %4 = bitcast %"error::ErrorKind"* %_2 to i8*, !dbg !1279
  call void @llvm.memcpy.p0i8.p0i8.i64(i8* align 8 %2, i8* align 8 %4, i64 32, i1 false) #9, !dbg !1279
  br label %bb1, !dbg !1271

bb1:                                              ; preds = %start
  ret %"error::ErrorKind"* %3, !dbg !1280
}

; <core::result::Result<T,E> as core::ops::try_trait::Try>::branch
; Function Attrs: inlinehint nounwind
define i8* @"_ZN79_$LT$core..result..Result$LT$T$C$E$GT$$u20$as$u20$core..ops..try_trait..Try$GT$6branch17h08b10dae8fc80961E"(i8* %0) unnamed_addr #0 !dbg !1281 {
start:
  %v.dbg.spill = alloca i8*, align 8
  %e.dbg.spill = alloca %"std::alloc::AllocError", align 1
  %_6 = alloca %"std::result::Result<std::convert::Infallible, std::alloc::AllocError>::Err", align 1
  %1 = alloca i8*, align 8
  %self = alloca i8*, align 8
  store i8* %0, i8** %self, align 8
  call void @llvm.dbg.declare(metadata i8** %self, metadata !1304, metadata !DIExpression()), !dbg !1309
  call void @llvm.dbg.declare(metadata %"std::alloc::AllocError"* %e.dbg.spill, metadata !1307, metadata !DIExpression()), !dbg !1310
  %2 = bitcast i8** %self to {}**, !dbg !1311
  %3 = load {}*, {}** %2, align 8, !dbg !1311
  %4 = icmp eq {}* %3, null, !dbg !1311
  %_2 = select i1 %4, i64 1, i64 0, !dbg !1311
  switch i64 %_2, label %bb2 [
    i64 0, label %bb3
    i64 1, label %bb1
  ], !dbg !1312

bb2:                                              ; preds = %start
  unreachable, !dbg !1311

bb3:                                              ; preds = %start
  %v = load i8*, i8** %self, align 8, !dbg !1313, !nonnull !13
  store i8* %v, i8** %v.dbg.spill, align 8, !dbg !1313
  call void @llvm.dbg.declare(metadata i8** %v.dbg.spill, metadata !1305, metadata !DIExpression()), !dbg !1314
  store i8* %v, i8** %1, align 8, !dbg !1315
  br label %bb4, !dbg !1316

bb1:                                              ; preds = %start
  %5 = bitcast %"std::result::Result<std::convert::Infallible, std::alloc::AllocError>::Err"* %_6 to %"std::alloc::AllocError"*, !dbg !1317
  %6 = bitcast i8** %1 to %"std::ops::ControlFlow<std::result::Result<std::convert::Infallible, std::alloc::AllocError>, std::ptr::NonNull<u8>>::Break"*, !dbg !1318
  %7 = bitcast %"std::ops::ControlFlow<std::result::Result<std::convert::Infallible, std::alloc::AllocError>, std::ptr::NonNull<u8>>::Break"* %6 to %"std::result::Result<std::convert::Infallible, std::alloc::AllocError>::Err"*, !dbg !1318
  %8 = bitcast i8** %1 to {}**, !dbg !1318
  store {}* null, {}** %8, align 8, !dbg !1318
  br label %bb4, !dbg !1319

bb4:                                              ; preds = %bb3, %bb1
  %9 = load i8*, i8** %1, align 8, !dbg !1320
  ret i8* %9, !dbg !1320
}

; bincode::config::int::VarintEncoding::varint_size
; Function Attrs: nounwind
define i64 @_ZN7bincode6config3int14VarintEncoding11varint_size17hb47c23a2f2b15b15E(i64 %n) unnamed_addr #1 !dbg !1321 {
start:
  %n.dbg.spill = alloca i64, align 8
  %0 = alloca i64, align 8
  store i64 %n, i64* %n.dbg.spill, align 8
  call void @llvm.dbg.declare(metadata i64* %n.dbg.spill, metadata !1328, metadata !DIExpression()), !dbg !1329
  %_2 = icmp ule i64 %n, 250, !dbg !1330
  br i1 %_2, label %bb1, label %bb2, !dbg !1330

bb2:                                              ; preds = %start
  br label %bb3, !dbg !1331

bb1:                                              ; preds = %start
  store i64 1, i64* %0, align 8, !dbg !1332
  br label %bb15, !dbg !1333

bb15:                                             ; preds = %bb14, %bb11, %bb6, %bb1
  %1 = load i64, i64* %0, align 8, !dbg !1334
  ret i64 %1, !dbg !1334

bb3:                                              ; preds = %bb2
  %_7 = zext i16 -1 to i64, !dbg !1331
  %_5 = icmp ule i64 %n, %_7, !dbg !1335
  br i1 %_5, label %bb4, label %bb7, !dbg !1335

bb7:                                              ; preds = %bb3
  br label %bb8, !dbg !1336

bb4:                                              ; preds = %bb3
  br label %bb5, !dbg !1337

bb5:                                              ; preds = %bb4
  %2 = call { i64, i1 } @llvm.uadd.with.overflow.i64(i64 1, i64 2), !dbg !1338
  %_11.0 = extractvalue { i64, i1 } %2, 0, !dbg !1338
  %_11.1 = extractvalue { i64, i1 } %2, 1, !dbg !1338
  %3 = call i1 @llvm.expect.i1(i1 %_11.1, i1 false), !dbg !1338
  br i1 %3, label %panic, label %bb6, !dbg !1338

bb6:                                              ; preds = %bb5
  store i64 %_11.0, i64* %0, align 8, !dbg !1338
  br label %bb15, !dbg !1339

panic:                                            ; preds = %bb5
; call core::panicking::panic
  call void @_ZN4core9panicking5panic17h560e3e4b7752857aE([0 x i8]* nonnull align 1 bitcast ([28 x i8]* @str.0 to [0 x i8]*), i64 28, %"std::panic::Location"* align 8 dereferenceable(24) bitcast (<{ i8*, [16 x i8] }>* @alloc778 to %"std::panic::Location"*)), !dbg !1338
  unreachable, !dbg !1338

bb8:                                              ; preds = %bb7
  %_14 = zext i32 -1 to i64, !dbg !1336
  %_12 = icmp ule i64 %n, %_14, !dbg !1340
  br i1 %_12, label %bb9, label %bb12, !dbg !1340

bb12:                                             ; preds = %bb8
  br label %bb13, !dbg !1341

bb9:                                              ; preds = %bb8
  br label %bb10, !dbg !1342

bb10:                                             ; preds = %bb9
  %4 = call { i64, i1 } @llvm.uadd.with.overflow.i64(i64 1, i64 4), !dbg !1343
  %_18.0 = extractvalue { i64, i1 } %4, 0, !dbg !1343
  %_18.1 = extractvalue { i64, i1 } %4, 1, !dbg !1343
  %5 = call i1 @llvm.expect.i1(i1 %_18.1, i1 false), !dbg !1343
  br i1 %5, label %panic1, label %bb11, !dbg !1343

bb11:                                             ; preds = %bb10
  store i64 %_18.0, i64* %0, align 8, !dbg !1343
  br label %bb15, !dbg !1344

panic1:                                           ; preds = %bb10
; call core::panicking::panic
  call void @_ZN4core9panicking5panic17h560e3e4b7752857aE([0 x i8]* nonnull align 1 bitcast ([28 x i8]* @str.0 to [0 x i8]*), i64 28, %"std::panic::Location"* align 8 dereferenceable(24) bitcast (<{ i8*, [16 x i8] }>* @alloc780 to %"std::panic::Location"*)), !dbg !1343
  unreachable, !dbg !1343

bb13:                                             ; preds = %bb12
  %6 = call { i64, i1 } @llvm.uadd.with.overflow.i64(i64 1, i64 8), !dbg !1345
  %_21.0 = extractvalue { i64, i1 } %6, 0, !dbg !1345
  %_21.1 = extractvalue { i64, i1 } %6, 1, !dbg !1345
  %7 = call i1 @llvm.expect.i1(i1 %_21.1, i1 false), !dbg !1345
  br i1 %7, label %panic2, label %bb14, !dbg !1345

bb14:                                             ; preds = %bb13
  store i64 %_21.0, i64* %0, align 8, !dbg !1345
  br label %bb15, !dbg !1344

panic2:                                           ; preds = %bb13
; call core::panicking::panic
  call void @_ZN4core9panicking5panic17h560e3e4b7752857aE([0 x i8]* nonnull align 1 bitcast ([28 x i8]* @str.0 to [0 x i8]*), i64 28, %"std::panic::Location"* align 8 dereferenceable(24) bitcast (<{ i8*, [16 x i8] }>* @alloc782 to %"std::panic::Location"*)), !dbg !1345
  unreachable, !dbg !1345
}

; bincode::config::int::cast_u64_to_usize
; Function Attrs: nounwind
define i128 @_ZN7bincode6config3int17cast_u64_to_usize17h06de7ede39bba21dE(i64 %0) unnamed_addr #1 !dbg !1346 {
start:
  %args.dbg.spill = alloca [2 x { i8*, i64* }]*, align 8
  %arg1.dbg.spill = alloca i64*, align 8
  %arg0.dbg.spill = alloca i64*, align 8
  %_14 = alloca { i64*, i64* }, align 8
  %_13 = alloca [2 x { i8*, i64* }], align 8
  %_12 = alloca %"std::fmt::Arguments", align 8
  %res = alloca %"std::string::String", align 8
  %_10 = alloca %"std::string::String", align 8
  %_9 = alloca %"error::ErrorKind", align 8
  %1 = alloca %"std::result::Result<usize, std::boxed::Box<error::ErrorKind>>", align 8
  %n = alloca i64, align 8
  store i64 %0, i64* %n, align 8
  call void @llvm.dbg.declare(metadata i64* %n, metadata !1364, metadata !DIExpression()), !dbg !1380
  call void @llvm.dbg.declare(metadata %"std::string::String"* %res, metadata !1365, metadata !DIExpression()), !dbg !1381
  %_3 = load i64, i64* %n, align 8, !dbg !1382
  br label %bb1, !dbg !1383

bb1:                                              ; preds = %start
  %_2 = icmp ule i64 %_3, -1, !dbg !1382
  br i1 %_2, label %bb2, label %bb3, !dbg !1382

bb3:                                              ; preds = %bb1
  %2 = bitcast { i64*, i64* }* %_14 to i64**, !dbg !1384
  store i64* %n, i64** %2, align 8, !dbg !1384
  %3 = getelementptr inbounds { i64*, i64* }, { i64*, i64* }* %_14, i32 0, i32 1, !dbg !1384
  store i64* bitcast (<{ [8 x i8] }>* @alloc563 to i64*), i64** %3, align 8, !dbg !1384
  %4 = bitcast { i64*, i64* }* %_14 to i64**, !dbg !1384
  %arg0 = load i64*, i64** %4, align 8, !dbg !1384, !nonnull !13
  store i64* %arg0, i64** %arg0.dbg.spill, align 8, !dbg !1384
  call void @llvm.dbg.declare(metadata i64** %arg0.dbg.spill, metadata !1369, metadata !DIExpression()), !dbg !1385
  %5 = getelementptr inbounds { i64*, i64* }, { i64*, i64* }* %_14, i32 0, i32 1, !dbg !1384
  %arg1 = load i64*, i64** %5, align 8, !dbg !1384, !nonnull !13
  store i64* %arg1, i64** %arg1.dbg.spill, align 8, !dbg !1384
  call void @llvm.dbg.declare(metadata i64** %arg1.dbg.spill, metadata !1372, metadata !DIExpression()), !dbg !1385
; call core::fmt::ArgumentV1::new
  %6 = call { i8*, i64* } @_ZN4core3fmt10ArgumentV13new17h63286f6db1ca2cd7E(i64* align 8 dereferenceable(8) %arg0, i1 (i64*, %"std::fmt::Formatter"*)* nonnull @"_ZN4core3fmt3num3imp52_$LT$impl$u20$core..fmt..Display$u20$for$u20$u64$GT$3fmt17h1b454a7df123feb2E"), !dbg !1385
  %_19.0 = extractvalue { i8*, i64* } %6, 0, !dbg !1385
  %_19.1 = extractvalue { i8*, i64* } %6, 1, !dbg !1385
  br label %bb4, !dbg !1385

bb2:                                              ; preds = %bb1
  %_7 = load i64, i64* %n, align 8, !dbg !1386
  %7 = bitcast %"std::result::Result<usize, std::boxed::Box<error::ErrorKind>>"* %1 to %"std::result::Result<usize, std::boxed::Box<error::ErrorKind>>::Ok"*, !dbg !1387
  %8 = getelementptr inbounds %"std::result::Result<usize, std::boxed::Box<error::ErrorKind>>::Ok", %"std::result::Result<usize, std::boxed::Box<error::ErrorKind>>::Ok"* %7, i32 0, i32 1, !dbg !1387
  store i64 %_7, i64* %8, align 8, !dbg !1387
  %9 = bitcast %"std::result::Result<usize, std::boxed::Box<error::ErrorKind>>"* %1 to i64*, !dbg !1387
  store i64 0, i64* %9, align 8, !dbg !1387
  br label %bb9, !dbg !1388

bb9:                                              ; preds = %bb8, %bb2
  %10 = bitcast %"std::result::Result<usize, std::boxed::Box<error::ErrorKind>>"* %1 to i128*, !dbg !1389
  %11 = load i128, i128* %10, align 8, !dbg !1389
  ret i128 %11, !dbg !1389

bb4:                                              ; preds = %bb3
; call core::fmt::ArgumentV1::new
  %12 = call { i8*, i64* } @_ZN4core3fmt10ArgumentV13new17hc253a5c9f2b9be9aE(i64* align 8 dereferenceable(8) %arg1, i1 (i64*, %"std::fmt::Formatter"*)* nonnull @"_ZN4core3fmt3num3imp54_$LT$impl$u20$core..fmt..Display$u20$for$u20$usize$GT$3fmt17hcb6674a6899bd26aE"), !dbg !1385
  %_22.0 = extractvalue { i8*, i64* } %12, 0, !dbg !1385
  %_22.1 = extractvalue { i8*, i64* } %12, 1, !dbg !1385
  br label %bb5, !dbg !1385

bb5:                                              ; preds = %bb4
  %13 = bitcast [2 x { i8*, i64* }]* %_13 to { i8*, i64* }*, !dbg !1385
  %14 = getelementptr inbounds { i8*, i64* }, { i8*, i64* }* %13, i32 0, i32 0, !dbg !1385
  store i8* %_19.0, i8** %14, align 8, !dbg !1385
  %15 = getelementptr inbounds { i8*, i64* }, { i8*, i64* }* %13, i32 0, i32 1, !dbg !1385
  store i64* %_19.1, i64** %15, align 8, !dbg !1385
  %16 = getelementptr inbounds [2 x { i8*, i64* }], [2 x { i8*, i64* }]* %_13, i32 0, i32 1, !dbg !1385
  %17 = getelementptr inbounds { i8*, i64* }, { i8*, i64* }* %16, i32 0, i32 0, !dbg !1385
  store i8* %_22.0, i8** %17, align 8, !dbg !1385
  %18 = getelementptr inbounds { i8*, i64* }, { i8*, i64* }* %16, i32 0, i32 1, !dbg !1385
  store i64* %_22.1, i64** %18, align 8, !dbg !1385
  store [2 x { i8*, i64* }]* %_13, [2 x { i8*, i64* }]** %args.dbg.spill, align 8, !dbg !1384
  call void @llvm.dbg.declare(metadata [2 x { i8*, i64* }]** %args.dbg.spill, metadata !1373, metadata !DIExpression()), !dbg !1390
  %_29.0 = bitcast [2 x { i8*, i64* }]* %_13 to [0 x { i8*, i64* }]*, !dbg !1390
; call core::fmt::Arguments::new_v1
  call void @_ZN4core3fmt9Arguments6new_v117hfa8576bb236f1c44E(%"std::fmt::Arguments"* noalias nocapture sret(%"std::fmt::Arguments") dereferenceable(48) %_12, [0 x { [0 x i8]*, i64 }]* nonnull align 8 bitcast (<{ i8*, [8 x i8], i8*, [8 x i8], i8*, [8 x i8] }>* @alloc570 to [0 x { [0 x i8]*, i64 }]*), i64 3, [0 x { i8*, i64* }]* nonnull align 8 %_29.0, i64 2), !dbg !1390
  br label %bb6, !dbg !1390

bb6:                                              ; preds = %bb5
; call alloc::fmt::format
  call void @_ZN5alloc3fmt6format17h7dfe3119da20d486E(%"std::string::String"* noalias nocapture sret(%"std::string::String") dereferenceable(24) %res, %"std::fmt::Arguments"* noalias nocapture dereferenceable(48) %_12), !dbg !1384
  br label %bb7, !dbg !1384

bb7:                                              ; preds = %bb6
  %19 = bitcast %"std::string::String"* %_10 to i8*, !dbg !1381
  %20 = bitcast %"std::string::String"* %res to i8*, !dbg !1381
  call void @llvm.memcpy.p0i8.p0i8.i64(i8* align 8 %19, i8* align 8 %20, i64 24, i1 false), !dbg !1381
  %21 = bitcast %"error::ErrorKind"* %_9 to %"error::ErrorKind::Custom"*, !dbg !1391
  %22 = getelementptr inbounds %"error::ErrorKind::Custom", %"error::ErrorKind::Custom"* %21, i32 0, i32 1, !dbg !1391
  %23 = bitcast %"std::string::String"* %22 to i8*, !dbg !1391
  %24 = bitcast %"std::string::String"* %_10 to i8*, !dbg !1391
  call void @llvm.memcpy.p0i8.p0i8.i64(i8* align 8 %23, i8* align 8 %24, i64 24, i1 false), !dbg !1391
  %25 = bitcast %"error::ErrorKind"* %_9 to i8*, !dbg !1391
  store i8 8, i8* %25, align 8, !dbg !1391
  call void @llvm.experimental.noalias.scope.decl(metadata !1392), !dbg !1395
  call void @llvm.dbg.declare(metadata %"error::ErrorKind"* %_9, metadata !1272, metadata !DIExpression()) #9, !dbg !1396
; call alloc::alloc::exchange_malloc
  %26 = call i8* @_ZN5alloc5alloc15exchange_malloc17h4b1057b04d1951e7E(i64 32, i64 8) #9, !dbg !1398, !noalias !1392
  %27 = bitcast i8* %26 to %"error::ErrorKind"*, !dbg !1398
  %28 = bitcast %"error::ErrorKind"* %_9 to i8*, !dbg !1399
  call void @llvm.memcpy.p0i8.p0i8.i64(i8* align 8 %26, i8* align 8 %28, i64 32, i1 false) #9, !dbg !1399
  br label %bb8, !dbg !1395

bb8:                                              ; preds = %bb7
  %29 = bitcast %"std::result::Result<usize, std::boxed::Box<error::ErrorKind>>"* %1 to %"std::result::Result<usize, std::boxed::Box<error::ErrorKind>>::Err"*, !dbg !1400
  %30 = getelementptr inbounds %"std::result::Result<usize, std::boxed::Box<error::ErrorKind>>::Err", %"std::result::Result<usize, std::boxed::Box<error::ErrorKind>>::Err"* %29, i32 0, i32 1, !dbg !1400
  store %"error::ErrorKind"* %27, %"error::ErrorKind"** %30, align 8, !dbg !1400
  %31 = bitcast %"std::result::Result<usize, std::boxed::Box<error::ErrorKind>>"* %1 to i64*, !dbg !1400
  store i64 1, i64* %31, align 8, !dbg !1400
  br label %bb9, !dbg !1388
}

; bincode::config::int::cast_u64_to_u32
; Function Attrs: nounwind
define i128 @_ZN7bincode6config3int15cast_u64_to_u3217h6e70a0208d589f36E(i64 %0) unnamed_addr #1 !dbg !1401 {
start:
  %args.dbg.spill = alloca [1 x { i8*, i64* }]*, align 8
  %arg0.dbg.spill = alloca i64*, align 8
  %_14 = alloca i64*, align 8
  %_13 = alloca [1 x { i8*, i64* }], align 8
  %_12 = alloca %"std::fmt::Arguments", align 8
  %res = alloca %"std::string::String", align 8
  %_10 = alloca %"std::string::String", align 8
  %_9 = alloca %"error::ErrorKind", align 8
  %1 = alloca %"std::result::Result<u32, std::boxed::Box<error::ErrorKind>>", align 8
  %n = alloca i64, align 8
  store i64 %0, i64* %n, align 8
  call void @llvm.dbg.declare(metadata i64* %n, metadata !1420, metadata !DIExpression()), !dbg !1434
  call void @llvm.dbg.declare(metadata %"std::string::String"* %res, metadata !1421, metadata !DIExpression()), !dbg !1435
  %_3 = load i64, i64* %n, align 8, !dbg !1436
  br label %bb1, !dbg !1437

bb1:                                              ; preds = %start
  %_4 = zext i32 -1 to i64, !dbg !1437
  %_2 = icmp ule i64 %_3, %_4, !dbg !1436
  br i1 %_2, label %bb2, label %bb3, !dbg !1436

bb3:                                              ; preds = %bb1
  store i64* %n, i64** %_14, align 8, !dbg !1438
  %arg0 = load i64*, i64** %_14, align 8, !dbg !1438, !nonnull !13
  store i64* %arg0, i64** %arg0.dbg.spill, align 8, !dbg !1438
  call void @llvm.dbg.declare(metadata i64** %arg0.dbg.spill, metadata !1424, metadata !DIExpression()), !dbg !1439
; call core::fmt::ArgumentV1::new
  %2 = call { i8*, i64* } @_ZN4core3fmt10ArgumentV13new17h63286f6db1ca2cd7E(i64* align 8 dereferenceable(8) %arg0, i1 (i64*, %"std::fmt::Formatter"*)* nonnull @"_ZN4core3fmt3num3imp52_$LT$impl$u20$core..fmt..Display$u20$for$u20$u64$GT$3fmt17h1b454a7df123feb2E"), !dbg !1439
  %_17.0 = extractvalue { i8*, i64* } %2, 0, !dbg !1439
  %_17.1 = extractvalue { i8*, i64* } %2, 1, !dbg !1439
  br label %bb4, !dbg !1439

bb2:                                              ; preds = %bb1
  %_7 = load i64, i64* %n, align 8, !dbg !1440
  %_6 = trunc i64 %_7 to i32, !dbg !1440
  %3 = bitcast %"std::result::Result<u32, std::boxed::Box<error::ErrorKind>>"* %1 to %"std::result::Result<u32, std::boxed::Box<error::ErrorKind>>::Ok"*, !dbg !1441
  %4 = getelementptr inbounds %"std::result::Result<u32, std::boxed::Box<error::ErrorKind>>::Ok", %"std::result::Result<u32, std::boxed::Box<error::ErrorKind>>::Ok"* %3, i32 0, i32 1, !dbg !1441
  store i32 %_6, i32* %4, align 4, !dbg !1441
  %5 = bitcast %"std::result::Result<u32, std::boxed::Box<error::ErrorKind>>"* %1 to i32*, !dbg !1441
  store i32 0, i32* %5, align 8, !dbg !1441
  br label %bb8, !dbg !1442

bb8:                                              ; preds = %bb7, %bb2
  %6 = bitcast %"std::result::Result<u32, std::boxed::Box<error::ErrorKind>>"* %1 to i128*, !dbg !1443
  %7 = load i128, i128* %6, align 8, !dbg !1443
  ret i128 %7, !dbg !1443

bb4:                                              ; preds = %bb3
  %8 = bitcast [1 x { i8*, i64* }]* %_13 to { i8*, i64* }*, !dbg !1439
  %9 = getelementptr inbounds { i8*, i64* }, { i8*, i64* }* %8, i32 0, i32 0, !dbg !1439
  store i8* %_17.0, i8** %9, align 8, !dbg !1439
  %10 = getelementptr inbounds { i8*, i64* }, { i8*, i64* }* %8, i32 0, i32 1, !dbg !1439
  store i64* %_17.1, i64** %10, align 8, !dbg !1439
  store [1 x { i8*, i64* }]* %_13, [1 x { i8*, i64* }]** %args.dbg.spill, align 8, !dbg !1438
  call void @llvm.dbg.declare(metadata [1 x { i8*, i64* }]** %args.dbg.spill, metadata !1427, metadata !DIExpression()), !dbg !1444
  %_24.0 = bitcast [1 x { i8*, i64* }]* %_13 to [0 x { i8*, i64* }]*, !dbg !1444
; call core::fmt::Arguments::new_v1
  call void @_ZN4core3fmt9Arguments6new_v117hfa8576bb236f1c44E(%"std::fmt::Arguments"* noalias nocapture sret(%"std::fmt::Arguments") dereferenceable(48) %_12, [0 x { [0 x i8]*, i64 }]* nonnull align 8 bitcast (<{ i8*, [8 x i8], i8*, [8 x i8] }>* @alloc585 to [0 x { [0 x i8]*, i64 }]*), i64 2, [0 x { i8*, i64* }]* nonnull align 8 %_24.0, i64 1), !dbg !1444
  br label %bb5, !dbg !1444

bb5:                                              ; preds = %bb4
; call alloc::fmt::format
  call void @_ZN5alloc3fmt6format17h7dfe3119da20d486E(%"std::string::String"* noalias nocapture sret(%"std::string::String") dereferenceable(24) %res, %"std::fmt::Arguments"* noalias nocapture dereferenceable(48) %_12), !dbg !1438
  br label %bb6, !dbg !1438

bb6:                                              ; preds = %bb5
  %11 = bitcast %"std::string::String"* %_10 to i8*, !dbg !1435
  %12 = bitcast %"std::string::String"* %res to i8*, !dbg !1435
  call void @llvm.memcpy.p0i8.p0i8.i64(i8* align 8 %11, i8* align 8 %12, i64 24, i1 false), !dbg !1435
  %13 = bitcast %"error::ErrorKind"* %_9 to %"error::ErrorKind::Custom"*, !dbg !1445
  %14 = getelementptr inbounds %"error::ErrorKind::Custom", %"error::ErrorKind::Custom"* %13, i32 0, i32 1, !dbg !1445
  %15 = bitcast %"std::string::String"* %14 to i8*, !dbg !1445
  %16 = bitcast %"std::string::String"* %_10 to i8*, !dbg !1445
  call void @llvm.memcpy.p0i8.p0i8.i64(i8* align 8 %15, i8* align 8 %16, i64 24, i1 false), !dbg !1445
  %17 = bitcast %"error::ErrorKind"* %_9 to i8*, !dbg !1445
  store i8 8, i8* %17, align 8, !dbg !1445
  call void @llvm.experimental.noalias.scope.decl(metadata !1446), !dbg !1449
  call void @llvm.dbg.declare(metadata %"error::ErrorKind"* %_9, metadata !1272, metadata !DIExpression()) #9, !dbg !1450
; call alloc::alloc::exchange_malloc
  %18 = call i8* @_ZN5alloc5alloc15exchange_malloc17h4b1057b04d1951e7E(i64 32, i64 8) #9, !dbg !1452, !noalias !1446
  %19 = bitcast i8* %18 to %"error::ErrorKind"*, !dbg !1452
  %20 = bitcast %"error::ErrorKind"* %_9 to i8*, !dbg !1453
  call void @llvm.memcpy.p0i8.p0i8.i64(i8* align 8 %18, i8* align 8 %20, i64 32, i1 false) #9, !dbg !1453
  br label %bb7, !dbg !1449

bb7:                                              ; preds = %bb6
  %21 = bitcast %"std::result::Result<u32, std::boxed::Box<error::ErrorKind>>"* %1 to %"std::result::Result<u32, std::boxed::Box<error::ErrorKind>>::Err"*, !dbg !1454
  %22 = getelementptr inbounds %"std::result::Result<u32, std::boxed::Box<error::ErrorKind>>::Err", %"std::result::Result<u32, std::boxed::Box<error::ErrorKind>>::Err"* %21, i32 0, i32 1, !dbg !1454
  store %"error::ErrorKind"* %19, %"error::ErrorKind"** %22, align 8, !dbg !1454
  %23 = bitcast %"std::result::Result<u32, std::boxed::Box<error::ErrorKind>>"* %1 to i32*, !dbg !1454
  store i32 1, i32* %23, align 8, !dbg !1454
  br label %bb8, !dbg !1442
}

; bincode::config::int::cast_u64_to_u16
; Function Attrs: nounwind
define i128 @_ZN7bincode6config3int15cast_u64_to_u1617h1affcfda06eb5c2bE(i64 %0) unnamed_addr #1 !dbg !1455 {
start:
  %args.dbg.spill = alloca [1 x { i8*, i64* }]*, align 8
  %arg0.dbg.spill = alloca i64*, align 8
  %_14 = alloca i64*, align 8
  %_13 = alloca [1 x { i8*, i64* }], align 8
  %_12 = alloca %"std::fmt::Arguments", align 8
  %res = alloca %"std::string::String", align 8
  %_10 = alloca %"std::string::String", align 8
  %_9 = alloca %"error::ErrorKind", align 8
  %1 = alloca %"std::result::Result<u16, std::boxed::Box<error::ErrorKind>>", align 8
  %n = alloca i64, align 8
  store i64 %0, i64* %n, align 8
  call void @llvm.dbg.declare(metadata i64* %n, metadata !1475, metadata !DIExpression()), !dbg !1485
  call void @llvm.dbg.declare(metadata %"std::string::String"* %res, metadata !1476, metadata !DIExpression()), !dbg !1486
  %_3 = load i64, i64* %n, align 8, !dbg !1487
  br label %bb1, !dbg !1488

bb1:                                              ; preds = %start
  %_4 = zext i16 -1 to i64, !dbg !1488
  %_2 = icmp ule i64 %_3, %_4, !dbg !1487
  br i1 %_2, label %bb2, label %bb3, !dbg !1487

bb3:                                              ; preds = %bb1
  store i64* %n, i64** %_14, align 8, !dbg !1489
  %arg0 = load i64*, i64** %_14, align 8, !dbg !1489, !nonnull !13
  store i64* %arg0, i64** %arg0.dbg.spill, align 8, !dbg !1489
  call void @llvm.dbg.declare(metadata i64** %arg0.dbg.spill, metadata !1479, metadata !DIExpression()), !dbg !1490
; call core::fmt::ArgumentV1::new
  %2 = call { i8*, i64* } @_ZN4core3fmt10ArgumentV13new17h63286f6db1ca2cd7E(i64* align 8 dereferenceable(8) %arg0, i1 (i64*, %"std::fmt::Formatter"*)* nonnull @"_ZN4core3fmt3num3imp52_$LT$impl$u20$core..fmt..Display$u20$for$u20$u64$GT$3fmt17h1b454a7df123feb2E"), !dbg !1490
  %_17.0 = extractvalue { i8*, i64* } %2, 0, !dbg !1490
  %_17.1 = extractvalue { i8*, i64* } %2, 1, !dbg !1490
  br label %bb4, !dbg !1490

bb2:                                              ; preds = %bb1
  %_7 = load i64, i64* %n, align 8, !dbg !1491
  %_6 = trunc i64 %_7 to i16, !dbg !1491
  %3 = bitcast %"std::result::Result<u16, std::boxed::Box<error::ErrorKind>>"* %1 to %"std::result::Result<u16, std::boxed::Box<error::ErrorKind>>::Ok"*, !dbg !1492
  %4 = getelementptr inbounds %"std::result::Result<u16, std::boxed::Box<error::ErrorKind>>::Ok", %"std::result::Result<u16, std::boxed::Box<error::ErrorKind>>::Ok"* %3, i32 0, i32 1, !dbg !1492
  store i16 %_6, i16* %4, align 2, !dbg !1492
  %5 = bitcast %"std::result::Result<u16, std::boxed::Box<error::ErrorKind>>"* %1 to i16*, !dbg !1492
  store i16 0, i16* %5, align 8, !dbg !1492
  br label %bb8, !dbg !1493

bb8:                                              ; preds = %bb7, %bb2
  %6 = bitcast %"std::result::Result<u16, std::boxed::Box<error::ErrorKind>>"* %1 to i128*, !dbg !1494
  %7 = load i128, i128* %6, align 8, !dbg !1494
  ret i128 %7, !dbg !1494

bb4:                                              ; preds = %bb3
  %8 = bitcast [1 x { i8*, i64* }]* %_13 to { i8*, i64* }*, !dbg !1490
  %9 = getelementptr inbounds { i8*, i64* }, { i8*, i64* }* %8, i32 0, i32 0, !dbg !1490
  store i8* %_17.0, i8** %9, align 8, !dbg !1490
  %10 = getelementptr inbounds { i8*, i64* }, { i8*, i64* }* %8, i32 0, i32 1, !dbg !1490
  store i64* %_17.1, i64** %10, align 8, !dbg !1490
  store [1 x { i8*, i64* }]* %_13, [1 x { i8*, i64* }]** %args.dbg.spill, align 8, !dbg !1489
  call void @llvm.dbg.declare(metadata [1 x { i8*, i64* }]** %args.dbg.spill, metadata !1482, metadata !DIExpression()), !dbg !1495
  %_24.0 = bitcast [1 x { i8*, i64* }]* %_13 to [0 x { i8*, i64* }]*, !dbg !1495
; call core::fmt::Arguments::new_v1
  call void @_ZN4core3fmt9Arguments6new_v117hfa8576bb236f1c44E(%"std::fmt::Arguments"* noalias nocapture sret(%"std::fmt::Arguments") dereferenceable(48) %_12, [0 x { [0 x i8]*, i64 }]* nonnull align 8 bitcast (<{ i8*, [8 x i8], i8*, [8 x i8] }>* @alloc597 to [0 x { [0 x i8]*, i64 }]*), i64 2, [0 x { i8*, i64* }]* nonnull align 8 %_24.0, i64 1), !dbg !1495
  br label %bb5, !dbg !1495

bb5:                                              ; preds = %bb4
; call alloc::fmt::format
  call void @_ZN5alloc3fmt6format17h7dfe3119da20d486E(%"std::string::String"* noalias nocapture sret(%"std::string::String") dereferenceable(24) %res, %"std::fmt::Arguments"* noalias nocapture dereferenceable(48) %_12), !dbg !1489
  br label %bb6, !dbg !1489

bb6:                                              ; preds = %bb5
  %11 = bitcast %"std::string::String"* %_10 to i8*, !dbg !1486
  %12 = bitcast %"std::string::String"* %res to i8*, !dbg !1486
  call void @llvm.memcpy.p0i8.p0i8.i64(i8* align 8 %11, i8* align 8 %12, i64 24, i1 false), !dbg !1486
  %13 = bitcast %"error::ErrorKind"* %_9 to %"error::ErrorKind::Custom"*, !dbg !1496
  %14 = getelementptr inbounds %"error::ErrorKind::Custom", %"error::ErrorKind::Custom"* %13, i32 0, i32 1, !dbg !1496
  %15 = bitcast %"std::string::String"* %14 to i8*, !dbg !1496
  %16 = bitcast %"std::string::String"* %_10 to i8*, !dbg !1496
  call void @llvm.memcpy.p0i8.p0i8.i64(i8* align 8 %15, i8* align 8 %16, i64 24, i1 false), !dbg !1496
  %17 = bitcast %"error::ErrorKind"* %_9 to i8*, !dbg !1496
  store i8 8, i8* %17, align 8, !dbg !1496
  call void @llvm.experimental.noalias.scope.decl(metadata !1497), !dbg !1500
  call void @llvm.dbg.declare(metadata %"error::ErrorKind"* %_9, metadata !1272, metadata !DIExpression()) #9, !dbg !1501
; call alloc::alloc::exchange_malloc
  %18 = call i8* @_ZN5alloc5alloc15exchange_malloc17h4b1057b04d1951e7E(i64 32, i64 8) #9, !dbg !1503, !noalias !1497
  %19 = bitcast i8* %18 to %"error::ErrorKind"*, !dbg !1503
  %20 = bitcast %"error::ErrorKind"* %_9 to i8*, !dbg !1504
  call void @llvm.memcpy.p0i8.p0i8.i64(i8* align 8 %18, i8* align 8 %20, i64 32, i1 false) #9, !dbg !1504
  br label %bb7, !dbg !1500

bb7:                                              ; preds = %bb6
  %21 = bitcast %"std::result::Result<u16, std::boxed::Box<error::ErrorKind>>"* %1 to %"std::result::Result<u16, std::boxed::Box<error::ErrorKind>>::Err"*, !dbg !1505
  %22 = getelementptr inbounds %"std::result::Result<u16, std::boxed::Box<error::ErrorKind>>::Err", %"std::result::Result<u16, std::boxed::Box<error::ErrorKind>>::Err"* %21, i32 0, i32 1, !dbg !1505
  store %"error::ErrorKind"* %19, %"error::ErrorKind"** %22, align 8, !dbg !1505
  %23 = bitcast %"std::result::Result<u16, std::boxed::Box<error::ErrorKind>>"* %1 to i16*, !dbg !1505
  store i16 1, i16* %23, align 8, !dbg !1505
  br label %bb8, !dbg !1493
}

; bincode::config::int::cast_i64_to_i32
; Function Attrs: nounwind
define i128 @_ZN7bincode6config3int15cast_i64_to_i3217h5ad033cb6f2ec595E(i64 %0) unnamed_addr #1 !dbg !1506 {
start:
  %args.dbg.spill = alloca [1 x { i8*, i64* }]*, align 8
  %arg0.dbg.spill = alloca i64*, align 8
  %_19 = alloca i64*, align 8
  %_18 = alloca [1 x { i8*, i64* }], align 8
  %_17 = alloca %"std::fmt::Arguments", align 8
  %res = alloca %"std::string::String", align 8
  %_15 = alloca %"std::string::String", align 8
  %_14 = alloca %"error::ErrorKind", align 8
  %_2 = alloca i8, align 1
  %1 = alloca %"std::result::Result<i32, std::boxed::Box<error::ErrorKind>>", align 8
  %n = alloca i64, align 8
  store i64 %0, i64* %n, align 8
  call void @llvm.dbg.declare(metadata i64* %n, metadata !1525, metadata !DIExpression()), !dbg !1536
  call void @llvm.dbg.declare(metadata %"std::string::String"* %res, metadata !1526, metadata !DIExpression()), !dbg !1537
  %_4 = load i64, i64* %n, align 8, !dbg !1538
  br label %bb4, !dbg !1539

bb4:                                              ; preds = %start
  %_5 = sext i32 2147483647 to i64, !dbg !1539
  %_3 = icmp sle i64 %_4, %_5, !dbg !1538
  br i1 %_3, label %bb2, label %bb1, !dbg !1538

bb1:                                              ; preds = %bb4
  store i8 0, i8* %_2, align 1, !dbg !1538
  br label %bb3, !dbg !1538

bb2:                                              ; preds = %bb4
  %_8 = load i64, i64* %n, align 8, !dbg !1540
  br label %bb5, !dbg !1541

bb5:                                              ; preds = %bb2
  %_9 = sext i32 -2147483648 to i64, !dbg !1541
  %_7 = icmp sge i64 %_8, %_9, !dbg !1540
  %2 = zext i1 %_7 to i8, !dbg !1538
  store i8 %2, i8* %_2, align 1, !dbg !1538
  br label %bb3, !dbg !1538

bb3:                                              ; preds = %bb1, %bb5
  %3 = load i8, i8* %_2, align 1, !dbg !1538, !range !510
  %4 = trunc i8 %3 to i1, !dbg !1538
  br i1 %4, label %bb6, label %bb7, !dbg !1538

bb7:                                              ; preds = %bb3
  store i64* %n, i64** %_19, align 8, !dbg !1542
  %arg0 = load i64*, i64** %_19, align 8, !dbg !1542, !nonnull !13
  store i64* %arg0, i64** %arg0.dbg.spill, align 8, !dbg !1542
  call void @llvm.dbg.declare(metadata i64** %arg0.dbg.spill, metadata !1529, metadata !DIExpression()), !dbg !1543
; call core::fmt::ArgumentV1::new
  %5 = call { i8*, i64* } @_ZN4core3fmt10ArgumentV13new17h0a42226d5464bcb2E(i64* align 8 dereferenceable(8) %arg0, i1 (i64*, %"std::fmt::Formatter"*)* nonnull @"_ZN4core3fmt3num3imp52_$LT$impl$u20$core..fmt..Display$u20$for$u20$i64$GT$3fmt17h398cba213aebe9e5E"), !dbg !1543
  %_22.0 = extractvalue { i8*, i64* } %5, 0, !dbg !1543
  %_22.1 = extractvalue { i8*, i64* } %5, 1, !dbg !1543
  br label %bb8, !dbg !1543

bb6:                                              ; preds = %bb3
  %_12 = load i64, i64* %n, align 8, !dbg !1544
  %_11 = trunc i64 %_12 to i32, !dbg !1544
  %6 = bitcast %"std::result::Result<i32, std::boxed::Box<error::ErrorKind>>"* %1 to %"std::result::Result<i32, std::boxed::Box<error::ErrorKind>>::Ok"*, !dbg !1545
  %7 = getelementptr inbounds %"std::result::Result<i32, std::boxed::Box<error::ErrorKind>>::Ok", %"std::result::Result<i32, std::boxed::Box<error::ErrorKind>>::Ok"* %6, i32 0, i32 1, !dbg !1545
  store i32 %_11, i32* %7, align 4, !dbg !1545
  %8 = bitcast %"std::result::Result<i32, std::boxed::Box<error::ErrorKind>>"* %1 to i32*, !dbg !1545
  store i32 0, i32* %8, align 8, !dbg !1545
  br label %bb12, !dbg !1546

bb12:                                             ; preds = %bb11, %bb6
  %9 = bitcast %"std::result::Result<i32, std::boxed::Box<error::ErrorKind>>"* %1 to i128*, !dbg !1547
  %10 = load i128, i128* %9, align 8, !dbg !1547
  ret i128 %10, !dbg !1547

bb8:                                              ; preds = %bb7
  %11 = bitcast [1 x { i8*, i64* }]* %_18 to { i8*, i64* }*, !dbg !1543
  %12 = getelementptr inbounds { i8*, i64* }, { i8*, i64* }* %11, i32 0, i32 0, !dbg !1543
  store i8* %_22.0, i8** %12, align 8, !dbg !1543
  %13 = getelementptr inbounds { i8*, i64* }, { i8*, i64* }* %11, i32 0, i32 1, !dbg !1543
  store i64* %_22.1, i64** %13, align 8, !dbg !1543
  store [1 x { i8*, i64* }]* %_18, [1 x { i8*, i64* }]** %args.dbg.spill, align 8, !dbg !1542
  call void @llvm.dbg.declare(metadata [1 x { i8*, i64* }]** %args.dbg.spill, metadata !1533, metadata !DIExpression()), !dbg !1548
  %_29.0 = bitcast [1 x { i8*, i64* }]* %_18 to [0 x { i8*, i64* }]*, !dbg !1548
; call core::fmt::Arguments::new_v1
  call void @_ZN4core3fmt9Arguments6new_v117hfa8576bb236f1c44E(%"std::fmt::Arguments"* noalias nocapture sret(%"std::fmt::Arguments") dereferenceable(48) %_17, [0 x { [0 x i8]*, i64 }]* nonnull align 8 bitcast (<{ i8*, [8 x i8], i8*, [8 x i8] }>* @alloc610 to [0 x { [0 x i8]*, i64 }]*), i64 2, [0 x { i8*, i64* }]* nonnull align 8 %_29.0, i64 1), !dbg !1548
  br label %bb9, !dbg !1548

bb9:                                              ; preds = %bb8
; call alloc::fmt::format
  call void @_ZN5alloc3fmt6format17h7dfe3119da20d486E(%"std::string::String"* noalias nocapture sret(%"std::string::String") dereferenceable(24) %res, %"std::fmt::Arguments"* noalias nocapture dereferenceable(48) %_17), !dbg !1542
  br label %bb10, !dbg !1542

bb10:                                             ; preds = %bb9
  %14 = bitcast %"std::string::String"* %_15 to i8*, !dbg !1537
  %15 = bitcast %"std::string::String"* %res to i8*, !dbg !1537
  call void @llvm.memcpy.p0i8.p0i8.i64(i8* align 8 %14, i8* align 8 %15, i64 24, i1 false), !dbg !1537
  %16 = bitcast %"error::ErrorKind"* %_14 to %"error::ErrorKind::Custom"*, !dbg !1549
  %17 = getelementptr inbounds %"error::ErrorKind::Custom", %"error::ErrorKind::Custom"* %16, i32 0, i32 1, !dbg !1549
  %18 = bitcast %"std::string::String"* %17 to i8*, !dbg !1549
  %19 = bitcast %"std::string::String"* %_15 to i8*, !dbg !1549
  call void @llvm.memcpy.p0i8.p0i8.i64(i8* align 8 %18, i8* align 8 %19, i64 24, i1 false), !dbg !1549
  %20 = bitcast %"error::ErrorKind"* %_14 to i8*, !dbg !1549
  store i8 8, i8* %20, align 8, !dbg !1549
  call void @llvm.experimental.noalias.scope.decl(metadata !1550), !dbg !1553
  call void @llvm.dbg.declare(metadata %"error::ErrorKind"* %_14, metadata !1272, metadata !DIExpression()) #9, !dbg !1554
; call alloc::alloc::exchange_malloc
  %21 = call i8* @_ZN5alloc5alloc15exchange_malloc17h4b1057b04d1951e7E(i64 32, i64 8) #9, !dbg !1556, !noalias !1550
  %22 = bitcast i8* %21 to %"error::ErrorKind"*, !dbg !1556
  %23 = bitcast %"error::ErrorKind"* %_14 to i8*, !dbg !1557
  call void @llvm.memcpy.p0i8.p0i8.i64(i8* align 8 %21, i8* align 8 %23, i64 32, i1 false) #9, !dbg !1557
  br label %bb11, !dbg !1553

bb11:                                             ; preds = %bb10
  %24 = bitcast %"std::result::Result<i32, std::boxed::Box<error::ErrorKind>>"* %1 to %"std::result::Result<i32, std::boxed::Box<error::ErrorKind>>::Err"*, !dbg !1558
  %25 = getelementptr inbounds %"std::result::Result<i32, std::boxed::Box<error::ErrorKind>>::Err", %"std::result::Result<i32, std::boxed::Box<error::ErrorKind>>::Err"* %24, i32 0, i32 1, !dbg !1558
  store %"error::ErrorKind"* %22, %"error::ErrorKind"** %25, align 8, !dbg !1558
  %26 = bitcast %"std::result::Result<i32, std::boxed::Box<error::ErrorKind>>"* %1 to i32*, !dbg !1558
  store i32 1, i32* %26, align 8, !dbg !1558
  br label %bb12, !dbg !1546
}

; bincode::config::int::cast_i64_to_i16
; Function Attrs: nounwind
define i128 @_ZN7bincode6config3int15cast_i64_to_i1617h410460cbb41c81c7E(i64 %0) unnamed_addr #1 !dbg !1559 {
start:
  %args.dbg.spill = alloca [1 x { i8*, i64* }]*, align 8
  %arg0.dbg.spill = alloca i64*, align 8
  %_19 = alloca i64*, align 8
  %_18 = alloca [1 x { i8*, i64* }], align 8
  %_17 = alloca %"std::fmt::Arguments", align 8
  %res = alloca %"std::string::String", align 8
  %_15 = alloca %"std::string::String", align 8
  %_14 = alloca %"error::ErrorKind", align 8
  %_2 = alloca i8, align 1
  %1 = alloca %"std::result::Result<i16, std::boxed::Box<error::ErrorKind>>", align 8
  %n = alloca i64, align 8
  store i64 %0, i64* %n, align 8
  call void @llvm.dbg.declare(metadata i64* %n, metadata !1578, metadata !DIExpression()), !dbg !1588
  call void @llvm.dbg.declare(metadata %"std::string::String"* %res, metadata !1579, metadata !DIExpression()), !dbg !1589
  %_4 = load i64, i64* %n, align 8, !dbg !1590
  br label %bb4, !dbg !1591

bb4:                                              ; preds = %start
  %_5 = sext i16 32767 to i64, !dbg !1591
  %_3 = icmp sle i64 %_4, %_5, !dbg !1590
  br i1 %_3, label %bb2, label %bb1, !dbg !1590

bb1:                                              ; preds = %bb4
  store i8 0, i8* %_2, align 1, !dbg !1590
  br label %bb3, !dbg !1590

bb2:                                              ; preds = %bb4
  %_8 = load i64, i64* %n, align 8, !dbg !1592
  br label %bb5, !dbg !1593

bb5:                                              ; preds = %bb2
  %_9 = sext i16 -32768 to i64, !dbg !1593
  %_7 = icmp sge i64 %_8, %_9, !dbg !1592
  %2 = zext i1 %_7 to i8, !dbg !1590
  store i8 %2, i8* %_2, align 1, !dbg !1590
  br label %bb3, !dbg !1590

bb3:                                              ; preds = %bb1, %bb5
  %3 = load i8, i8* %_2, align 1, !dbg !1590, !range !510
  %4 = trunc i8 %3 to i1, !dbg !1590
  br i1 %4, label %bb6, label %bb7, !dbg !1590

bb7:                                              ; preds = %bb3
  store i64* %n, i64** %_19, align 8, !dbg !1594
  %arg0 = load i64*, i64** %_19, align 8, !dbg !1594, !nonnull !13
  store i64* %arg0, i64** %arg0.dbg.spill, align 8, !dbg !1594
  call void @llvm.dbg.declare(metadata i64** %arg0.dbg.spill, metadata !1582, metadata !DIExpression()), !dbg !1595
; call core::fmt::ArgumentV1::new
  %5 = call { i8*, i64* } @_ZN4core3fmt10ArgumentV13new17h0a42226d5464bcb2E(i64* align 8 dereferenceable(8) %arg0, i1 (i64*, %"std::fmt::Formatter"*)* nonnull @"_ZN4core3fmt3num3imp52_$LT$impl$u20$core..fmt..Display$u20$for$u20$i64$GT$3fmt17h398cba213aebe9e5E"), !dbg !1595
  %_22.0 = extractvalue { i8*, i64* } %5, 0, !dbg !1595
  %_22.1 = extractvalue { i8*, i64* } %5, 1, !dbg !1595
  br label %bb8, !dbg !1595

bb6:                                              ; preds = %bb3
  %_12 = load i64, i64* %n, align 8, !dbg !1596
  %_11 = trunc i64 %_12 to i16, !dbg !1596
  %6 = bitcast %"std::result::Result<i16, std::boxed::Box<error::ErrorKind>>"* %1 to %"std::result::Result<i16, std::boxed::Box<error::ErrorKind>>::Ok"*, !dbg !1597
  %7 = getelementptr inbounds %"std::result::Result<i16, std::boxed::Box<error::ErrorKind>>::Ok", %"std::result::Result<i16, std::boxed::Box<error::ErrorKind>>::Ok"* %6, i32 0, i32 1, !dbg !1597
  store i16 %_11, i16* %7, align 2, !dbg !1597
  %8 = bitcast %"std::result::Result<i16, std::boxed::Box<error::ErrorKind>>"* %1 to i16*, !dbg !1597
  store i16 0, i16* %8, align 8, !dbg !1597
  br label %bb12, !dbg !1598

bb12:                                             ; preds = %bb11, %bb6
  %9 = bitcast %"std::result::Result<i16, std::boxed::Box<error::ErrorKind>>"* %1 to i128*, !dbg !1599
  %10 = load i128, i128* %9, align 8, !dbg !1599
  ret i128 %10, !dbg !1599

bb8:                                              ; preds = %bb7
  %11 = bitcast [1 x { i8*, i64* }]* %_18 to { i8*, i64* }*, !dbg !1595
  %12 = getelementptr inbounds { i8*, i64* }, { i8*, i64* }* %11, i32 0, i32 0, !dbg !1595
  store i8* %_22.0, i8** %12, align 8, !dbg !1595
  %13 = getelementptr inbounds { i8*, i64* }, { i8*, i64* }* %11, i32 0, i32 1, !dbg !1595
  store i64* %_22.1, i64** %13, align 8, !dbg !1595
  store [1 x { i8*, i64* }]* %_18, [1 x { i8*, i64* }]** %args.dbg.spill, align 8, !dbg !1594
  call void @llvm.dbg.declare(metadata [1 x { i8*, i64* }]** %args.dbg.spill, metadata !1585, metadata !DIExpression()), !dbg !1600
  %_29.0 = bitcast [1 x { i8*, i64* }]* %_18 to [0 x { i8*, i64* }]*, !dbg !1600
; call core::fmt::Arguments::new_v1
  call void @_ZN4core3fmt9Arguments6new_v117hfa8576bb236f1c44E(%"std::fmt::Arguments"* noalias nocapture sret(%"std::fmt::Arguments") dereferenceable(48) %_17, [0 x { [0 x i8]*, i64 }]* nonnull align 8 bitcast (<{ i8*, [8 x i8], i8*, [8 x i8] }>* @alloc625 to [0 x { [0 x i8]*, i64 }]*), i64 2, [0 x { i8*, i64* }]* nonnull align 8 %_29.0, i64 1), !dbg !1600
  br label %bb9, !dbg !1600

bb9:                                              ; preds = %bb8
; call alloc::fmt::format
  call void @_ZN5alloc3fmt6format17h7dfe3119da20d486E(%"std::string::String"* noalias nocapture sret(%"std::string::String") dereferenceable(24) %res, %"std::fmt::Arguments"* noalias nocapture dereferenceable(48) %_17), !dbg !1594
  br label %bb10, !dbg !1594

bb10:                                             ; preds = %bb9
  %14 = bitcast %"std::string::String"* %_15 to i8*, !dbg !1589
  %15 = bitcast %"std::string::String"* %res to i8*, !dbg !1589
  call void @llvm.memcpy.p0i8.p0i8.i64(i8* align 8 %14, i8* align 8 %15, i64 24, i1 false), !dbg !1589
  %16 = bitcast %"error::ErrorKind"* %_14 to %"error::ErrorKind::Custom"*, !dbg !1601
  %17 = getelementptr inbounds %"error::ErrorKind::Custom", %"error::ErrorKind::Custom"* %16, i32 0, i32 1, !dbg !1601
  %18 = bitcast %"std::string::String"* %17 to i8*, !dbg !1601
  %19 = bitcast %"std::string::String"* %_15 to i8*, !dbg !1601
  call void @llvm.memcpy.p0i8.p0i8.i64(i8* align 8 %18, i8* align 8 %19, i64 24, i1 false), !dbg !1601
  %20 = bitcast %"error::ErrorKind"* %_14 to i8*, !dbg !1601
  store i8 8, i8* %20, align 8, !dbg !1601
  call void @llvm.experimental.noalias.scope.decl(metadata !1602), !dbg !1605
  call void @llvm.dbg.declare(metadata %"error::ErrorKind"* %_14, metadata !1272, metadata !DIExpression()) #9, !dbg !1606
; call alloc::alloc::exchange_malloc
  %21 = call i8* @_ZN5alloc5alloc15exchange_malloc17h4b1057b04d1951e7E(i64 32, i64 8) #9, !dbg !1608, !noalias !1602
  %22 = bitcast i8* %21 to %"error::ErrorKind"*, !dbg !1608
  %23 = bitcast %"error::ErrorKind"* %_14 to i8*, !dbg !1609
  call void @llvm.memcpy.p0i8.p0i8.i64(i8* align 8 %21, i8* align 8 %23, i64 32, i1 false) #9, !dbg !1609
  br label %bb11, !dbg !1605

bb11:                                             ; preds = %bb10
  %24 = bitcast %"std::result::Result<i16, std::boxed::Box<error::ErrorKind>>"* %1 to %"std::result::Result<i16, std::boxed::Box<error::ErrorKind>>::Err"*, !dbg !1610
  %25 = getelementptr inbounds %"std::result::Result<i16, std::boxed::Box<error::ErrorKind>>::Err", %"std::result::Result<i16, std::boxed::Box<error::ErrorKind>>::Err"* %24, i32 0, i32 1, !dbg !1610
  store %"error::ErrorKind"* %22, %"error::ErrorKind"** %25, align 8, !dbg !1610
  %26 = bitcast %"std::result::Result<i16, std::boxed::Box<error::ErrorKind>>"* %1 to i16*, !dbg !1610
  store i16 1, i16* %26, align 8, !dbg !1610
  br label %bb12, !dbg !1598
}

; bincode::config::DefaultOptions::new
; Function Attrs: nounwind
define void @_ZN7bincode6config14DefaultOptions3new17he187d3ba27c23d94E() unnamed_addr #1 !dbg !1611 {
start:
  ret void, !dbg !1620
}

; <bincode::config::DefaultOptions as core::default::Default>::default
; Function Attrs: nounwind
define void @"_ZN74_$LT$bincode..config..DefaultOptions$u20$as$u20$core..default..Default$GT$7default17h5bad416be0808ffaE"() unnamed_addr #1 !dbg !1621 {
start:
; call bincode::config::DefaultOptions::new
  call void @_ZN7bincode6config14DefaultOptions3new17he187d3ba27c23d94E(), !dbg !1623
  br label %bb1, !dbg !1623

bb1:                                              ; preds = %start
  ret void, !dbg !1624
}

; bincode::de::read::SliceReader::new
; Function Attrs: nounwind
define { i8*, i64 } @_ZN7bincode2de4read11SliceReader3new17h03a22c324357cac6E([0 x i8]* nonnull align 1 %bytes.0, i64 %bytes.1) unnamed_addr #1 !dbg !1625 {
start:
  %bytes.dbg.spill = alloca { [0 x i8]*, i64 }, align 8
  %0 = alloca { i8*, i64 }, align 8
  %1 = getelementptr inbounds { [0 x i8]*, i64 }, { [0 x i8]*, i64 }* %bytes.dbg.spill, i32 0, i32 0
  store [0 x i8]* %bytes.0, [0 x i8]** %1, align 8
  %2 = getelementptr inbounds { [0 x i8]*, i64 }, { [0 x i8]*, i64 }* %bytes.dbg.spill, i32 0, i32 1
  store i64 %bytes.1, i64* %2, align 8
  call void @llvm.dbg.declare(metadata { [0 x i8]*, i64 }* %bytes.dbg.spill, metadata !1634, metadata !DIExpression()), !dbg !1635
  %3 = bitcast { i8*, i64 }* %0 to { [0 x i8]*, i64 }*, !dbg !1636
  %4 = getelementptr inbounds { [0 x i8]*, i64 }, { [0 x i8]*, i64 }* %3, i32 0, i32 0, !dbg !1636
  store [0 x i8]* %bytes.0, [0 x i8]** %4, align 8, !dbg !1636
  %5 = getelementptr inbounds { [0 x i8]*, i64 }, { [0 x i8]*, i64 }* %3, i32 0, i32 1, !dbg !1636
  store i64 %bytes.1, i64* %5, align 8, !dbg !1636
  %6 = getelementptr inbounds { i8*, i64 }, { i8*, i64 }* %0, i32 0, i32 0, !dbg !1637
  %7 = load i8*, i8** %6, align 8, !dbg !1637, !nonnull !13
  %8 = getelementptr inbounds { i8*, i64 }, { i8*, i64 }* %0, i32 0, i32 1, !dbg !1637
  %9 = load i64, i64* %8, align 8, !dbg !1637
  %10 = insertvalue { i8*, i64 } undef, i8* %7, 0, !dbg !1637
  %11 = insertvalue { i8*, i64 } %10, i64 %9, 1, !dbg !1637
  ret { i8*, i64 } %11, !dbg !1637
}

; bincode::de::read::SliceReader::is_finished
; Function Attrs: nounwind
define zeroext i1 @_ZN7bincode2de4read11SliceReader11is_finished17h76997ad90d864915E({ i8*, i64 }* align 8 dereferenceable(16) %self) unnamed_addr #1 !dbg !1638 {
start:
  %self.dbg.spill = alloca { i8*, i64 }*, align 8
  store { i8*, i64 }* %self, { i8*, i64 }** %self.dbg.spill, align 8
  call void @llvm.dbg.declare(metadata { i8*, i64 }** %self.dbg.spill, metadata !1643, metadata !DIExpression()), !dbg !1644
  %0 = bitcast { i8*, i64 }* %self to { [0 x i8]*, i64 }*, !dbg !1645
  %1 = getelementptr inbounds { [0 x i8]*, i64 }, { [0 x i8]*, i64 }* %0, i32 0, i32 0, !dbg !1645
  %_2.0 = load [0 x i8]*, [0 x i8]** %1, align 8, !dbg !1645, !nonnull !13
  %2 = getelementptr inbounds { [0 x i8]*, i64 }, { [0 x i8]*, i64 }* %0, i32 0, i32 1, !dbg !1645
  %_2.1 = load i64, i64* %2, align 8, !dbg !1645
; call core::slice::<impl [T]>::is_empty
  %3 = call zeroext i1 @"_ZN4core5slice29_$LT$impl$u20$$u5b$T$u5d$$GT$8is_empty17h7a5df7d06847654aE"([0 x i8]* nonnull align 1 %_2.0, i64 %_2.1), !dbg !1645
  br label %bb1, !dbg !1645

bb1:                                              ; preds = %start
  ret i1 %3, !dbg !1646
}

; bincode::de::utf8_char_width
; Function Attrs: nounwind
define i64 @_ZN7bincode2de15utf8_char_width17hb7daf128ae3365a5E(i8 %b) unnamed_addr #1 !dbg !1647 {
start:
  %b.dbg.spill = alloca i8, align 1
  store i8 %b, i8* %b.dbg.spill, align 1
  call void @llvm.dbg.declare(metadata i8* %b.dbg.spill, metadata !1651, metadata !DIExpression()), !dbg !1652
  %_4 = zext i8 %b to i64, !dbg !1653
  %_7 = icmp ult i64 %_4, 256, !dbg !1654
  %0 = call i1 @llvm.expect.i1(i1 %_7, i1 true), !dbg !1654
  br i1 %0, label %bb1, label %panic, !dbg !1654

bb1:                                              ; preds = %start
  %1 = getelementptr inbounds [256 x i8], [256 x i8]* getelementptr inbounds (<{ [256 x i8] }>, <{ [256 x i8] }>* @_ZN7bincode2de15UTF8_CHAR_WIDTH17h64d6f0de52a44931E, i32 0, i32 0), i64 0, i64 %_4, !dbg !1654
  %_2 = load i8, i8* %1, align 1, !dbg !1654
  %2 = zext i8 %_2 to i64, !dbg !1654
  ret i64 %2, !dbg !1655

panic:                                            ; preds = %start
; call core::panicking::panic_bounds_check
  call void @_ZN4core9panicking18panic_bounds_check17h865b4c1c7f870517E(i64 %_4, i64 256, %"std::panic::Location"* align 8 dereferenceable(24) bitcast (<{ i8*, [16 x i8] }>* @alloc784 to %"std::panic::Location"*)), !dbg !1654
  unreachable, !dbg !1654
}

; <bincode::error::ErrorKind as std::error::Error>::description
; Function Attrs: nounwind
define { [0 x i8]*, i64 } @"_ZN63_$LT$bincode..error..ErrorKind$u20$as$u20$std..error..Error$GT$11description17hb24dd0be39b43532E"(%"error::ErrorKind"* align 8 dereferenceable(32) %self) unnamed_addr #1 !dbg !1656 {
start:
  %err.dbg.spill = alloca %"std::io::Error"*, align 8
  %msg.dbg.spill = alloca %"std::string::String"*, align 8
  %self.dbg.spill = alloca %"error::ErrorKind"*, align 8
  %0 = alloca { [0 x i8]*, i64 }, align 8
  store %"error::ErrorKind"* %self, %"error::ErrorKind"** %self.dbg.spill, align 8
  call void @llvm.dbg.declare(metadata %"error::ErrorKind"** %self.dbg.spill, metadata !1663, metadata !DIExpression()), !dbg !1668
  %1 = bitcast %"error::ErrorKind"* %self to i8*, !dbg !1669
  %2 = load i8, i8* %1, align 8, !dbg !1669, !range !1670
  %_2 = zext i8 %2 to i64, !dbg !1669
  switch i64 %_2, label %bb2 [
    i64 0, label %bb3
    i64 1, label %bb5
    i64 2, label %bb6
    i64 3, label %bb7
    i64 4, label %bb8
    i64 5, label %bb10
    i64 6, label %bb11
    i64 7, label %bb9
    i64 8, label %bb1
  ], !dbg !1671

bb2:                                              ; preds = %start
  unreachable, !dbg !1669

bb3:                                              ; preds = %start
  %3 = bitcast %"error::ErrorKind"* %self to %"error::ErrorKind::Io"*, !dbg !1672
  %err = getelementptr inbounds %"error::ErrorKind::Io", %"error::ErrorKind::Io"* %3, i32 0, i32 1, !dbg !1672
  store %"std::io::Error"* %err, %"std::io::Error"** %err.dbg.spill, align 8, !dbg !1672
  call void @llvm.dbg.declare(metadata %"std::io::Error"** %err.dbg.spill, metadata !1664, metadata !DIExpression()), !dbg !1673
; call <std::io::error::Error as std::error::Error>::description
  %4 = call { [0 x i8]*, i64 } @"_ZN59_$LT$std..io..error..Error$u20$as$u20$std..error..Error$GT$11description17h7b9a5b4d3602366aE"(%"std::io::Error"* align 8 dereferenceable(16) %err), !dbg !1674
  %_4.0 = extractvalue { [0 x i8]*, i64 } %4, 0, !dbg !1674
  %_4.1 = extractvalue { [0 x i8]*, i64 } %4, 1, !dbg !1674
  br label %bb4, !dbg !1674

bb5:                                              ; preds = %start
  %5 = getelementptr inbounds { [0 x i8]*, i64 }, { [0 x i8]*, i64 }* %0, i32 0, i32 0, !dbg !1675
  store [0 x i8]* bitcast (<{ [24 x i8] }>* @alloc791 to [0 x i8]*), [0 x i8]** %5, align 8, !dbg !1675
  %6 = getelementptr inbounds { [0 x i8]*, i64 }, { [0 x i8]*, i64 }* %0, i32 0, i32 1, !dbg !1675
  store i64 24, i64* %6, align 8, !dbg !1675
  br label %bb13, !dbg !1676

bb6:                                              ; preds = %start
  %7 = getelementptr inbounds { [0 x i8]*, i64 }, { [0 x i8]*, i64 }* %0, i32 0, i32 0, !dbg !1677
  store [0 x i8]* bitcast (<{ [30 x i8] }>* @alloc790 to [0 x i8]*), [0 x i8]** %7, align 8, !dbg !1677
  %8 = getelementptr inbounds { [0 x i8]*, i64 }, { [0 x i8]*, i64 }* %0, i32 0, i32 1, !dbg !1677
  store i64 30, i64* %8, align 8, !dbg !1677
  br label %bb13, !dbg !1678

bb7:                                              ; preds = %start
  %9 = getelementptr inbounds { [0 x i8]*, i64 }, { [0 x i8]*, i64 }* %0, i32 0, i32 0, !dbg !1679
  store [0 x i8]* bitcast (<{ [17 x i8] }>* @alloc789 to [0 x i8]*), [0 x i8]** %9, align 8, !dbg !1679
  %10 = getelementptr inbounds { [0 x i8]*, i64 }, { [0 x i8]*, i64 }* %0, i32 0, i32 1, !dbg !1679
  store i64 17, i64* %10, align 8, !dbg !1679
  br label %bb13, !dbg !1680

bb8:                                              ; preds = %start
  %11 = getelementptr inbounds { [0 x i8]*, i64 }, { [0 x i8]*, i64 }* %0, i32 0, i32 0, !dbg !1681
  store [0 x i8]* bitcast (<{ [25 x i8] }>* @alloc788 to [0 x i8]*), [0 x i8]** %11, align 8, !dbg !1681
  %12 = getelementptr inbounds { [0 x i8]*, i64 }, { [0 x i8]*, i64 }* %0, i32 0, i32 1, !dbg !1681
  store i64 25, i64* %12, align 8, !dbg !1681
  br label %bb13, !dbg !1682

bb10:                                             ; preds = %start
  %13 = getelementptr inbounds { [0 x i8]*, i64 }, { [0 x i8]*, i64 }* %0, i32 0, i32 0, !dbg !1683
  store [0 x i8]* bitcast (<{ [60 x i8] }>* @alloc787 to [0 x i8]*), [0 x i8]** %13, align 8, !dbg !1683
  %14 = getelementptr inbounds { [0 x i8]*, i64 }, { [0 x i8]*, i64 }* %0, i32 0, i32 1, !dbg !1683
  store i64 60, i64* %14, align 8, !dbg !1683
  br label %bb13, !dbg !1684

bb11:                                             ; preds = %start
  %15 = getelementptr inbounds { [0 x i8]*, i64 }, { [0 x i8]*, i64 }* %0, i32 0, i32 0, !dbg !1685
  store [0 x i8]* bitcast (<{ [31 x i8] }>* @alloc786 to [0 x i8]*), [0 x i8]** %15, align 8, !dbg !1685
  %16 = getelementptr inbounds { [0 x i8]*, i64 }, { [0 x i8]*, i64 }* %0, i32 0, i32 1, !dbg !1685
  store i64 31, i64* %16, align 8, !dbg !1685
  br label %bb13, !dbg !1686

bb9:                                              ; preds = %start
  %17 = getelementptr inbounds { [0 x i8]*, i64 }, { [0 x i8]*, i64 }* %0, i32 0, i32 0, !dbg !1687
  store [0 x i8]* bitcast (<{ [82 x i8] }>* @alloc785 to [0 x i8]*), [0 x i8]** %17, align 8, !dbg !1687
  %18 = getelementptr inbounds { [0 x i8]*, i64 }, { [0 x i8]*, i64 }* %0, i32 0, i32 1, !dbg !1687
  store i64 82, i64* %18, align 8, !dbg !1687
  br label %bb13, !dbg !1688

bb1:                                              ; preds = %start
  %19 = bitcast %"error::ErrorKind"* %self to %"error::ErrorKind::Custom"*, !dbg !1689
  %msg = getelementptr inbounds %"error::ErrorKind::Custom", %"error::ErrorKind::Custom"* %19, i32 0, i32 1, !dbg !1689
  store %"std::string::String"* %msg, %"std::string::String"** %msg.dbg.spill, align 8, !dbg !1689
  call void @llvm.dbg.declare(metadata %"std::string::String"** %msg.dbg.spill, metadata !1666, metadata !DIExpression()), !dbg !1690
; call <alloc::string::String as core::ops::deref::Deref>::deref
  %20 = call { [0 x i8]*, i64 } @"_ZN65_$LT$alloc..string..String$u20$as$u20$core..ops..deref..Deref$GT$5deref17h24431e7a62bbcfa3E"(%"std::string::String"* align 8 dereferenceable(24) %msg), !dbg !1691
  %_14.0 = extractvalue { [0 x i8]*, i64 } %20, 0, !dbg !1691
  %_14.1 = extractvalue { [0 x i8]*, i64 } %20, 1, !dbg !1691
  br label %bb12, !dbg !1691

bb12:                                             ; preds = %bb1
  %21 = getelementptr inbounds { [0 x i8]*, i64 }, { [0 x i8]*, i64 }* %0, i32 0, i32 0, !dbg !1692
  store [0 x i8]* %_14.0, [0 x i8]** %21, align 8, !dbg !1692
  %22 = getelementptr inbounds { [0 x i8]*, i64 }, { [0 x i8]*, i64 }* %0, i32 0, i32 1, !dbg !1692
  store i64 %_14.1, i64* %22, align 8, !dbg !1692
  br label %bb13, !dbg !1693

bb13:                                             ; preds = %bb4, %bb5, %bb6, %bb7, %bb8, %bb10, %bb11, %bb9, %bb12
  %23 = getelementptr inbounds { [0 x i8]*, i64 }, { [0 x i8]*, i64 }* %0, i32 0, i32 0, !dbg !1694
  %24 = load [0 x i8]*, [0 x i8]** %23, align 8, !dbg !1694, !nonnull !13
  %25 = getelementptr inbounds { [0 x i8]*, i64 }, { [0 x i8]*, i64 }* %0, i32 0, i32 1, !dbg !1694
  %26 = load i64, i64* %25, align 8, !dbg !1694
  %27 = insertvalue { [0 x i8]*, i64 } undef, [0 x i8]* %24, 0, !dbg !1694
  %28 = insertvalue { [0 x i8]*, i64 } %27, i64 %26, 1, !dbg !1694
  ret { [0 x i8]*, i64 } %28, !dbg !1694

bb4:                                              ; preds = %bb3
  %29 = getelementptr inbounds { [0 x i8]*, i64 }, { [0 x i8]*, i64 }* %0, i32 0, i32 0, !dbg !1674
  store [0 x i8]* %_4.0, [0 x i8]** %29, align 8, !dbg !1674
  %30 = getelementptr inbounds { [0 x i8]*, i64 }, { [0 x i8]*, i64 }* %0, i32 0, i32 1, !dbg !1674
  store i64 %_4.1, i64* %30, align 8, !dbg !1674
  br label %bb13, !dbg !1695
}

; <bincode::error::ErrorKind as std::error::Error>::cause
; Function Attrs: nounwind
define { i8*, i8* } @"_ZN63_$LT$bincode..error..ErrorKind$u20$as$u20$std..error..Error$GT$5cause17h4ed131fbc4df84deE"(%"error::ErrorKind"* align 8 dereferenceable(32) %self) unnamed_addr #1 !dbg !1696 {
start:
  %err.dbg.spill = alloca %"std::io::Error"*, align 8
  %self.dbg.spill = alloca %"error::ErrorKind"*, align 8
  %0 = alloca { i8*, i8* }, align 8
  store %"error::ErrorKind"* %self, %"error::ErrorKind"** %self.dbg.spill, align 8
  call void @llvm.dbg.declare(metadata %"error::ErrorKind"** %self.dbg.spill, metadata !1716, metadata !DIExpression()), !dbg !1719
  %1 = bitcast %"error::ErrorKind"* %self to i8*, !dbg !1720
  %2 = load i8, i8* %1, align 8, !dbg !1720, !range !1670
  %_2 = zext i8 %2 to i64, !dbg !1720
  switch i64 %_2, label %bb2 [
    i64 0, label %bb3
    i64 1, label %bb4
    i64 2, label %bb5
    i64 3, label %bb6
    i64 4, label %bb7
    i64 5, label %bb9
    i64 6, label %bb10
    i64 7, label %bb8
    i64 8, label %bb1
  ], !dbg !1721

bb2:                                              ; preds = %start
  unreachable, !dbg !1720

bb3:                                              ; preds = %start
  %3 = bitcast %"error::ErrorKind"* %self to %"error::ErrorKind::Io"*, !dbg !1722
  %err = getelementptr inbounds %"error::ErrorKind::Io", %"error::ErrorKind::Io"* %3, i32 0, i32 1, !dbg !1722
  store %"std::io::Error"* %err, %"std::io::Error"** %err.dbg.spill, align 8, !dbg !1722
  call void @llvm.dbg.declare(metadata %"std::io::Error"** %err.dbg.spill, metadata !1717, metadata !DIExpression()), !dbg !1723
  %_4.0 = bitcast %"std::io::Error"* %err to {}*, !dbg !1724
  %4 = bitcast { i8*, i8* }* %0 to { {}*, [3 x i64]* }*, !dbg !1725
  %5 = getelementptr inbounds { {}*, [3 x i64]* }, { {}*, [3 x i64]* }* %4, i32 0, i32 0, !dbg !1725
  store {}* %_4.0, {}** %5, align 8, !dbg !1725
  %6 = getelementptr inbounds { {}*, [3 x i64]* }, { {}*, [3 x i64]* }* %4, i32 0, i32 1, !dbg !1725
  store [3 x i64]* bitcast (<{ i8*, [16 x i8], i8*, i8*, i8*, i8*, i8*, i8*, i8*, [0 x i8] }>* @vtable.1 to [3 x i64]*), [3 x i64]** %6, align 8, !dbg !1725
  br label %bb11, !dbg !1726

bb4:                                              ; preds = %start
  %7 = bitcast { i8*, i8* }* %0 to {}**, !dbg !1727
  store {}* null, {}** %7, align 8, !dbg !1727
  br label %bb11, !dbg !1727

bb5:                                              ; preds = %start
  %8 = bitcast { i8*, i8* }* %0 to {}**, !dbg !1728
  store {}* null, {}** %8, align 8, !dbg !1728
  br label %bb11, !dbg !1728

bb6:                                              ; preds = %start
  %9 = bitcast { i8*, i8* }* %0 to {}**, !dbg !1729
  store {}* null, {}** %9, align 8, !dbg !1729
  br label %bb11, !dbg !1729

bb7:                                              ; preds = %start
  %10 = bitcast { i8*, i8* }* %0 to {}**, !dbg !1730
  store {}* null, {}** %10, align 8, !dbg !1730
  br label %bb11, !dbg !1730

bb9:                                              ; preds = %start
  %11 = bitcast { i8*, i8* }* %0 to {}**, !dbg !1731
  store {}* null, {}** %11, align 8, !dbg !1731
  br label %bb11, !dbg !1731

bb10:                                             ; preds = %start
  %12 = bitcast { i8*, i8* }* %0 to {}**, !dbg !1732
  store {}* null, {}** %12, align 8, !dbg !1732
  br label %bb11, !dbg !1732

bb8:                                              ; preds = %start
  %13 = bitcast { i8*, i8* }* %0 to {}**, !dbg !1733
  store {}* null, {}** %13, align 8, !dbg !1733
  br label %bb11, !dbg !1733

bb1:                                              ; preds = %start
  %14 = bitcast { i8*, i8* }* %0 to {}**, !dbg !1734
  store {}* null, {}** %14, align 8, !dbg !1734
  br label %bb11, !dbg !1734

bb11:                                             ; preds = %bb3, %bb4, %bb5, %bb6, %bb7, %bb9, %bb10, %bb8, %bb1
  %15 = getelementptr inbounds { i8*, i8* }, { i8*, i8* }* %0, i32 0, i32 0, !dbg !1735
  %16 = load i8*, i8** %15, align 8, !dbg !1735
  %17 = getelementptr inbounds { i8*, i8* }, { i8*, i8* }* %0, i32 0, i32 1, !dbg !1735
  %18 = load i8*, i8** %17, align 8, !dbg !1735
  %19 = insertvalue { i8*, i8* } undef, i8* %16, 0, !dbg !1735
  %20 = insertvalue { i8*, i8* } %19, i8* %18, 1, !dbg !1735
  ret { i8*, i8* } %20, !dbg !1735
}

; bincode::error::<impl core::convert::From<std::io::error::Error> for alloc::boxed::Box<bincode::error::ErrorKind>>::from
; Function Attrs: nounwind
define noalias nonnull align 8 %"error::ErrorKind"* @"_ZN7bincode5error129_$LT$impl$u20$core..convert..From$LT$std..io..error..Error$GT$$u20$for$u20$alloc..boxed..Box$LT$bincode..error..ErrorKind$GT$$GT$4from17hcaf515e22ae74db9E"(i128 %0) unnamed_addr #1 !dbg !1736 {
start:
  %_3 = alloca %"std::io::Error", align 8
  %_2 = alloca %"error::ErrorKind", align 8
  %1 = alloca i128, align 8
  %err = alloca %"std::io::Error", align 8
  store i128 %0, i128* %1, align 8
  %2 = bitcast %"std::io::Error"* %err to i8*
  %3 = bitcast i128* %1 to i8*
  call void @llvm.memcpy.p0i8.p0i8.i64(i8* align 8 %2, i8* align 8 %3, i64 16, i1 false)
  call void @llvm.dbg.declare(metadata %"std::io::Error"* %err, metadata !1741, metadata !DIExpression()), !dbg !1742
  %4 = bitcast %"std::io::Error"* %_3 to i8*, !dbg !1743
  %5 = bitcast %"std::io::Error"* %err to i8*, !dbg !1743
  call void @llvm.memcpy.p0i8.p0i8.i64(i8* align 8 %4, i8* align 8 %5, i64 16, i1 false), !dbg !1743
  %6 = bitcast %"error::ErrorKind"* %_2 to %"error::ErrorKind::Io"*, !dbg !1744
  %7 = getelementptr inbounds %"error::ErrorKind::Io", %"error::ErrorKind::Io"* %6, i32 0, i32 1, !dbg !1744
  %8 = bitcast %"std::io::Error"* %7 to i8*, !dbg !1744
  %9 = bitcast %"std::io::Error"* %_3 to i8*, !dbg !1744
  call void @llvm.memcpy.p0i8.p0i8.i64(i8* align 8 %8, i8* align 8 %9, i64 16, i1 false), !dbg !1744
  %10 = bitcast %"error::ErrorKind"* %_2 to i8*, !dbg !1744
  store i8 0, i8* %10, align 8, !dbg !1744
; call <T as core::convert::Into<U>>::into
  %11 = call noalias nonnull align 8 %"error::ErrorKind"* @"_ZN50_$LT$T$u20$as$u20$core..convert..Into$LT$U$GT$$GT$4into17h74e6b2e9d2ec1e2cE"(%"error::ErrorKind"* noalias nocapture dereferenceable(32) %_2), !dbg !1744
  br label %bb1, !dbg !1744

bb1:                                              ; preds = %start
  ret %"error::ErrorKind"* %11, !dbg !1745
}

; <bincode::error::ErrorKind as core::fmt::Display>::fmt
; Function Attrs: nounwind
define zeroext i1 @"_ZN64_$LT$bincode..error..ErrorKind$u20$as$u20$core..fmt..Display$GT$3fmt17h09ad7630c08f8be6E"(%"error::ErrorKind"* align 8 dereferenceable(32) %self, %"std::fmt::Formatter"* align 8 dereferenceable(64) %fmt) unnamed_addr #1 !dbg !1746 {
start:
  %args.dbg.spill23 = alloca [1 x { i8*, i64* }]*, align 8
  %arg0.dbg.spill22 = alloca %"std::io::Error"**, align 8
  %args.dbg.spill20 = alloca [2 x { i8*, i64* }]*, align 8
  %arg1.dbg.spill19 = alloca %"std::str::Utf8Error"**, align 8
  %arg0.dbg.spill17 = alloca { [0 x i8]*, i64 }*, align 8
  %args.dbg.spill15 = alloca [2 x { i8*, i64* }]*, align 8
  %arg1.dbg.spill14 = alloca i8*, align 8
  %arg0.dbg.spill12 = alloca { [0 x i8]*, i64 }*, align 8
  %args.dbg.spill10 = alloca [1 x { i8*, i64* }]*, align 8
  %arg0.dbg.spill9 = alloca { [0 x i8]*, i64 }*, align 8
  %args.dbg.spill7 = alloca [2 x { i8*, i64* }]*, align 8
  %arg1.dbg.spill = alloca i64*, align 8
  %arg0.dbg.spill6 = alloca { [0 x i8]*, i64 }*, align 8
  %args.dbg.spill4 = alloca [0 x { i8*, i64* }]*, align 8
  %args.dbg.spill3 = alloca [1 x { i8*, i64* }]*, align 8
  %arg0.dbg.spill2 = alloca { [0 x i8]*, i64 }*, align 8
  %args.dbg.spill = alloca [1 x { i8*, i64* }]*, align 8
  %arg0.dbg.spill = alloca { [0 x i8]*, i64 }*, align 8
  %s.dbg.spill = alloca %"std::string::String"*, align 8
  %fmt.dbg.spill = alloca %"std::fmt::Formatter"*, align 8
  %self.dbg.spill = alloca %"error::ErrorKind"*, align 8
  %_141 = alloca %"std::fmt::Arguments", align 8
  %_128 = alloca { [0 x i8]*, i64 }, align 8
  %_126 = alloca i64*, align 8
  %_125 = alloca [1 x { i8*, i64* }], align 8
  %_124 = alloca %"std::fmt::Arguments", align 8
  %_111 = alloca { [0 x i8]*, i64 }, align 8
  %_109 = alloca i64*, align 8
  %_108 = alloca [1 x { i8*, i64* }], align 8
  %_107 = alloca %"std::fmt::Arguments", align 8
  %_89 = alloca { [0 x i8]*, i64 }, align 8
  %_87 = alloca { i64*, i64* }, align 8
  %_86 = alloca [2 x { i8*, i64* }], align 8
  %_85 = alloca %"std::fmt::Arguments", align 8
  %tag = alloca i64, align 8
  %_71 = alloca { [0 x i8]*, i64 }, align 8
  %_69 = alloca i64*, align 8
  %_68 = alloca [1 x { i8*, i64* }], align 8
  %_67 = alloca %"std::fmt::Arguments", align 8
  %_49 = alloca { [0 x i8]*, i64 }, align 8
  %_47 = alloca { i64*, i8* }, align 8
  %_46 = alloca [2 x { i8*, i64* }], align 8
  %_45 = alloca %"std::fmt::Arguments", align 8
  %b = alloca i8, align 1
  %_26 = alloca { [0 x i8]*, i64 }, align 8
  %_24 = alloca { i64*, i64* }, align 8
  %_23 = alloca [2 x { i8*, i64* }], align 8
  %_22 = alloca %"std::fmt::Arguments", align 8
  %e = alloca %"std::str::Utf8Error"*, align 8
  %_8 = alloca i64*, align 8
  %_7 = alloca [1 x { i8*, i64* }], align 8
  %_6 = alloca %"std::fmt::Arguments", align 8
  %ioerr = alloca %"std::io::Error"*, align 8
  %0 = alloca i8, align 1
  store %"error::ErrorKind"* %self, %"error::ErrorKind"** %self.dbg.spill, align 8
  call void @llvm.dbg.declare(metadata %"error::ErrorKind"** %self.dbg.spill, metadata !1751, metadata !DIExpression()), !dbg !1816
  store %"std::fmt::Formatter"* %fmt, %"std::fmt::Formatter"** %fmt.dbg.spill, align 8
  call void @llvm.dbg.declare(metadata %"std::fmt::Formatter"** %fmt.dbg.spill, metadata !1752, metadata !DIExpression()), !dbg !1817
  call void @llvm.dbg.declare(metadata %"std::io::Error"** %ioerr, metadata !1753, metadata !DIExpression()), !dbg !1818
  call void @llvm.dbg.declare(metadata %"std::str::Utf8Error"** %e, metadata !1762, metadata !DIExpression()), !dbg !1819
  call void @llvm.dbg.declare(metadata i8* %b, metadata !1771, metadata !DIExpression()), !dbg !1820
  call void @llvm.dbg.declare(metadata i64* %tag, metadata !1786, metadata !DIExpression()), !dbg !1821
  %1 = bitcast %"error::ErrorKind"* %self to i8*, !dbg !1822
  %2 = load i8, i8* %1, align 8, !dbg !1822, !range !1670
  %_3 = zext i8 %2 to i64, !dbg !1822
  switch i64 %_3, label %bb2 [
    i64 0, label %bb3
    i64 1, label %bb6
    i64 2, label %bb11
    i64 3, label %bb16
    i64 4, label %bb20
    i64 5, label %bb33
    i64 6, label %bb29
    i64 7, label %bb25
    i64 8, label %bb1
  ], !dbg !1823

bb2:                                              ; preds = %start
  unreachable, !dbg !1822

bb3:                                              ; preds = %start
  %3 = bitcast %"error::ErrorKind"* %self to %"error::ErrorKind::Io"*, !dbg !1824
  %4 = getelementptr inbounds %"error::ErrorKind::Io", %"error::ErrorKind::Io"* %3, i32 0, i32 1, !dbg !1824
  store %"std::io::Error"* %4, %"std::io::Error"** %ioerr, align 8, !dbg !1824
  %5 = bitcast i64** %_8 to %"std::io::Error"***, !dbg !1825
  store %"std::io::Error"** %ioerr, %"std::io::Error"*** %5, align 8, !dbg !1825
  %6 = bitcast i64** %_8 to %"std::io::Error"***, !dbg !1825
  %arg021 = load %"std::io::Error"**, %"std::io::Error"*** %6, align 8, !dbg !1825, !nonnull !13
  store %"std::io::Error"** %arg021, %"std::io::Error"*** %arg0.dbg.spill22, align 8, !dbg !1825
  call void @llvm.dbg.declare(metadata %"std::io::Error"*** %arg0.dbg.spill22, metadata !1755, metadata !DIExpression()), !dbg !1826
; call core::fmt::ArgumentV1::new
  %7 = call { i8*, i64* } @_ZN4core3fmt10ArgumentV13new17hdb6324674e9146afE(%"std::io::Error"** align 8 dereferenceable(8) %arg021, i1 (%"std::io::Error"**, %"std::fmt::Formatter"*)* nonnull @"_ZN44_$LT$$RF$T$u20$as$u20$core..fmt..Display$GT$3fmt17hecc913130417192bE"), !dbg !1826
  %_11.0 = extractvalue { i8*, i64* } %7, 0, !dbg !1826
  %_11.1 = extractvalue { i8*, i64* } %7, 1, !dbg !1826
  br label %bb4, !dbg !1826

bb6:                                              ; preds = %start
  %8 = bitcast %"error::ErrorKind"* %self to %"error::ErrorKind::InvalidUtf8Encoding"*, !dbg !1827
  %9 = getelementptr inbounds %"error::ErrorKind::InvalidUtf8Encoding", %"error::ErrorKind::InvalidUtf8Encoding"* %8, i32 0, i32 1, !dbg !1827
  store %"std::str::Utf8Error"* %9, %"std::str::Utf8Error"** %e, align 8, !dbg !1827
; call <bincode::error::ErrorKind as std::error::Error>::description
  %10 = call { [0 x i8]*, i64 } @"_ZN63_$LT$bincode..error..ErrorKind$u20$as$u20$std..error..Error$GT$11description17hb24dd0be39b43532E"(%"error::ErrorKind"* align 8 dereferenceable(32) %self), !dbg !1828
  store { [0 x i8]*, i64 } %10, { [0 x i8]*, i64 }* %_26, align 8, !dbg !1828
  br label %bb7, !dbg !1828

bb11:                                             ; preds = %start
  %11 = bitcast %"error::ErrorKind"* %self to %"error::ErrorKind::InvalidBoolEncoding"*, !dbg !1829
  %12 = getelementptr inbounds %"error::ErrorKind::InvalidBoolEncoding", %"error::ErrorKind::InvalidBoolEncoding"* %11, i32 0, i32 1, !dbg !1829
  %13 = load i8, i8* %12, align 1, !dbg !1829
  store i8 %13, i8* %b, align 1, !dbg !1829
; call <bincode::error::ErrorKind as std::error::Error>::description
  %14 = call { [0 x i8]*, i64 } @"_ZN63_$LT$bincode..error..ErrorKind$u20$as$u20$std..error..Error$GT$11description17hb24dd0be39b43532E"(%"error::ErrorKind"* align 8 dereferenceable(32) %self), !dbg !1830
  store { [0 x i8]*, i64 } %14, { [0 x i8]*, i64 }* %_49, align 8, !dbg !1830
  br label %bb12, !dbg !1830

bb16:                                             ; preds = %start
; call <bincode::error::ErrorKind as std::error::Error>::description
  %15 = call { [0 x i8]*, i64 } @"_ZN63_$LT$bincode..error..ErrorKind$u20$as$u20$std..error..Error$GT$11description17hb24dd0be39b43532E"(%"error::ErrorKind"* align 8 dereferenceable(32) %self), !dbg !1831
  store { [0 x i8]*, i64 } %15, { [0 x i8]*, i64 }* %_71, align 8, !dbg !1831
  br label %bb17, !dbg !1831

bb20:                                             ; preds = %start
  %16 = bitcast %"error::ErrorKind"* %self to %"error::ErrorKind::InvalidTagEncoding"*, !dbg !1832
  %17 = getelementptr inbounds %"error::ErrorKind::InvalidTagEncoding", %"error::ErrorKind::InvalidTagEncoding"* %16, i32 0, i32 1, !dbg !1832
  %18 = load i64, i64* %17, align 8, !dbg !1832
  store i64 %18, i64* %tag, align 8, !dbg !1832
; call <bincode::error::ErrorKind as std::error::Error>::description
  %19 = call { [0 x i8]*, i64 } @"_ZN63_$LT$bincode..error..ErrorKind$u20$as$u20$std..error..Error$GT$11description17hb24dd0be39b43532E"(%"error::ErrorKind"* align 8 dereferenceable(32) %self), !dbg !1833
  store { [0 x i8]*, i64 } %19, { [0 x i8]*, i64 }* %_89, align 8, !dbg !1833
  br label %bb21, !dbg !1833

bb33:                                             ; preds = %start
  store [0 x { i8*, i64* }]* bitcast (<{ [0 x i8] }>* @alloc677 to [0 x { i8*, i64* }]*), [0 x { i8*, i64* }]** %args.dbg.spill4, align 8, !dbg !1834
  call void @llvm.dbg.declare(metadata [0 x { i8*, i64* }]** %args.dbg.spill4, metadata !1807, metadata !DIExpression()), !dbg !1835
; call core::fmt::Arguments::new_v1
  call void @_ZN4core3fmt9Arguments6new_v117hfa8576bb236f1c44E(%"std::fmt::Arguments"* noalias nocapture sret(%"std::fmt::Arguments") dereferenceable(48) %_141, [0 x { [0 x i8]*, i64 }]* nonnull align 8 bitcast (<{ i8*, [8 x i8] }>* @alloc714 to [0 x { [0 x i8]*, i64 }]*), i64 1, [0 x { i8*, i64* }]* nonnull align 8 bitcast (<{ [0 x i8] }>* @alloc677 to [0 x { i8*, i64* }]*), i64 0), !dbg !1835
  br label %bb34, !dbg !1835

bb29:                                             ; preds = %start
; call <bincode::error::ErrorKind as std::error::Error>::description
  %20 = call { [0 x i8]*, i64 } @"_ZN63_$LT$bincode..error..ErrorKind$u20$as$u20$std..error..Error$GT$11description17hb24dd0be39b43532E"(%"error::ErrorKind"* align 8 dereferenceable(32) %self), !dbg !1836
  store { [0 x i8]*, i64 } %20, { [0 x i8]*, i64 }* %_128, align 8, !dbg !1836
  br label %bb30, !dbg !1836

bb25:                                             ; preds = %start
; call <bincode::error::ErrorKind as std::error::Error>::description
  %21 = call { [0 x i8]*, i64 } @"_ZN63_$LT$bincode..error..ErrorKind$u20$as$u20$std..error..Error$GT$11description17hb24dd0be39b43532E"(%"error::ErrorKind"* align 8 dereferenceable(32) %self), !dbg !1837
  store { [0 x i8]*, i64 } %21, { [0 x i8]*, i64 }* %_111, align 8, !dbg !1837
  br label %bb26, !dbg !1837

bb1:                                              ; preds = %start
  %22 = bitcast %"error::ErrorKind"* %self to %"error::ErrorKind::Custom"*, !dbg !1838
  %s = getelementptr inbounds %"error::ErrorKind::Custom", %"error::ErrorKind::Custom"* %22, i32 0, i32 1, !dbg !1838
  store %"std::string::String"* %s, %"std::string::String"** %s.dbg.spill, align 8, !dbg !1838
  call void @llvm.dbg.declare(metadata %"std::string::String"** %s.dbg.spill, metadata !1814, metadata !DIExpression()), !dbg !1839
; call <alloc::string::String as core::fmt::Display>::fmt
  %23 = call zeroext i1 @"_ZN60_$LT$alloc..string..String$u20$as$u20$core..fmt..Display$GT$3fmt17h8a0731d485b96e59E"(%"std::string::String"* align 8 dereferenceable(24) %s, %"std::fmt::Formatter"* align 8 dereferenceable(64) %fmt), !dbg !1840
  %24 = zext i1 %23 to i8, !dbg !1840
  store i8 %24, i8* %0, align 1, !dbg !1840
  br label %bb35, !dbg !1840

bb35:                                             ; preds = %bb5, %bb10, %bb15, %bb19, %bb24, %bb34, %bb32, %bb28, %bb1
  %25 = load i8, i8* %0, align 1, !dbg !1841, !range !510
  %26 = trunc i8 %25 to i1, !dbg !1841
  ret i1 %26, !dbg !1841

bb26:                                             ; preds = %bb25
  %27 = bitcast i64** %_109 to { [0 x i8]*, i64 }**, !dbg !1842
  store { [0 x i8]*, i64 }* %_111, { [0 x i8]*, i64 }** %27, align 8, !dbg !1842
  %28 = bitcast i64** %_109 to { [0 x i8]*, i64 }**, !dbg !1842
  %arg0 = load { [0 x i8]*, i64 }*, { [0 x i8]*, i64 }** %28, align 8, !dbg !1842, !nonnull !13
  store { [0 x i8]*, i64 }* %arg0, { [0 x i8]*, i64 }** %arg0.dbg.spill, align 8, !dbg !1842
  call void @llvm.dbg.declare(metadata { [0 x i8]*, i64 }** %arg0.dbg.spill, metadata !1795, metadata !DIExpression()), !dbg !1843
; call core::fmt::ArgumentV1::new
  %29 = call { i8*, i64* } @_ZN4core3fmt10ArgumentV13new17h73fcebaed8b24a27E({ [0 x i8]*, i64 }* align 8 dereferenceable(16) %arg0, i1 ({ [0 x i8]*, i64 }*, %"std::fmt::Formatter"*)* nonnull @"_ZN44_$LT$$RF$T$u20$as$u20$core..fmt..Display$GT$3fmt17ha39ac99e964386f9E"), !dbg !1843
  %_114.0 = extractvalue { i8*, i64* } %29, 0, !dbg !1843
  %_114.1 = extractvalue { i8*, i64* } %29, 1, !dbg !1843
  br label %bb27, !dbg !1843

bb27:                                             ; preds = %bb26
  %30 = bitcast [1 x { i8*, i64* }]* %_108 to { i8*, i64* }*, !dbg !1843
  %31 = getelementptr inbounds { i8*, i64* }, { i8*, i64* }* %30, i32 0, i32 0, !dbg !1843
  store i8* %_114.0, i8** %31, align 8, !dbg !1843
  %32 = getelementptr inbounds { i8*, i64* }, { i8*, i64* }* %30, i32 0, i32 1, !dbg !1843
  store i64* %_114.1, i64** %32, align 8, !dbg !1843
  store [1 x { i8*, i64* }]* %_108, [1 x { i8*, i64* }]** %args.dbg.spill, align 8, !dbg !1842
  call void @llvm.dbg.declare(metadata [1 x { i8*, i64* }]** %args.dbg.spill, metadata !1798, metadata !DIExpression()), !dbg !1844
  %_121.0 = bitcast [1 x { i8*, i64* }]* %_108 to [0 x { i8*, i64* }]*, !dbg !1844
; call core::fmt::Arguments::new_v1
  call void @_ZN4core3fmt9Arguments6new_v117hfa8576bb236f1c44E(%"std::fmt::Arguments"* noalias nocapture sret(%"std::fmt::Arguments") dereferenceable(48) %_107, [0 x { [0 x i8]*, i64 }]* nonnull align 8 bitcast (<{ i8*, [8 x i8] }>* @alloc692 to [0 x { [0 x i8]*, i64 }]*), i64 1, [0 x { i8*, i64* }]* nonnull align 8 %_121.0, i64 1), !dbg !1844
  br label %bb28, !dbg !1844

bb28:                                             ; preds = %bb27
; call core::fmt::Formatter::write_fmt
  %33 = call zeroext i1 @_ZN4core3fmt9Formatter9write_fmt17h332d1ec80fba6575E(%"std::fmt::Formatter"* align 8 dereferenceable(64) %fmt, %"std::fmt::Arguments"* noalias nocapture dereferenceable(48) %_107), !dbg !1842
  %34 = zext i1 %33 to i8, !dbg !1842
  store i8 %34, i8* %0, align 1, !dbg !1842
  br label %bb35, !dbg !1842

bb30:                                             ; preds = %bb29
  %35 = bitcast i64** %_126 to { [0 x i8]*, i64 }**, !dbg !1845
  store { [0 x i8]*, i64 }* %_128, { [0 x i8]*, i64 }** %35, align 8, !dbg !1845
  %36 = bitcast i64** %_126 to { [0 x i8]*, i64 }**, !dbg !1845
  %arg01 = load { [0 x i8]*, i64 }*, { [0 x i8]*, i64 }** %36, align 8, !dbg !1845, !nonnull !13
  store { [0 x i8]*, i64 }* %arg01, { [0 x i8]*, i64 }** %arg0.dbg.spill2, align 8, !dbg !1845
  call void @llvm.dbg.declare(metadata { [0 x i8]*, i64 }** %arg0.dbg.spill2, metadata !1801, metadata !DIExpression()), !dbg !1846
; call core::fmt::ArgumentV1::new
  %37 = call { i8*, i64* } @_ZN4core3fmt10ArgumentV13new17h73fcebaed8b24a27E({ [0 x i8]*, i64 }* align 8 dereferenceable(16) %arg01, i1 ({ [0 x i8]*, i64 }*, %"std::fmt::Formatter"*)* nonnull @"_ZN44_$LT$$RF$T$u20$as$u20$core..fmt..Display$GT$3fmt17ha39ac99e964386f9E"), !dbg !1846
  %_131.0 = extractvalue { i8*, i64* } %37, 0, !dbg !1846
  %_131.1 = extractvalue { i8*, i64* } %37, 1, !dbg !1846
  br label %bb31, !dbg !1846

bb31:                                             ; preds = %bb30
  %38 = bitcast [1 x { i8*, i64* }]* %_125 to { i8*, i64* }*, !dbg !1846
  %39 = getelementptr inbounds { i8*, i64* }, { i8*, i64* }* %38, i32 0, i32 0, !dbg !1846
  store i8* %_131.0, i8** %39, align 8, !dbg !1846
  %40 = getelementptr inbounds { i8*, i64* }, { i8*, i64* }* %38, i32 0, i32 1, !dbg !1846
  store i64* %_131.1, i64** %40, align 8, !dbg !1846
  store [1 x { i8*, i64* }]* %_125, [1 x { i8*, i64* }]** %args.dbg.spill3, align 8, !dbg !1845
  call void @llvm.dbg.declare(metadata [1 x { i8*, i64* }]** %args.dbg.spill3, metadata !1804, metadata !DIExpression()), !dbg !1847
  %_138.0 = bitcast [1 x { i8*, i64* }]* %_125 to [0 x { i8*, i64* }]*, !dbg !1847
; call core::fmt::Arguments::new_v1
  call void @_ZN4core3fmt9Arguments6new_v117hfa8576bb236f1c44E(%"std::fmt::Arguments"* noalias nocapture sret(%"std::fmt::Arguments") dereferenceable(48) %_124, [0 x { [0 x i8]*, i64 }]* nonnull align 8 bitcast (<{ i8*, [8 x i8] }>* @alloc692 to [0 x { [0 x i8]*, i64 }]*), i64 1, [0 x { i8*, i64* }]* nonnull align 8 %_138.0, i64 1), !dbg !1847
  br label %bb32, !dbg !1847

bb32:                                             ; preds = %bb31
; call core::fmt::Formatter::write_fmt
  %41 = call zeroext i1 @_ZN4core3fmt9Formatter9write_fmt17h332d1ec80fba6575E(%"std::fmt::Formatter"* align 8 dereferenceable(64) %fmt, %"std::fmt::Arguments"* noalias nocapture dereferenceable(48) %_124), !dbg !1845
  %42 = zext i1 %41 to i8, !dbg !1845
  store i8 %42, i8* %0, align 1, !dbg !1845
  br label %bb35, !dbg !1845

bb34:                                             ; preds = %bb33
; call core::fmt::Formatter::write_fmt
  %43 = call zeroext i1 @_ZN4core3fmt9Formatter9write_fmt17h332d1ec80fba6575E(%"std::fmt::Formatter"* align 8 dereferenceable(64) %fmt, %"std::fmt::Arguments"* noalias nocapture dereferenceable(48) %_141), !dbg !1834
  %44 = zext i1 %43 to i8, !dbg !1834
  store i8 %44, i8* %0, align 1, !dbg !1834
  br label %bb35, !dbg !1834

bb21:                                             ; preds = %bb20
  %45 = bitcast { i64*, i64* }* %_87 to { [0 x i8]*, i64 }**, !dbg !1848
  store { [0 x i8]*, i64 }* %_89, { [0 x i8]*, i64 }** %45, align 8, !dbg !1848
  %46 = getelementptr inbounds { i64*, i64* }, { i64*, i64* }* %_87, i32 0, i32 1, !dbg !1848
  store i64* %tag, i64** %46, align 8, !dbg !1848
  %47 = bitcast { i64*, i64* }* %_87 to { [0 x i8]*, i64 }**, !dbg !1848
  %arg05 = load { [0 x i8]*, i64 }*, { [0 x i8]*, i64 }** %47, align 8, !dbg !1848, !nonnull !13
  store { [0 x i8]*, i64 }* %arg05, { [0 x i8]*, i64 }** %arg0.dbg.spill6, align 8, !dbg !1848
  call void @llvm.dbg.declare(metadata { [0 x i8]*, i64 }** %arg0.dbg.spill6, metadata !1788, metadata !DIExpression()), !dbg !1849
  %48 = getelementptr inbounds { i64*, i64* }, { i64*, i64* }* %_87, i32 0, i32 1, !dbg !1848
  %arg1 = load i64*, i64** %48, align 8, !dbg !1848, !nonnull !13
  store i64* %arg1, i64** %arg1.dbg.spill, align 8, !dbg !1848
  call void @llvm.dbg.declare(metadata i64** %arg1.dbg.spill, metadata !1791, metadata !DIExpression()), !dbg !1849
; call core::fmt::ArgumentV1::new
  %49 = call { i8*, i64* } @_ZN4core3fmt10ArgumentV13new17h73fcebaed8b24a27E({ [0 x i8]*, i64 }* align 8 dereferenceable(16) %arg05, i1 ({ [0 x i8]*, i64 }*, %"std::fmt::Formatter"*)* nonnull @"_ZN44_$LT$$RF$T$u20$as$u20$core..fmt..Display$GT$3fmt17ha39ac99e964386f9E"), !dbg !1849
  %_94.0 = extractvalue { i8*, i64* } %49, 0, !dbg !1849
  %_94.1 = extractvalue { i8*, i64* } %49, 1, !dbg !1849
  br label %bb22, !dbg !1849

bb22:                                             ; preds = %bb21
; call core::fmt::ArgumentV1::new
  %50 = call { i8*, i64* } @_ZN4core3fmt10ArgumentV13new17hc253a5c9f2b9be9aE(i64* align 8 dereferenceable(8) %arg1, i1 (i64*, %"std::fmt::Formatter"*)* nonnull @"_ZN4core3fmt3num3imp54_$LT$impl$u20$core..fmt..Display$u20$for$u20$usize$GT$3fmt17hcb6674a6899bd26aE"), !dbg !1849
  %_97.0 = extractvalue { i8*, i64* } %50, 0, !dbg !1849
  %_97.1 = extractvalue { i8*, i64* } %50, 1, !dbg !1849
  br label %bb23, !dbg !1849

bb23:                                             ; preds = %bb22
  %51 = bitcast [2 x { i8*, i64* }]* %_86 to { i8*, i64* }*, !dbg !1849
  %52 = getelementptr inbounds { i8*, i64* }, { i8*, i64* }* %51, i32 0, i32 0, !dbg !1849
  store i8* %_94.0, i8** %52, align 8, !dbg !1849
  %53 = getelementptr inbounds { i8*, i64* }, { i8*, i64* }* %51, i32 0, i32 1, !dbg !1849
  store i64* %_94.1, i64** %53, align 8, !dbg !1849
  %54 = getelementptr inbounds [2 x { i8*, i64* }], [2 x { i8*, i64* }]* %_86, i32 0, i32 1, !dbg !1849
  %55 = getelementptr inbounds { i8*, i64* }, { i8*, i64* }* %54, i32 0, i32 0, !dbg !1849
  store i8* %_97.0, i8** %55, align 8, !dbg !1849
  %56 = getelementptr inbounds { i8*, i64* }, { i8*, i64* }* %54, i32 0, i32 1, !dbg !1849
  store i64* %_97.1, i64** %56, align 8, !dbg !1849
  store [2 x { i8*, i64* }]* %_86, [2 x { i8*, i64* }]** %args.dbg.spill7, align 8, !dbg !1848
  call void @llvm.dbg.declare(metadata [2 x { i8*, i64* }]** %args.dbg.spill7, metadata !1792, metadata !DIExpression()), !dbg !1850
  %_104.0 = bitcast [2 x { i8*, i64* }]* %_86 to [0 x { i8*, i64* }]*, !dbg !1850
; call core::fmt::Arguments::new_v1
  call void @_ZN4core3fmt9Arguments6new_v117hfa8576bb236f1c44E(%"std::fmt::Arguments"* noalias nocapture sret(%"std::fmt::Arguments") dereferenceable(48) %_85, [0 x { [0 x i8]*, i64 }]* nonnull align 8 bitcast (<{ i8*, [8 x i8], i8*, [8 x i8] }>* @alloc698 to [0 x { [0 x i8]*, i64 }]*), i64 2, [0 x { i8*, i64* }]* nonnull align 8 %_104.0, i64 2), !dbg !1850
  br label %bb24, !dbg !1850

bb24:                                             ; preds = %bb23
; call core::fmt::Formatter::write_fmt
  %57 = call zeroext i1 @_ZN4core3fmt9Formatter9write_fmt17h332d1ec80fba6575E(%"std::fmt::Formatter"* align 8 dereferenceable(64) %fmt, %"std::fmt::Arguments"* noalias nocapture dereferenceable(48) %_85), !dbg !1848
  %58 = zext i1 %57 to i8, !dbg !1848
  store i8 %58, i8* %0, align 1, !dbg !1848
  br label %bb35, !dbg !1848

bb17:                                             ; preds = %bb16
  %59 = bitcast i64** %_69 to { [0 x i8]*, i64 }**, !dbg !1851
  store { [0 x i8]*, i64 }* %_71, { [0 x i8]*, i64 }** %59, align 8, !dbg !1851
  %60 = bitcast i64** %_69 to { [0 x i8]*, i64 }**, !dbg !1851
  %arg08 = load { [0 x i8]*, i64 }*, { [0 x i8]*, i64 }** %60, align 8, !dbg !1851, !nonnull !13
  store { [0 x i8]*, i64 }* %arg08, { [0 x i8]*, i64 }** %arg0.dbg.spill9, align 8, !dbg !1851
  call void @llvm.dbg.declare(metadata { [0 x i8]*, i64 }** %arg0.dbg.spill9, metadata !1780, metadata !DIExpression()), !dbg !1852
; call core::fmt::ArgumentV1::new
  %61 = call { i8*, i64* } @_ZN4core3fmt10ArgumentV13new17h73fcebaed8b24a27E({ [0 x i8]*, i64 }* align 8 dereferenceable(16) %arg08, i1 ({ [0 x i8]*, i64 }*, %"std::fmt::Formatter"*)* nonnull @"_ZN44_$LT$$RF$T$u20$as$u20$core..fmt..Display$GT$3fmt17ha39ac99e964386f9E"), !dbg !1852
  %_74.0 = extractvalue { i8*, i64* } %61, 0, !dbg !1852
  %_74.1 = extractvalue { i8*, i64* } %61, 1, !dbg !1852
  br label %bb18, !dbg !1852

bb18:                                             ; preds = %bb17
  %62 = bitcast [1 x { i8*, i64* }]* %_68 to { i8*, i64* }*, !dbg !1852
  %63 = getelementptr inbounds { i8*, i64* }, { i8*, i64* }* %62, i32 0, i32 0, !dbg !1852
  store i8* %_74.0, i8** %63, align 8, !dbg !1852
  %64 = getelementptr inbounds { i8*, i64* }, { i8*, i64* }* %62, i32 0, i32 1, !dbg !1852
  store i64* %_74.1, i64** %64, align 8, !dbg !1852
  store [1 x { i8*, i64* }]* %_68, [1 x { i8*, i64* }]** %args.dbg.spill10, align 8, !dbg !1851
  call void @llvm.dbg.declare(metadata [1 x { i8*, i64* }]** %args.dbg.spill10, metadata !1783, metadata !DIExpression()), !dbg !1853
  %_81.0 = bitcast [1 x { i8*, i64* }]* %_68 to [0 x { i8*, i64* }]*, !dbg !1853
; call core::fmt::Arguments::new_v1
  call void @_ZN4core3fmt9Arguments6new_v117hfa8576bb236f1c44E(%"std::fmt::Arguments"* noalias nocapture sret(%"std::fmt::Arguments") dereferenceable(48) %_67, [0 x { [0 x i8]*, i64 }]* nonnull align 8 bitcast (<{ i8*, [8 x i8] }>* @alloc692 to [0 x { [0 x i8]*, i64 }]*), i64 1, [0 x { i8*, i64* }]* nonnull align 8 %_81.0, i64 1), !dbg !1853
  br label %bb19, !dbg !1853

bb19:                                             ; preds = %bb18
; call core::fmt::Formatter::write_fmt
  %65 = call zeroext i1 @_ZN4core3fmt9Formatter9write_fmt17h332d1ec80fba6575E(%"std::fmt::Formatter"* align 8 dereferenceable(64) %fmt, %"std::fmt::Arguments"* noalias nocapture dereferenceable(48) %_67), !dbg !1851
  %66 = zext i1 %65 to i8, !dbg !1851
  store i8 %66, i8* %0, align 1, !dbg !1851
  br label %bb35, !dbg !1851

bb12:                                             ; preds = %bb11
  %67 = bitcast { i64*, i8* }* %_47 to { [0 x i8]*, i64 }**, !dbg !1854
  store { [0 x i8]*, i64 }* %_49, { [0 x i8]*, i64 }** %67, align 8, !dbg !1854
  %68 = getelementptr inbounds { i64*, i8* }, { i64*, i8* }* %_47, i32 0, i32 1, !dbg !1854
  store i8* %b, i8** %68, align 8, !dbg !1854
  %69 = bitcast { i64*, i8* }* %_47 to { [0 x i8]*, i64 }**, !dbg !1854
  %arg011 = load { [0 x i8]*, i64 }*, { [0 x i8]*, i64 }** %69, align 8, !dbg !1854, !nonnull !13
  store { [0 x i8]*, i64 }* %arg011, { [0 x i8]*, i64 }** %arg0.dbg.spill12, align 8, !dbg !1854
  call void @llvm.dbg.declare(metadata { [0 x i8]*, i64 }** %arg0.dbg.spill12, metadata !1773, metadata !DIExpression()), !dbg !1855
  %70 = getelementptr inbounds { i64*, i8* }, { i64*, i8* }* %_47, i32 0, i32 1, !dbg !1854
  %arg113 = load i8*, i8** %70, align 8, !dbg !1854, !nonnull !13
  store i8* %arg113, i8** %arg1.dbg.spill14, align 8, !dbg !1854
  call void @llvm.dbg.declare(metadata i8** %arg1.dbg.spill14, metadata !1776, metadata !DIExpression()), !dbg !1855
; call core::fmt::ArgumentV1::new
  %71 = call { i8*, i64* } @_ZN4core3fmt10ArgumentV13new17h73fcebaed8b24a27E({ [0 x i8]*, i64 }* align 8 dereferenceable(16) %arg011, i1 ({ [0 x i8]*, i64 }*, %"std::fmt::Formatter"*)* nonnull @"_ZN44_$LT$$RF$T$u20$as$u20$core..fmt..Display$GT$3fmt17ha39ac99e964386f9E"), !dbg !1855
  %_54.0 = extractvalue { i8*, i64* } %71, 0, !dbg !1855
  %_54.1 = extractvalue { i8*, i64* } %71, 1, !dbg !1855
  br label %bb13, !dbg !1855

bb13:                                             ; preds = %bb12
; call core::fmt::ArgumentV1::new
  %72 = call { i8*, i64* } @_ZN4core3fmt10ArgumentV13new17h875d115e42ed00aaE(i8* align 1 dereferenceable(1) %arg113, i1 (i8*, %"std::fmt::Formatter"*)* nonnull @"_ZN4core3fmt3num3imp51_$LT$impl$u20$core..fmt..Display$u20$for$u20$u8$GT$3fmt17hc42da508ea712cdeE"), !dbg !1855
  %_57.0 = extractvalue { i8*, i64* } %72, 0, !dbg !1855
  %_57.1 = extractvalue { i8*, i64* } %72, 1, !dbg !1855
  br label %bb14, !dbg !1855

bb14:                                             ; preds = %bb13
  %73 = bitcast [2 x { i8*, i64* }]* %_46 to { i8*, i64* }*, !dbg !1855
  %74 = getelementptr inbounds { i8*, i64* }, { i8*, i64* }* %73, i32 0, i32 0, !dbg !1855
  store i8* %_54.0, i8** %74, align 8, !dbg !1855
  %75 = getelementptr inbounds { i8*, i64* }, { i8*, i64* }* %73, i32 0, i32 1, !dbg !1855
  store i64* %_54.1, i64** %75, align 8, !dbg !1855
  %76 = getelementptr inbounds [2 x { i8*, i64* }], [2 x { i8*, i64* }]* %_46, i32 0, i32 1, !dbg !1855
  %77 = getelementptr inbounds { i8*, i64* }, { i8*, i64* }* %76, i32 0, i32 0, !dbg !1855
  store i8* %_57.0, i8** %77, align 8, !dbg !1855
  %78 = getelementptr inbounds { i8*, i64* }, { i8*, i64* }* %76, i32 0, i32 1, !dbg !1855
  store i64* %_57.1, i64** %78, align 8, !dbg !1855
  store [2 x { i8*, i64* }]* %_46, [2 x { i8*, i64* }]** %args.dbg.spill15, align 8, !dbg !1854
  call void @llvm.dbg.declare(metadata [2 x { i8*, i64* }]** %args.dbg.spill15, metadata !1777, metadata !DIExpression()), !dbg !1856
  %_64.0 = bitcast [2 x { i8*, i64* }]* %_46 to [0 x { i8*, i64* }]*, !dbg !1856
; call core::fmt::Arguments::new_v1
  call void @_ZN4core3fmt9Arguments6new_v117hfa8576bb236f1c44E(%"std::fmt::Arguments"* noalias nocapture sret(%"std::fmt::Arguments") dereferenceable(48) %_45, [0 x { [0 x i8]*, i64 }]* nonnull align 8 bitcast (<{ i8*, [8 x i8], i8*, [8 x i8] }>* @alloc686 to [0 x { [0 x i8]*, i64 }]*), i64 2, [0 x { i8*, i64* }]* nonnull align 8 %_64.0, i64 2), !dbg !1856
  br label %bb15, !dbg !1856

bb15:                                             ; preds = %bb14
; call core::fmt::Formatter::write_fmt
  %79 = call zeroext i1 @_ZN4core3fmt9Formatter9write_fmt17h332d1ec80fba6575E(%"std::fmt::Formatter"* align 8 dereferenceable(64) %fmt, %"std::fmt::Arguments"* noalias nocapture dereferenceable(48) %_45), !dbg !1854
  %80 = zext i1 %79 to i8, !dbg !1854
  store i8 %80, i8* %0, align 1, !dbg !1854
  br label %bb35, !dbg !1854

bb7:                                              ; preds = %bb6
  %81 = bitcast { i64*, i64* }* %_24 to { [0 x i8]*, i64 }**, !dbg !1857
  store { [0 x i8]*, i64 }* %_26, { [0 x i8]*, i64 }** %81, align 8, !dbg !1857
  %82 = getelementptr inbounds { i64*, i64* }, { i64*, i64* }* %_24, i32 0, i32 1, !dbg !1857
  %83 = bitcast i64** %82 to %"std::str::Utf8Error"***, !dbg !1857
  store %"std::str::Utf8Error"** %e, %"std::str::Utf8Error"*** %83, align 8, !dbg !1857
  %84 = bitcast { i64*, i64* }* %_24 to { [0 x i8]*, i64 }**, !dbg !1857
  %arg016 = load { [0 x i8]*, i64 }*, { [0 x i8]*, i64 }** %84, align 8, !dbg !1857, !nonnull !13
  store { [0 x i8]*, i64 }* %arg016, { [0 x i8]*, i64 }** %arg0.dbg.spill17, align 8, !dbg !1857
  call void @llvm.dbg.declare(metadata { [0 x i8]*, i64 }** %arg0.dbg.spill17, metadata !1764, metadata !DIExpression()), !dbg !1858
  %85 = getelementptr inbounds { i64*, i64* }, { i64*, i64* }* %_24, i32 0, i32 1, !dbg !1857
  %86 = bitcast i64** %85 to %"std::str::Utf8Error"***, !dbg !1857
  %arg118 = load %"std::str::Utf8Error"**, %"std::str::Utf8Error"*** %86, align 8, !dbg !1857, !nonnull !13
  store %"std::str::Utf8Error"** %arg118, %"std::str::Utf8Error"*** %arg1.dbg.spill19, align 8, !dbg !1857
  call void @llvm.dbg.declare(metadata %"std::str::Utf8Error"*** %arg1.dbg.spill19, metadata !1767, metadata !DIExpression()), !dbg !1858
; call core::fmt::ArgumentV1::new
  %87 = call { i8*, i64* } @_ZN4core3fmt10ArgumentV13new17h73fcebaed8b24a27E({ [0 x i8]*, i64 }* align 8 dereferenceable(16) %arg016, i1 ({ [0 x i8]*, i64 }*, %"std::fmt::Formatter"*)* nonnull @"_ZN44_$LT$$RF$T$u20$as$u20$core..fmt..Display$GT$3fmt17ha39ac99e964386f9E"), !dbg !1858
  %_31.0 = extractvalue { i8*, i64* } %87, 0, !dbg !1858
  %_31.1 = extractvalue { i8*, i64* } %87, 1, !dbg !1858
  br label %bb8, !dbg !1858

bb8:                                              ; preds = %bb7
; call core::fmt::ArgumentV1::new
  %88 = call { i8*, i64* } @_ZN4core3fmt10ArgumentV13new17h946d8ee7ced1454fE(%"std::str::Utf8Error"** align 8 dereferenceable(8) %arg118, i1 (%"std::str::Utf8Error"**, %"std::fmt::Formatter"*)* nonnull @"_ZN44_$LT$$RF$T$u20$as$u20$core..fmt..Display$GT$3fmt17h5b3ba0f3642f3780E"), !dbg !1858
  %_34.0 = extractvalue { i8*, i64* } %88, 0, !dbg !1858
  %_34.1 = extractvalue { i8*, i64* } %88, 1, !dbg !1858
  br label %bb9, !dbg !1858

bb9:                                              ; preds = %bb8
  %89 = bitcast [2 x { i8*, i64* }]* %_23 to { i8*, i64* }*, !dbg !1858
  %90 = getelementptr inbounds { i8*, i64* }, { i8*, i64* }* %89, i32 0, i32 0, !dbg !1858
  store i8* %_31.0, i8** %90, align 8, !dbg !1858
  %91 = getelementptr inbounds { i8*, i64* }, { i8*, i64* }* %89, i32 0, i32 1, !dbg !1858
  store i64* %_31.1, i64** %91, align 8, !dbg !1858
  %92 = getelementptr inbounds [2 x { i8*, i64* }], [2 x { i8*, i64* }]* %_23, i32 0, i32 1, !dbg !1858
  %93 = getelementptr inbounds { i8*, i64* }, { i8*, i64* }* %92, i32 0, i32 0, !dbg !1858
  store i8* %_34.0, i8** %93, align 8, !dbg !1858
  %94 = getelementptr inbounds { i8*, i64* }, { i8*, i64* }* %92, i32 0, i32 1, !dbg !1858
  store i64* %_34.1, i64** %94, align 8, !dbg !1858
  store [2 x { i8*, i64* }]* %_23, [2 x { i8*, i64* }]** %args.dbg.spill20, align 8, !dbg !1857
  call void @llvm.dbg.declare(metadata [2 x { i8*, i64* }]** %args.dbg.spill20, metadata !1768, metadata !DIExpression()), !dbg !1859
  %_41.0 = bitcast [2 x { i8*, i64* }]* %_23 to [0 x { i8*, i64* }]*, !dbg !1859
; call core::fmt::Arguments::new_v1
  call void @_ZN4core3fmt9Arguments6new_v117hfa8576bb236f1c44E(%"std::fmt::Arguments"* noalias nocapture sret(%"std::fmt::Arguments") dereferenceable(48) %_22, [0 x { [0 x i8]*, i64 }]* nonnull align 8 bitcast (<{ i8*, [8 x i8], i8*, [8 x i8] }>* @alloc678 to [0 x { [0 x i8]*, i64 }]*), i64 2, [0 x { i8*, i64* }]* nonnull align 8 %_41.0, i64 2), !dbg !1859
  br label %bb10, !dbg !1859

bb10:                                             ; preds = %bb9
; call core::fmt::Formatter::write_fmt
  %95 = call zeroext i1 @_ZN4core3fmt9Formatter9write_fmt17h332d1ec80fba6575E(%"std::fmt::Formatter"* align 8 dereferenceable(64) %fmt, %"std::fmt::Arguments"* noalias nocapture dereferenceable(48) %_22), !dbg !1857
  %96 = zext i1 %95 to i8, !dbg !1857
  store i8 %96, i8* %0, align 1, !dbg !1857
  br label %bb35, !dbg !1857

bb4:                                              ; preds = %bb3
  %97 = bitcast [1 x { i8*, i64* }]* %_7 to { i8*, i64* }*, !dbg !1826
  %98 = getelementptr inbounds { i8*, i64* }, { i8*, i64* }* %97, i32 0, i32 0, !dbg !1826
  store i8* %_11.0, i8** %98, align 8, !dbg !1826
  %99 = getelementptr inbounds { i8*, i64* }, { i8*, i64* }* %97, i32 0, i32 1, !dbg !1826
  store i64* %_11.1, i64** %99, align 8, !dbg !1826
  store [1 x { i8*, i64* }]* %_7, [1 x { i8*, i64* }]** %args.dbg.spill23, align 8, !dbg !1825
  call void @llvm.dbg.declare(metadata [1 x { i8*, i64* }]** %args.dbg.spill23, metadata !1759, metadata !DIExpression()), !dbg !1860
  %_18.0 = bitcast [1 x { i8*, i64* }]* %_7 to [0 x { i8*, i64* }]*, !dbg !1860
; call core::fmt::Arguments::new_v1
  call void @_ZN4core3fmt9Arguments6new_v117hfa8576bb236f1c44E(%"std::fmt::Arguments"* noalias nocapture sret(%"std::fmt::Arguments") dereferenceable(48) %_6, [0 x { [0 x i8]*, i64 }]* nonnull align 8 bitcast (<{ i8*, [8 x i8] }>* @alloc671 to [0 x { [0 x i8]*, i64 }]*), i64 1, [0 x { i8*, i64* }]* nonnull align 8 %_18.0, i64 1), !dbg !1860
  br label %bb5, !dbg !1860

bb5:                                              ; preds = %bb4
; call core::fmt::Formatter::write_fmt
  %100 = call zeroext i1 @_ZN4core3fmt9Formatter9write_fmt17h332d1ec80fba6575E(%"std::fmt::Formatter"* align 8 dereferenceable(64) %fmt, %"std::fmt::Arguments"* noalias nocapture dereferenceable(48) %_6), !dbg !1825
  %101 = zext i1 %100 to i8, !dbg !1825
  store i8 %101, i8* %0, align 1, !dbg !1825
  br label %bb35, !dbg !1825
}

; bincode::ser::encode_utf8
; Function Attrs: nounwind
define i128 @_ZN7bincode3ser11encode_utf817ha5e43b29895ddc81E(i32 %c) unnamed_addr #1 !dbg !1861 {
start:
  %code.dbg.spill = alloca i32, align 4
  %c.dbg.spill = alloca i32, align 4
  %_62 = alloca [4 x i8], align 1
  %pos = alloca i64, align 8
  %buf = alloca [4 x i8], align 1
  %0 = alloca %"ser::EncodeUtf8", align 8
  store i32 %c, i32* %c.dbg.spill, align 4
  call void @llvm.dbg.declare(metadata i32* %c.dbg.spill, metadata !1874, metadata !DIExpression()), !dbg !1881
  call void @llvm.dbg.declare(metadata [4 x i8]* %buf, metadata !1877, metadata !DIExpression()), !dbg !1882
  call void @llvm.dbg.declare(metadata i64* %pos, metadata !1879, metadata !DIExpression()), !dbg !1883
  %1 = icmp ule i32 %c, 1114111, !dbg !1884
  call void @llvm.assume(i1 %1), !dbg !1884
  store i32 %c, i32* %code.dbg.spill, align 4, !dbg !1884
  call void @llvm.dbg.declare(metadata i32* %code.dbg.spill, metadata !1875, metadata !DIExpression()), !dbg !1885
  %2 = getelementptr inbounds [4 x i8], [4 x i8]* %buf, i64 0, i64 0, !dbg !1886
  call void @llvm.memset.p0i8.i64(i8* align 1 %2, i8 0, i64 4, i1 false), !dbg !1886
  %_6 = icmp ult i32 %c, 128, !dbg !1887
  br i1 %_6, label %bb1, label %bb2, !dbg !1887

bb2:                                              ; preds = %start
  %_10 = icmp ult i32 %c, 2048, !dbg !1888
  br i1 %_10, label %bb3, label %bb5, !dbg !1888

bb1:                                              ; preds = %start
  %3 = getelementptr inbounds [4 x i8], [4 x i8]* %buf, i64 0, i64 3, !dbg !1889
  %4 = trunc i32 %c to i8, !dbg !1889
  store i8 %4, i8* %3, align 1, !dbg !1889
  store i64 3, i64* %pos, align 8, !dbg !1890
  br label %bb13, !dbg !1891

bb13:                                             ; preds = %bb12, %bb8, %bb4, %bb1
  %5 = bitcast [4 x i8]* %_62 to i8*, !dbg !1892
  %6 = bitcast [4 x i8]* %buf to i8*, !dbg !1892
  call void @llvm.memcpy.p0i8.p0i8.i64(i8* align 1 %5, i8* align 1 %6, i64 4, i1 false), !dbg !1892
  %_63 = load i64, i64* %pos, align 8, !dbg !1893
  %7 = getelementptr inbounds %"ser::EncodeUtf8", %"ser::EncodeUtf8"* %0, i32 0, i32 1, !dbg !1894
  %8 = bitcast [4 x i8]* %7 to i8*, !dbg !1894
  %9 = bitcast [4 x i8]* %_62 to i8*, !dbg !1894
  call void @llvm.memcpy.p0i8.p0i8.i64(i8* align 8 %8, i8* align 1 %9, i64 4, i1 false), !dbg !1894
  %10 = bitcast %"ser::EncodeUtf8"* %0 to i64*, !dbg !1894
  store i64 %_63, i64* %10, align 8, !dbg !1894
  %11 = bitcast %"ser::EncodeUtf8"* %0 to i128*, !dbg !1895
  %12 = load i128, i128* %11, align 8, !dbg !1895
  ret i128 %12, !dbg !1895

bb5:                                              ; preds = %bb2
  %_22 = icmp ult i32 %c, 65536, !dbg !1896
  br i1 %_22, label %bb6, label %bb9, !dbg !1896

bb3:                                              ; preds = %bb2
  %_16.0 = lshr i32 %c, 6, !dbg !1897
  br label %bb4, !dbg !1897

bb4:                                              ; preds = %bb3
  %_13 = and i32 %_16.0, 31, !dbg !1898
  %_12 = trunc i32 %_13 to i8, !dbg !1898
  %13 = getelementptr inbounds [4 x i8], [4 x i8]* %buf, i64 0, i64 2, !dbg !1899
  %14 = or i8 %_12, -64, !dbg !1899
  store i8 %14, i8* %13, align 1, !dbg !1899
  %_19 = and i32 %c, 63, !dbg !1900
  %_18 = trunc i32 %_19 to i8, !dbg !1900
  %15 = getelementptr inbounds [4 x i8], [4 x i8]* %buf, i64 0, i64 3, !dbg !1901
  %16 = or i8 %_18, -128, !dbg !1901
  store i8 %16, i8* %15, align 1, !dbg !1901
  store i64 2, i64* %pos, align 8, !dbg !1902
  br label %bb13, !dbg !1903

bb9:                                              ; preds = %bb5
  %_44.0 = lshr i32 %c, 18, !dbg !1904
  br label %bb10, !dbg !1904

bb6:                                              ; preds = %bb5
  %_28.0 = lshr i32 %c, 12, !dbg !1905
  br label %bb7, !dbg !1905

bb7:                                              ; preds = %bb6
  %_25 = and i32 %_28.0, 15, !dbg !1906
  %_24 = trunc i32 %_25 to i8, !dbg !1906
  %17 = getelementptr inbounds [4 x i8], [4 x i8]* %buf, i64 0, i64 1, !dbg !1907
  %18 = or i8 %_24, -32, !dbg !1907
  store i8 %18, i8* %17, align 1, !dbg !1907
  %_34.0 = lshr i32 %c, 6, !dbg !1908
  br label %bb8, !dbg !1908

bb8:                                              ; preds = %bb7
  %_31 = and i32 %_34.0, 63, !dbg !1909
  %_30 = trunc i32 %_31 to i8, !dbg !1909
  %19 = getelementptr inbounds [4 x i8], [4 x i8]* %buf, i64 0, i64 2, !dbg !1910
  %20 = or i8 %_30, -128, !dbg !1910
  store i8 %20, i8* %19, align 1, !dbg !1910
  %_37 = and i32 %c, 63, !dbg !1911
  %_36 = trunc i32 %_37 to i8, !dbg !1911
  %21 = getelementptr inbounds [4 x i8], [4 x i8]* %buf, i64 0, i64 3, !dbg !1912
  %22 = or i8 %_36, -128, !dbg !1912
  store i8 %22, i8* %21, align 1, !dbg !1912
  store i64 1, i64* %pos, align 8, !dbg !1913
  br label %bb13, !dbg !1914

bb10:                                             ; preds = %bb9
  %_41 = and i32 %_44.0, 7, !dbg !1915
  %_40 = trunc i32 %_41 to i8, !dbg !1915
  %23 = getelementptr inbounds [4 x i8], [4 x i8]* %buf, i64 0, i64 0, !dbg !1916
  %24 = or i8 %_40, -16, !dbg !1916
  store i8 %24, i8* %23, align 1, !dbg !1916
  %_50.0 = lshr i32 %c, 12, !dbg !1917
  br label %bb11, !dbg !1917

bb11:                                             ; preds = %bb10
  %_47 = and i32 %_50.0, 63, !dbg !1918
  %_46 = trunc i32 %_47 to i8, !dbg !1918
  %25 = getelementptr inbounds [4 x i8], [4 x i8]* %buf, i64 0, i64 1, !dbg !1919
  %26 = or i8 %_46, -128, !dbg !1919
  store i8 %26, i8* %25, align 1, !dbg !1919
  %_56.0 = lshr i32 %c, 6, !dbg !1920
  br label %bb12, !dbg !1920

bb12:                                             ; preds = %bb11
  %_53 = and i32 %_56.0, 63, !dbg !1921
  %_52 = trunc i32 %_53 to i8, !dbg !1921
  %27 = getelementptr inbounds [4 x i8], [4 x i8]* %buf, i64 0, i64 2, !dbg !1922
  %28 = or i8 %_52, -128, !dbg !1922
  store i8 %28, i8* %27, align 1, !dbg !1922
  %_59 = and i32 %c, 63, !dbg !1923
  %_58 = trunc i32 %_59 to i8, !dbg !1923
  %29 = getelementptr inbounds [4 x i8], [4 x i8]* %buf, i64 0, i64 3, !dbg !1924
  %30 = or i8 %_58, -128, !dbg !1924
  store i8 %30, i8* %29, align 1, !dbg !1924
  store i64 0, i64* %pos, align 8, !dbg !1925
  br label %bb13, !dbg !1914
}

; bincode::ser::EncodeUtf8::as_slice
; Function Attrs: nounwind
define { [0 x i8]*, i64 } @_ZN7bincode3ser10EncodeUtf88as_slice17h8712ea841cd7a11eE(%"ser::EncodeUtf8"* align 8 dereferenceable(16) %self) unnamed_addr #1 !dbg !1926 {
start:
  %self.dbg.spill = alloca %"ser::EncodeUtf8"*, align 8
  %_4 = alloca i64, align 8
  store %"ser::EncodeUtf8"* %self, %"ser::EncodeUtf8"** %self.dbg.spill, align 8
  call void @llvm.dbg.declare(metadata %"ser::EncodeUtf8"** %self.dbg.spill, metadata !1931, metadata !DIExpression()), !dbg !1932
  %_3 = getelementptr inbounds %"ser::EncodeUtf8", %"ser::EncodeUtf8"* %self, i32 0, i32 1, !dbg !1933
  %0 = bitcast %"ser::EncodeUtf8"* %self to i64*, !dbg !1934
  %_5 = load i64, i64* %0, align 8, !dbg !1934
  store i64 %_5, i64* %_4, align 8, !dbg !1934
  %1 = load i64, i64* %_4, align 8, !dbg !1933
; call core::array::<impl core::ops::index::Index<I> for [T; N]>::index
  %2 = call { [0 x i8]*, i64 } @"_ZN4core5array85_$LT$impl$u20$core..ops..index..Index$LT$I$GT$$u20$for$u20$$u5b$T$u3b$$u20$N$u5d$$GT$5index17hc57a331ad590f31bE"([4 x i8]* align 1 dereferenceable(4) %_3, i64 %1, %"std::panic::Location"* align 8 dereferenceable(24) bitcast (<{ i8*, [16 x i8] }>* @alloc803 to %"std::panic::Location"*)), !dbg !1933
  %_2.0 = extractvalue { [0 x i8]*, i64 } %2, 0, !dbg !1933
  %_2.1 = extractvalue { [0 x i8]*, i64 } %2, 1, !dbg !1933
  br label %bb1, !dbg !1933

bb1:                                              ; preds = %start
  %3 = insertvalue { [0 x i8]*, i64 } undef, [0 x i8]* %_2.0, 0, !dbg !1935
  %4 = insertvalue { [0 x i8]*, i64 } %3, i64 %_2.1, 1, !dbg !1935
  ret { [0 x i8]*, i64 } %4, !dbg !1935
}

; bincode::config::int::VarintEncoding::varint128_size
; Function Attrs: nounwind
define i64 @_ZN7bincode6config3int14VarintEncoding14varint128_size17hb52c0080493b1af1E(i128 %n) unnamed_addr #1 !dbg !1936 {
start:
  %n.dbg.spill = alloca i128, align 8
  %0 = alloca i64, align 8
  store i128 %n, i128* %n.dbg.spill, align 8
  call void @llvm.dbg.declare(metadata i128* %n.dbg.spill, metadata !1941, metadata !DIExpression()), !dbg !1942
  %_2 = icmp ule i128 %n, 250, !dbg !1943
  br i1 %_2, label %bb1, label %bb2, !dbg !1943

bb2:                                              ; preds = %start
  br label %bb3, !dbg !1944

bb1:                                              ; preds = %start
  store i64 1, i64* %0, align 8, !dbg !1945
  br label %bb20, !dbg !1946

bb20:                                             ; preds = %bb19, %bb16, %bb11, %bb6, %bb1
  %1 = load i64, i64* %0, align 8, !dbg !1947
  ret i64 %1, !dbg !1947

bb3:                                              ; preds = %bb2
  %_7 = zext i16 -1 to i128, !dbg !1944
  %_5 = icmp ule i128 %n, %_7, !dbg !1948
  br i1 %_5, label %bb4, label %bb7, !dbg !1948

bb7:                                              ; preds = %bb3
  br label %bb8, !dbg !1949

bb4:                                              ; preds = %bb3
  br label %bb5, !dbg !1950

bb5:                                              ; preds = %bb4
  %2 = call { i64, i1 } @llvm.uadd.with.overflow.i64(i64 1, i64 2), !dbg !1951
  %_11.0 = extractvalue { i64, i1 } %2, 0, !dbg !1951
  %_11.1 = extractvalue { i64, i1 } %2, 1, !dbg !1951
  %3 = call i1 @llvm.expect.i1(i1 %_11.1, i1 false), !dbg !1951
  br i1 %3, label %panic, label %bb6, !dbg !1951

bb6:                                              ; preds = %bb5
  store i64 %_11.0, i64* %0, align 8, !dbg !1951
  br label %bb20, !dbg !1952

panic:                                            ; preds = %bb5
; call core::panicking::panic
  call void @_ZN4core9panicking5panic17h560e3e4b7752857aE([0 x i8]* nonnull align 1 bitcast ([28 x i8]* @str.0 to [0 x i8]*), i64 28, %"std::panic::Location"* align 8 dereferenceable(24) bitcast (<{ i8*, [16 x i8] }>* @alloc805 to %"std::panic::Location"*)), !dbg !1951
  unreachable, !dbg !1951

bb8:                                              ; preds = %bb7
  %_14 = zext i32 -1 to i128, !dbg !1949
  %_12 = icmp ule i128 %n, %_14, !dbg !1953
  br i1 %_12, label %bb9, label %bb12, !dbg !1953

bb12:                                             ; preds = %bb8
  br label %bb13, !dbg !1954

bb9:                                              ; preds = %bb8
  br label %bb10, !dbg !1955

bb10:                                             ; preds = %bb9
  %4 = call { i64, i1 } @llvm.uadd.with.overflow.i64(i64 1, i64 4), !dbg !1956
  %_18.0 = extractvalue { i64, i1 } %4, 0, !dbg !1956
  %_18.1 = extractvalue { i64, i1 } %4, 1, !dbg !1956
  %5 = call i1 @llvm.expect.i1(i1 %_18.1, i1 false), !dbg !1956
  br i1 %5, label %panic1, label %bb11, !dbg !1956

bb11:                                             ; preds = %bb10
  store i64 %_18.0, i64* %0, align 8, !dbg !1956
  br label %bb20, !dbg !1957

panic1:                                           ; preds = %bb10
; call core::panicking::panic
  call void @_ZN4core9panicking5panic17h560e3e4b7752857aE([0 x i8]* nonnull align 1 bitcast ([28 x i8]* @str.0 to [0 x i8]*), i64 28, %"std::panic::Location"* align 8 dereferenceable(24) bitcast (<{ i8*, [16 x i8] }>* @alloc807 to %"std::panic::Location"*)), !dbg !1956
  unreachable, !dbg !1956

bb13:                                             ; preds = %bb12
  %_21 = zext i64 -1 to i128, !dbg !1954
  %_19 = icmp ule i128 %n, %_21, !dbg !1958
  br i1 %_19, label %bb14, label %bb17, !dbg !1958

bb17:                                             ; preds = %bb13
  br label %bb18, !dbg !1959

bb14:                                             ; preds = %bb13
  br label %bb15, !dbg !1960

bb15:                                             ; preds = %bb14
  %6 = call { i64, i1 } @llvm.uadd.with.overflow.i64(i64 1, i64 8), !dbg !1961
  %_25.0 = extractvalue { i64, i1 } %6, 0, !dbg !1961
  %_25.1 = extractvalue { i64, i1 } %6, 1, !dbg !1961
  %7 = call i1 @llvm.expect.i1(i1 %_25.1, i1 false), !dbg !1961
  br i1 %7, label %panic2, label %bb16, !dbg !1961

bb16:                                             ; preds = %bb15
  store i64 %_25.0, i64* %0, align 8, !dbg !1961
  br label %bb20, !dbg !1962

panic2:                                           ; preds = %bb15
; call core::panicking::panic
  call void @_ZN4core9panicking5panic17h560e3e4b7752857aE([0 x i8]* nonnull align 1 bitcast ([28 x i8]* @str.0 to [0 x i8]*), i64 28, %"std::panic::Location"* align 8 dereferenceable(24) bitcast (<{ i8*, [16 x i8] }>* @alloc809 to %"std::panic::Location"*)), !dbg !1961
  unreachable, !dbg !1961

bb18:                                             ; preds = %bb17
  %8 = call { i64, i1 } @llvm.uadd.with.overflow.i64(i64 1, i64 16), !dbg !1963
  %_28.0 = extractvalue { i64, i1 } %8, 0, !dbg !1963
  %_28.1 = extractvalue { i64, i1 } %8, 1, !dbg !1963
  %9 = call i1 @llvm.expect.i1(i1 %_28.1, i1 false), !dbg !1963
  br i1 %9, label %panic3, label %bb19, !dbg !1963

bb19:                                             ; preds = %bb18
  store i64 %_28.0, i64* %0, align 8, !dbg !1963
  br label %bb20, !dbg !1962

panic3:                                           ; preds = %bb18
; call core::panicking::panic
  call void @_ZN4core9panicking5panic17h560e3e4b7752857aE([0 x i8]* nonnull align 1 bitcast ([28 x i8]* @str.0 to [0 x i8]*), i64 28, %"std::panic::Location"* align 8 dereferenceable(24) bitcast (<{ i8*, [16 x i8] }>* @alloc811 to %"std::panic::Location"*)), !dbg !1963
  unreachable, !dbg !1963
}

; <bincode::config::legacy::Config as core::fmt::Debug>::fmt
; Function Attrs: nounwind
define zeroext i1 @"_ZN68_$LT$bincode..config..legacy..Config$u20$as$u20$core..fmt..Debug$GT$3fmt17hd518b66d4ba3198bE"(%"config::legacy::Config"* align 8 dereferenceable(24) %self, %"std::fmt::Formatter"* align 8 dereferenceable(64) %f) unnamed_addr #1 !dbg !1964 {
start:
  %debug_trait_builder.dbg.spill = alloca %"std::fmt::DebugStruct"*, align 8
  %0 = alloca i128, align 8
  %__self_0_1.dbg.spill = alloca i8*, align 8
  %__self_0_0.dbg.spill = alloca { i64, i64 }*, align 8
  %f.dbg.spill = alloca %"std::fmt::Formatter"*, align 8
  %self.dbg.spill = alloca %"config::legacy::Config"*, align 8
  %_25 = alloca i8*, align 8
  %_17 = alloca { i64, i64 }*, align 8
  %_6 = alloca %"std::fmt::DebugStruct", align 8
  store %"config::legacy::Config"* %self, %"config::legacy::Config"** %self.dbg.spill, align 8
  call void @llvm.dbg.declare(metadata %"config::legacy::Config"** %self.dbg.spill, metadata !1975, metadata !DIExpression()), !dbg !1991
  store %"std::fmt::Formatter"* %f, %"std::fmt::Formatter"** %f.dbg.spill, align 8
  call void @llvm.dbg.declare(metadata %"std::fmt::Formatter"** %f.dbg.spill, metadata !1976, metadata !DIExpression()), !dbg !1991
  %__self_0_0 = bitcast %"config::legacy::Config"* %self to { i64, i64 }*, !dbg !1992
  store { i64, i64 }* %__self_0_0, { i64, i64 }** %__self_0_0.dbg.spill, align 8, !dbg !1992
  call void @llvm.dbg.declare(metadata { i64, i64 }** %__self_0_0.dbg.spill, metadata !1977, metadata !DIExpression()), !dbg !1993
  %__self_0_1 = getelementptr inbounds %"config::legacy::Config", %"config::legacy::Config"* %self, i32 0, i32 1, !dbg !1994
  store i8* %__self_0_1, i8** %__self_0_1.dbg.spill, align 8, !dbg !1994
  call void @llvm.dbg.declare(metadata i8** %__self_0_1.dbg.spill, metadata !1979, metadata !DIExpression()), !dbg !1995
; call core::fmt::Formatter::debug_struct
  %1 = call i128 @_ZN4core3fmt9Formatter12debug_struct17h750ccbc2327a1bf8E(%"std::fmt::Formatter"* align 8 dereferenceable(64) %f, [0 x i8]* nonnull align 1 bitcast (<{ [6 x i8] }>* @alloc812 to [0 x i8]*), i64 6), !dbg !1996
  store i128 %1, i128* %0, align 8, !dbg !1996
  %2 = bitcast %"std::fmt::DebugStruct"* %_6 to i8*, !dbg !1996
  %3 = bitcast i128* %0 to i8*, !dbg !1996
  call void @llvm.memcpy.p0i8.p0i8.i64(i8* align 8 %2, i8* align 8 %3, i64 16, i1 false), !dbg !1996
  br label %bb1, !dbg !1996

bb1:                                              ; preds = %start
  store %"std::fmt::DebugStruct"* %_6, %"std::fmt::DebugStruct"** %debug_trait_builder.dbg.spill, align 8, !dbg !1996
  call void @llvm.dbg.declare(metadata %"std::fmt::DebugStruct"** %debug_trait_builder.dbg.spill, metadata !1980, metadata !DIExpression()), !dbg !1997
  store { i64, i64 }* %__self_0_0, { i64, i64 }** %_17, align 8, !dbg !1998
  %_14.0 = bitcast { i64, i64 }** %_17 to {}*, !dbg !1998
; call core::fmt::builders::DebugStruct::field
  %_10 = call align 8 dereferenceable(16) %"std::fmt::DebugStruct"* @_ZN4core3fmt8builders11DebugStruct5field17h05961323261879b6E(%"std::fmt::DebugStruct"* align 8 dereferenceable(16) %_6, [0 x i8]* nonnull align 1 bitcast (<{ [5 x i8] }>* @alloc813 to [0 x i8]*), i64 5, {}* nonnull align 1 %_14.0, [3 x i64]* align 8 dereferenceable(24) bitcast (<{ i8*, [16 x i8], i8*, [0 x i8] }>* @vtable.2 to [3 x i64]*)), !dbg !1999
  br label %bb2, !dbg !1999

bb2:                                              ; preds = %bb1
  store i8* %__self_0_1, i8** %_25, align 8, !dbg !2000
  %_22.0 = bitcast i8** %_25 to {}*, !dbg !2000
; call core::fmt::builders::DebugStruct::field
  %_18 = call align 8 dereferenceable(16) %"std::fmt::DebugStruct"* @_ZN4core3fmt8builders11DebugStruct5field17h05961323261879b6E(%"std::fmt::DebugStruct"* align 8 dereferenceable(16) %_6, [0 x i8]* nonnull align 1 bitcast (<{ [6 x i8] }>* @alloc817 to [0 x i8]*), i64 6, {}* nonnull align 1 %_22.0, [3 x i64]* align 8 dereferenceable(24) bitcast (<{ i8*, [16 x i8], i8*, [0 x i8] }>* @vtable.3 to [3 x i64]*)), !dbg !1999
  br label %bb3, !dbg !1999

bb3:                                              ; preds = %bb2
; call core::fmt::builders::DebugStruct::finish
  %4 = call zeroext i1 @_ZN4core3fmt8builders11DebugStruct6finish17hcf4b93cba46a86c7E(%"std::fmt::DebugStruct"* align 8 dereferenceable(16) %_6), !dbg !1999
  br label %bb4, !dbg !1999

bb4:                                              ; preds = %bb3
  ret i1 %4, !dbg !2001
}

; <bincode::config::legacy::LimitOption as core::fmt::Debug>::fmt
; Function Attrs: nounwind
define zeroext i1 @"_ZN73_$LT$bincode..config..legacy..LimitOption$u20$as$u20$core..fmt..Debug$GT$3fmt17hcad34127a3d023eaE"({ i64, i64 }* align 8 dereferenceable(16) %self, %"std::fmt::Formatter"* align 8 dereferenceable(64) %f) unnamed_addr #1 !dbg !2002 {
start:
  %debug_trait_builder.dbg.spill1 = alloca %"std::fmt::DebugTuple"*, align 8
  %debug_trait_builder.dbg.spill = alloca %"std::fmt::DebugTuple"*, align 8
  %__self_0.dbg.spill = alloca i64*, align 8
  %f.dbg.spill = alloca %"std::fmt::Formatter"*, align 8
  %self.dbg.spill = alloca { i64, i64 }*, align 8
  %_23 = alloca i64*, align 8
  %_14 = alloca %"std::fmt::DebugTuple", align 8
  %_7 = alloca %"std::fmt::DebugTuple", align 8
  %_3 = alloca i64*, align 8
  %0 = alloca i8, align 1
  store { i64, i64 }* %self, { i64, i64 }** %self.dbg.spill, align 8
  call void @llvm.dbg.declare(metadata { i64, i64 }** %self.dbg.spill, metadata !2007, metadata !DIExpression()), !dbg !2022
  store %"std::fmt::Formatter"* %f, %"std::fmt::Formatter"** %f.dbg.spill, align 8
  call void @llvm.dbg.declare(metadata %"std::fmt::Formatter"** %f.dbg.spill, metadata !2008, metadata !DIExpression()), !dbg !2022
  %1 = bitcast i64** %_3 to { i64, i64 }**, !dbg !2022
  store { i64, i64 }* %self, { i64, i64 }** %1, align 8, !dbg !2022
  %2 = bitcast i64** %_3 to { i64, i64 }**, !dbg !2022
  %3 = load { i64, i64 }*, { i64, i64 }** %2, align 8, !dbg !2022, !nonnull !13
  %4 = bitcast { i64, i64 }* %3 to i64*, !dbg !2022
  %_5 = load i64, i64* %4, align 8, !dbg !2022, !range !2023
  switch i64 %_5, label %bb2 [
    i64 0, label %bb3
    i64 1, label %bb1
  ], !dbg !2022

bb2:                                              ; preds = %start
  unreachable, !dbg !2022

bb3:                                              ; preds = %start
; call core::fmt::Formatter::debug_tuple
  call void @_ZN4core3fmt9Formatter11debug_tuple17h8b0c4b037c736595E(%"std::fmt::DebugTuple"* noalias nocapture sret(%"std::fmt::DebugTuple") dereferenceable(24) %_7, %"std::fmt::Formatter"* align 8 dereferenceable(64) %f, [0 x i8]* nonnull align 1 bitcast (<{ [9 x i8] }>* @alloc825 to [0 x i8]*), i64 9), !dbg !2022
  br label %bb4, !dbg !2022

bb1:                                              ; preds = %start
  %5 = bitcast i64** %_3 to { i64, i64 }**, !dbg !2024
  %6 = load { i64, i64 }*, { i64, i64 }** %5, align 8, !dbg !2024, !nonnull !13
  %7 = bitcast { i64, i64 }* %6 to %"config::legacy::LimitOption::Limited"*, !dbg !2024
  %__self_0 = getelementptr inbounds %"config::legacy::LimitOption::Limited", %"config::legacy::LimitOption::Limited"* %7, i32 0, i32 1, !dbg !2024
  store i64* %__self_0, i64** %__self_0.dbg.spill, align 8, !dbg !2024
  call void @llvm.dbg.declare(metadata i64** %__self_0.dbg.spill, metadata !2018, metadata !DIExpression()), !dbg !2025
; call core::fmt::Formatter::debug_tuple
  call void @_ZN4core3fmt9Formatter11debug_tuple17h8b0c4b037c736595E(%"std::fmt::DebugTuple"* noalias nocapture sret(%"std::fmt::DebugTuple") dereferenceable(24) %_14, %"std::fmt::Formatter"* align 8 dereferenceable(64) %f, [0 x i8]* nonnull align 1 bitcast (<{ [7 x i8] }>* @alloc821 to [0 x i8]*), i64 7), !dbg !2026
  br label %bb5, !dbg !2026

bb5:                                              ; preds = %bb1
  store %"std::fmt::DebugTuple"* %_14, %"std::fmt::DebugTuple"** %debug_trait_builder.dbg.spill, align 8, !dbg !2026
  call void @llvm.dbg.declare(metadata %"std::fmt::DebugTuple"** %debug_trait_builder.dbg.spill, metadata !2020, metadata !DIExpression()), !dbg !2027
  store i64* %__self_0, i64** %_23, align 8, !dbg !2028
  %_20.0 = bitcast i64** %_23 to {}*, !dbg !2028
; call core::fmt::builders::DebugTuple::field
  %_18 = call align 8 dereferenceable(24) %"std::fmt::DebugTuple"* @_ZN4core3fmt8builders10DebugTuple5field17haf529c10112494a2E(%"std::fmt::DebugTuple"* align 8 dereferenceable(24) %_14, {}* nonnull align 1 %_20.0, [3 x i64]* align 8 dereferenceable(24) bitcast (<{ i8*, [16 x i8], i8*, [0 x i8] }>* @vtable.4 to [3 x i64]*)), !dbg !2027
  br label %bb6, !dbg !2027

bb6:                                              ; preds = %bb5
; call core::fmt::builders::DebugTuple::finish
  %8 = call zeroext i1 @_ZN4core3fmt8builders10DebugTuple6finish17h819d2cbd4adc1891E(%"std::fmt::DebugTuple"* align 8 dereferenceable(24) %_14), !dbg !2027
  %9 = zext i1 %8 to i8, !dbg !2027
  store i8 %9, i8* %0, align 1, !dbg !2027
  br label %bb7, !dbg !2027

bb7:                                              ; preds = %bb4, %bb6
  %10 = load i8, i8* %0, align 1, !dbg !2029, !range !510
  %11 = trunc i8 %10 to i1, !dbg !2029
  ret i1 %11, !dbg !2029

bb4:                                              ; preds = %bb3
  store %"std::fmt::DebugTuple"* %_7, %"std::fmt::DebugTuple"** %debug_trait_builder.dbg.spill1, align 8, !dbg !2022
  call void @llvm.dbg.declare(metadata %"std::fmt::DebugTuple"** %debug_trait_builder.dbg.spill1, metadata !2009, metadata !DIExpression()), !dbg !2030
; call core::fmt::builders::DebugTuple::finish
  %12 = call zeroext i1 @_ZN4core3fmt8builders10DebugTuple6finish17h819d2cbd4adc1891E(%"std::fmt::DebugTuple"* align 8 dereferenceable(24) %_7), !dbg !2030
  %13 = zext i1 %12 to i8, !dbg !2030
  store i8 %13, i8* %0, align 1, !dbg !2030
  br label %bb7, !dbg !2030
}

; <bincode::config::legacy::EndianOption as core::fmt::Debug>::fmt
; Function Attrs: nounwind
define zeroext i1 @"_ZN74_$LT$bincode..config..legacy..EndianOption$u20$as$u20$core..fmt..Debug$GT$3fmt17hc1a1f91d5d18a65fE"(i8* align 1 dereferenceable(1) %self, %"std::fmt::Formatter"* align 8 dereferenceable(64) %f) unnamed_addr #1 !dbg !2031 {
start:
  %debug_trait_builder.dbg.spill2 = alloca %"std::fmt::DebugTuple"*, align 8
  %debug_trait_builder.dbg.spill1 = alloca %"std::fmt::DebugTuple"*, align 8
  %debug_trait_builder.dbg.spill = alloca %"std::fmt::DebugTuple"*, align 8
  %f.dbg.spill = alloca %"std::fmt::Formatter"*, align 8
  %self.dbg.spill = alloca i8*, align 8
  %_19 = alloca %"std::fmt::DebugTuple", align 8
  %_13 = alloca %"std::fmt::DebugTuple", align 8
  %_7 = alloca %"std::fmt::DebugTuple", align 8
  %_3 = alloca i8*, align 8
  %0 = alloca i8, align 1
  store i8* %self, i8** %self.dbg.spill, align 8
  call void @llvm.dbg.declare(metadata i8** %self.dbg.spill, metadata !2036, metadata !DIExpression()), !dbg !2044
  store %"std::fmt::Formatter"* %f, %"std::fmt::Formatter"** %f.dbg.spill, align 8
  call void @llvm.dbg.declare(metadata %"std::fmt::Formatter"** %f.dbg.spill, metadata !2037, metadata !DIExpression()), !dbg !2044
  store i8* %self, i8** %_3, align 8, !dbg !2044
  %1 = load i8*, i8** %_3, align 8, !dbg !2044, !nonnull !13
  %2 = load i8, i8* %1, align 1, !dbg !2044, !range !2045
  %_5 = zext i8 %2 to i64, !dbg !2044
  switch i64 %_5, label %bb2 [
    i64 0, label %bb3
    i64 1, label %bb5
    i64 2, label %bb1
  ], !dbg !2044

bb2:                                              ; preds = %start
  unreachable, !dbg !2044

bb3:                                              ; preds = %start
; call core::fmt::Formatter::debug_tuple
  call void @_ZN4core3fmt9Formatter11debug_tuple17h8b0c4b037c736595E(%"std::fmt::DebugTuple"* noalias nocapture sret(%"std::fmt::DebugTuple") dereferenceable(24) %_7, %"std::fmt::Formatter"* align 8 dereferenceable(64) %f, [0 x i8]* nonnull align 1 bitcast (<{ [3 x i8] }>* @alloc828 to [0 x i8]*), i64 3), !dbg !2044
  br label %bb4, !dbg !2044

bb5:                                              ; preds = %start
; call core::fmt::Formatter::debug_tuple
  call void @_ZN4core3fmt9Formatter11debug_tuple17h8b0c4b037c736595E(%"std::fmt::DebugTuple"* noalias nocapture sret(%"std::fmt::DebugTuple") dereferenceable(24) %_13, %"std::fmt::Formatter"* align 8 dereferenceable(64) %f, [0 x i8]* nonnull align 1 bitcast (<{ [6 x i8] }>* @alloc827 to [0 x i8]*), i64 6), !dbg !2044
  br label %bb6, !dbg !2044

bb1:                                              ; preds = %start
; call core::fmt::Formatter::debug_tuple
  call void @_ZN4core3fmt9Formatter11debug_tuple17h8b0c4b037c736595E(%"std::fmt::DebugTuple"* noalias nocapture sret(%"std::fmt::DebugTuple") dereferenceable(24) %_19, %"std::fmt::Formatter"* align 8 dereferenceable(64) %f, [0 x i8]* nonnull align 1 bitcast (<{ [6 x i8] }>* @alloc826 to [0 x i8]*), i64 6), !dbg !2044
  br label %bb7, !dbg !2044

bb7:                                              ; preds = %bb1
  store %"std::fmt::DebugTuple"* %_19, %"std::fmt::DebugTuple"** %debug_trait_builder.dbg.spill, align 8, !dbg !2044
  call void @llvm.dbg.declare(metadata %"std::fmt::DebugTuple"** %debug_trait_builder.dbg.spill, metadata !2042, metadata !DIExpression()), !dbg !2046
; call core::fmt::builders::DebugTuple::finish
  %3 = call zeroext i1 @_ZN4core3fmt8builders10DebugTuple6finish17h819d2cbd4adc1891E(%"std::fmt::DebugTuple"* align 8 dereferenceable(24) %_19), !dbg !2046
  %4 = zext i1 %3 to i8, !dbg !2046
  store i8 %4, i8* %0, align 1, !dbg !2046
  br label %bb8, !dbg !2046

bb8:                                              ; preds = %bb4, %bb6, %bb7
  %5 = load i8, i8* %0, align 1, !dbg !2047, !range !510
  %6 = trunc i8 %5 to i1, !dbg !2047
  ret i1 %6, !dbg !2047

bb6:                                              ; preds = %bb5
  store %"std::fmt::DebugTuple"* %_13, %"std::fmt::DebugTuple"** %debug_trait_builder.dbg.spill1, align 8, !dbg !2044
  call void @llvm.dbg.declare(metadata %"std::fmt::DebugTuple"** %debug_trait_builder.dbg.spill1, metadata !2040, metadata !DIExpression()), !dbg !2048
; call core::fmt::builders::DebugTuple::finish
  %7 = call zeroext i1 @_ZN4core3fmt8builders10DebugTuple6finish17h819d2cbd4adc1891E(%"std::fmt::DebugTuple"* align 8 dereferenceable(24) %_13), !dbg !2048
  %8 = zext i1 %7 to i8, !dbg !2048
  store i8 %8, i8* %0, align 1, !dbg !2048
  br label %bb8, !dbg !2048

bb4:                                              ; preds = %bb3
  store %"std::fmt::DebugTuple"* %_7, %"std::fmt::DebugTuple"** %debug_trait_builder.dbg.spill2, align 8, !dbg !2044
  call void @llvm.dbg.declare(metadata %"std::fmt::DebugTuple"** %debug_trait_builder.dbg.spill2, metadata !2038, metadata !DIExpression()), !dbg !2049
; call core::fmt::builders::DebugTuple::finish
  %9 = call zeroext i1 @_ZN4core3fmt8builders10DebugTuple6finish17h819d2cbd4adc1891E(%"std::fmt::DebugTuple"* align 8 dereferenceable(24) %_7), !dbg !2049
  %10 = zext i1 %9 to i8, !dbg !2049
  store i8 %10, i8* %0, align 1, !dbg !2049
  br label %bb8, !dbg !2049
}

; <bincode::error::ErrorKind as core::fmt::Debug>::fmt
; Function Attrs: nounwind
define zeroext i1 @"_ZN62_$LT$bincode..error..ErrorKind$u20$as$u20$core..fmt..Debug$GT$3fmt17hcf1c7632b46abef4E"(%"error::ErrorKind"* align 8 dereferenceable(32) %self, %"std::fmt::Formatter"* align 8 dereferenceable(64) %f) unnamed_addr #1 !dbg !2050 {
start:
  %debug_trait_builder.dbg.spill16 = alloca %"std::fmt::DebugTuple"*, align 8
  %__self_0.dbg.spill15 = alloca %"std::io::Error"*, align 8
  %debug_trait_builder.dbg.spill13 = alloca %"std::fmt::DebugTuple"*, align 8
  %__self_0.dbg.spill12 = alloca %"std::str::Utf8Error"*, align 8
  %debug_trait_builder.dbg.spill10 = alloca %"std::fmt::DebugTuple"*, align 8
  %__self_0.dbg.spill9 = alloca i8*, align 8
  %debug_trait_builder.dbg.spill7 = alloca %"std::fmt::DebugTuple"*, align 8
  %debug_trait_builder.dbg.spill6 = alloca %"std::fmt::DebugTuple"*, align 8
  %__self_0.dbg.spill5 = alloca i64*, align 8
  %debug_trait_builder.dbg.spill3 = alloca %"std::fmt::DebugTuple"*, align 8
  %debug_trait_builder.dbg.spill2 = alloca %"std::fmt::DebugTuple"*, align 8
  %debug_trait_builder.dbg.spill1 = alloca %"std::fmt::DebugTuple"*, align 8
  %debug_trait_builder.dbg.spill = alloca %"std::fmt::DebugTuple"*, align 8
  %__self_0.dbg.spill = alloca %"std::string::String"*, align 8
  %f.dbg.spill = alloca %"std::fmt::Formatter"*, align 8
  %self.dbg.spill = alloca %"error::ErrorKind"*, align 8
