; ModuleID = 'bs58.4913fd83-cgu.0'
source_filename = "bs58.4913fd83-cgu.0"
target datalayout = "e-m:e-p:64:64-i64:64-n32:64-S128"
target triple = "bpfel"

%"core::panic::Location" = type { { [0 x i8]*, i64 }, i32, i32 }
%"core::iter::Enumerate<core::slice::Iter<u8>>" = type { { i8*, i8* }, i64 }
%"core::option::Option<core::convert::Infallible>::None" = type {}
%"core::iter::TakeWhile<core::slice::Iter<u8>, [closure@/home/seaceved/.cargo/registry/src/github.com-1ecc6299db9ec823/bs58-0.4.0/src/decode.rs:226:38: 226:53]>" = type { { i8*, i8* }, i8*, i8, [7 x i8] }
%"core::result::Result<usize, decode::Error>" = type { i64, [2 x i64] }
%"decode::Error" = type { i32, [3 x i32] }
%"core::result::Result<core::convert::Infallible, decode::Error>::Err" = type { %"decode::Error" }
%"core::result::Result<usize, decode::Error>::Err" = type { [1 x i64], %"decode::Error" }
%"core::fmt::Formatter" = type { { i64, i64 }, { i64, i64 }, { {}*, [3 x i64]* }, i32, i32, i8, [7 x i8] }
%"core::fmt::Opaque" = type {}
%"core::fmt::Arguments" = type { { [0 x { [0 x i8]*, i64 }]*, i64 }, { i64*, i64 }, { [0 x { i8*, i64* }]*, i64 } }
%"core::ptr::metadata::PtrRepr<[u8]>" = type { [2 x i64] }
%"core::str::Utf8Error" = type { i64, { i8, i8 }, [6 x i8] }
%"[closure@core::str::Utf8Error::error_len::{closure#0}]" = type {}
%"core::option::Option<u8>::Some" = type { [1 x i8], i8 }
%"core::option::Option<usize>::Some" = type { [1 x i64], i64 }
%"core::result::Result<&mut u8, decode::Error>" = type { i64, [2 x i64] }
%"core::result::Result<&mut u8, decode::Error>::Err" = type { [1 x i64], %"decode::Error" }
%"core::result::Result<&mut u8, decode::Error>::Ok" = type { [1 x i64], i8* }
%"core::ops::ControlFlow<core::result::Result<core::convert::Infallible, decode::Error>, &mut u8>" = type { i64, [2 x i64] }
%"core::ops::ControlFlow<core::result::Result<core::convert::Infallible, decode::Error>, &mut u8>::Continue" = type { [1 x i64], i8* }
%"core::ops::ControlFlow<core::result::Result<core::convert::Infallible, decode::Error>, &mut u8>::Break" = type { [1 x i64], %"core::result::Result<core::convert::Infallible, decode::Error>::Err" }
%"core::result::Result<alphabet::Alphabet, alphabet::Error>" = type { i8, [191 x i8] }
%"alphabet::Alphabet" = type { [58 x i8], [128 x i8] }
%"alphabet::Error" = type { i32, [5 x i32] }
%"core::result::Result<alphabet::Alphabet, alphabet::Error>::Ok" = type { [1 x i8], %"alphabet::Alphabet" }
%"alphabet::Error::NonAsciiCharacter" = type { [1 x i64], i64 }
%"core::result::Result<alphabet::Alphabet, alphabet::Error>::Err" = type { [1 x i64], %"alphabet::Error" }
%"alphabet::Error::DuplicateCharacter" = type { [1 x i32], i32, i64, i64 }
%"core::fmt::DebugTuple" = type { %"core::fmt::Formatter"*, i64, i8, i8, [6 x i8] }
%"core::result::Result<&str, core::str::Utf8Error>" = type { i64, [2 x i64] }
%"core::result::Result<&str, core::str::Utf8Error>::Ok" = type { [1 x i64], { [0 x i8]*, i64 } }
%"decode::Error::NonAsciiCharacter" = type { [1 x i64], i64 }
%"decode::Error::InvalidCharacter" = type { [1 x i32], i32, i64 }
%"core::result::Result<usize, decode::Error>::Ok" = type { [1 x i64], i64 }
%"core::result::Result<&str, core::str::Utf8Error>::Err" = type { [1 x i64], %"core::str::Utf8Error" }
%"encode::Error::BufferTooSmall" = type {}
%"core::fmt::DebugStruct" = type { %"core::fmt::Formatter"*, i8, i8, [6 x i8] }

@alloc454 = private unnamed_addr constant <{ [90 x i8] }> <{ [90 x i8] c"/home/runner/work/bpf-tools/bpf-tools/out/rust/library/core/src/iter/adapters/enumerate.rs" }>, align 1
@alloc455 = private unnamed_addr constant <{ i8*, [16 x i8] }> <{ i8* getelementptr inbounds (<{ [90 x i8] }>, <{ [90 x i8] }>* @alloc454, i32 0, i32 0, i32 0), [16 x i8] c"Z\00\00\00\00\00\00\000\00\00\00\09\00\00\00" }>, align 8
@str.0 = internal constant [28 x i8] c"attempt to add with overflow"
@alloc456 = private unnamed_addr constant <{ [12 x i8] }> <{ [12 x i8] c"invalid args" }>, align 1
@alloc457 = private unnamed_addr constant <{ [74 x i8] }> <{ [74 x i8] c"/home/runner/work/bpf-tools/bpf-tools/out/rust/library/core/src/fmt/mod.rs" }>, align 1
@alloc458 = private unnamed_addr constant <{ i8*, [16 x i8] }> <{ i8* getelementptr inbounds (<{ [74 x i8] }>, <{ [74 x i8] }>* @alloc457, i32 0, i32 0, i32 0), [16 x i8] c"J\00\00\00\00\00\00\00c\01\00\00\0D\00\00\00" }>, align 8
@alloc459 = private unnamed_addr constant <{ [74 x i8] }> <{ [74 x i8] c"/home/runner/work/bpf-tools/bpf-tools/out/rust/library/core/src/ptr/mod.rs" }>, align 1
@alloc460 = private unnamed_addr constant <{ i8*, [16 x i8] }> <{ i8* getelementptr inbounds (<{ [74 x i8] }>, <{ [74 x i8] }>* @alloc459, i32 0, i32 0, i32 0), [16 x i8] c"J\00\00\00\00\00\00\00\18\03\00\00\0D\00\00\00" }>, align 8
@alloc486 = private unnamed_addr constant <{ [89 x i8] }> <{ [89 x i8] c"/home/seaceved/.cargo/registry/src/github.com-1ecc6299db9ec823/bs58-0.4.0/src/alphabet.rs" }>, align 1
@alloc462 = private unnamed_addr constant <{ i8*, [16 x i8] }> <{ i8* getelementptr inbounds (<{ [89 x i8] }>, <{ [89 x i8] }>* @alloc486, i32 0, i32 0, i32 0), [16 x i8] c"Y\00\00\00\00\00\00\00l\00\00\00\10\00\00\00" }>, align 8
@alloc464 = private unnamed_addr constant <{ i8*, [16 x i8] }> <{ i8* getelementptr inbounds (<{ [89 x i8] }>, <{ [89 x i8] }>* @alloc486, i32 0, i32 0, i32 0), [16 x i8] c"Y\00\00\00\00\00\00\00o\00\00\00\17\00\00\00" }>, align 8
@alloc466 = private unnamed_addr constant <{ i8*, [16 x i8] }> <{ i8* getelementptr inbounds (<{ [89 x i8] }>, <{ [89 x i8] }>* @alloc486, i32 0, i32 0, i32 0), [16 x i8] c"Y\00\00\00\00\00\00\00o\00\00\00\10\00\00\00" }>, align 8
@alloc468 = private unnamed_addr constant <{ i8*, [16 x i8] }> <{ i8* getelementptr inbounds (<{ [89 x i8] }>, <{ [89 x i8] }>* @alloc486, i32 0, i32 0, i32 0), [16 x i8] c"Y\00\00\00\00\00\00\00q\00\00\00 \00\00\00" }>, align 8
@alloc470 = private unnamed_addr constant <{ i8*, [16 x i8] }> <{ i8* getelementptr inbounds (<{ [89 x i8] }>, <{ [89 x i8] }>* @alloc486, i32 0, i32 0, i32 0), [16 x i8] c"Y\00\00\00\00\00\00\00r\00\00\00#\00\00\00" }>, align 8
@alloc472 = private unnamed_addr constant <{ i8*, [16 x i8] }> <{ i8* getelementptr inbounds (<{ [89 x i8] }>, <{ [89 x i8] }>* @alloc486, i32 0, i32 0, i32 0), [16 x i8] c"Y\00\00\00\00\00\00\00r\00\00\00\1C\00\00\00" }>, align 8
@alloc474 = private unnamed_addr constant <{ i8*, [16 x i8] }> <{ i8* getelementptr inbounds (<{ [89 x i8] }>, <{ [89 x i8] }>* @alloc486, i32 0, i32 0, i32 0), [16 x i8] c"Y\00\00\00\00\00\00\00v\00\00\00\19\00\00\00" }>, align 8
@alloc476 = private unnamed_addr constant <{ i8*, [16 x i8] }> <{ i8* getelementptr inbounds (<{ [89 x i8] }>, <{ [89 x i8] }>* @alloc486, i32 0, i32 0, i32 0), [16 x i8] c"Y\00\00\00\00\00\00\00v\00\00\00\0D\00\00\00" }>, align 8
@alloc478 = private unnamed_addr constant <{ i8*, [16 x i8] }> <{ i8* getelementptr inbounds (<{ [89 x i8] }>, <{ [89 x i8] }>* @alloc486, i32 0, i32 0, i32 0), [16 x i8] c"Y\00\00\00\00\00\00\00w\00\00\00\14\00\00\00" }>, align 8
@alloc480 = private unnamed_addr constant <{ i8*, [16 x i8] }> <{ i8* getelementptr inbounds (<{ [89 x i8] }>, <{ [89 x i8] }>* @alloc486, i32 0, i32 0, i32 0), [16 x i8] c"Y\00\00\00\00\00\00\00w\00\00\00\0D\00\00\00" }>, align 8
@alloc482 = private unnamed_addr constant <{ i8*, [16 x i8] }> <{ i8* getelementptr inbounds (<{ [89 x i8] }>, <{ [89 x i8] }>* @alloc486, i32 0, i32 0, i32 0), [16 x i8] c"Y\00\00\00\00\00\00\00x\00\00\00\0D\00\00\00" }>, align 8
@alloc484 = private unnamed_addr constant <{ i8*, [16 x i8] }> <{ i8* getelementptr inbounds (<{ [89 x i8] }>, <{ [89 x i8] }>* @alloc486, i32 0, i32 0, i32 0), [16 x i8] c"Y\00\00\00\00\00\00\00\9C\00\00\00\09\00\00\00" }>, align 8
@alloc485 = private unnamed_addr constant <{ [40 x i8] }> <{ [40 x i8] c"internal error: entered unreachable code" }>, align 1
@alloc487 = private unnamed_addr constant <{ i8*, [16 x i8] }> <{ i8* getelementptr inbounds (<{ [89 x i8] }>, <{ [89 x i8] }>* @alloc486, i32 0, i32 0, i32 0), [16 x i8] c"Y\00\00\00\00\00\00\00\A8\00\00\00\0D\00\00\00" }>, align 8
@alloc488 = private unnamed_addr constant <{ [8 x i8] }> <{ [8 x i8] c"Alphabet" }>, align 1
@vtable.1 = private unnamed_addr constant <{ i8*, [16 x i8], i8*, [0 x i8] }> <{ i8* bitcast (void ({ [0 x i8]*, i64 }*)* @"_ZN4core3ptr28drop_in_place$LT$$RF$str$GT$17h75ded22cd7ebb866E" to i8*), [16 x i8] c"\10\00\00\00\00\00\00\00\08\00\00\00\00\00\00\00", i8* bitcast (i1 ({ [0 x i8]*, i64 }*, %"core::fmt::Formatter"*)* @"_ZN42_$LT$$RF$T$u20$as$u20$core..fmt..Debug$GT$3fmt17hf46656a2cf38e03cE" to i8*), [0 x i8] zeroinitializer }>, align 8, !dbg !0
@alloc377 = private unnamed_addr constant <{ [44 x i8] }> <{ [44 x i8] c"alphabet contained a non-ascii character at " }>, align 1
@alloc378 = private unnamed_addr constant <{ i8*, [8 x i8] }> <{ i8* getelementptr inbounds (<{ [44 x i8] }>, <{ [44 x i8] }>* @alloc377, i32 0, i32 0, i32 0), [8 x i8] c",\00\00\00\00\00\00\00" }>, align 8
@alloc372 = private unnamed_addr constant <{ [42 x i8] }> <{ [42 x i8] c"alphabet contained a duplicate character `" }>, align 1
@alloc374 = private unnamed_addr constant <{ [13 x i8] }> <{ [13 x i8] c"` at indexes " }>, align 1
@alloc375 = private unnamed_addr constant <{ [5 x i8] }> <{ [5 x i8] c" and " }>, align 1
@alloc373 = private unnamed_addr constant <{ i8*, [8 x i8], i8*, [8 x i8], i8*, [8 x i8] }> <{ i8* getelementptr inbounds (<{ [42 x i8] }>, <{ [42 x i8] }>* @alloc372, i32 0, i32 0, i32 0), [8 x i8] c"*\00\00\00\00\00\00\00", i8* getelementptr inbounds (<{ [13 x i8] }>, <{ [13 x i8] }>* @alloc374, i32 0, i32 0, i32 0), [8 x i8] c"\0D\00\00\00\00\00\00\00", i8* getelementptr inbounds (<{ [5 x i8] }>, <{ [5 x i8] }>* @alloc375, i32 0, i32 0, i32 0), [8 x i8] c"\05\00\00\00\00\00\00\00" }>, align 8
@alloc504 = private unnamed_addr constant <{ [87 x i8] }> <{ [87 x i8] c"/home/seaceved/.cargo/registry/src/github.com-1ecc6299db9ec823/bs58-0.4.0/src/decode.rs" }>, align 1
@alloc493 = private unnamed_addr constant <{ i8*, [16 x i8] }> <{ i8* getelementptr inbounds (<{ [87 x i8] }>, <{ [87 x i8] }>* @alloc504, i32 0, i32 0, i32 0), [16 x i8] c"W\00\00\00\00\00\00\00\CC\00\00\00\17\00\00\00" }>, align 8
@alloc495 = private unnamed_addr constant <{ i8*, [16 x i8] }> <{ i8* getelementptr inbounds (<{ [87 x i8] }>, <{ [87 x i8] }>* @alloc504, i32 0, i32 0, i32 0), [16 x i8] c"W\00\00\00\00\00\00\00\D4\00\00\00\1A\00\00\00" }>, align 8
@alloc497 = private unnamed_addr constant <{ i8*, [16 x i8] }> <{ i8* getelementptr inbounds (<{ [87 x i8] }>, <{ [87 x i8] }>* @alloc504, i32 0, i32 0, i32 0), [16 x i8] c"W\00\00\00\00\00\00\00\D5\00\00\00\14\00\00\00" }>, align 8
@str.2 = internal constant [33 x i8] c"attempt to multiply with overflow"
@alloc499 = private unnamed_addr constant <{ i8*, [16 x i8] }> <{ i8* getelementptr inbounds (<{ [87 x i8] }>, <{ [87 x i8] }>* @alloc504, i32 0, i32 0, i32 0), [16 x i8] c"W\00\00\00\00\00\00\00\D5\00\00\00\0D\00\00\00" }>, align 8
@alloc501 = private unnamed_addr constant <{ i8*, [16 x i8] }> <{ i8* getelementptr inbounds (<{ [87 x i8] }>, <{ [87 x i8] }>* @alloc504, i32 0, i32 0, i32 0), [16 x i8] c"W\00\00\00\00\00\00\00\DD\00\00\00\0D\00\00\00" }>, align 8
@alloc503 = private unnamed_addr constant <{ i8*, [16 x i8] }> <{ i8* getelementptr inbounds (<{ [87 x i8] }>, <{ [87 x i8] }>* @alloc504, i32 0, i32 0, i32 0), [16 x i8] c"W\00\00\00\00\00\00\00\E5\00\00\00\09\00\00\00" }>, align 8
@alloc505 = private unnamed_addr constant <{ i8*, [16 x i8] }> <{ i8* getelementptr inbounds (<{ [87 x i8] }>, <{ [87 x i8] }>* @alloc504, i32 0, i32 0, i32 0), [16 x i8] c"W\00\00\00\00\00\00\00\E8\00\00\00\05\00\00\00" }>, align 8
@alloc409 = private unnamed_addr constant <{ [63 x i8] }> <{ [63 x i8] c"provided string contained non-ascii character starting at byte " }>, align 1
@alloc410 = private unnamed_addr constant <{ i8*, [8 x i8] }> <{ i8* getelementptr inbounds (<{ [63 x i8] }>, <{ [63 x i8] }>* @alloc409, i32 0, i32 0, i32 0), [8 x i8] c"?\00\00\00\00\00\00\00" }>, align 8
@alloc405 = private unnamed_addr constant <{ [44 x i8] }> <{ [44 x i8] c"provided string contained invalid character " }>, align 1
@alloc407 = private unnamed_addr constant <{ [9 x i8] }> <{ [9 x i8] c" at byte " }>, align 1
@alloc406 = private unnamed_addr constant <{ i8*, [8 x i8], i8*, [8 x i8] }> <{ i8* getelementptr inbounds (<{ [44 x i8] }>, <{ [44 x i8] }>* @alloc405, i32 0, i32 0, i32 0), [8 x i8] c",\00\00\00\00\00\00\00", i8* getelementptr inbounds (<{ [9 x i8] }>, <{ [9 x i8] }>* @alloc407, i32 0, i32 0, i32 0), [8 x i8] c"\09\00\00\00\00\00\00\00" }>, align 8
@alloc418 = private unnamed_addr constant <{ [0 x i8] }> zeroinitializer, align 8
@alloc399 = private unnamed_addr constant <{ [66 x i8] }> <{ [66 x i8] c"buffer provided to decode base58 encoded string into was too small" }>, align 1
@alloc400 = private unnamed_addr constant <{ i8*, [8 x i8] }> <{ i8* getelementptr inbounds (<{ [66 x i8] }>, <{ [66 x i8] }>* @alloc399, i32 0, i32 0, i32 0), [8 x i8] c"B\00\00\00\00\00\00\00" }>, align 8
@alloc520 = private unnamed_addr constant <{ [87 x i8] }> <{ [87 x i8] c"/home/seaceved/.cargo/registry/src/github.com-1ecc6299db9ec823/bs58-0.4.0/src/encode.rs" }>, align 1
@alloc507 = private unnamed_addr constant <{ i8*, [16 x i8] }> <{ i8* getelementptr inbounds (<{ [87 x i8] }>, <{ [87 x i8] }>* @alloc520, i32 0, i32 0, i32 0), [16 x i8] c"W\00\00\00\00\00\00\00m\00\00\001\00\00\00" }>, align 8
@alloc509 = private unnamed_addr constant <{ i8*, [16 x i8] }> <{ i8* getelementptr inbounds (<{ [87 x i8] }>, <{ [87 x i8] }>* @alloc520, i32 0, i32 0, i32 0), [16 x i8] c"W\00\00\00\00\00\00\00p\00\00\00\1D\00\00\00" }>, align 8
@alloc511 = private unnamed_addr constant <{ i8*, [16 x i8] }> <{ i8* getelementptr inbounds (<{ [87 x i8] }>, <{ [87 x i8] }>* @alloc520, i32 0, i32 0, i32 0), [16 x i8] c"W\00\00\00\00\00\00\00w\00\00\00/\00\00\00" }>, align 8
@alloc513 = private unnamed_addr constant <{ i8*, [16 x i8] }> <{ i8* getelementptr inbounds (<{ [87 x i8] }>, <{ [87 x i8] }>* @alloc520, i32 0, i32 0, i32 0), [16 x i8] c"W\00\00\00\00\00\00\00z\00\00\00*\00\00\00" }>, align 8
@alloc515 = private unnamed_addr constant <{ i8*, [16 x i8] }> <{ i8* getelementptr inbounds (<{ [87 x i8] }>, <{ [87 x i8] }>* @alloc520, i32 0, i32 0, i32 0), [16 x i8] c"W\00\00\00\00\00\00\00z\00\00\00!\00\00\00" }>, align 8
@alloc517 = private unnamed_addr constant <{ i8*, [16 x i8] }> <{ i8* getelementptr inbounds (<{ [87 x i8] }>, <{ [87 x i8] }>* @alloc520, i32 0, i32 0, i32 0), [16 x i8] c"W\00\00\00\00\00\00\00r\00\00\00=\00\00\00" }>, align 8
@alloc519 = private unnamed_addr constant <{ i8*, [16 x i8] }> <{ i8* getelementptr inbounds (<{ [87 x i8] }>, <{ [87 x i8] }>* @alloc520, i32 0, i32 0, i32 0), [16 x i8] c"W\00\00\00\00\00\00\00r\00\00\00/\00\00\00" }>, align 8
@alloc521 = private unnamed_addr constant <{ i8*, [16 x i8] }> <{ i8* getelementptr inbounds (<{ [87 x i8] }>, <{ [87 x i8] }>* @alloc520, i32 0, i32 0, i32 0), [16 x i8] c"W\00\00\00\00\00\00\00u\00\00\00!\00\00\00" }>, align 8
@alloc420 = private unnamed_addr constant <{ [58 x i8] }> <{ [58 x i8] c"buffer provided to encode base58 string into was too small" }>, align 1
@alloc421 = private unnamed_addr constant <{ i8*, [8 x i8] }> <{ i8* getelementptr inbounds (<{ [58 x i8] }>, <{ [58 x i8] }>* @alloc420, i32 0, i32 0, i32 0), [8 x i8] c":\00\00\00\00\00\00\00" }>, align 8
@alloc534 = private unnamed_addr constant <{ [17 x i8] }> <{ [17 x i8] c"NonAsciiCharacter" }>, align 1
@alloc538 = private unnamed_addr constant <{ [5 x i8] }> <{ [5 x i8] c"index" }>, align 1
@vtable.3 = private unnamed_addr constant <{ i8*, [16 x i8], i8*, [0 x i8] }> <{ i8* bitcast (void (i64**)* @"_ZN4core3ptr30drop_in_place$LT$$RF$usize$GT$17h7a2fd6ce9ae99651E" to i8*), [16 x i8] c"\08\00\00\00\00\00\00\00\08\00\00\00\00\00\00\00", i8* bitcast (i1 (i64**, %"core::fmt::Formatter"*)* @"_ZN42_$LT$$RF$T$u20$as$u20$core..fmt..Debug$GT$3fmt17h3f266abbfae66ec3E" to i8*), [0 x i8] zeroinitializer }>, align 8, !dbg !12
@alloc527 = private unnamed_addr constant <{ [18 x i8] }> <{ [18 x i8] c"DuplicateCharacter" }>, align 1
@alloc537 = private unnamed_addr constant <{ [9 x i8] }> <{ [9 x i8] c"character" }>, align 1
@vtable.4 = private unnamed_addr constant <{ i8*, [16 x i8], i8*, [0 x i8] }> <{ i8* bitcast (void (i32**)* @"_ZN4core3ptr29drop_in_place$LT$$RF$char$GT$17h4b02d721c42b5f7bE" to i8*), [16 x i8] c"\08\00\00\00\00\00\00\00\08\00\00\00\00\00\00\00", i8* bitcast (i1 (i32**, %"core::fmt::Formatter"*)* @"_ZN42_$LT$$RF$T$u20$as$u20$core..fmt..Debug$GT$3fmt17h88b7349e56d41733E" to i8*), [0 x i8] zeroinitializer }>, align 8, !dbg !16
@alloc532 = private unnamed_addr constant <{ [5 x i8] }> <{ [5 x i8] c"first" }>, align 1
@alloc533 = private unnamed_addr constant <{ [6 x i8] }> <{ [6 x i8] c"second" }>, align 1
@alloc536 = private unnamed_addr constant <{ [16 x i8] }> <{ [16 x i8] c"InvalidCharacter" }>, align 1
@alloc540 = private unnamed_addr constant <{ [14 x i8] }> <{ [14 x i8] c"BufferTooSmall" }>, align 1

; <core::ops::range::Range<usize> as core::slice::index::SliceIndex<[T]>>::get_unchecked
; Function Attrs: inlinehint nounwind
define { [0 x i8]*, i64 } @"_ZN106_$LT$core..ops..range..Range$LT$usize$GT$$u20$as$u20$core..slice..index..SliceIndex$LT$$u5b$T$u5d$$GT$$GT$13get_unchecked17h836b4846e0eda774E"(i64 %self.0, i64 %self.1, [0 x i8]* %slice.0, i64 %slice.1) unnamed_addr #0 !dbg !42 {
start:
  %0 = alloca i8*, align 8
  %count.dbg.spill.i.i = alloca i64, align 8
  %self.dbg.spill.i.i = alloca i8*, align 8
  %count.dbg.spill.i = alloca i64, align 8
  %self.dbg.spill.i = alloca i8*, align 8
  %slice.dbg.spill = alloca { [0 x i8]*, i64 }, align 8
  %self.dbg.spill = alloca { i64, i64 }, align 8
  %1 = getelementptr inbounds { i64, i64 }, { i64, i64 }* %self.dbg.spill, i32 0, i32 0
  store i64 %self.0, i64* %1, align 8
  %2 = getelementptr inbounds { i64, i64 }, { i64, i64 }* %self.dbg.spill, i32 0, i32 1
  store i64 %self.1, i64* %2, align 8
  call void @llvm.dbg.declare(metadata { i64, i64 }* %self.dbg.spill, metadata !62, metadata !DIExpression()), !dbg !66
  %3 = getelementptr inbounds { [0 x i8]*, i64 }, { [0 x i8]*, i64 }* %slice.dbg.spill, i32 0, i32 0
  store [0 x i8]* %slice.0, [0 x i8]** %3, align 8
  %4 = getelementptr inbounds { [0 x i8]*, i64 }, { [0 x i8]*, i64 }* %slice.dbg.spill, i32 0, i32 1
  store i64 %slice.1, i64* %4, align 8
  call void @llvm.dbg.declare(metadata { [0 x i8]*, i64 }* %slice.dbg.spill, metadata !63, metadata !DIExpression()), !dbg !67
; call core::ptr::const_ptr::<impl *const [T]>::as_ptr
  %_4 = call i8* @"_ZN4core3ptr9const_ptr43_$LT$impl$u20$$BP$const$u20$$u5b$T$u5d$$GT$6as_ptr17h9dd0e900668114b6E"([0 x i8]* %slice.0, i64 %slice.1), !dbg !68
  br label %bb1, !dbg !68

bb1:                                              ; preds = %start
  store i8* %_4, i8** %self.dbg.spill.i, align 8
  call void @llvm.dbg.declare(metadata i8** %self.dbg.spill.i, metadata !69, metadata !DIExpression()), !dbg !79
  store i64 %self.0, i64* %count.dbg.spill.i, align 8
  call void @llvm.dbg.declare(metadata i64* %count.dbg.spill.i, metadata !78, metadata !DIExpression()), !dbg !81
  store i8* %_4, i8** %self.dbg.spill.i.i, align 8
  call void @llvm.dbg.declare(metadata i8** %self.dbg.spill.i.i, metadata !82, metadata !DIExpression()), !dbg !89
  store i64 %self.0, i64* %count.dbg.spill.i.i, align 8
  call void @llvm.dbg.declare(metadata i64* %count.dbg.spill.i.i, metadata !88, metadata !DIExpression()), !dbg !91
  %5 = getelementptr inbounds i8, i8* %_4, i64 %self.0, !dbg !92
  store i8* %5, i8** %0, align 8, !dbg !92
  %6 = load i8*, i8** %0, align 8, !dbg !92
  br label %bb2, !dbg !68

bb2:                                              ; preds = %bb1
  %_7 = sub i64 %self.1, %self.0, !dbg !93
; call core::ptr::slice_from_raw_parts
  %7 = call { [0 x i8]*, i64 } @_ZN4core3ptr20slice_from_raw_parts17h13b1398e687501ebE(i8* %6, i64 %_7), !dbg !94
  %8 = extractvalue { [0 x i8]*, i64 } %7, 0, !dbg !94
  %9 = extractvalue { [0 x i8]*, i64 } %7, 1, !dbg !94
  br label %bb3, !dbg !94

bb3:                                              ; preds = %bb2
  %10 = insertvalue { [0 x i8]*, i64 } undef, [0 x i8]* %8, 0, !dbg !95
  %11 = insertvalue { [0 x i8]*, i64 } %10, i64 %9, 1, !dbg !95
  ret { [0 x i8]*, i64 } %11, !dbg !95
}

; <core::ops::range::Range<usize> as core::slice::index::SliceIndex<[T]>>::get_unchecked_mut
; Function Attrs: inlinehint nounwind
define { [0 x i8]*, i64 } @"_ZN106_$LT$core..ops..range..Range$LT$usize$GT$$u20$as$u20$core..slice..index..SliceIndex$LT$$u5b$T$u5d$$GT$$GT$17get_unchecked_mut17h7f45f997a5b6f773E"(i64 %self.0, i64 %self.1, [0 x i8]* %slice.0, i64 %slice.1) unnamed_addr #0 !dbg !96 {
start:
  %0 = alloca i8*, align 8
  %count.dbg.spill.i.i = alloca i64, align 8
  %self.dbg.spill.i.i = alloca i8*, align 8
  %count.dbg.spill.i = alloca i64, align 8
  %self.dbg.spill.i1 = alloca i8*, align 8
  %self.dbg.spill.i = alloca { [0 x i8]*, i64 }, align 8
  %slice.dbg.spill = alloca { [0 x i8]*, i64 }, align 8
  %self.dbg.spill = alloca { i64, i64 }, align 8
  %1 = getelementptr inbounds { i64, i64 }, { i64, i64 }* %self.dbg.spill, i32 0, i32 0
  store i64 %self.0, i64* %1, align 8
  %2 = getelementptr inbounds { i64, i64 }, { i64, i64 }* %self.dbg.spill, i32 0, i32 1
  store i64 %self.1, i64* %2, align 8
  call void @llvm.dbg.declare(metadata { i64, i64 }* %self.dbg.spill, metadata !104, metadata !DIExpression()), !dbg !106
  %3 = getelementptr inbounds { [0 x i8]*, i64 }, { [0 x i8]*, i64 }* %slice.dbg.spill, i32 0, i32 0
  store [0 x i8]* %slice.0, [0 x i8]** %3, align 8
  %4 = getelementptr inbounds { [0 x i8]*, i64 }, { [0 x i8]*, i64 }* %slice.dbg.spill, i32 0, i32 1
  store i64 %slice.1, i64* %4, align 8
  call void @llvm.dbg.declare(metadata { [0 x i8]*, i64 }* %slice.dbg.spill, metadata !105, metadata !DIExpression()), !dbg !107
  %5 = getelementptr inbounds { [0 x i8]*, i64 }, { [0 x i8]*, i64 }* %self.dbg.spill.i, i32 0, i32 0
  store [0 x i8]* %slice.0, [0 x i8]** %5, align 8
  %6 = getelementptr inbounds { [0 x i8]*, i64 }, { [0 x i8]*, i64 }* %self.dbg.spill.i, i32 0, i32 1
  store i64 %slice.1, i64* %6, align 8
  call void @llvm.dbg.declare(metadata { [0 x i8]*, i64 }* %self.dbg.spill.i, metadata !108, metadata !DIExpression()), !dbg !117
  %7 = bitcast [0 x i8]* %slice.0 to i8*, !dbg !119
  br label %bb1, !dbg !120

bb1:                                              ; preds = %start
  store i8* %7, i8** %self.dbg.spill.i1, align 8
  call void @llvm.dbg.declare(metadata i8** %self.dbg.spill.i1, metadata !121, metadata !DIExpression()), !dbg !128
  store i64 %self.0, i64* %count.dbg.spill.i, align 8
  call void @llvm.dbg.declare(metadata i64* %count.dbg.spill.i, metadata !127, metadata !DIExpression()), !dbg !130
  store i8* %7, i8** %self.dbg.spill.i.i, align 8
  call void @llvm.dbg.declare(metadata i8** %self.dbg.spill.i.i, metadata !131, metadata !DIExpression()), !dbg !137
  store i64 %self.0, i64* %count.dbg.spill.i.i, align 8
  call void @llvm.dbg.declare(metadata i64* %count.dbg.spill.i.i, metadata !136, metadata !DIExpression()), !dbg !139
  %8 = getelementptr inbounds i8, i8* %7, i64 %self.0, !dbg !140
  store i8* %8, i8** %0, align 8, !dbg !140
  %_3.i.i = load i8*, i8** %0, align 8, !dbg !140
  br label %bb2, !dbg !120

bb2:                                              ; preds = %bb1
  %_7 = sub i64 %self.1, %self.0, !dbg !141
; call core::ptr::slice_from_raw_parts_mut
  %9 = call { [0 x i8]*, i64 } @_ZN4core3ptr24slice_from_raw_parts_mut17hb4b52ae608397e83E(i8* %_3.i.i, i64 %_7), !dbg !142
  %10 = extractvalue { [0 x i8]*, i64 } %9, 0, !dbg !142
  %11 = extractvalue { [0 x i8]*, i64 } %9, 1, !dbg !142
  br label %bb3, !dbg !142

bb3:                                              ; preds = %bb2
  %12 = insertvalue { [0 x i8]*, i64 } undef, [0 x i8]* %10, 0, !dbg !143
  %13 = insertvalue { [0 x i8]*, i64 } %12, i64 %11, 1, !dbg !143
  ret { [0 x i8]*, i64 } %13, !dbg !143
}

; <core::ops::range::Range<usize> as core::slice::index::SliceIndex<[T]>>::index_mut
; Function Attrs: inlinehint nounwind
define { [0 x i8]*, i64 } @"_ZN106_$LT$core..ops..range..Range$LT$usize$GT$$u20$as$u20$core..slice..index..SliceIndex$LT$$u5b$T$u5d$$GT$$GT$9index_mut17h822a641f20454c12E"(i64 %self.0, i64 %self.1, [0 x i8]* nonnull align 1 %slice.0, i64 %slice.1, %"core::panic::Location"* align 8 dereferenceable(24) %0) unnamed_addr #0 !dbg !144 {
start:
  %slice.dbg.spill = alloca { [0 x i8]*, i64 }, align 8
  %self.dbg.spill = alloca { i64, i64 }, align 8
  %1 = getelementptr inbounds { i64, i64 }, { i64, i64 }* %self.dbg.spill, i32 0, i32 0
  store i64 %self.0, i64* %1, align 8
  %2 = getelementptr inbounds { i64, i64 }, { i64, i64 }* %self.dbg.spill, i32 0, i32 1
  store i64 %self.1, i64* %2, align 8
  call void @llvm.dbg.declare(metadata { i64, i64 }* %self.dbg.spill, metadata !161, metadata !DIExpression()), !dbg !163
  %3 = getelementptr inbounds { [0 x i8]*, i64 }, { [0 x i8]*, i64 }* %slice.dbg.spill, i32 0, i32 0
  store [0 x i8]* %slice.0, [0 x i8]** %3, align 8
  %4 = getelementptr inbounds { [0 x i8]*, i64 }, { [0 x i8]*, i64 }* %slice.dbg.spill, i32 0, i32 1
  store i64 %slice.1, i64* %4, align 8
  call void @llvm.dbg.declare(metadata { [0 x i8]*, i64 }* %slice.dbg.spill, metadata !162, metadata !DIExpression()), !dbg !164
  %_4 = icmp ugt i64 %self.0, %self.1, !dbg !165
  br i1 %_4, label %bb1, label %bb2, !dbg !165

bb2:                                              ; preds = %start
  %_9 = icmp ugt i64 %self.1, %slice.1, !dbg !166
  br i1 %_9, label %bb3, label %bb4, !dbg !166

bb1:                                              ; preds = %start
; call core::slice::index::slice_index_order_fail
  call void @_ZN4core5slice5index22slice_index_order_fail17h0a02db5c3145b3dbE(i64 %self.0, i64 %self.1, %"core::panic::Location"* align 8 dereferenceable(24) %0), !dbg !167
  unreachable, !dbg !167

bb4:                                              ; preds = %bb2
; call <core::ops::range::Range<usize> as core::slice::index::SliceIndex<[T]>>::get_unchecked_mut
  %5 = call { [0 x i8]*, i64 } @"_ZN106_$LT$core..ops..range..Range$LT$usize$GT$$u20$as$u20$core..slice..index..SliceIndex$LT$$u5b$T$u5d$$GT$$GT$17get_unchecked_mut17h7f45f997a5b6f773E"(i64 %self.0, i64 %self.1, [0 x i8]* %slice.0, i64 %slice.1), !dbg !168
  %_18.0 = extractvalue { [0 x i8]*, i64 } %5, 0, !dbg !168
  %_18.1 = extractvalue { [0 x i8]*, i64 } %5, 1, !dbg !168
  br label %bb5, !dbg !168

bb3:                                              ; preds = %bb2
; call core::slice::index::slice_end_index_len_fail
  call void @_ZN4core5slice5index24slice_end_index_len_fail17hc9093b080894820aE(i64 %self.1, i64 %slice.1, %"core::panic::Location"* align 8 dereferenceable(24) %0), !dbg !169
  unreachable, !dbg !169

bb5:                                              ; preds = %bb4
  %6 = insertvalue { [0 x i8]*, i64 } undef, [0 x i8]* %_18.0, 0, !dbg !170
  %7 = insertvalue { [0 x i8]*, i64 } %6, i64 %_18.1, 1, !dbg !170
  ret { [0 x i8]*, i64 } %7, !dbg !170
}

; <core::ops::range::RangeTo<usize> as core::slice::index::SliceIndex<[T]>>::index_mut
; Function Attrs: inlinehint nounwind
define { [0 x i8]*, i64 } @"_ZN108_$LT$core..ops..range..RangeTo$LT$usize$GT$$u20$as$u20$core..slice..index..SliceIndex$LT$$u5b$T$u5d$$GT$$GT$9index_mut17h1a70e7bba0cb26e0E"(i64 %self, [0 x i8]* nonnull align 1 %slice.0, i64 %slice.1, %"core::panic::Location"* align 8 dereferenceable(24) %0) unnamed_addr #0 !dbg !171 {
start:
  %slice.dbg.spill = alloca { [0 x i8]*, i64 }, align 8
  %self.dbg.spill = alloca i64, align 8
  %_5 = alloca { i64, i64 }, align 8
  store i64 %self, i64* %self.dbg.spill, align 8
  call void @llvm.dbg.declare(metadata i64* %self.dbg.spill, metadata !179, metadata !DIExpression()), !dbg !181
  %1 = getelementptr inbounds { [0 x i8]*, i64 }, { [0 x i8]*, i64 }* %slice.dbg.spill, i32 0, i32 0
  store [0 x i8]* %slice.0, [0 x i8]** %1, align 8
  %2 = getelementptr inbounds { [0 x i8]*, i64 }, { [0 x i8]*, i64 }* %slice.dbg.spill, i32 0, i32 1
  store i64 %slice.1, i64* %2, align 8
  call void @llvm.dbg.declare(metadata { [0 x i8]*, i64 }* %slice.dbg.spill, metadata !180, metadata !DIExpression()), !dbg !182
  %3 = bitcast { i64, i64 }* %_5 to i64*, !dbg !183
  store i64 0, i64* %3, align 8, !dbg !183
  %4 = getelementptr inbounds { i64, i64 }, { i64, i64 }* %_5, i32 0, i32 1, !dbg !183
  store i64 %self, i64* %4, align 8, !dbg !183
  %5 = getelementptr inbounds { i64, i64 }, { i64, i64 }* %_5, i32 0, i32 0, !dbg !183
  %6 = load i64, i64* %5, align 8, !dbg !183
  %7 = getelementptr inbounds { i64, i64 }, { i64, i64 }* %_5, i32 0, i32 1, !dbg !183
  %8 = load i64, i64* %7, align 8, !dbg !183
; call <core::ops::range::Range<usize> as core::slice::index::SliceIndex<[T]>>::index_mut
  %9 = call { [0 x i8]*, i64 } @"_ZN106_$LT$core..ops..range..Range$LT$usize$GT$$u20$as$u20$core..slice..index..SliceIndex$LT$$u5b$T$u5d$$GT$$GT$9index_mut17h822a641f20454c12E"(i64 %6, i64 %8, [0 x i8]* nonnull align 1 %slice.0, i64 %slice.1, %"core::panic::Location"* align 8 dereferenceable(24) %0), !dbg !183
  %_4.0 = extractvalue { [0 x i8]*, i64 } %9, 0, !dbg !183
  %_4.1 = extractvalue { [0 x i8]*, i64 } %9, 1, !dbg !183
  br label %bb1, !dbg !183

bb1:                                              ; preds = %start
  %10 = insertvalue { [0 x i8]*, i64 } undef, [0 x i8]* %_4.0, 0, !dbg !184
  %11 = insertvalue { [0 x i8]*, i64 } %10, i64 %_4.1, 1, !dbg !184
  ret { [0 x i8]*, i64 } %11, !dbg !184
}

; <core::iter::adapters::enumerate::Enumerate<I> as core::iter::traits::iterator::Iterator>::next
; Function Attrs: inlinehint nounwind
define { i64, i8* } @"_ZN110_$LT$core..iter..adapters..enumerate..Enumerate$LT$I$GT$$u20$as$u20$core..iter..traits..iterator..Iterator$GT$4next17hb3f26e78566e0a63E"(%"core::iter::Enumerate<core::slice::Iter<u8>>"* align 8 dereferenceable(24) %self) unnamed_addr #0 !dbg !185 {
start:
  %i.dbg.spill = alloca i64, align 8
  %a.dbg.spill = alloca i8*, align 8
  %val.dbg.spill = alloca i8*, align 8
  %residual.dbg.spill = alloca %"core::option::Option<core::convert::Infallible>::None", align 1
  %self.dbg.spill = alloca %"core::iter::Enumerate<core::slice::Iter<u8>>"*, align 8
  %_12 = alloca { i64, i8* }, align 8
  %_3 = alloca i8*, align 8
  %0 = alloca { i64, i8* }, align 8
  store %"core::iter::Enumerate<core::slice::Iter<u8>>"* %self, %"core::iter::Enumerate<core::slice::Iter<u8>>"** %self.dbg.spill, align 8
  call void @llvm.dbg.declare(metadata %"core::iter::Enumerate<core::slice::Iter<u8>>"** %self.dbg.spill, metadata !235, metadata !DIExpression()), !dbg !256
  call void @llvm.dbg.declare(metadata %"core::option::Option<core::convert::Infallible>::None"* %residual.dbg.spill, metadata !238, metadata !DIExpression()), !dbg !257
  %_5 = bitcast %"core::iter::Enumerate<core::slice::Iter<u8>>"* %self to { i8*, i8* }*, !dbg !258
; call <core::slice::iter::Iter<T> as core::iter::traits::iterator::Iterator>::next
  %_4 = call align 1 dereferenceable_or_null(1) i8* @"_ZN91_$LT$core..slice..iter..Iter$LT$T$GT$$u20$as$u20$core..iter..traits..iterator..Iterator$GT$4next17hc77c1daee05be341E"({ i8*, i8* }* align 8 dereferenceable(16) %_5), !dbg !258
  br label %bb1, !dbg !258

bb1:                                              ; preds = %start
; call <core::option::Option<T> as core::ops::try_trait::Try>::branch
  %1 = call align 1 dereferenceable_or_null(1) i8* @"_ZN75_$LT$core..option..Option$LT$T$GT$$u20$as$u20$core..ops..try_trait..Try$GT$6branch17hdebb28c4145155a6E"(i8* align 1 dereferenceable_or_null(1) %_4), !dbg !258
  store i8* %1, i8** %_3, align 8, !dbg !258
  br label %bb2, !dbg !258

bb2:                                              ; preds = %bb1
  %2 = bitcast i8** %_3 to {}**, !dbg !258
  %3 = load {}*, {}** %2, align 8, !dbg !258
  %4 = icmp eq {}* %3, null, !dbg !258
  %_6 = select i1 %4, i64 1, i64 0, !dbg !258
  switch i64 %_6, label %bb4 [
    i64 0, label %bb3
    i64 1, label %bb5
  ], !dbg !258

bb4:                                              ; preds = %bb2
  unreachable, !dbg !258

bb3:                                              ; preds = %bb2
  %val = load i8*, i8** %_3, align 8, !dbg !258, !nonnull !4
  store i8* %val, i8** %val.dbg.spill, align 8, !dbg !258
  call void @llvm.dbg.declare(metadata i8** %val.dbg.spill, metadata !252, metadata !DIExpression()), !dbg !259
  store i8* %val, i8** %a.dbg.spill, align 8, !dbg !259
  call void @llvm.dbg.declare(metadata i8** %a.dbg.spill, metadata !236, metadata !DIExpression()), !dbg !260
  %5 = getelementptr inbounds %"core::iter::Enumerate<core::slice::Iter<u8>>", %"core::iter::Enumerate<core::slice::Iter<u8>>"* %self, i32 0, i32 1, !dbg !261
  %i = load i64, i64* %5, align 8, !dbg !261
  store i64 %i, i64* %i.dbg.spill, align 8, !dbg !261
  call void @llvm.dbg.declare(metadata i64* %i.dbg.spill, metadata !254, metadata !DIExpression()), !dbg !262
  %6 = getelementptr inbounds %"core::iter::Enumerate<core::slice::Iter<u8>>", %"core::iter::Enumerate<core::slice::Iter<u8>>"* %self, i32 0, i32 1, !dbg !263
  %7 = load i64, i64* %6, align 8, !dbg !263
  %8 = call { i64, i1 } @llvm.uadd.with.overflow.i64(i64 %7, i64 1), !dbg !263
  %_11.0 = extractvalue { i64, i1 } %8, 0, !dbg !263
  %_11.1 = extractvalue { i64, i1 } %8, 1, !dbg !263
  %9 = call i1 @llvm.expect.i1(i1 %_11.1, i1 false), !dbg !263
  br i1 %9, label %panic, label %bb7, !dbg !263

bb5:                                              ; preds = %bb2
; call <core::option::Option<T> as core::ops::try_trait::FromResidual>::from_residual
  %10 = call { i64, i8* } @"_ZN84_$LT$core..option..Option$LT$T$GT$$u20$as$u20$core..ops..try_trait..FromResidual$GT$13from_residual17ha7355996df788fd9E"(), !dbg !264
  store { i64, i8* } %10, { i64, i8* }* %0, align 8, !dbg !264
  br label %bb6, !dbg !264

bb6:                                              ; preds = %bb5
  br label %bb8, !dbg !265

bb8:                                              ; preds = %bb7, %bb6
  %11 = getelementptr inbounds { i64, i8* }, { i64, i8* }* %0, i32 0, i32 0, !dbg !265
  %12 = load i64, i64* %11, align 8, !dbg !265
  %13 = getelementptr inbounds { i64, i8* }, { i64, i8* }* %0, i32 0, i32 1, !dbg !265
  %14 = load i8*, i8** %13, align 8, !dbg !265
  %15 = insertvalue { i64, i8* } undef, i64 %12, 0, !dbg !265
  %16 = insertvalue { i64, i8* } %15, i8* %14, 1, !dbg !265
  ret { i64, i8* } %16, !dbg !265

bb7:                                              ; preds = %bb3
  %17 = getelementptr inbounds %"core::iter::Enumerate<core::slice::Iter<u8>>", %"core::iter::Enumerate<core::slice::Iter<u8>>"* %self, i32 0, i32 1, !dbg !263
  store i64 %_11.0, i64* %17, align 8, !dbg !263
  %18 = bitcast { i64, i8* }* %_12 to i64*, !dbg !266
  store i64 %i, i64* %18, align 8, !dbg !266
  %19 = getelementptr inbounds { i64, i8* }, { i64, i8* }* %_12, i32 0, i32 1, !dbg !266
  store i8* %val, i8** %19, align 8, !dbg !266
  %20 = getelementptr inbounds { i64, i8* }, { i64, i8* }* %_12, i32 0, i32 0, !dbg !267
  %21 = load i64, i64* %20, align 8, !dbg !267
  %22 = getelementptr inbounds { i64, i8* }, { i64, i8* }* %_12, i32 0, i32 1, !dbg !267
  %23 = load i8*, i8** %22, align 8, !dbg !267, !nonnull !4
  %24 = getelementptr inbounds { i64, i8* }, { i64, i8* }* %0, i32 0, i32 0, !dbg !267
  store i64 %21, i64* %24, align 8, !dbg !267
  %25 = getelementptr inbounds { i64, i8* }, { i64, i8* }* %0, i32 0, i32 1, !dbg !267
  store i8* %23, i8** %25, align 8, !dbg !267
  br label %bb8, !dbg !265

panic:                                            ; preds = %bb3
; call core::panicking::panic
  call void @_ZN4core9panicking5panic17h560e3e4b7752857aE([0 x i8]* nonnull align 1 bitcast ([28 x i8]* @str.0 to [0 x i8]*), i64 28, %"core::panic::Location"* align 8 dereferenceable(24) bitcast (<{ i8*, [16 x i8] }>* @alloc455 to %"core::panic::Location"*)), !dbg !263
  unreachable, !dbg !263
}

; <core::ops::range::RangeFrom<usize> as core::slice::index::SliceIndex<[T]>>::get_unchecked
; Function Attrs: inlinehint nounwind
define { [0 x i8]*, i64 } @"_ZN110_$LT$core..ops..range..RangeFrom$LT$usize$GT$$u20$as$u20$core..slice..index..SliceIndex$LT$$u5b$T$u5d$$GT$$GT$13get_unchecked17h951d144e4ef81cf9E"(i64 %self, [0 x i8]* %slice.0, i64 %slice.1) unnamed_addr #0 !dbg !268 {
start:
  %slice.dbg.spill = alloca { [0 x i8]*, i64 }, align 8
  %self.dbg.spill = alloca i64, align 8
  %_3 = alloca { i64, i64 }, align 8
  store i64 %self, i64* %self.dbg.spill, align 8
  call void @llvm.dbg.declare(metadata i64* %self.dbg.spill, metadata !276, metadata !DIExpression()), !dbg !278
  %0 = getelementptr inbounds { [0 x i8]*, i64 }, { [0 x i8]*, i64 }* %slice.dbg.spill, i32 0, i32 0
  store [0 x i8]* %slice.0, [0 x i8]** %0, align 8
  %1 = getelementptr inbounds { [0 x i8]*, i64 }, { [0 x i8]*, i64 }* %slice.dbg.spill, i32 0, i32 1
  store i64 %slice.1, i64* %1, align 8
  call void @llvm.dbg.declare(metadata { [0 x i8]*, i64 }* %slice.dbg.spill, metadata !277, metadata !DIExpression()), !dbg !279
; call core::ptr::const_ptr::<impl *const [T]>::len
  %_5 = call i64 @"_ZN4core3ptr9const_ptr43_$LT$impl$u20$$BP$const$u20$$u5b$T$u5d$$GT$3len17he1f3f52f12571ecfE"([0 x i8]* %slice.0, i64 %slice.1), !dbg !280
  br label %bb1, !dbg !280

bb1:                                              ; preds = %start
  %2 = bitcast { i64, i64 }* %_3 to i64*, !dbg !281
  store i64 %self, i64* %2, align 8, !dbg !281
  %3 = getelementptr inbounds { i64, i64 }, { i64, i64 }* %_3, i32 0, i32 1, !dbg !281
  store i64 %_5, i64* %3, align 8, !dbg !281
  %4 = getelementptr inbounds { i64, i64 }, { i64, i64 }* %_3, i32 0, i32 0, !dbg !281
  %5 = load i64, i64* %4, align 8, !dbg !281
  %6 = getelementptr inbounds { i64, i64 }, { i64, i64 }* %_3, i32 0, i32 1, !dbg !281
  %7 = load i64, i64* %6, align 8, !dbg !281
; call <core::ops::range::Range<usize> as core::slice::index::SliceIndex<[T]>>::get_unchecked
  %8 = call { [0 x i8]*, i64 } @"_ZN106_$LT$core..ops..range..Range$LT$usize$GT$$u20$as$u20$core..slice..index..SliceIndex$LT$$u5b$T$u5d$$GT$$GT$13get_unchecked17h836b4846e0eda774E"(i64 %5, i64 %7, [0 x i8]* %slice.0, i64 %slice.1), !dbg !281
  %9 = extractvalue { [0 x i8]*, i64 } %8, 0, !dbg !281
  %10 = extractvalue { [0 x i8]*, i64 } %8, 1, !dbg !281
  br label %bb2, !dbg !281

bb2:                                              ; preds = %bb1
  %11 = insertvalue { [0 x i8]*, i64 } undef, [0 x i8]* %9, 0, !dbg !282
  %12 = insertvalue { [0 x i8]*, i64 } %11, i64 %10, 1, !dbg !282
  ret { [0 x i8]*, i64 } %12, !dbg !282
}

; <core::ops::range::RangeFrom<usize> as core::slice::index::SliceIndex<[T]>>::get_unchecked_mut
; Function Attrs: inlinehint nounwind
define { [0 x i8]*, i64 } @"_ZN110_$LT$core..ops..range..RangeFrom$LT$usize$GT$$u20$as$u20$core..slice..index..SliceIndex$LT$$u5b$T$u5d$$GT$$GT$17get_unchecked_mut17h94fe754233031ed0E"(i64 %self, [0 x i8]* %slice.0, i64 %slice.1) unnamed_addr #0 !dbg !283 {
start:
  %self.dbg.spill.i = alloca { [0 x i8]*, i64 }, align 8
  %slice.dbg.spill = alloca { [0 x i8]*, i64 }, align 8
  %self.dbg.spill = alloca i64, align 8
  %_3 = alloca { i64, i64 }, align 8
  store i64 %self, i64* %self.dbg.spill, align 8
  call void @llvm.dbg.declare(metadata i64* %self.dbg.spill, metadata !287, metadata !DIExpression()), !dbg !289
  %0 = getelementptr inbounds { [0 x i8]*, i64 }, { [0 x i8]*, i64 }* %slice.dbg.spill, i32 0, i32 0
  store [0 x i8]* %slice.0, [0 x i8]** %0, align 8
  %1 = getelementptr inbounds { [0 x i8]*, i64 }, { [0 x i8]*, i64 }* %slice.dbg.spill, i32 0, i32 1
  store i64 %slice.1, i64* %1, align 8
  call void @llvm.dbg.declare(metadata { [0 x i8]*, i64 }* %slice.dbg.spill, metadata !288, metadata !DIExpression()), !dbg !290
  %2 = getelementptr inbounds { [0 x i8]*, i64 }, { [0 x i8]*, i64 }* %self.dbg.spill.i, i32 0, i32 0
  store [0 x i8]* %slice.0, [0 x i8]** %2, align 8
  %3 = getelementptr inbounds { [0 x i8]*, i64 }, { [0 x i8]*, i64 }* %self.dbg.spill.i, i32 0, i32 1
  store i64 %slice.1, i64* %3, align 8
  call void @llvm.dbg.declare(metadata { [0 x i8]*, i64 }* %self.dbg.spill.i, metadata !291, metadata !DIExpression()) #8, !dbg !296
; call core::ptr::metadata::metadata
  %4 = call i64 @_ZN4core3ptr8metadata8metadata17h0f25dcef7fdc351cE([0 x i8]* %slice.0, i64 %slice.1) #8, !dbg !298
  br label %bb1, !dbg !299

bb1:                                              ; preds = %start
  %5 = bitcast { i64, i64 }* %_3 to i64*, !dbg !300
  store i64 %self, i64* %5, align 8, !dbg !300
  %6 = getelementptr inbounds { i64, i64 }, { i64, i64 }* %_3, i32 0, i32 1, !dbg !300
  store i64 %4, i64* %6, align 8, !dbg !300
  %7 = getelementptr inbounds { i64, i64 }, { i64, i64 }* %_3, i32 0, i32 0, !dbg !300
  %8 = load i64, i64* %7, align 8, !dbg !300
  %9 = getelementptr inbounds { i64, i64 }, { i64, i64 }* %_3, i32 0, i32 1, !dbg !300
  %10 = load i64, i64* %9, align 8, !dbg !300
; call <core::ops::range::Range<usize> as core::slice::index::SliceIndex<[T]>>::get_unchecked_mut
  %11 = call { [0 x i8]*, i64 } @"_ZN106_$LT$core..ops..range..Range$LT$usize$GT$$u20$as$u20$core..slice..index..SliceIndex$LT$$u5b$T$u5d$$GT$$GT$17get_unchecked_mut17h7f45f997a5b6f773E"(i64 %8, i64 %10, [0 x i8]* %slice.0, i64 %slice.1), !dbg !300
  %12 = extractvalue { [0 x i8]*, i64 } %11, 0, !dbg !300
  %13 = extractvalue { [0 x i8]*, i64 } %11, 1, !dbg !300
  br label %bb2, !dbg !300

bb2:                                              ; preds = %bb1
  %14 = insertvalue { [0 x i8]*, i64 } undef, [0 x i8]* %12, 0, !dbg !301
  %15 = insertvalue { [0 x i8]*, i64 } %14, i64 %13, 1, !dbg !301
  ret { [0 x i8]*, i64 } %15, !dbg !301
}

; <core::ops::range::RangeFrom<usize> as core::slice::index::SliceIndex<[T]>>::index
; Function Attrs: inlinehint nounwind
define { [0 x i8]*, i64 } @"_ZN110_$LT$core..ops..range..RangeFrom$LT$usize$GT$$u20$as$u20$core..slice..index..SliceIndex$LT$$u5b$T$u5d$$GT$$GT$5index17hb906c940cce45f36E"(i64 %self, [0 x i8]* nonnull align 1 %slice.0, i64 %slice.1, %"core::panic::Location"* align 8 dereferenceable(24) %0) unnamed_addr #0 !dbg !302 {
start:
  %slice.dbg.spill = alloca { [0 x i8]*, i64 }, align 8
  %self.dbg.spill = alloca i64, align 8
  store i64 %self, i64* %self.dbg.spill, align 8
  call void @llvm.dbg.declare(metadata i64* %self.dbg.spill, metadata !310, metadata !DIExpression()), !dbg !312
  %1 = getelementptr inbounds { [0 x i8]*, i64 }, { [0 x i8]*, i64 }* %slice.dbg.spill, i32 0, i32 0
  store [0 x i8]* %slice.0, [0 x i8]** %1, align 8
  %2 = getelementptr inbounds { [0 x i8]*, i64 }, { [0 x i8]*, i64 }* %slice.dbg.spill, i32 0, i32 1
  store i64 %slice.1, i64* %2, align 8
  call void @llvm.dbg.declare(metadata { [0 x i8]*, i64 }* %slice.dbg.spill, metadata !311, metadata !DIExpression()), !dbg !313
  %_3 = icmp ugt i64 %self, %slice.1, !dbg !314
  br i1 %_3, label %bb1, label %bb2, !dbg !314

bb2:                                              ; preds = %start
; call <core::ops::range::RangeFrom<usize> as core::slice::index::SliceIndex<[T]>>::get_unchecked
  %3 = call { [0 x i8]*, i64 } @"_ZN110_$LT$core..ops..range..RangeFrom$LT$usize$GT$$u20$as$u20$core..slice..index..SliceIndex$LT$$u5b$T$u5d$$GT$$GT$13get_unchecked17h951d144e4ef81cf9E"(i64 %self, [0 x i8]* %slice.0, i64 %slice.1), !dbg !315
  %_10.0 = extractvalue { [0 x i8]*, i64 } %3, 0, !dbg !315
  %_10.1 = extractvalue { [0 x i8]*, i64 } %3, 1, !dbg !315
  br label %bb3, !dbg !315

bb1:                                              ; preds = %start
; call core::slice::index::slice_start_index_len_fail
  call void @_ZN4core5slice5index26slice_start_index_len_fail17h09af85f858e7356bE(i64 %self, i64 %slice.1, %"core::panic::Location"* align 8 dereferenceable(24) %0), !dbg !316
  unreachable, !dbg !316

bb3:                                              ; preds = %bb2
  %4 = insertvalue { [0 x i8]*, i64 } undef, [0 x i8]* %_10.0, 0, !dbg !317
  %5 = insertvalue { [0 x i8]*, i64 } %4, i64 %_10.1, 1, !dbg !317
  ret { [0 x i8]*, i64 } %5, !dbg !317
}

; <core::ops::range::RangeFrom<usize> as core::slice::index::SliceIndex<[T]>>::index_mut
; Function Attrs: inlinehint nounwind
define { [0 x i8]*, i64 } @"_ZN110_$LT$core..ops..range..RangeFrom$LT$usize$GT$$u20$as$u20$core..slice..index..SliceIndex$LT$$u5b$T$u5d$$GT$$GT$9index_mut17h759d3e7f3c413785E"(i64 %self, [0 x i8]* nonnull align 1 %slice.0, i64 %slice.1, %"core::panic::Location"* align 8 dereferenceable(24) %0) unnamed_addr #0 !dbg !318 {
start:
  %slice.dbg.spill = alloca { [0 x i8]*, i64 }, align 8
  %self.dbg.spill = alloca i64, align 8
  store i64 %self, i64* %self.dbg.spill, align 8
  call void @llvm.dbg.declare(metadata i64* %self.dbg.spill, metadata !322, metadata !DIExpression()), !dbg !324
  %1 = getelementptr inbounds { [0 x i8]*, i64 }, { [0 x i8]*, i64 }* %slice.dbg.spill, i32 0, i32 0
  store [0 x i8]* %slice.0, [0 x i8]** %1, align 8
  %2 = getelementptr inbounds { [0 x i8]*, i64 }, { [0 x i8]*, i64 }* %slice.dbg.spill, i32 0, i32 1
  store i64 %slice.1, i64* %2, align 8
  call void @llvm.dbg.declare(metadata { [0 x i8]*, i64 }* %slice.dbg.spill, metadata !323, metadata !DIExpression()), !dbg !325
  %_4 = icmp ugt i64 %self, %slice.1, !dbg !326
  br i1 %_4, label %bb1, label %bb2, !dbg !326

bb2:                                              ; preds = %start
; call <core::ops::range::RangeFrom<usize> as core::slice::index::SliceIndex<[T]>>::get_unchecked_mut
  %3 = call { [0 x i8]*, i64 } @"_ZN110_$LT$core..ops..range..RangeFrom$LT$usize$GT$$u20$as$u20$core..slice..index..SliceIndex$LT$$u5b$T$u5d$$GT$$GT$17get_unchecked_mut17h94fe754233031ed0E"(i64 %self, [0 x i8]* %slice.0, i64 %slice.1), !dbg !327
  %_13.0 = extractvalue { [0 x i8]*, i64 } %3, 0, !dbg !327
  %_13.1 = extractvalue { [0 x i8]*, i64 } %3, 1, !dbg !327
  br label %bb3, !dbg !327

bb1:                                              ; preds = %start
; call core::slice::index::slice_start_index_len_fail
  call void @_ZN4core5slice5index26slice_start_index_len_fail17h09af85f858e7356bE(i64 %self, i64 %slice.1, %"core::panic::Location"* align 8 dereferenceable(24) %0), !dbg !328
  unreachable, !dbg !328

bb3:                                              ; preds = %bb2
  %4 = insertvalue { [0 x i8]*, i64 } undef, [0 x i8]* %_13.0, 0, !dbg !329
  %5 = insertvalue { [0 x i8]*, i64 } %4, i64 %_13.1, 1, !dbg !329
  ret { [0 x i8]*, i64 } %5, !dbg !329
}

; <core::iter::adapters::take_while::TakeWhile<I,P> as core::iter::traits::iterator::Iterator>::next
; Function Attrs: inlinehint nounwind
define align 1 dereferenceable_or_null(1) i8* @"_ZN115_$LT$core..iter..adapters..take_while..TakeWhile$LT$I$C$P$GT$$u20$as$u20$core..iter..traits..iterator..Iterator$GT$4next17hfa6200f342eef61bE"(%"core::iter::TakeWhile<core::slice::Iter<u8>, [closure@/home/seaceved/.cargo/registry/src/github.com-1ecc6299db9ec823/bs58-0.4.0/src/decode.rs:226:38: 226:53]>"* align 8 dereferenceable(32) %self) unnamed_addr #0 !dbg !330 {
start:
  %val.dbg.spill = alloca i8*, align 8
  %residual.dbg.spill = alloca %"core::option::Option<core::convert::Infallible>::None", align 1
  %self.dbg.spill = alloca %"core::iter::TakeWhile<core::slice::Iter<u8>, [closure@/home/seaceved/.cargo/registry/src/github.com-1ecc6299db9ec823/bs58-0.4.0/src/decode.rs:226:38: 226:53]>"*, align 8
  %_17 = alloca i8, align 1
  %_13 = alloca i64*, align 8
  %_4 = alloca i8*, align 8
  %x = alloca i8*, align 8
  %0 = alloca i8*, align 8
  store %"core::iter::TakeWhile<core::slice::Iter<u8>, [closure@/home/seaceved/.cargo/registry/src/github.com-1ecc6299db9ec823/bs58-0.4.0/src/decode.rs:226:38: 226:53]>"* %self, %"core::iter::TakeWhile<core::slice::Iter<u8>, [closure@/home/seaceved/.cargo/registry/src/github.com-1ecc6299db9ec823/bs58-0.4.0/src/decode.rs:226:38: 226:53]>"** %self.dbg.spill, align 8
  call void @llvm.dbg.declare(metadata %"core::iter::TakeWhile<core::slice::Iter<u8>, [closure@/home/seaceved/.cargo/registry/src/github.com-1ecc6299db9ec823/bs58-0.4.0/src/decode.rs:226:38: 226:53]>"** %self.dbg.spill, metadata !363, metadata !DIExpression()), !dbg !370
  call void @llvm.dbg.declare(metadata i8** %x, metadata !364, metadata !DIExpression()), !dbg !371
  call void @llvm.dbg.declare(metadata %"core::option::Option<core::convert::Infallible>::None"* %residual.dbg.spill, metadata !366, metadata !DIExpression()), !dbg !372
  store i8 0, i8* %_17, align 1, !dbg !373
  %1 = getelementptr inbounds %"core::iter::TakeWhile<core::slice::Iter<u8>, [closure@/home/seaceved/.cargo/registry/src/github.com-1ecc6299db9ec823/bs58-0.4.0/src/decode.rs:226:38: 226:53]>", %"core::iter::TakeWhile<core::slice::Iter<u8>, [closure@/home/seaceved/.cargo/registry/src/github.com-1ecc6299db9ec823/bs58-0.4.0/src/decode.rs:226:38: 226:53]>"* %self, i32 0, i32 2, !dbg !373
  %2 = load i8, i8* %1, align 8, !dbg !373, !range !374
  %_2 = trunc i8 %2 to i1, !dbg !373
  br i1 %_2, label %bb1, label %bb2, !dbg !373

bb2:                                              ; preds = %start
  %_6 = bitcast %"core::iter::TakeWhile<core::slice::Iter<u8>, [closure@/home/seaceved/.cargo/registry/src/github.com-1ecc6299db9ec823/bs58-0.4.0/src/decode.rs:226:38: 226:53]>"* %self to { i8*, i8* }*, !dbg !375
; call <core::slice::iter::Iter<T> as core::iter::traits::iterator::Iterator>::next
  %_5 = call align 1 dereferenceable_or_null(1) i8* @"_ZN91_$LT$core..slice..iter..Iter$LT$T$GT$$u20$as$u20$core..iter..traits..iterator..Iterator$GT$4next17hc77c1daee05be341E"({ i8*, i8* }* align 8 dereferenceable(16) %_6), !dbg !375
  br label %bb3, !dbg !375

bb1:                                              ; preds = %start
  %3 = bitcast i8** %0 to {}**, !dbg !376
  store {}* null, {}** %3, align 8, !dbg !376
  br label %bb14, !dbg !377

bb14:                                             ; preds = %bb13, %bb1
  br label %bb15, !dbg !378

bb3:                                              ; preds = %bb2
; call <core::option::Option<T> as core::ops::try_trait::Try>::branch
  %4 = call align 1 dereferenceable_or_null(1) i8* @"_ZN75_$LT$core..option..Option$LT$T$GT$$u20$as$u20$core..ops..try_trait..Try$GT$6branch17hdebb28c4145155a6E"(i8* align 1 dereferenceable_or_null(1) %_5), !dbg !375
  store i8* %4, i8** %_4, align 8, !dbg !375
  br label %bb4, !dbg !375

bb4:                                              ; preds = %bb3
  %5 = bitcast i8** %_4 to {}**, !dbg !375
  %6 = load {}*, {}** %5, align 8, !dbg !375
  %7 = icmp eq {}* %6, null, !dbg !375
  %_7 = select i1 %7, i64 1, i64 0, !dbg !375
  switch i64 %_7, label %bb6 [
    i64 0, label %bb5
    i64 1, label %bb7
  ], !dbg !375

bb6:                                              ; preds = %bb4
  unreachable, !dbg !375

bb5:                                              ; preds = %bb4
  %val = load i8*, i8** %_4, align 8, !dbg !375, !nonnull !4
  store i8* %val, i8** %val.dbg.spill, align 8, !dbg !375
  call void @llvm.dbg.declare(metadata i8** %val.dbg.spill, metadata !368, metadata !DIExpression()), !dbg !379
  store i8 1, i8* %_17, align 1, !dbg !379
  store i8* %val, i8** %x, align 8, !dbg !379
  %_12 = getelementptr inbounds %"core::iter::TakeWhile<core::slice::Iter<u8>, [closure@/home/seaceved/.cargo/registry/src/github.com-1ecc6299db9ec823/bs58-0.4.0/src/decode.rs:226:38: 226:53]>", %"core::iter::TakeWhile<core::slice::Iter<u8>, [closure@/home/seaceved/.cargo/registry/src/github.com-1ecc6299db9ec823/bs58-0.4.0/src/decode.rs:226:38: 226:53]>"* %self, i32 0, i32 1, !dbg !380
  %8 = bitcast i64** %_13 to i8***, !dbg !380
  store i8** %x, i8*** %8, align 8, !dbg !380
  %9 = load i64*, i64** %_13, align 8, !dbg !380, !nonnull !4
  %10 = bitcast i64* %9 to i8**, !dbg !380
; call bs58::decode::decode_into::{{closure}}
  %_11 = call zeroext i1 @"_ZN4bs586decode11decode_into28_$u7b$$u7b$closure$u7d$$u7d$17hbc6af2aa974e0f20E"(i8** align 8 dereferenceable(8) %_12, i8** align 8 dereferenceable(8) %10), !dbg !380
  br label %bb9, !dbg !380

bb7:                                              ; preds = %bb4
; call <core::option::Option<T> as core::ops::try_trait::FromResidual>::from_residual
  %11 = call align 1 dereferenceable_or_null(1) i8* @"_ZN84_$LT$core..option..Option$LT$T$GT$$u20$as$u20$core..ops..try_trait..FromResidual$GT$13from_residual17h1c988e6f638a3d96E"(), !dbg !381
  store i8* %11, i8** %0, align 8, !dbg !381
  br label %bb8, !dbg !381

bb8:                                              ; preds = %bb7
  store i8 0, i8* %_17, align 1, !dbg !382
  br label %bb15, !dbg !378

bb15:                                             ; preds = %bb14, %bb8
  %12 = load i8*, i8** %0, align 8, !dbg !378
  ret i8* %12, !dbg !378

bb9:                                              ; preds = %bb5
  br i1 %_11, label %bb10, label %bb11, !dbg !380

bb11:                                             ; preds = %bb9
  %13 = getelementptr inbounds %"core::iter::TakeWhile<core::slice::Iter<u8>, [closure@/home/seaceved/.cargo/registry/src/github.com-1ecc6299db9ec823/bs58-0.4.0/src/decode.rs:226:38: 226:53]>", %"core::iter::TakeWhile<core::slice::Iter<u8>, [closure@/home/seaceved/.cargo/registry/src/github.com-1ecc6299db9ec823/bs58-0.4.0/src/decode.rs:226:38: 226:53]>"* %self, i32 0, i32 2, !dbg !383
  store i8 1, i8* %13, align 8, !dbg !383
  %14 = bitcast i8** %0 to {}**, !dbg !384
  store {}* null, {}** %14, align 8, !dbg !384
  br label %bb12, !dbg !385

bb10:                                             ; preds = %bb9
  store i8 0, i8* %_17, align 1, !dbg !386
  %_16 = load i8*, i8** %x, align 8, !dbg !386, !nonnull !4
  store i8* %_16, i8** %0, align 8, !dbg !387
  br label %bb12, !dbg !385

bb12:                                             ; preds = %bb11, %bb10
  %15 = load i8, i8* %_17, align 1, !dbg !382, !range !374
  %16 = trunc i8 %15 to i1, !dbg !382
  br i1 %16, label %bb16, label %bb13, !dbg !382

bb13:                                             ; preds = %bb16, %bb12
  store i8 0, i8* %_17, align 1, !dbg !382
  br label %bb14, !dbg !377

bb16:                                             ; preds = %bb12
  br label %bb13, !dbg !382
}

; <core::result::Result<T,F> as core::ops::try_trait::FromResidual<core::result::Result<core::convert::Infallible,E>>>::from_residual
; Function Attrs: inlinehint nounwind
define void @"_ZN153_$LT$core..result..Result$LT$T$C$F$GT$$u20$as$u20$core..ops..try_trait..FromResidual$LT$core..result..Result$LT$core..convert..Infallible$C$E$GT$$GT$$GT$13from_residual17hcff3312121aca10eE"(%"core::result::Result<usize, decode::Error>"* noalias nocapture sret(%"core::result::Result<usize, decode::Error>") dereferenceable(24) %0, i128 %1) unnamed_addr #0 !dbg !388 {
start:
  %2 = alloca i128, align 8
  %_4 = alloca %"decode::Error", align 8
  %_3 = alloca %"decode::Error", align 8
  %e = alloca %"decode::Error", align 8
  %3 = alloca i128, align 8
  %residual = alloca %"core::result::Result<core::convert::Infallible, decode::Error>::Err", align 8
  store i128 %1, i128* %3, align 8
  %4 = bitcast %"core::result::Result<core::convert::Infallible, decode::Error>::Err"* %residual to i8*
  %5 = bitcast i128* %3 to i8*
  call void @llvm.memcpy.p0i8.p0i8.i64(i8* align 8 %4, i8* align 8 %5, i64 16, i1 false)
  call void @llvm.dbg.declare(metadata %"core::result::Result<core::convert::Infallible, decode::Error>::Err"* %residual, metadata !435, metadata !DIExpression()), !dbg !440
  call void @llvm.dbg.declare(metadata %"decode::Error"* %e, metadata !436, metadata !DIExpression()), !dbg !441
  %6 = bitcast %"core::result::Result<core::convert::Infallible, decode::Error>::Err"* %residual to %"decode::Error"*, !dbg !442
  %7 = bitcast %"decode::Error"* %e to i8*, !dbg !442
  %8 = bitcast %"decode::Error"* %6 to i8*, !dbg !442
  call void @llvm.memcpy.p0i8.p0i8.i64(i8* align 8 %7, i8* align 8 %8, i64 16, i1 false), !dbg !442
  %9 = bitcast %"decode::Error"* %_4 to i8*, !dbg !443
  %10 = bitcast %"decode::Error"* %e to i8*, !dbg !443
  call void @llvm.memcpy.p0i8.p0i8.i64(i8* align 8 %9, i8* align 8 %10, i64 16, i1 false), !dbg !443
  %11 = bitcast %"decode::Error"* %_4 to i128*, !dbg !444
  %12 = load i128, i128* %11, align 8, !dbg !444
; call <T as core::convert::From<T>>::from
  %13 = call i128 @"_ZN50_$LT$T$u20$as$u20$core..convert..From$LT$T$GT$$GT$4from17h9656035c99efe856E"(i128 %12), !dbg !444
  store i128 %13, i128* %2, align 8, !dbg !444
  %14 = bitcast %"decode::Error"* %_3 to i8*, !dbg !444
  %15 = bitcast i128* %2 to i8*, !dbg !444
  call void @llvm.memcpy.p0i8.p0i8.i64(i8* align 8 %14, i8* align 8 %15, i64 16, i1 false), !dbg !444
  br label %bb1, !dbg !444

bb1:                                              ; preds = %start
  %16 = bitcast %"core::result::Result<usize, decode::Error>"* %0 to %"core::result::Result<usize, decode::Error>::Err"*, !dbg !445
  %17 = getelementptr inbounds %"core::result::Result<usize, decode::Error>::Err", %"core::result::Result<usize, decode::Error>::Err"* %16, i32 0, i32 1, !dbg !445
  %18 = bitcast %"decode::Error"* %17 to i8*, !dbg !445
  %19 = bitcast %"decode::Error"* %_3 to i8*, !dbg !445
  call void @llvm.memcpy.p0i8.p0i8.i64(i8* align 8 %18, i8* align 8 %19, i64 16, i1 false), !dbg !445
  %20 = bitcast %"core::result::Result<usize, decode::Error>"* %0 to i64*, !dbg !445
  store i64 1, i64* %20, align 8, !dbg !445
  ret void, !dbg !446
}

; <&T as core::fmt::Debug>::fmt
; Function Attrs: nounwind
define zeroext i1 @"_ZN42_$LT$$RF$T$u20$as$u20$core..fmt..Debug$GT$3fmt17h3f266abbfae66ec3E"(i64** align 8 dereferenceable(8) %self, %"core::fmt::Formatter"* align 8 dereferenceable(64) %f) unnamed_addr #1 !dbg !447 {
start:
  %f.dbg.spill = alloca %"core::fmt::Formatter"*, align 8
  %self.dbg.spill = alloca i64**, align 8
  store i64** %self, i64*** %self.dbg.spill, align 8
  call void @llvm.dbg.declare(metadata i64*** %self.dbg.spill, metadata !482, metadata !DIExpression()), !dbg !484
  store %"core::fmt::Formatter"* %f, %"core::fmt::Formatter"** %f.dbg.spill, align 8
  call void @llvm.dbg.declare(metadata %"core::fmt::Formatter"** %f.dbg.spill, metadata !483, metadata !DIExpression()), !dbg !485
  %_4 = load i64*, i64** %self, align 8, !dbg !486, !nonnull !4
; call core::fmt::num::<impl core::fmt::Debug for usize>::fmt
  %0 = call zeroext i1 @"_ZN4core3fmt3num52_$LT$impl$u20$core..fmt..Debug$u20$for$u20$usize$GT$3fmt17h55e604f8300509afE"(i64* align 8 dereferenceable(8) %_4, %"core::fmt::Formatter"* align 8 dereferenceable(64) %f), !dbg !487
  br label %bb1, !dbg !487

bb1:                                              ; preds = %start
  ret i1 %0, !dbg !488
}

; <&T as core::fmt::Debug>::fmt
; Function Attrs: nounwind
define zeroext i1 @"_ZN42_$LT$$RF$T$u20$as$u20$core..fmt..Debug$GT$3fmt17h88b7349e56d41733E"(i32** align 8 dereferenceable(8) %self, %"core::fmt::Formatter"* align 8 dereferenceable(64) %f) unnamed_addr #1 !dbg !489 {
start:
  %f.dbg.spill = alloca %"core::fmt::Formatter"*, align 8
  %self.dbg.spill = alloca i32**, align 8
  store i32** %self, i32*** %self.dbg.spill, align 8
  call void @llvm.dbg.declare(metadata i32*** %self.dbg.spill, metadata !494, metadata !DIExpression()), !dbg !498
  store %"core::fmt::Formatter"* %f, %"core::fmt::Formatter"** %f.dbg.spill, align 8
  call void @llvm.dbg.declare(metadata %"core::fmt::Formatter"** %f.dbg.spill, metadata !495, metadata !DIExpression()), !dbg !499
  %_4 = load i32*, i32** %self, align 8, !dbg !500, !nonnull !4
; call <char as core::fmt::Debug>::fmt
  %0 = call zeroext i1 @"_ZN41_$LT$char$u20$as$u20$core..fmt..Debug$GT$3fmt17h637010754abc9b50E"(i32* align 4 dereferenceable(4) %_4, %"core::fmt::Formatter"* align 8 dereferenceable(64) %f), !dbg !501
  br label %bb1, !dbg !501

bb1:                                              ; preds = %start
  ret i1 %0, !dbg !502
}

; <&T as core::fmt::Debug>::fmt
; Function Attrs: nounwind
define zeroext i1 @"_ZN42_$LT$$RF$T$u20$as$u20$core..fmt..Debug$GT$3fmt17hf46656a2cf38e03cE"({ [0 x i8]*, i64 }* align 8 dereferenceable(16) %self, %"core::fmt::Formatter"* align 8 dereferenceable(64) %f) unnamed_addr #1 !dbg !503 {
start:
  %f.dbg.spill = alloca %"core::fmt::Formatter"*, align 8
  %self.dbg.spill = alloca { [0 x i8]*, i64 }*, align 8
  store { [0 x i8]*, i64 }* %self, { [0 x i8]*, i64 }** %self.dbg.spill, align 8
  call void @llvm.dbg.declare(metadata { [0 x i8]*, i64 }** %self.dbg.spill, metadata !508, metadata !DIExpression()), !dbg !516
  store %"core::fmt::Formatter"* %f, %"core::fmt::Formatter"** %f.dbg.spill, align 8
  call void @llvm.dbg.declare(metadata %"core::fmt::Formatter"** %f.dbg.spill, metadata !509, metadata !DIExpression()), !dbg !517
  %0 = getelementptr inbounds { [0 x i8]*, i64 }, { [0 x i8]*, i64 }* %self, i32 0, i32 0, !dbg !518
  %_4.0 = load [0 x i8]*, [0 x i8]** %0, align 8, !dbg !518, !nonnull !4
  %1 = getelementptr inbounds { [0 x i8]*, i64 }, { [0 x i8]*, i64 }* %self, i32 0, i32 1, !dbg !518
  %_4.1 = load i64, i64* %1, align 8, !dbg !518
; call <str as core::fmt::Debug>::fmt
  %2 = call zeroext i1 @"_ZN40_$LT$str$u20$as$u20$core..fmt..Debug$GT$3fmt17hc68cab295f7726b4E"([0 x i8]* nonnull align 1 %_4.0, i64 %_4.1, %"core::fmt::Formatter"* align 8 dereferenceable(64) %f), !dbg !519
  br label %bb1, !dbg !519

bb1:                                              ; preds = %start
  ret i1 %2, !dbg !520
}

; core::intrinsics::copy_nonoverlapping
; Function Attrs: inlinehint nounwind
define void @_ZN4core10intrinsics19copy_nonoverlapping17h199fd2935d1362b3E(i8* %src, i8* %dst, i64 %count) unnamed_addr #0 !dbg !521 {
start:
  %count.dbg.spill = alloca i64, align 8
  %dst.dbg.spill = alloca i8*, align 8
  %src.dbg.spill = alloca i8*, align 8
  store i8* %src, i8** %src.dbg.spill, align 8
  call void @llvm.dbg.declare(metadata i8** %src.dbg.spill, metadata !527, metadata !DIExpression()), !dbg !530
  store i8* %dst, i8** %dst.dbg.spill, align 8
  call void @llvm.dbg.declare(metadata i8** %dst.dbg.spill, metadata !528, metadata !DIExpression()), !dbg !531
  store i64 %count, i64* %count.dbg.spill, align 8
  call void @llvm.dbg.declare(metadata i64* %count.dbg.spill, metadata !529, metadata !DIExpression()), !dbg !532
  %0 = mul i64 %count, 1, !dbg !533
  call void @llvm.memcpy.p0i8.p0i8.i64(i8* align 1 %dst, i8* align 1 %src, i64 %0, i1 false), !dbg !533
  ret void, !dbg !534
}

; core::intrinsics::copy
; Function Attrs: inlinehint nounwind
define void @_ZN4core10intrinsics4copy17h1dbfa7fbc6281d08E(i8* %src, i8* %dst, i64 %count) unnamed_addr #0 !dbg !535 {
start:
  %count.dbg.spill = alloca i64, align 8
  %dst.dbg.spill = alloca i8*, align 8
  %src.dbg.spill = alloca i8*, align 8
  store i8* %src, i8** %src.dbg.spill, align 8
  call void @llvm.dbg.declare(metadata i8** %src.dbg.spill, metadata !537, metadata !DIExpression()), !dbg !540
  store i8* %dst, i8** %dst.dbg.spill, align 8
  call void @llvm.dbg.declare(metadata i8** %dst.dbg.spill, metadata !538, metadata !DIExpression()), !dbg !541
  store i64 %count, i64* %count.dbg.spill, align 8
  call void @llvm.dbg.declare(metadata i64* %count.dbg.spill, metadata !539, metadata !DIExpression()), !dbg !542
  %0 = mul i64 1, %count, !dbg !543
  call void @llvm.memmove.p0i8.p0i8.i64(i8* align 1 %dst, i8* align 1 %src, i64 %0, i1 false), !dbg !543
  br label %bb1, !dbg !543

bb1:                                              ; preds = %start
  ret void, !dbg !544
}

; core::fmt::ArgumentV1::new
; Function Attrs: nounwind
define { i8*, i64* } @_ZN4core3fmt10ArgumentV13new17h8663e96de68d35c7E(i64* align 8 dereferenceable(8) %x, i1 (i64*, %"core::fmt::Formatter"*)* nonnull %f) unnamed_addr #1 !dbg !545 {
start:
  %0 = alloca %"core::fmt::Opaque"*, align 8
  %1 = alloca i1 (%"core::fmt::Opaque"*, %"core::fmt::Formatter"*)*, align 8
  %f.dbg.spill = alloca i1 (i64*, %"core::fmt::Formatter"*)*, align 8
  %x.dbg.spill = alloca i64*, align 8
  %2 = alloca { i8*, i64* }, align 8
  store i64* %x, i64** %x.dbg.spill, align 8
  call void @llvm.dbg.declare(metadata i64** %x.dbg.spill, metadata !561, metadata !DIExpression()), !dbg !563
  store i1 (i64*, %"core::fmt::Formatter"*)* %f, i1 (i64*, %"core::fmt::Formatter"*)** %f.dbg.spill, align 8
  call void @llvm.dbg.declare(metadata i1 (i64*, %"core::fmt::Formatter"*)** %f.dbg.spill, metadata !562, metadata !DIExpression()), !dbg !564
  %3 = bitcast i1 (i64*, %"core::fmt::Formatter"*)* %f to i1 (%"core::fmt::Opaque"*, %"core::fmt::Formatter"*)*, !dbg !565
  store i1 (%"core::fmt::Opaque"*, %"core::fmt::Formatter"*)* %3, i1 (%"core::fmt::Opaque"*, %"core::fmt::Formatter"*)** %1, align 8, !dbg !565
  %_3 = load i1 (%"core::fmt::Opaque"*, %"core::fmt::Formatter"*)*, i1 (%"core::fmt::Opaque"*, %"core::fmt::Formatter"*)** %1, align 8, !dbg !565, !nonnull !4
  br label %bb1, !dbg !565

bb1:                                              ; preds = %start
  %4 = bitcast i64* %x to %"core::fmt::Opaque"*, !dbg !566
  store %"core::fmt::Opaque"* %4, %"core::fmt::Opaque"** %0, align 8, !dbg !566
  %_5 = load %"core::fmt::Opaque"*, %"core::fmt::Opaque"** %0, align 8, !dbg !566, !nonnull !4
  br label %bb2, !dbg !566

bb2:                                              ; preds = %bb1
  %5 = bitcast { i8*, i64* }* %2 to %"core::fmt::Opaque"**, !dbg !567
  store %"core::fmt::Opaque"* %_5, %"core::fmt::Opaque"** %5, align 8, !dbg !567
  %6 = getelementptr inbounds { i8*, i64* }, { i8*, i64* }* %2, i32 0, i32 1, !dbg !567
  %7 = bitcast i64** %6 to i1 (%"core::fmt::Opaque"*, %"core::fmt::Formatter"*)**, !dbg !567
  store i1 (%"core::fmt::Opaque"*, %"core::fmt::Formatter"*)* %_3, i1 (%"core::fmt::Opaque"*, %"core::fmt::Formatter"*)** %7, align 8, !dbg !567
  %8 = getelementptr inbounds { i8*, i64* }, { i8*, i64* }* %2, i32 0, i32 0, !dbg !568
  %9 = load i8*, i8** %8, align 8, !dbg !568, !nonnull !4
  %10 = getelementptr inbounds { i8*, i64* }, { i8*, i64* }* %2, i32 0, i32 1, !dbg !568
  %11 = load i64*, i64** %10, align 8, !dbg !568, !nonnull !4
  %12 = insertvalue { i8*, i64* } undef, i8* %9, 0, !dbg !568
  %13 = insertvalue { i8*, i64* } %12, i64* %11, 1, !dbg !568
  ret { i8*, i64* } %13, !dbg !568
}

; core::fmt::ArgumentV1::new
; Function Attrs: nounwind
define { i8*, i64* } @_ZN4core3fmt10ArgumentV13new17hb1649f178ab52ac8E(i32* align 4 dereferenceable(4) %x, i1 (i32*, %"core::fmt::Formatter"*)* nonnull %f) unnamed_addr #1 !dbg !569 {
start:
  %0 = alloca %"core::fmt::Opaque"*, align 8
  %1 = alloca i1 (%"core::fmt::Opaque"*, %"core::fmt::Formatter"*)*, align 8
  %f.dbg.spill = alloca i1 (i32*, %"core::fmt::Formatter"*)*, align 8
  %x.dbg.spill = alloca i32*, align 8
  %2 = alloca { i8*, i64* }, align 8
  store i32* %x, i32** %x.dbg.spill, align 8
  call void @llvm.dbg.declare(metadata i32** %x.dbg.spill, metadata !576, metadata !DIExpression()), !dbg !578
  store i1 (i32*, %"core::fmt::Formatter"*)* %f, i1 (i32*, %"core::fmt::Formatter"*)** %f.dbg.spill, align 8
  call void @llvm.dbg.declare(metadata i1 (i32*, %"core::fmt::Formatter"*)** %f.dbg.spill, metadata !577, metadata !DIExpression()), !dbg !579
  %3 = bitcast i1 (i32*, %"core::fmt::Formatter"*)* %f to i1 (%"core::fmt::Opaque"*, %"core::fmt::Formatter"*)*, !dbg !580
  store i1 (%"core::fmt::Opaque"*, %"core::fmt::Formatter"*)* %3, i1 (%"core::fmt::Opaque"*, %"core::fmt::Formatter"*)** %1, align 8, !dbg !580
  %_3 = load i1 (%"core::fmt::Opaque"*, %"core::fmt::Formatter"*)*, i1 (%"core::fmt::Opaque"*, %"core::fmt::Formatter"*)** %1, align 8, !dbg !580, !nonnull !4
  br label %bb1, !dbg !580

bb1:                                              ; preds = %start
  %4 = bitcast i32* %x to %"core::fmt::Opaque"*, !dbg !581
  store %"core::fmt::Opaque"* %4, %"core::fmt::Opaque"** %0, align 8, !dbg !581
  %_5 = load %"core::fmt::Opaque"*, %"core::fmt::Opaque"** %0, align 8, !dbg !581, !nonnull !4
  br label %bb2, !dbg !581

bb2:                                              ; preds = %bb1
  %5 = bitcast { i8*, i64* }* %2 to %"core::fmt::Opaque"**, !dbg !582
  store %"core::fmt::Opaque"* %_5, %"core::fmt::Opaque"** %5, align 8, !dbg !582
  %6 = getelementptr inbounds { i8*, i64* }, { i8*, i64* }* %2, i32 0, i32 1, !dbg !582
  %7 = bitcast i64** %6 to i1 (%"core::fmt::Opaque"*, %"core::fmt::Formatter"*)**, !dbg !582
  store i1 (%"core::fmt::Opaque"*, %"core::fmt::Formatter"*)* %_3, i1 (%"core::fmt::Opaque"*, %"core::fmt::Formatter"*)** %7, align 8, !dbg !582
  %8 = getelementptr inbounds { i8*, i64* }, { i8*, i64* }* %2, i32 0, i32 0, !dbg !583
  %9 = load i8*, i8** %8, align 8, !dbg !583, !nonnull !4
  %10 = getelementptr inbounds { i8*, i64* }, { i8*, i64* }* %2, i32 0, i32 1, !dbg !583
  %11 = load i64*, i64** %10, align 8, !dbg !583, !nonnull !4
  %12 = insertvalue { i8*, i64* } undef, i8* %9, 0, !dbg !583
  %13 = insertvalue { i8*, i64* } %12, i64* %11, 1, !dbg !583
  ret { i8*, i64* } %13, !dbg !583
}

; core::fmt::num::<impl core::fmt::Debug for usize>::fmt
; Function Attrs: inlinehint nounwind
define internal zeroext i1 @"_ZN4core3fmt3num52_$LT$impl$u20$core..fmt..Debug$u20$for$u20$usize$GT$3fmt17h55e604f8300509afE"(i64* align 8 dereferenceable(8) %self, %"core::fmt::Formatter"* align 8 dereferenceable(64) %f) unnamed_addr #0 !dbg !584 {
start:
  %f.dbg.spill = alloca %"core::fmt::Formatter"*, align 8
  %self.dbg.spill = alloca i64*, align 8
  %0 = alloca i8, align 1
  store i64* %self, i64** %self.dbg.spill, align 8
  call void @llvm.dbg.declare(metadata i64** %self.dbg.spill, metadata !589, metadata !DIExpression()), !dbg !591
  store %"core::fmt::Formatter"* %f, %"core::fmt::Formatter"** %f.dbg.spill, align 8
  call void @llvm.dbg.declare(metadata %"core::fmt::Formatter"** %f.dbg.spill, metadata !590, metadata !DIExpression()), !dbg !592
; call core::fmt::Formatter::debug_lower_hex
  %_3 = call zeroext i1 @_ZN4core3fmt9Formatter15debug_lower_hex17h636482c5eb85995eE(%"core::fmt::Formatter"* align 8 dereferenceable(64) %f), !dbg !593
  br label %bb1, !dbg !593

bb1:                                              ; preds = %start
  br i1 %_3, label %bb2, label %bb4, !dbg !593

bb4:                                              ; preds = %bb1
; call core::fmt::Formatter::debug_upper_hex
  %_7 = call zeroext i1 @_ZN4core3fmt9Formatter15debug_upper_hex17habda22bb62de5f0bE(%"core::fmt::Formatter"* align 8 dereferenceable(64) %f), !dbg !594
  br label %bb5, !dbg !594

bb2:                                              ; preds = %bb1
; call core::fmt::num::<impl core::fmt::LowerHex for usize>::fmt
  %1 = call zeroext i1 @"_ZN4core3fmt3num55_$LT$impl$u20$core..fmt..LowerHex$u20$for$u20$usize$GT$3fmt17h1a12a50969152654E"(i64* align 8 dereferenceable(8) %self, %"core::fmt::Formatter"* align 8 dereferenceable(64) %f), !dbg !595
  %2 = zext i1 %1 to i8, !dbg !595
  store i8 %2, i8* %0, align 1, !dbg !595
  br label %bb3, !dbg !595

bb3:                                              ; preds = %bb2
  br label %bb11, !dbg !596

bb11:                                             ; preds = %bb10, %bb3
  %3 = load i8, i8* %0, align 1, !dbg !597, !range !374
  %4 = trunc i8 %3 to i1, !dbg !597
  ret i1 %4, !dbg !597

bb5:                                              ; preds = %bb4
  br i1 %_7, label %bb6, label %bb8, !dbg !594

bb8:                                              ; preds = %bb5
; call core::fmt::num::imp::<impl core::fmt::Display for usize>::fmt
  %5 = call zeroext i1 @"_ZN4core3fmt3num3imp54_$LT$impl$u20$core..fmt..Display$u20$for$u20$usize$GT$3fmt17hcb6674a6899bd26aE"(i64* align 8 dereferenceable(8) %self, %"core::fmt::Formatter"* align 8 dereferenceable(64) %f), !dbg !598
  %6 = zext i1 %5 to i8, !dbg !598
  store i8 %6, i8* %0, align 1, !dbg !598
  br label %bb9, !dbg !598

bb6:                                              ; preds = %bb5
; call core::fmt::num::<impl core::fmt::UpperHex for usize>::fmt
  %7 = call zeroext i1 @"_ZN4core3fmt3num55_$LT$impl$u20$core..fmt..UpperHex$u20$for$u20$usize$GT$3fmt17h571918675fe47debE"(i64* align 8 dereferenceable(8) %self, %"core::fmt::Formatter"* align 8 dereferenceable(64) %f), !dbg !599
  %8 = zext i1 %7 to i8, !dbg !599
  store i8 %8, i8* %0, align 1, !dbg !599
  br label %bb7, !dbg !599

bb7:                                              ; preds = %bb6
  br label %bb10, !dbg !600

bb10:                                             ; preds = %bb9, %bb7
  br label %bb11, !dbg !596

bb9:                                              ; preds = %bb8
  br label %bb10, !dbg !600
}

; core::fmt::Arguments::new_v1
; Function Attrs: inlinehint nounwind
define internal void @_ZN4core3fmt9Arguments6new_v117h80b2eabf43a2b755E(%"core::fmt::Arguments"* noalias nocapture sret(%"core::fmt::Arguments") dereferenceable(48) %0, [0 x { [0 x i8]*, i64 }]* nonnull align 8 %pieces.0, i64 %pieces.1, [0 x { i8*, i64* }]* nonnull align 8 %args.0, i64 %args.1) unnamed_addr #0 !dbg !601 {
start:
  %args.dbg.spill = alloca { [0 x { i8*, i64* }]*, i64 }, align 8
  %pieces.dbg.spill = alloca { [0 x { [0 x i8]*, i64 }]*, i64 }, align 8
  %_16 = alloca { i64*, i64 }, align 8
  %_3 = alloca i8, align 1
  %1 = getelementptr inbounds { [0 x { [0 x i8]*, i64 }]*, i64 }, { [0 x { [0 x i8]*, i64 }]*, i64 }* %pieces.dbg.spill, i32 0, i32 0
  store [0 x { [0 x i8]*, i64 }]* %pieces.0, [0 x { [0 x i8]*, i64 }]** %1, align 8
  %2 = getelementptr inbounds { [0 x { [0 x i8]*, i64 }]*, i64 }, { [0 x { [0 x i8]*, i64 }]*, i64 }* %pieces.dbg.spill, i32 0, i32 1
  store i64 %pieces.1, i64* %2, align 8
  call void @llvm.dbg.declare(metadata { [0 x { [0 x i8]*, i64 }]*, i64 }* %pieces.dbg.spill, metadata !663, metadata !DIExpression()), !dbg !665
  %3 = getelementptr inbounds { [0 x { i8*, i64* }]*, i64 }, { [0 x { i8*, i64* }]*, i64 }* %args.dbg.spill, i32 0, i32 0
  store [0 x { i8*, i64* }]* %args.0, [0 x { i8*, i64* }]** %3, align 8
  %4 = getelementptr inbounds { [0 x { i8*, i64* }]*, i64 }, { [0 x { i8*, i64* }]*, i64 }* %args.dbg.spill, i32 0, i32 1
  store i64 %args.1, i64* %4, align 8
  call void @llvm.dbg.declare(metadata { [0 x { i8*, i64* }]*, i64 }* %args.dbg.spill, metadata !664, metadata !DIExpression()), !dbg !666
  %_4 = icmp ult i64 %pieces.1, %args.1, !dbg !667
  br i1 %_4, label %bb1, label %bb2, !dbg !667

bb2:                                              ; preds = %start
  %_12 = add i64 %args.1, 1, !dbg !668
  %_9 = icmp ugt i64 %pieces.1, %_12, !dbg !669
  %5 = zext i1 %_9 to i8, !dbg !667
  store i8 %5, i8* %_3, align 1, !dbg !667
  br label %bb3, !dbg !667

bb1:                                              ; preds = %start
  store i8 1, i8* %_3, align 1, !dbg !667
  br label %bb3, !dbg !667

bb3:                                              ; preds = %bb2, %bb1
  %6 = load i8, i8* %_3, align 1, !dbg !667, !range !374
  %7 = trunc i8 %6 to i1, !dbg !667
  br i1 %7, label %bb4, label %bb5, !dbg !667

bb5:                                              ; preds = %bb3
  %8 = bitcast { i64*, i64 }* %_16 to {}**, !dbg !670
  store {}* null, {}** %8, align 8, !dbg !670
  %9 = bitcast %"core::fmt::Arguments"* %0 to { [0 x { [0 x i8]*, i64 }]*, i64 }*, !dbg !671
  %10 = getelementptr inbounds { [0 x { [0 x i8]*, i64 }]*, i64 }, { [0 x { [0 x i8]*, i64 }]*, i64 }* %9, i32 0, i32 0, !dbg !671
  store [0 x { [0 x i8]*, i64 }]* %pieces.0, [0 x { [0 x i8]*, i64 }]** %10, align 8, !dbg !671
  %11 = getelementptr inbounds { [0 x { [0 x i8]*, i64 }]*, i64 }, { [0 x { [0 x i8]*, i64 }]*, i64 }* %9, i32 0, i32 1, !dbg !671
  store i64 %pieces.1, i64* %11, align 8, !dbg !671
  %12 = getelementptr inbounds %"core::fmt::Arguments", %"core::fmt::Arguments"* %0, i32 0, i32 1, !dbg !671
  %13 = getelementptr inbounds { i64*, i64 }, { i64*, i64 }* %_16, i32 0, i32 0, !dbg !671
  %14 = load i64*, i64** %13, align 8, !dbg !671
  %15 = getelementptr inbounds { i64*, i64 }, { i64*, i64 }* %_16, i32 0, i32 1, !dbg !671
  %16 = load i64, i64* %15, align 8, !dbg !671
  %17 = getelementptr inbounds { i64*, i64 }, { i64*, i64 }* %12, i32 0, i32 0, !dbg !671
  store i64* %14, i64** %17, align 8, !dbg !671
  %18 = getelementptr inbounds { i64*, i64 }, { i64*, i64 }* %12, i32 0, i32 1, !dbg !671
  store i64 %16, i64* %18, align 8, !dbg !671
  %19 = getelementptr inbounds %"core::fmt::Arguments", %"core::fmt::Arguments"* %0, i32 0, i32 2, !dbg !671
  %20 = getelementptr inbounds { [0 x { i8*, i64* }]*, i64 }, { [0 x { i8*, i64* }]*, i64 }* %19, i32 0, i32 0, !dbg !671
  store [0 x { i8*, i64* }]* %args.0, [0 x { i8*, i64* }]** %20, align 8, !dbg !671
  %21 = getelementptr inbounds { [0 x { i8*, i64* }]*, i64 }, { [0 x { i8*, i64* }]*, i64 }* %19, i32 0, i32 1, !dbg !671
  store i64 %args.1, i64* %21, align 8, !dbg !671
  ret void, !dbg !672

bb4:                                              ; preds = %bb3
; call core::panicking::panic
  call void @_ZN4core9panicking5panic17h560e3e4b7752857aE([0 x i8]* nonnull align 1 bitcast (<{ [12 x i8] }>* @alloc456 to [0 x i8]*), i64 12, %"core::panic::Location"* align 8 dereferenceable(24) bitcast (<{ i8*, [16 x i8] }>* @alloc458 to %"core::panic::Location"*)), !dbg !673
  unreachable, !dbg !673
}

; core::ptr::read_unaligned
; Function Attrs: inlinehint nounwind
define i32 @_ZN4core3ptr14read_unaligned17h4cb7be963a817d86E(i32* %src) unnamed_addr #0 !dbg !674 {
start:
  %self.dbg.spill.i1 = alloca i32*, align 8
  %slot.dbg.spill.i.i = alloca i32, align 4
  %self.dbg.spill.i = alloca i32, align 4
  %0 = alloca i32, align 4
  %src.dbg.spill = alloca i32*, align 8
  %tmp = alloca i32, align 4
  store i32* %src, i32** %src.dbg.spill, align 8
  call void @llvm.dbg.declare(metadata i32** %src.dbg.spill, metadata !680, metadata !DIExpression()), !dbg !696
  call void @llvm.dbg.declare(metadata i32* %tmp, metadata !681, metadata !DIExpression()), !dbg !697
  %1 = bitcast i32* %0 to {}*, !dbg !698
  %2 = load i32, i32* %0, align 4, !dbg !704
  store i32 %2, i32* %tmp, align 4, !dbg !705
  br label %bb1, !dbg !705

bb1:                                              ; preds = %start
  %_4 = bitcast i32* %src to i8*, !dbg !706
  store i32* %tmp, i32** %self.dbg.spill.i1, align 8
  call void @llvm.dbg.declare(metadata i32** %self.dbg.spill.i1, metadata !707, metadata !DIExpression()), !dbg !714
  br label %bb2, !dbg !716

bb2:                                              ; preds = %bb1
  %_6 = bitcast i32* %tmp to i8*, !dbg !716
  br label %bb3, !dbg !717

bb3:                                              ; preds = %bb2
; call core::intrinsics::copy_nonoverlapping
  call void @_ZN4core10intrinsics19copy_nonoverlapping17h199fd2935d1362b3E(i8* %_4, i8* %_6, i64 4), !dbg !718
  br label %bb4, !dbg !718

bb4:                                              ; preds = %bb3
  %_10 = load i32, i32* %tmp, align 4, !dbg !719
  store i32 %_10, i32* %self.dbg.spill.i, align 4
  call void @llvm.dbg.declare(metadata i32* %self.dbg.spill.i, metadata !720, metadata !DIExpression()), !dbg !725
  store i32 %_10, i32* %slot.dbg.spill.i.i, align 4
  call void @llvm.dbg.declare(metadata i32* %slot.dbg.spill.i.i, metadata !727, metadata !DIExpression()), !dbg !733
  br label %bb5, !dbg !719

bb5:                                              ; preds = %bb4
  ret i32 %_10, !dbg !735
}

; core::ptr::read_unaligned
; Function Attrs: inlinehint nounwind
define i64 @_ZN4core3ptr14read_unaligned17h8155ae68dcb45a8fE(i64* %src) unnamed_addr #0 !dbg !736 {
start:
  %self.dbg.spill.i1 = alloca i64*, align 8
  %slot.dbg.spill.i.i = alloca i64, align 8
  %self.dbg.spill.i = alloca i64, align 8
  %0 = alloca i64, align 8
  %src.dbg.spill = alloca i64*, align 8
  %tmp = alloca i64, align 8
  store i64* %src, i64** %src.dbg.spill, align 8
  call void @llvm.dbg.declare(metadata i64** %src.dbg.spill, metadata !741, metadata !DIExpression()), !dbg !751
  call void @llvm.dbg.declare(metadata i64* %tmp, metadata !742, metadata !DIExpression()), !dbg !752
  %1 = bitcast i64* %0 to {}*, !dbg !753
  %2 = load i64, i64* %0, align 8, !dbg !758
  store i64 %2, i64* %tmp, align 8, !dbg !759
  br label %bb1, !dbg !759

bb1:                                              ; preds = %start
  %_4 = bitcast i64* %src to i8*, !dbg !760
  store i64* %tmp, i64** %self.dbg.spill.i1, align 8
  call void @llvm.dbg.declare(metadata i64** %self.dbg.spill.i1, metadata !761, metadata !DIExpression()), !dbg !768
  br label %bb2, !dbg !770

bb2:                                              ; preds = %bb1
  %_6 = bitcast i64* %tmp to i8*, !dbg !770
  br label %bb3, !dbg !771

bb3:                                              ; preds = %bb2
; call core::intrinsics::copy_nonoverlapping
  call void @_ZN4core10intrinsics19copy_nonoverlapping17h199fd2935d1362b3E(i8* %_4, i8* %_6, i64 8), !dbg !772
  br label %bb4, !dbg !772

bb4:                                              ; preds = %bb3
  %_10 = load i64, i64* %tmp, align 8, !dbg !773
  store i64 %_10, i64* %self.dbg.spill.i, align 8
  call void @llvm.dbg.declare(metadata i64* %self.dbg.spill.i, metadata !774, metadata !DIExpression()), !dbg !779
  store i64 %_10, i64* %slot.dbg.spill.i.i, align 8
  call void @llvm.dbg.declare(metadata i64* %slot.dbg.spill.i.i, metadata !781, metadata !DIExpression()), !dbg !786
  br label %bb5, !dbg !773

bb5:                                              ; preds = %bb4
  ret i64 %_10, !dbg !788
}

; core::ptr::write_unaligned
; Function Attrs: inlinehint nounwind
define void @_ZN4core3ptr15write_unaligned17h4f115723d819613bE(i64* %dst, i64 %0) unnamed_addr #0 !dbg !789 {
start:
  %dst.dbg.spill = alloca i64*, align 8
  %src = alloca i64, align 8
  store i64 %0, i64* %src, align 8
  store i64* %dst, i64** %dst.dbg.spill, align 8
  call void @llvm.dbg.declare(metadata i64** %dst.dbg.spill, metadata !793, metadata !DIExpression()), !dbg !795
  call void @llvm.dbg.declare(metadata i64* %src, metadata !794, metadata !DIExpression()), !dbg !796
  %_4 = bitcast i64* %src to i8*, !dbg !797
  %_7 = bitcast i64* %dst to i8*, !dbg !798
  br label %bb1, !dbg !799

bb1:                                              ; preds = %start
; call core::intrinsics::copy_nonoverlapping
  call void @_ZN4core10intrinsics19copy_nonoverlapping17h199fd2935d1362b3E(i8* %_4, i8* %_7, i64 8), !dbg !800
  br label %bb2, !dbg !800

bb2:                                              ; preds = %bb1
  ret void, !dbg !801
}

; core::ptr::write_unaligned
; Function Attrs: inlinehint nounwind
define void @_ZN4core3ptr15write_unaligned17h7a70f46b5ba62e04E(i32* %dst, i32 %0) unnamed_addr #0 !dbg !802 {
start:
  %dst.dbg.spill = alloca i32*, align 8
  %src = alloca i32, align 4
  store i32 %0, i32* %src, align 4
  store i32* %dst, i32** %dst.dbg.spill, align 8
  call void @llvm.dbg.declare(metadata i32** %dst.dbg.spill, metadata !806, metadata !DIExpression()), !dbg !808
  call void @llvm.dbg.declare(metadata i32* %src, metadata !807, metadata !DIExpression()), !dbg !809
  %_4 = bitcast i32* %src to i8*, !dbg !810
  %_7 = bitcast i32* %dst to i8*, !dbg !811
  br label %bb1, !dbg !812

bb1:                                              ; preds = %start
; call core::intrinsics::copy_nonoverlapping
  call void @_ZN4core10intrinsics19copy_nonoverlapping17h199fd2935d1362b3E(i8* %_4, i8* %_7, i64 4), !dbg !813
  br label %bb2, !dbg !813

bb2:                                              ; preds = %bb1
  ret void, !dbg !814
}

; core::ptr::slice_from_raw_parts
; Function Attrs: inlinehint nounwind
define { [0 x i8]*, i64 } @_ZN4core3ptr20slice_from_raw_parts17h13b1398e687501ebE(i8* %data, i64 %len) unnamed_addr #0 !dbg !815 {
start:
  %len.dbg.spill = alloca i64, align 8
  %data.dbg.spill = alloca i8*, align 8
  store i8* %data, i8** %data.dbg.spill, align 8
  call void @llvm.dbg.declare(metadata i8** %data.dbg.spill, metadata !819, metadata !DIExpression()), !dbg !821
  store i64 %len, i64* %len.dbg.spill, align 8
  call void @llvm.dbg.declare(metadata i64* %len.dbg.spill, metadata !820, metadata !DIExpression()), !dbg !822
; call core::ptr::const_ptr::<impl *const T>::cast
  %_3 = call {}* @"_ZN4core3ptr9const_ptr33_$LT$impl$u20$$BP$const$u20$T$GT$4cast17h2a12c308f172c67aE"(i8* %data), !dbg !823
  br label %bb1, !dbg !823

bb1:                                              ; preds = %start
; call core::ptr::metadata::from_raw_parts
  %0 = call { [0 x i8]*, i64 } @_ZN4core3ptr8metadata14from_raw_parts17h80ce3d5b67d242cfE({}* %_3, i64 %len), !dbg !824
  %1 = extractvalue { [0 x i8]*, i64 } %0, 0, !dbg !824
  %2 = extractvalue { [0 x i8]*, i64 } %0, 1, !dbg !824
  br label %bb2, !dbg !824

bb2:                                              ; preds = %bb1
  %3 = insertvalue { [0 x i8]*, i64 } undef, [0 x i8]* %1, 0, !dbg !825
  %4 = insertvalue { [0 x i8]*, i64 } %3, i64 %2, 1, !dbg !825
  ret { [0 x i8]*, i64 } %4, !dbg !825
}

; core::ptr::slice_from_raw_parts_mut
; Function Attrs: inlinehint nounwind
define { [0 x i8]*, i64 } @_ZN4core3ptr24slice_from_raw_parts_mut17hb4b52ae608397e83E(i8* %data, i64 %len) unnamed_addr #0 !dbg !826 {
start:
  %self.dbg.spill.i = alloca i8*, align 8
  %len.dbg.spill = alloca i64, align 8
  %data.dbg.spill = alloca i8*, align 8
  store i8* %data, i8** %data.dbg.spill, align 8
  call void @llvm.dbg.declare(metadata i8** %data.dbg.spill, metadata !830, metadata !DIExpression()), !dbg !832
  store i64 %len, i64* %len.dbg.spill, align 8
  call void @llvm.dbg.declare(metadata i64* %len.dbg.spill, metadata !831, metadata !DIExpression()), !dbg !833
  store i8* %data, i8** %self.dbg.spill.i, align 8
  call void @llvm.dbg.declare(metadata i8** %self.dbg.spill.i, metadata !834, metadata !DIExpression()), !dbg !842
  %0 = bitcast i8* %data to {}*, !dbg !844
  br label %bb1, !dbg !845

bb1:                                              ; preds = %start
; call core::ptr::metadata::from_raw_parts_mut
  %1 = call { [0 x i8]*, i64 } @_ZN4core3ptr8metadata18from_raw_parts_mut17he8a0f9ba90ae91d0E({}* %0, i64 %len), !dbg !846
  %2 = extractvalue { [0 x i8]*, i64 } %1, 0, !dbg !846
  %3 = extractvalue { [0 x i8]*, i64 } %1, 1, !dbg !846
  br label %bb2, !dbg !846

bb2:                                              ; preds = %bb1
  %4 = insertvalue { [0 x i8]*, i64 } undef, [0 x i8]* %2, 0, !dbg !847
  %5 = insertvalue { [0 x i8]*, i64 } %4, i64 %3, 1, !dbg !847
  ret { [0 x i8]*, i64 } %5, !dbg !847
}

; core::ptr::drop_in_place<&str>
; Function Attrs: inlinehint nounwind
define internal void @"_ZN4core3ptr28drop_in_place$LT$$RF$str$GT$17h75ded22cd7ebb866E"({ [0 x i8]*, i64 }* %_1) unnamed_addr #0 !dbg !848 {
start:
  %_1.dbg.spill = alloca { [0 x i8]*, i64 }*, align 8
  store { [0 x i8]*, i64 }* %_1, { [0 x i8]*, i64 }** %_1.dbg.spill, align 8
  call void @llvm.dbg.declare(metadata { [0 x i8]*, i64 }** %_1.dbg.spill, metadata !853, metadata !DIExpression()), !dbg !856
  ret void, !dbg !856
}

; core::ptr::drop_in_place<&char>
; Function Attrs: inlinehint nounwind
define internal void @"_ZN4core3ptr29drop_in_place$LT$$RF$char$GT$17h4b02d721c42b5f7bE"(i32** %_1) unnamed_addr #0 !dbg !857 {
start:
  %_1.dbg.spill = alloca i32**, align 8
  store i32** %_1, i32*** %_1.dbg.spill, align 8
  call void @llvm.dbg.declare(metadata i32*** %_1.dbg.spill, metadata !862, metadata !DIExpression()), !dbg !865
  ret void, !dbg !865
}

; core::ptr::drop_in_place<&usize>
; Function Attrs: inlinehint nounwind
define internal void @"_ZN4core3ptr30drop_in_place$LT$$RF$usize$GT$17h7a2fd6ce9ae99651E"(i64** %_1) unnamed_addr #0 !dbg !866 {
start:
  %_1.dbg.spill = alloca i64**, align 8
  store i64** %_1, i64*** %_1.dbg.spill, align 8
  call void @llvm.dbg.declare(metadata i64*** %_1.dbg.spill, metadata !871, metadata !DIExpression()), !dbg !874
  ret void, !dbg !874
}

; core::ptr::swap
; Function Attrs: inlinehint nounwind
define void @_ZN4core3ptr4swap17h33fb5ebb51ed0679E(i8* %x, i8* %y) unnamed_addr #0 !dbg !875 {
start:
  %self.dbg.spill.i1 = alloca i8*, align 8
  %self.dbg.spill.i = alloca i8*, align 8
  %0 = alloca i8, align 1
  %y.dbg.spill = alloca i8*, align 8
  %x.dbg.spill = alloca i8*, align 8
  %tmp = alloca i8, align 1
  store i8* %x, i8** %x.dbg.spill, align 8
  call void @llvm.dbg.declare(metadata i8** %x.dbg.spill, metadata !879, metadata !DIExpression()), !dbg !890
  store i8* %y, i8** %y.dbg.spill, align 8
  call void @llvm.dbg.declare(metadata i8** %y.dbg.spill, metadata !880, metadata !DIExpression()), !dbg !891
  call void @llvm.dbg.declare(metadata i8* %tmp, metadata !881, metadata !DIExpression()), !dbg !892
  %1 = bitcast i8* %0 to {}*, !dbg !893
  %2 = load i8, i8* %0, align 1, !dbg !898
  store i8 %2, i8* %tmp, align 1, !dbg !899
  br label %bb1, !dbg !899

bb1:                                              ; preds = %start
  store i8* %tmp, i8** %self.dbg.spill.i, align 8
  call void @llvm.dbg.declare(metadata i8** %self.dbg.spill.i, metadata !900, metadata !DIExpression()), !dbg !906
  br label %bb2, !dbg !908

bb2:                                              ; preds = %bb1
; call core::intrinsics::copy_nonoverlapping
  call void @_ZN4core10intrinsics19copy_nonoverlapping17h199fd2935d1362b3E(i8* %x, i8* %tmp, i64 1), !dbg !909
  br label %bb3, !dbg !909

bb3:                                              ; preds = %bb2
; call core::intrinsics::copy
  call void @_ZN4core10intrinsics4copy17h1dbfa7fbc6281d08E(i8* %y, i8* %x, i64 1), !dbg !910
  br label %bb4, !dbg !910

bb4:                                              ; preds = %bb3
  store i8* %tmp, i8** %self.dbg.spill.i1, align 8
  call void @llvm.dbg.declare(metadata i8** %self.dbg.spill.i1, metadata !911, metadata !DIExpression()), !dbg !917
  br label %bb5, !dbg !919

bb5:                                              ; preds = %bb4
; call core::intrinsics::copy_nonoverlapping
  call void @_ZN4core10intrinsics19copy_nonoverlapping17h199fd2935d1362b3E(i8* %tmp, i8* %y, i64 1), !dbg !920
  br label %bb6, !dbg !920

bb6:                                              ; preds = %bb5
  ret void, !dbg !921
}

; core::ptr::mut_ptr::<impl *mut T>::guaranteed_eq
; Function Attrs: inlinehint nounwind
define zeroext i1 @"_ZN4core3ptr7mut_ptr31_$LT$impl$u20$$BP$mut$u20$T$GT$13guaranteed_eq17h503f44fdbbe8f1fdE"(i8* %self, i8* %other) unnamed_addr #0 !dbg !922 {
start:
  %0 = alloca i8, align 1
  %other.dbg.spill = alloca i8*, align 8
  %self.dbg.spill = alloca i8*, align 8
  store i8* %self, i8** %self.dbg.spill, align 8
  call void @llvm.dbg.declare(metadata i8** %self.dbg.spill, metadata !926, metadata !DIExpression()), !dbg !928
  store i8* %other, i8** %other.dbg.spill, align 8
  call void @llvm.dbg.declare(metadata i8** %other.dbg.spill, metadata !927, metadata !DIExpression()), !dbg !929
  %1 = icmp eq i8* %self, %other, !dbg !930
  %2 = zext i1 %1 to i8, !dbg !930
  store i8 %2, i8* %0, align 1, !dbg !930
  %3 = load i8, i8* %0, align 1, !dbg !930, !range !374
  %4 = trunc i8 %3 to i1, !dbg !930
  br label %bb1, !dbg !930

bb1:                                              ; preds = %start
  ret i1 %4, !dbg !931
}

; core::ptr::mut_ptr::<impl *mut T>::is_null
; Function Attrs: inlinehint nounwind
define zeroext i1 @"_ZN4core3ptr7mut_ptr31_$LT$impl$u20$$BP$mut$u20$T$GT$7is_null17h81f020dc74f116d2E"(i8* %self) unnamed_addr #0 !dbg !932 {
start:
  %self.dbg.spill = alloca i8*, align 8
  store i8* %self, i8** %self.dbg.spill, align 8
  call void @llvm.dbg.declare(metadata i8** %self.dbg.spill, metadata !936, metadata !DIExpression()), !dbg !937
  br label %bb1, !dbg !938

bb1:                                              ; preds = %start
; call core::ptr::mut_ptr::<impl *mut T>::guaranteed_eq
  %0 = call zeroext i1 @"_ZN4core3ptr7mut_ptr31_$LT$impl$u20$$BP$mut$u20$T$GT$13guaranteed_eq17h503f44fdbbe8f1fdE"(i8* %self, i8* null), !dbg !939
  br label %bb2, !dbg !939

bb2:                                              ; preds = %bb1
  ret i1 %0, !dbg !940
}

; core::ptr::metadata::from_raw_parts
; Function Attrs: inlinehint nounwind
define { [0 x i8]*, i64 } @_ZN4core3ptr8metadata14from_raw_parts17h80ce3d5b67d242cfE({}* %data_address, i64 %metadata) unnamed_addr #0 !dbg !941 {
start:
  %metadata.dbg.spill = alloca i64, align 8
  %data_address.dbg.spill = alloca {}*, align 8
  %_4 = alloca { i8*, i64 }, align 8
  %_3 = alloca %"core::ptr::metadata::PtrRepr<[u8]>", align 8
  store {}* %data_address, {}** %data_address.dbg.spill, align 8
  call void @llvm.dbg.declare(metadata {}** %data_address.dbg.spill, metadata !948, metadata !DIExpression()), !dbg !953
  store i64 %metadata, i64* %metadata.dbg.spill, align 8
  call void @llvm.dbg.declare(metadata i64* %metadata.dbg.spill, metadata !949, metadata !DIExpression()), !dbg !954
  %0 = bitcast { i8*, i64 }* %_4 to {}**, !dbg !955
  store {}* %data_address, {}** %0, align 8, !dbg !955
  %1 = getelementptr inbounds { i8*, i64 }, { i8*, i64 }* %_4, i32 0, i32 1, !dbg !955
  store i64 %metadata, i64* %1, align 8, !dbg !955
  %2 = bitcast %"core::ptr::metadata::PtrRepr<[u8]>"* %_3 to { i8*, i64 }*, !dbg !956
  %3 = getelementptr inbounds { i8*, i64 }, { i8*, i64 }* %_4, i32 0, i32 0, !dbg !956
  %4 = load i8*, i8** %3, align 8, !dbg !956
  %5 = getelementptr inbounds { i8*, i64 }, { i8*, i64 }* %_4, i32 0, i32 1, !dbg !956
  %6 = load i64, i64* %5, align 8, !dbg !956
  %7 = getelementptr inbounds { i8*, i64 }, { i8*, i64 }* %2, i32 0, i32 0, !dbg !956
  store i8* %4, i8** %7, align 8, !dbg !956
  %8 = getelementptr inbounds { i8*, i64 }, { i8*, i64 }* %2, i32 0, i32 1, !dbg !956
  store i64 %6, i64* %8, align 8, !dbg !956
  %9 = bitcast %"core::ptr::metadata::PtrRepr<[u8]>"* %_3 to { [0 x i8]*, i64 }*, !dbg !956
  %10 = getelementptr inbounds { [0 x i8]*, i64 }, { [0 x i8]*, i64 }* %9, i32 0, i32 0, !dbg !956
  %11 = load [0 x i8]*, [0 x i8]** %10, align 8, !dbg !956
  %12 = getelementptr inbounds { [0 x i8]*, i64 }, { [0 x i8]*, i64 }* %9, i32 0, i32 1, !dbg !956
  %13 = load i64, i64* %12, align 8, !dbg !956
  %14 = insertvalue { [0 x i8]*, i64 } undef, [0 x i8]* %11, 0, !dbg !957
  %15 = insertvalue { [0 x i8]*, i64 } %14, i64 %13, 1, !dbg !957
  ret { [0 x i8]*, i64 } %15, !dbg !957
}

; core::ptr::metadata::from_raw_parts_mut
; Function Attrs: inlinehint nounwind
define { [0 x i8]*, i64 } @_ZN4core3ptr8metadata18from_raw_parts_mut17he8a0f9ba90ae91d0E({}* %data_address, i64 %metadata) unnamed_addr #0 !dbg !958 {
start:
  %metadata.dbg.spill = alloca i64, align 8
  %data_address.dbg.spill = alloca {}*, align 8
  %_4 = alloca { i8*, i64 }, align 8
  %_3 = alloca %"core::ptr::metadata::PtrRepr<[u8]>", align 8
  store {}* %data_address, {}** %data_address.dbg.spill, align 8
  call void @llvm.dbg.declare(metadata {}** %data_address.dbg.spill, metadata !962, metadata !DIExpression()), !dbg !964
  store i64 %metadata, i64* %metadata.dbg.spill, align 8
  call void @llvm.dbg.declare(metadata i64* %metadata.dbg.spill, metadata !963, metadata !DIExpression()), !dbg !965
  %0 = bitcast { i8*, i64 }* %_4 to {}**, !dbg !966
  store {}* %data_address, {}** %0, align 8, !dbg !966
  %1 = getelementptr inbounds { i8*, i64 }, { i8*, i64 }* %_4, i32 0, i32 1, !dbg !966
  store i64 %metadata, i64* %1, align 8, !dbg !966
  %2 = bitcast %"core::ptr::metadata::PtrRepr<[u8]>"* %_3 to { i8*, i64 }*, !dbg !967
  %3 = getelementptr inbounds { i8*, i64 }, { i8*, i64 }* %_4, i32 0, i32 0, !dbg !967
  %4 = load i8*, i8** %3, align 8, !dbg !967
  %5 = getelementptr inbounds { i8*, i64 }, { i8*, i64 }* %_4, i32 0, i32 1, !dbg !967
  %6 = load i64, i64* %5, align 8, !dbg !967
  %7 = getelementptr inbounds { i8*, i64 }, { i8*, i64 }* %2, i32 0, i32 0, !dbg !967
  store i8* %4, i8** %7, align 8, !dbg !967
  %8 = getelementptr inbounds { i8*, i64 }, { i8*, i64 }* %2, i32 0, i32 1, !dbg !967
  store i64 %6, i64* %8, align 8, !dbg !967
  %9 = bitcast %"core::ptr::metadata::PtrRepr<[u8]>"* %_3 to { [0 x i8]*, i64 }*, !dbg !967
  %10 = getelementptr inbounds { [0 x i8]*, i64 }, { [0 x i8]*, i64 }* %9, i32 0, i32 0, !dbg !967
  %11 = load [0 x i8]*, [0 x i8]** %10, align 8, !dbg !967
  %12 = getelementptr inbounds { [0 x i8]*, i64 }, { [0 x i8]*, i64 }* %9, i32 0, i32 1, !dbg !967
  %13 = load i64, i64* %12, align 8, !dbg !967
  %14 = insertvalue { [0 x i8]*, i64 } undef, [0 x i8]* %11, 0, !dbg !968
  %15 = insertvalue { [0 x i8]*, i64 } %14, i64 %13, 1, !dbg !968
  ret { [0 x i8]*, i64 } %15, !dbg !968
}

; core::ptr::metadata::metadata
; Function Attrs: inlinehint nounwind
define i64 @_ZN4core3ptr8metadata8metadata17h0f25dcef7fdc351cE([0 x i8]* %ptr.0, i64 %ptr.1) unnamed_addr #0 !dbg !969 {
start:
  %ptr.dbg.spill = alloca { [0 x i8]*, i64 }, align 8
  %_2 = alloca %"core::ptr::metadata::PtrRepr<[u8]>", align 8
  %0 = getelementptr inbounds { [0 x i8]*, i64 }, { [0 x i8]*, i64 }* %ptr.dbg.spill, i32 0, i32 0
  store [0 x i8]* %ptr.0, [0 x i8]** %0, align 8
  %1 = getelementptr inbounds { [0 x i8]*, i64 }, { [0 x i8]*, i64 }* %ptr.dbg.spill, i32 0, i32 1
  store i64 %ptr.1, i64* %1, align 8
  call void @llvm.dbg.declare(metadata { [0 x i8]*, i64 }* %ptr.dbg.spill, metadata !973, metadata !DIExpression()), !dbg !974
  %2 = bitcast %"core::ptr::metadata::PtrRepr<[u8]>"* %_2 to { [0 x i8]*, i64 }*, !dbg !975
  %3 = getelementptr inbounds { [0 x i8]*, i64 }, { [0 x i8]*, i64 }* %2, i32 0, i32 0, !dbg !975
  store [0 x i8]* %ptr.0, [0 x i8]** %3, align 8, !dbg !975
  %4 = getelementptr inbounds { [0 x i8]*, i64 }, { [0 x i8]*, i64 }* %2, i32 0, i32 1, !dbg !975
  store i64 %ptr.1, i64* %4, align 8, !dbg !975
  %5 = bitcast %"core::ptr::metadata::PtrRepr<[u8]>"* %_2 to { i8*, i64 }*, !dbg !975
  %6 = getelementptr inbounds { i8*, i64 }, { i8*, i64 }* %5, i32 0, i32 1, !dbg !975
  %7 = load i64, i64* %6, align 8, !dbg !975
  ret i64 %7, !dbg !976
}

; core::ptr::non_null::NonNull<T>::new_unchecked
; Function Attrs: inlinehint nounwind
define nonnull i8* @"_ZN4core3ptr8non_null16NonNull$LT$T$GT$13new_unchecked17h084e3c4e09f2f47aE"(i8* %ptr) unnamed_addr #0 !dbg !977 {
start:
  %ptr.dbg.spill = alloca i8*, align 8
  %0 = alloca i8*, align 8
  store i8* %ptr, i8** %ptr.dbg.spill, align 8
  call void @llvm.dbg.declare(metadata i8** %ptr.dbg.spill, metadata !982, metadata !DIExpression()), !dbg !983
  store i8* %ptr, i8** %0, align 8, !dbg !984
  %1 = load i8*, i8** %0, align 8, !dbg !985, !nonnull !4
  ret i8* %1, !dbg !985
}

; core::ptr::non_null::NonNull<T>::as_ptr
; Function Attrs: inlinehint nounwind
define i8* @"_ZN4core3ptr8non_null16NonNull$LT$T$GT$6as_ptr17he9f4ac41c8ef8b16E"(i8* nonnull %self) unnamed_addr #0 !dbg !986 {
start:
  %self.dbg.spill = alloca i8*, align 8
  store i8* %self, i8** %self.dbg.spill, align 8
  call void @llvm.dbg.declare(metadata i8** %self.dbg.spill, metadata !990, metadata !DIExpression()), !dbg !991
  ret i8* %self, !dbg !992
}

; core::ptr::const_ptr::<impl *const T>::guaranteed_eq
; Function Attrs: inlinehint nounwind
define zeroext i1 @"_ZN4core3ptr9const_ptr33_$LT$impl$u20$$BP$const$u20$T$GT$13guaranteed_eq17hd2a54de94debd5ebE"(i8* %self, i8* %other) unnamed_addr #0 !dbg !993 {
start:
  %0 = alloca i8, align 1
  %other.dbg.spill = alloca i8*, align 8
  %self.dbg.spill = alloca i8*, align 8
  store i8* %self, i8** %self.dbg.spill, align 8
  call void @llvm.dbg.declare(metadata i8** %self.dbg.spill, metadata !997, metadata !DIExpression()), !dbg !999
  store i8* %other, i8** %other.dbg.spill, align 8
  call void @llvm.dbg.declare(metadata i8** %other.dbg.spill, metadata !998, metadata !DIExpression()), !dbg !1000
  %1 = icmp eq i8* %self, %other, !dbg !1001
  %2 = zext i1 %1 to i8, !dbg !1001
  store i8 %2, i8* %0, align 1, !dbg !1001
  %3 = load i8, i8* %0, align 1, !dbg !1001, !range !374
  %4 = trunc i8 %3 to i1, !dbg !1001
  br label %bb1, !dbg !1001

bb1:                                              ; preds = %start
  ret i1 %4, !dbg !1002
}

; core::ptr::const_ptr::<impl *const T>::cast
; Function Attrs: inlinehint nounwind
define {}* @"_ZN4core3ptr9const_ptr33_$LT$impl$u20$$BP$const$u20$T$GT$4cast17h2a12c308f172c67aE"(i8* %self) unnamed_addr #0 !dbg !1003 {
start:
  %self.dbg.spill = alloca i8*, align 8
  store i8* %self, i8** %self.dbg.spill, align 8
  call void @llvm.dbg.declare(metadata i8** %self.dbg.spill, metadata !1007, metadata !DIExpression()), !dbg !1008
  %0 = bitcast i8* %self to {}*, !dbg !1009
  ret {}* %0, !dbg !1010
}

; core::ptr::const_ptr::<impl *const T>::is_null
; Function Attrs: inlinehint nounwind
define zeroext i1 @"_ZN4core3ptr9const_ptr33_$LT$impl$u20$$BP$const$u20$T$GT$7is_null17hab0bc388f22a5caeE"(i8* %self) unnamed_addr #0 !dbg !1011 {
start:
  %self.dbg.spill = alloca i8*, align 8
  store i8* %self, i8** %self.dbg.spill, align 8
  call void @llvm.dbg.declare(metadata i8** %self.dbg.spill, metadata !1015, metadata !DIExpression()), !dbg !1016
  br label %bb1, !dbg !1017

bb1:                                              ; preds = %start
; call core::ptr::const_ptr::<impl *const T>::guaranteed_eq
  %0 = call zeroext i1 @"_ZN4core3ptr9const_ptr33_$LT$impl$u20$$BP$const$u20$T$GT$13guaranteed_eq17hd2a54de94debd5ebE"(i8* %self, i8* null), !dbg !1018
  br label %bb2, !dbg !1018

bb2:                                              ; preds = %bb1
  ret i1 %0, !dbg !1019
}

; core::ptr::const_ptr::<impl *const [T]>::len
; Function Attrs: inlinehint nounwind
define i64 @"_ZN4core3ptr9const_ptr43_$LT$impl$u20$$BP$const$u20$$u5b$T$u5d$$GT$3len17he1f3f52f12571ecfE"([0 x i8]* %self.0, i64 %self.1) unnamed_addr #0 !dbg !1020 {
start:
  %self.dbg.spill = alloca { [0 x i8]*, i64 }, align 8
  %0 = getelementptr inbounds { [0 x i8]*, i64 }, { [0 x i8]*, i64 }* %self.dbg.spill, i32 0, i32 0
  store [0 x i8]* %self.0, [0 x i8]** %0, align 8
  %1 = getelementptr inbounds { [0 x i8]*, i64 }, { [0 x i8]*, i64 }* %self.dbg.spill, i32 0, i32 1
  store i64 %self.1, i64* %1, align 8
  call void @llvm.dbg.declare(metadata { [0 x i8]*, i64 }* %self.dbg.spill, metadata !1023, metadata !DIExpression()), !dbg !1024
; call core::ptr::metadata::metadata
  %2 = call i64 @_ZN4core3ptr8metadata8metadata17h0f25dcef7fdc351cE([0 x i8]* %self.0, i64 %self.1), !dbg !1025
  br label %bb1, !dbg !1025

bb1:                                              ; preds = %start
  ret i64 %2, !dbg !1026
}

; core::ptr::const_ptr::<impl *const [T]>::as_ptr
; Function Attrs: inlinehint nounwind
define i8* @"_ZN4core3ptr9const_ptr43_$LT$impl$u20$$BP$const$u20$$u5b$T$u5d$$GT$6as_ptr17h9dd0e900668114b6E"([0 x i8]* %self.0, i64 %self.1) unnamed_addr #0 !dbg !1027 {
start:
  %self.dbg.spill = alloca { [0 x i8]*, i64 }, align 8
  %0 = getelementptr inbounds { [0 x i8]*, i64 }, { [0 x i8]*, i64 }* %self.dbg.spill, i32 0, i32 0
  store [0 x i8]* %self.0, [0 x i8]** %0, align 8
  %1 = getelementptr inbounds { [0 x i8]*, i64 }, { [0 x i8]*, i64 }* %self.dbg.spill, i32 0, i32 1
  store i64 %self.1, i64* %1, align 8
  call void @llvm.dbg.declare(metadata { [0 x i8]*, i64 }* %self.dbg.spill, metadata !1031, metadata !DIExpression()), !dbg !1032
  %2 = bitcast [0 x i8]* %self.0 to i8*, !dbg !1033
  ret i8* %2, !dbg !1034
}

; core::str::error::Utf8Error::valid_up_to
; Function Attrs: inlinehint nounwind
define internal i64 @_ZN4core3str5error9Utf8Error11valid_up_to17h2eba78ff63c23e48E(%"core::str::Utf8Error"* align 8 dereferenceable(16) %self) unnamed_addr #0 !dbg !1035 {
start:
  %self.dbg.spill = alloca %"core::str::Utf8Error"*, align 8
  store %"core::str::Utf8Error"* %self, %"core::str::Utf8Error"** %self.dbg.spill, align 8
  call void @llvm.dbg.declare(metadata %"core::str::Utf8Error"** %self.dbg.spill, metadata !1058, metadata !DIExpression()), !dbg !1059
  %0 = bitcast %"core::str::Utf8Error"* %self to i64*, !dbg !1060
  %1 = load i64, i64* %0, align 8, !dbg !1060
  ret i64 %1, !dbg !1061
}

; core::str::error::Utf8Error::error_len
; Function Attrs: inlinehint nounwind
define internal { i64, i64 } @_ZN4core3str5error9Utf8Error9error_len17hd14a04e6c0f96d3eE(%"core::str::Utf8Error"* align 8 dereferenceable(16) %self) unnamed_addr #0 !dbg !1062 {
start:
  %self.dbg.spill = alloca %"core::str::Utf8Error"*, align 8
  store %"core::str::Utf8Error"* %self, %"core::str::Utf8Error"** %self.dbg.spill, align 8
  call void @llvm.dbg.declare(metadata %"core::str::Utf8Error"** %self.dbg.spill, metadata !1066, metadata !DIExpression()), !dbg !1067
  %0 = getelementptr inbounds %"core::str::Utf8Error", %"core::str::Utf8Error"* %self, i32 0, i32 1, !dbg !1068
  %1 = getelementptr inbounds { i8, i8 }, { i8, i8 }* %0, i32 0, i32 0, !dbg !1068
  %2 = load i8, i8* %1, align 8, !dbg !1068, !range !374
  %_2.0 = trunc i8 %2 to i1, !dbg !1068
  %3 = getelementptr inbounds { i8, i8 }, { i8, i8 }* %0, i32 0, i32 1, !dbg !1068
  %_2.1 = load i8, i8* %3, align 1, !dbg !1068
; call core::option::Option<T>::map
  %4 = call { i64, i64 } @"_ZN4core6option15Option$LT$T$GT$3map17h97d31fb255648ef7E"(i1 zeroext %_2.0, i8 %_2.1), !dbg !1068
  %5 = extractvalue { i64, i64 } %4, 0, !dbg !1068
  %6 = extractvalue { i64, i64 } %4, 1, !dbg !1068
  br label %bb1, !dbg !1068

bb1:                                              ; preds = %start
  %7 = insertvalue { i64, i64 } undef, i64 %5, 0, !dbg !1069
  %8 = insertvalue { i64, i64 } %7, i64 %6, 1, !dbg !1069
  ret { i64, i64 } %8, !dbg !1069
}

; core::str::error::Utf8Error::error_len::{{closure}}
; Function Attrs: inlinehint nounwind
define i64 @"_ZN4core3str5error9Utf8Error9error_len28_$u7b$$u7b$closure$u7d$$u7d$17h13bc61b4db1cdbcbE"(i8 %len) unnamed_addr #0 !dbg !1070 {
start:
  %len.dbg.spill = alloca i8, align 1
  %_1.dbg.spill = alloca %"[closure@core::str::Utf8Error::error_len::{closure#0}]", align 1
  call void @llvm.dbg.declare(metadata %"[closure@core::str::Utf8Error::error_len::{closure#0}]"* %_1.dbg.spill, metadata !1078, metadata !DIExpression()), !dbg !1079
  store i8 %len, i8* %len.dbg.spill, align 1
  call void @llvm.dbg.declare(metadata i8* %len.dbg.spill, metadata !1077, metadata !DIExpression()), !dbg !1080
  %0 = zext i8 %len to i64, !dbg !1081
  ret i64 %0, !dbg !1082
}

; core::iter::traits::iterator::Iterator::take_while
; Function Attrs: inlinehint nounwind
define void @_ZN4core4iter6traits8iterator8Iterator10take_while17h6b15afebe39245a4E(%"core::iter::TakeWhile<core::slice::Iter<u8>, [closure@/home/seaceved/.cargo/registry/src/github.com-1ecc6299db9ec823/bs58-0.4.0/src/decode.rs:226:38: 226:53]>"* noalias nocapture sret(%"core::iter::TakeWhile<core::slice::Iter<u8>, [closure@/home/seaceved/.cargo/registry/src/github.com-1ecc6299db9ec823/bs58-0.4.0/src/decode.rs:226:38: 226:53]>") dereferenceable(32) %0, i8* nonnull %self.0, i8* %self.1, i8* align 1 dereferenceable(1) %predicate) unnamed_addr #0 !dbg !1083 {
start:
  %predicate.dbg.spill = alloca i8*, align 8
  %self.dbg.spill = alloca { i8*, i8* }, align 8
  %1 = getelementptr inbounds { i8*, i8* }, { i8*, i8* }* %self.dbg.spill, i32 0, i32 0
  store i8* %self.0, i8** %1, align 8
  %2 = getelementptr inbounds { i8*, i8* }, { i8*, i8* }* %self.dbg.spill, i32 0, i32 1
  store i8* %self.1, i8** %2, align 8
  call void @llvm.dbg.declare(metadata { i8*, i8* }* %self.dbg.spill, metadata !1091, metadata !DIExpression()), !dbg !1095
  store i8* %predicate, i8** %predicate.dbg.spill, align 8
  call void @llvm.dbg.declare(metadata i8** %predicate.dbg.spill, metadata !1092, metadata !DIExpression()), !dbg !1096
; call core::iter::adapters::take_while::TakeWhile<I,P>::new
  call void @"_ZN4core4iter8adapters10take_while22TakeWhile$LT$I$C$P$GT$3new17h30c61b6164b98904E"(%"core::iter::TakeWhile<core::slice::Iter<u8>, [closure@/home/seaceved/.cargo/registry/src/github.com-1ecc6299db9ec823/bs58-0.4.0/src/decode.rs:226:38: 226:53]>"* noalias nocapture sret(%"core::iter::TakeWhile<core::slice::Iter<u8>, [closure@/home/seaceved/.cargo/registry/src/github.com-1ecc6299db9ec823/bs58-0.4.0/src/decode.rs:226:38: 226:53]>") dereferenceable(32) %0, i8* nonnull %self.0, i8* %self.1, i8* align 1 dereferenceable(1) %predicate), !dbg !1097
  br label %bb1, !dbg !1097

bb1:                                              ; preds = %start
  ret void, !dbg !1098
}

; core::iter::traits::iterator::Iterator::enumerate
; Function Attrs: inlinehint nounwind
define void @_ZN4core4iter6traits8iterator8Iterator9enumerate17hdb899492825e7fbcE(%"core::iter::Enumerate<core::slice::Iter<u8>>"* noalias nocapture sret(%"core::iter::Enumerate<core::slice::Iter<u8>>") dereferenceable(24) %0, i8* nonnull %self.0, i8* %self.1) unnamed_addr #0 !dbg !1099 {
start:
  %self.dbg.spill = alloca { i8*, i8* }, align 8
  %1 = getelementptr inbounds { i8*, i8* }, { i8*, i8* }* %self.dbg.spill, i32 0, i32 0
  store i8* %self.0, i8** %1, align 8
  %2 = getelementptr inbounds { i8*, i8* }, { i8*, i8* }* %self.dbg.spill, i32 0, i32 1
  store i8* %self.1, i8** %2, align 8
  call void @llvm.dbg.declare(metadata { i8*, i8* }* %self.dbg.spill, metadata !1103, metadata !DIExpression()), !dbg !1105
; call core::iter::adapters::enumerate::Enumerate<I>::new
  call void @"_ZN4core4iter8adapters9enumerate18Enumerate$LT$I$GT$3new17h6f686f7eae201635E"(%"core::iter::Enumerate<core::slice::Iter<u8>>"* noalias nocapture sret(%"core::iter::Enumerate<core::slice::Iter<u8>>") dereferenceable(24) %0, i8* nonnull %self.0, i8* %self.1), !dbg !1106
  br label %bb1, !dbg !1106

bb1:                                              ; preds = %start
  ret void, !dbg !1107
}

; core::iter::adapters::take_while::TakeWhile<I,P>::new
; Function Attrs: nounwind
define void @"_ZN4core4iter8adapters10take_while22TakeWhile$LT$I$C$P$GT$3new17h30c61b6164b98904E"(%"core::iter::TakeWhile<core::slice::Iter<u8>, [closure@/home/seaceved/.cargo/registry/src/github.com-1ecc6299db9ec823/bs58-0.4.0/src/decode.rs:226:38: 226:53]>"* noalias nocapture sret(%"core::iter::TakeWhile<core::slice::Iter<u8>, [closure@/home/seaceved/.cargo/registry/src/github.com-1ecc6299db9ec823/bs58-0.4.0/src/decode.rs:226:38: 226:53]>") dereferenceable(32) %0, i8* nonnull %iter.0, i8* %iter.1, i8* align 1 dereferenceable(1) %predicate) unnamed_addr #1 !dbg !1108 {
start:
  %predicate.dbg.spill = alloca i8*, align 8
  %iter.dbg.spill = alloca { i8*, i8* }, align 8
  %1 = getelementptr inbounds { i8*, i8* }, { i8*, i8* }* %iter.dbg.spill, i32 0, i32 0
  store i8* %iter.0, i8** %1, align 8
  %2 = getelementptr inbounds { i8*, i8* }, { i8*, i8* }* %iter.dbg.spill, i32 0, i32 1
  store i8* %iter.1, i8** %2, align 8
  call void @llvm.dbg.declare(metadata { i8*, i8* }* %iter.dbg.spill, metadata !1110, metadata !DIExpression()), !dbg !1112
  store i8* %predicate, i8** %predicate.dbg.spill, align 8
  call void @llvm.dbg.declare(metadata i8** %predicate.dbg.spill, metadata !1111, metadata !DIExpression()), !dbg !1113
  %3 = bitcast %"core::iter::TakeWhile<core::slice::Iter<u8>, [closure@/home/seaceved/.cargo/registry/src/github.com-1ecc6299db9ec823/bs58-0.4.0/src/decode.rs:226:38: 226:53]>"* %0 to { i8*, i8* }*, !dbg !1114
  %4 = getelementptr inbounds { i8*, i8* }, { i8*, i8* }* %3, i32 0, i32 0, !dbg !1114
  store i8* %iter.0, i8** %4, align 8, !dbg !1114
  %5 = getelementptr inbounds { i8*, i8* }, { i8*, i8* }* %3, i32 0, i32 1, !dbg !1114
  store i8* %iter.1, i8** %5, align 8, !dbg !1114
  %6 = getelementptr inbounds %"core::iter::TakeWhile<core::slice::Iter<u8>, [closure@/home/seaceved/.cargo/registry/src/github.com-1ecc6299db9ec823/bs58-0.4.0/src/decode.rs:226:38: 226:53]>", %"core::iter::TakeWhile<core::slice::Iter<u8>, [closure@/home/seaceved/.cargo/registry/src/github.com-1ecc6299db9ec823/bs58-0.4.0/src/decode.rs:226:38: 226:53]>"* %0, i32 0, i32 2, !dbg !1114
  store i8 0, i8* %6, align 8, !dbg !1114
  %7 = getelementptr inbounds %"core::iter::TakeWhile<core::slice::Iter<u8>, [closure@/home/seaceved/.cargo/registry/src/github.com-1ecc6299db9ec823/bs58-0.4.0/src/decode.rs:226:38: 226:53]>", %"core::iter::TakeWhile<core::slice::Iter<u8>, [closure@/home/seaceved/.cargo/registry/src/github.com-1ecc6299db9ec823/bs58-0.4.0/src/decode.rs:226:38: 226:53]>"* %0, i32 0, i32 1, !dbg !1114
  store i8* %predicate, i8** %7, align 8, !dbg !1114
  ret void, !dbg !1115
}

; core::iter::adapters::enumerate::Enumerate<I>::new
; Function Attrs: nounwind
define void @"_ZN4core4iter8adapters9enumerate18Enumerate$LT$I$GT$3new17h6f686f7eae201635E"(%"core::iter::Enumerate<core::slice::Iter<u8>>"* noalias nocapture sret(%"core::iter::Enumerate<core::slice::Iter<u8>>") dereferenceable(24) %0, i8* nonnull %iter.0, i8* %iter.1) unnamed_addr #1 !dbg !1116 {
start:
  %iter.dbg.spill = alloca { i8*, i8* }, align 8
  %1 = getelementptr inbounds { i8*, i8* }, { i8*, i8* }* %iter.dbg.spill, i32 0, i32 0
  store i8* %iter.0, i8** %1, align 8
  %2 = getelementptr inbounds { i8*, i8* }, { i8*, i8* }* %iter.dbg.spill, i32 0, i32 1
  store i8* %iter.1, i8** %2, align 8
  call void @llvm.dbg.declare(metadata { i8*, i8* }* %iter.dbg.spill, metadata !1118, metadata !DIExpression()), !dbg !1119
  %3 = bitcast %"core::iter::Enumerate<core::slice::Iter<u8>>"* %0 to { i8*, i8* }*, !dbg !1120
  %4 = getelementptr inbounds { i8*, i8* }, { i8*, i8* }* %3, i32 0, i32 0, !dbg !1120
  store i8* %iter.0, i8** %4, align 8, !dbg !1120
  %5 = getelementptr inbounds { i8*, i8* }, { i8*, i8* }* %3, i32 0, i32 1, !dbg !1120
  store i8* %iter.1, i8** %5, align 8, !dbg !1120
  %6 = getelementptr inbounds %"core::iter::Enumerate<core::slice::Iter<u8>>", %"core::iter::Enumerate<core::slice::Iter<u8>>"* %0, i32 0, i32 1, !dbg !1120
  store i64 0, i64* %6, align 8, !dbg !1120
  ret void, !dbg !1121
}

; core::slice::<impl [T]>::as_mut_ptr
; Function Attrs: inlinehint nounwind
define i8* @"_ZN4core5slice29_$LT$impl$u20$$u5b$T$u5d$$GT$10as_mut_ptr17h6e113aa66d3f0dcfE"([0 x i8]* nonnull align 1 %self.0, i64 %self.1) unnamed_addr #0 !dbg !1122 {
start:
  %self.dbg.spill = alloca { [0 x i8]*, i64 }, align 8
  %0 = getelementptr inbounds { [0 x i8]*, i64 }, { [0 x i8]*, i64 }* %self.dbg.spill, i32 0, i32 0
  store [0 x i8]* %self.0, [0 x i8]** %0, align 8
  %1 = getelementptr inbounds { [0 x i8]*, i64 }, { [0 x i8]*, i64 }* %self.dbg.spill, i32 0, i32 1
  store i64 %self.1, i64* %1, align 8
  call void @llvm.dbg.declare(metadata { [0 x i8]*, i64 }* %self.dbg.spill, metadata !1128, metadata !DIExpression()), !dbg !1129
  %2 = bitcast [0 x i8]* %self.0 to i8*, !dbg !1130
  ret i8* %2, !dbg !1131
}

; core::slice::<impl [T]>::iter
; Function Attrs: inlinehint nounwind
define { i8*, i8* } @"_ZN4core5slice29_$LT$impl$u20$$u5b$T$u5d$$GT$4iter17hf87eee2ae8ff29baE"([0 x i8]* nonnull align 1 %self.0, i64 %self.1) unnamed_addr #0 !dbg !1132 {
start:
  %self.dbg.spill = alloca { [0 x i8]*, i64 }, align 8
  %0 = getelementptr inbounds { [0 x i8]*, i64 }, { [0 x i8]*, i64 }* %self.dbg.spill, i32 0, i32 0
  store [0 x i8]* %self.0, [0 x i8]** %0, align 8
  %1 = getelementptr inbounds { [0 x i8]*, i64 }, { [0 x i8]*, i64 }* %self.dbg.spill, i32 0, i32 1
  store i64 %self.1, i64* %1, align 8
  call void @llvm.dbg.declare(metadata { [0 x i8]*, i64 }* %self.dbg.spill, metadata !1136, metadata !DIExpression()), !dbg !1137
; call core::slice::iter::Iter<T>::new
  %2 = call { i8*, i8* } @"_ZN4core5slice4iter13Iter$LT$T$GT$3new17h513350d8da2dce2aE"([0 x i8]* nonnull align 1 %self.0, i64 %self.1), !dbg !1138
  %3 = extractvalue { i8*, i8* } %2, 0, !dbg !1138
  %4 = extractvalue { i8*, i8* } %2, 1, !dbg !1138
  br label %bb1, !dbg !1138

bb1:                                              ; preds = %start
  %5 = insertvalue { i8*, i8* } undef, i8* %3, 0, !dbg !1139
  %6 = insertvalue { i8*, i8* } %5, i8* %4, 1, !dbg !1139
  ret { i8*, i8* } %6, !dbg !1139
}

; core::slice::<impl [T]>::as_ptr
; Function Attrs: inlinehint nounwind
define i8* @"_ZN4core5slice29_$LT$impl$u20$$u5b$T$u5d$$GT$6as_ptr17h2ff3538276d711c7E"([0 x i8]* nonnull align 1 %self.0, i64 %self.1) unnamed_addr #0 !dbg !1140 {
start:
  %self.dbg.spill = alloca { [0 x i8]*, i64 }, align 8
  %0 = getelementptr inbounds { [0 x i8]*, i64 }, { [0 x i8]*, i64 }* %self.dbg.spill, i32 0, i32 0
  store [0 x i8]* %self.0, [0 x i8]** %0, align 8
  %1 = getelementptr inbounds { [0 x i8]*, i64 }, { [0 x i8]*, i64 }* %self.dbg.spill, i32 0, i32 1
  store i64 %self.1, i64* %1, align 8
  call void @llvm.dbg.declare(metadata { [0 x i8]*, i64 }* %self.dbg.spill, metadata !1144, metadata !DIExpression()), !dbg !1145
  %2 = bitcast [0 x i8]* %self.0 to i8*, !dbg !1146
  ret i8* %2, !dbg !1147
}

; core::slice::<impl [T]>::get_mut
; Function Attrs: inlinehint nounwind
define align 1 dereferenceable_or_null(1) i8* @"_ZN4core5slice29_$LT$impl$u20$$u5b$T$u5d$$GT$7get_mut17h5e3e2372fac85b95E"([0 x i8]* nonnull align 1 %self.0, i64 %self.1, i64 %index) unnamed_addr #0 !dbg !1148 {
start:
  %index.dbg.spill = alloca i64, align 8
  %self.dbg.spill = alloca { [0 x i8]*, i64 }, align 8
  %0 = getelementptr inbounds { [0 x i8]*, i64 }, { [0 x i8]*, i64 }* %self.dbg.spill, i32 0, i32 0
  store [0 x i8]* %self.0, [0 x i8]** %0, align 8
  %1 = getelementptr inbounds { [0 x i8]*, i64 }, { [0 x i8]*, i64 }* %self.dbg.spill, i32 0, i32 1
  store i64 %self.1, i64* %1, align 8
  call void @llvm.dbg.declare(metadata { [0 x i8]*, i64 }* %self.dbg.spill, metadata !1165, metadata !DIExpression()), !dbg !1169
  store i64 %index, i64* %index.dbg.spill, align 8
  call void @llvm.dbg.declare(metadata i64* %index.dbg.spill, metadata !1166, metadata !DIExpression()), !dbg !1170
; call <usize as core::slice::index::SliceIndex<[T]>>::get_mut
  %2 = call align 1 dereferenceable_or_null(1) i8* @"_ZN75_$LT$usize$u20$as$u20$core..slice..index..SliceIndex$LT$$u5b$T$u5d$$GT$$GT$7get_mut17h1ba3f965aaf56d14E"(i64 %index, [0 x i8]* nonnull align 1 %self.0, i64 %self.1), !dbg !1171
  br label %bb1, !dbg !1171

bb1:                                              ; preds = %start
  ret i8* %2, !dbg !1172
}

; core::slice::<impl [T]>::reverse
; Function Attrs: inlinehint nounwind
define void @"_ZN4core5slice29_$LT$impl$u20$$u5b$T$u5d$$GT$7reverse17hff525862f1069356E"([0 x i8]* nonnull align 1 %self.0, i64 %self.1) unnamed_addr #0 !dbg !1173 {
start:
  %0 = alloca i8*, align 8
  %count.dbg.spill.i.i45 = alloca i64, align 8
  %self.dbg.spill.i.i46 = alloca i8*, align 8
  %count.dbg.spill.i47 = alloca i64, align 8
  %self.dbg.spill.i48 = alloca i8*, align 8
  %1 = alloca i8*, align 8
  %count.dbg.spill.i.i40 = alloca i64, align 8
  %self.dbg.spill.i.i41 = alloca i8*, align 8
  %count.dbg.spill.i42 = alloca i64, align 8
  %self.dbg.spill.i43 = alloca i8*, align 8
  %2 = alloca i32, align 4
  %n.dbg.spill.i38 = alloca i32, align 4
  %self.dbg.spill.i39 = alloca i32, align 4
  %3 = alloca i64, align 8
  %self.dbg.spill.i36 = alloca i64, align 8
  %4 = alloca i32, align 4
  %n.dbg.spill.i = alloca i32, align 4
  %self.dbg.spill.i35 = alloca i32, align 4
  %5 = alloca i64, align 8
  %self.dbg.spill.i34 = alloca i64, align 8
  %6 = alloca i8*, align 8
  %count.dbg.spill.i.i29 = alloca i64, align 8
  %self.dbg.spill.i.i30 = alloca i8*, align 8
  %count.dbg.spill.i31 = alloca i64, align 8
  %self.dbg.spill.i32 = alloca i8*, align 8
  %7 = alloca i8*, align 8
  %count.dbg.spill.i.i24 = alloca i64, align 8
  %self.dbg.spill.i.i25 = alloca i8*, align 8
  %count.dbg.spill.i26 = alloca i64, align 8
  %self.dbg.spill.i27 = alloca i8*, align 8
  %8 = alloca i8*, align 8
  %count.dbg.spill.i.i19 = alloca i64, align 8
  %self.dbg.spill.i.i20 = alloca i8*, align 8
  %count.dbg.spill.i21 = alloca i64, align 8
  %self.dbg.spill.i22 = alloca i8*, align 8
  %9 = alloca i8*, align 8
  %count.dbg.spill.i.i = alloca i64, align 8
  %self.dbg.spill.i.i = alloca i8*, align 8
  %count.dbg.spill.i = alloca i64, align 8
  %self.dbg.spill.i = alloca i8*, align 8
  %pb.dbg.spill18 = alloca i8*, align 8
  %pa.dbg.spill16 = alloca i8*, align 8
  %ptr.dbg.spill14 = alloca i8*, align 8
  %vb.dbg.spill12 = alloca i32, align 4
  %va.dbg.spill10 = alloca i32, align 4
  %pb.dbg.spill8 = alloca i8*, align 8
  %pa.dbg.spill6 = alloca i8*, align 8
  %ptr.dbg.spill4 = alloca i8*, align 8
  %chunk.dbg.spill2 = alloca i64, align 8
  %vb.dbg.spill = alloca i64, align 8
  %va.dbg.spill = alloca i64, align 8
  %pb.dbg.spill = alloca i8*, align 8
  %pa.dbg.spill = alloca i8*, align 8
  %ptr.dbg.spill = alloca i8*, align 8
  %chunk.dbg.spill = alloca i64, align 8
  %fast_unaligned.dbg.spill = alloca i8, align 1
  %ln.dbg.spill = alloca i64, align 8
  %self.dbg.spill = alloca { [0 x i8]*, i64 }, align 8
  %_46 = alloca i8, align 1
  %i = alloca i64, align 8
  %10 = getelementptr inbounds { [0 x i8]*, i64 }, { [0 x i8]*, i64 }* %self.dbg.spill, i32 0, i32 0
  store [0 x i8]* %self.0, [0 x i8]** %10, align 8
  %11 = getelementptr inbounds { [0 x i8]*, i64 }, { [0 x i8]*, i64 }* %self.dbg.spill, i32 0, i32 1
  store i64 %self.1, i64* %11, align 8
  call void @llvm.dbg.declare(metadata { [0 x i8]*, i64 }* %self.dbg.spill, metadata !1177, metadata !DIExpression()), !dbg !1214
  call void @llvm.dbg.declare(metadata i64* %i, metadata !1178, metadata !DIExpression()), !dbg !1215
  store i64 0, i64* %i, align 8, !dbg !1216
  store i64 %self.1, i64* %ln.dbg.spill, align 8, !dbg !1217
  call void @llvm.dbg.declare(metadata i64* %ln.dbg.spill, metadata !1180, metadata !DIExpression()), !dbg !1218
  store i8 0, i8* %fast_unaligned.dbg.spill, align 1, !dbg !1219
  call void @llvm.dbg.declare(metadata i8* %fast_unaligned.dbg.spill, metadata !1182, metadata !DIExpression()), !dbg !1220
  br i1 false, label %bb1, label %bb14, !dbg !1221

bb14:                                             ; preds = %bb13, %start
  br i1 false, label %bb16, label %bb15, !dbg !1222

bb1:                                              ; preds = %start
  store i64 8, i64* %chunk.dbg.spill, align 8, !dbg !1223
  call void @llvm.dbg.declare(metadata i64* %chunk.dbg.spill, metadata !1184, metadata !DIExpression()), !dbg !1224
  br label %bb2, !dbg !1223

bb2:                                              ; preds = %bb12, %bb1
  %_11 = load i64, i64* %i, align 8, !dbg !1225
  %_10 = add i64 %_11, 8, !dbg !1225
  %_9 = sub i64 %_10, 1, !dbg !1225
  %_13 = udiv i64 %self.1, 2, !dbg !1226
  %_8 = icmp ult i64 %_9, %_13, !dbg !1225
  br i1 %_8, label %bb3, label %bb13, !dbg !1225

bb13:                                             ; preds = %bb2
  br label %bb14, !dbg !1227

bb3:                                              ; preds = %bb2
; call core::slice::<impl [T]>::as_mut_ptr
  %ptr = call i8* @"_ZN4core5slice29_$LT$impl$u20$$u5b$T$u5d$$GT$10as_mut_ptr17h6e113aa66d3f0dcfE"([0 x i8]* nonnull align 1 %self.0, i64 %self.1), !dbg !1228
  store i8* %ptr, i8** %ptr.dbg.spill, align 8, !dbg !1228
  call void @llvm.dbg.declare(metadata i8** %ptr.dbg.spill, metadata !1186, metadata !DIExpression()), !dbg !1229
  br label %bb4, !dbg !1228

bb4:                                              ; preds = %bb3
  %_19 = load i64, i64* %i, align 8, !dbg !1230
  store i8* %ptr, i8** %self.dbg.spill.i, align 8
  call void @llvm.dbg.declare(metadata i8** %self.dbg.spill.i, metadata !121, metadata !DIExpression()), !dbg !1231
  store i64 %_19, i64* %count.dbg.spill.i, align 8
  call void @llvm.dbg.declare(metadata i64* %count.dbg.spill.i, metadata !127, metadata !DIExpression()), !dbg !1233
  store i8* %ptr, i8** %self.dbg.spill.i.i, align 8
  call void @llvm.dbg.declare(metadata i8** %self.dbg.spill.i.i, metadata !131, metadata !DIExpression()), !dbg !1234
  store i64 %_19, i64* %count.dbg.spill.i.i, align 8
  call void @llvm.dbg.declare(metadata i64* %count.dbg.spill.i.i, metadata !136, metadata !DIExpression()), !dbg !1236
  %12 = getelementptr inbounds i8, i8* %ptr, i64 %_19, !dbg !1237
  store i8* %12, i8** %9, align 8, !dbg !1237
  %_3.i.i = load i8*, i8** %9, align 8, !dbg !1237
  store i8* %_3.i.i, i8** %pa.dbg.spill, align 8, !dbg !1238
  call void @llvm.dbg.declare(metadata i8** %pa.dbg.spill, metadata !1188, metadata !DIExpression()), !dbg !1239
  br label %bb5, !dbg !1238

bb5:                                              ; preds = %bb4
  %_25 = load i64, i64* %i, align 8, !dbg !1240
  %_23 = sub i64 %self.1, %_25, !dbg !1241
  %_22 = sub i64 %_23, 8, !dbg !1241
  store i8* %ptr, i8** %self.dbg.spill.i32, align 8
  call void @llvm.dbg.declare(metadata i8** %self.dbg.spill.i32, metadata !121, metadata !DIExpression()), !dbg !1242
  store i64 %_22, i64* %count.dbg.spill.i31, align 8
  call void @llvm.dbg.declare(metadata i64* %count.dbg.spill.i31, metadata !127, metadata !DIExpression()), !dbg !1244
  store i8* %ptr, i8** %self.dbg.spill.i.i30, align 8
  call void @llvm.dbg.declare(metadata i8** %self.dbg.spill.i.i30, metadata !131, metadata !DIExpression()), !dbg !1245
  store i64 %_22, i64* %count.dbg.spill.i.i29, align 8
  call void @llvm.dbg.declare(metadata i64* %count.dbg.spill.i.i29, metadata !136, metadata !DIExpression()), !dbg !1247
  %13 = getelementptr inbounds i8, i8* %ptr, i64 %_22, !dbg !1248
  store i8* %13, i8** %6, align 8, !dbg !1248
  %_3.i.i33 = load i8*, i8** %6, align 8, !dbg !1248
  store i8* %_3.i.i33, i8** %pb.dbg.spill, align 8, !dbg !1249
  call void @llvm.dbg.declare(metadata i8** %pb.dbg.spill, metadata !1190, metadata !DIExpression()), !dbg !1250
  br label %bb6, !dbg !1249

bb6:                                              ; preds = %bb5
  %_29 = bitcast i8* %_3.i.i to i64*, !dbg !1251
; call core::ptr::read_unaligned
  %va = call i64 @_ZN4core3ptr14read_unaligned17h8155ae68dcb45a8fE(i64* %_29), !dbg !1252
  store i64 %va, i64* %va.dbg.spill, align 8, !dbg !1252
  call void @llvm.dbg.declare(metadata i64* %va.dbg.spill, metadata !1192, metadata !DIExpression()), !dbg !1253
  br label %bb7, !dbg !1252

bb7:                                              ; preds = %bb6
  %_33 = bitcast i8* %_3.i.i33 to i64*, !dbg !1254
; call core::ptr::read_unaligned
  %vb = call i64 @_ZN4core3ptr14read_unaligned17h8155ae68dcb45a8fE(i64* %_33), !dbg !1255
  store i64 %vb, i64* %vb.dbg.spill, align 8, !dbg !1255
  call void @llvm.dbg.declare(metadata i64* %vb.dbg.spill, metadata !1194, metadata !DIExpression()), !dbg !1256
  br label %bb8, !dbg !1255

bb8:                                              ; preds = %bb7
  %_36 = bitcast i8* %_3.i.i to i64*, !dbg !1257
  store i64 %vb, i64* %self.dbg.spill.i34, align 8
  call void @llvm.dbg.declare(metadata i64* %self.dbg.spill.i34, metadata !1258, metadata !DIExpression()) #8, !dbg !1266
  %14 = call i64 @llvm.bswap.i64(i64 %vb) #8, !dbg !1268
  store i64 %14, i64* %5, align 8, !dbg !1268
  %_2.i = load i64, i64* %5, align 8, !dbg !1268
  br label %bb9, !dbg !1269

bb9:                                              ; preds = %bb8
; call core::ptr::write_unaligned
  call void @_ZN4core3ptr15write_unaligned17h4f115723d819613bE(i64* %_36, i64 %_2.i), !dbg !1270
  br label %bb10, !dbg !1270

bb10:                                             ; preds = %bb9
  %_41 = bitcast i8* %_3.i.i33 to i64*, !dbg !1271
  store i64 %va, i64* %self.dbg.spill.i36, align 8
  call void @llvm.dbg.declare(metadata i64* %self.dbg.spill.i36, metadata !1258, metadata !DIExpression()) #8, !dbg !1272
  %15 = call i64 @llvm.bswap.i64(i64 %va) #8, !dbg !1274
  store i64 %15, i64* %3, align 8, !dbg !1274
  %_2.i37 = load i64, i64* %3, align 8, !dbg !1274
  br label %bb11, !dbg !1275

bb11:                                             ; preds = %bb10
; call core::ptr::write_unaligned
  call void @_ZN4core3ptr15write_unaligned17h4f115723d819613bE(i64* %_41, i64 %_2.i37), !dbg !1276
  br label %bb12, !dbg !1276

bb12:                                             ; preds = %bb11
  %16 = load i64, i64* %i, align 8, !dbg !1277
  %17 = add i64 %16, 8, !dbg !1277
  store i64 %17, i64* %i, align 8, !dbg !1277
  br label %bb2, !dbg !1278

bb15:                                             ; preds = %bb14
  store i8 0, i8* %_46, align 1, !dbg !1222
  br label %bb17, !dbg !1222

bb16:                                             ; preds = %bb14
  br label %bb18, !dbg !1279

bb18:                                             ; preds = %bb16
  %_48 = icmp eq i64 1, 2, !dbg !1279
  %18 = zext i1 %_48 to i8, !dbg !1222
  store i8 %18, i8* %_46, align 1, !dbg !1222
  br label %bb17, !dbg !1222

bb17:                                             ; preds = %bb15, %bb18
  %19 = load i8, i8* %_46, align 1, !dbg !1222, !range !374
  %20 = trunc i8 %19 to i1, !dbg !1222
  br i1 %20, label %bb19, label %bb33, !dbg !1222

bb33:                                             ; preds = %bb32, %bb17
  br label %bb34, !dbg !1280

bb19:                                             ; preds = %bb17
  br label %bb20, !dbg !1281

bb20:                                             ; preds = %bb19
  %chunk1 = udiv i64 4, 2, !dbg !1281
  store i64 %chunk1, i64* %chunk.dbg.spill2, align 8, !dbg !1281
  call void @llvm.dbg.declare(metadata i64* %chunk.dbg.spill2, metadata !1196, metadata !DIExpression()), !dbg !1282
  br label %bb21, !dbg !1283

bb21:                                             ; preds = %bb31, %bb20
  %_55 = load i64, i64* %i, align 8, !dbg !1284
  %_54 = add i64 %_55, %chunk1, !dbg !1284
  %_53 = sub i64 %_54, 1, !dbg !1284
  %_57 = udiv i64 %self.1, 2, !dbg !1285
  %_52 = icmp ult i64 %_53, %_57, !dbg !1284
  br i1 %_52, label %bb22, label %bb32, !dbg !1284

bb32:                                             ; preds = %bb21
  br label %bb33, !dbg !1286

bb22:                                             ; preds = %bb21
; call core::slice::<impl [T]>::as_mut_ptr
  %ptr3 = call i8* @"_ZN4core5slice29_$LT$impl$u20$$u5b$T$u5d$$GT$10as_mut_ptr17h6e113aa66d3f0dcfE"([0 x i8]* nonnull align 1 %self.0, i64 %self.1), !dbg !1287
  store i8* %ptr3, i8** %ptr.dbg.spill4, align 8, !dbg !1287
  call void @llvm.dbg.declare(metadata i8** %ptr.dbg.spill4, metadata !1198, metadata !DIExpression()), !dbg !1288
  br label %bb23, !dbg !1287

bb23:                                             ; preds = %bb22
  %_63 = load i64, i64* %i, align 8, !dbg !1289
  store i8* %ptr3, i8** %self.dbg.spill.i48, align 8
  call void @llvm.dbg.declare(metadata i8** %self.dbg.spill.i48, metadata !121, metadata !DIExpression()), !dbg !1290
  store i64 %_63, i64* %count.dbg.spill.i47, align 8
  call void @llvm.dbg.declare(metadata i64* %count.dbg.spill.i47, metadata !127, metadata !DIExpression()), !dbg !1292
  store i8* %ptr3, i8** %self.dbg.spill.i.i46, align 8
  call void @llvm.dbg.declare(metadata i8** %self.dbg.spill.i.i46, metadata !131, metadata !DIExpression()), !dbg !1293
  store i64 %_63, i64* %count.dbg.spill.i.i45, align 8
  call void @llvm.dbg.declare(metadata i64* %count.dbg.spill.i.i45, metadata !136, metadata !DIExpression()), !dbg !1295
  %21 = getelementptr inbounds i8, i8* %ptr3, i64 %_63, !dbg !1296
  store i8* %21, i8** %0, align 8, !dbg !1296
  %_3.i.i49 = load i8*, i8** %0, align 8, !dbg !1296
  store i8* %_3.i.i49, i8** %pa.dbg.spill6, align 8, !dbg !1297
  call void @llvm.dbg.declare(metadata i8** %pa.dbg.spill6, metadata !1200, metadata !DIExpression()), !dbg !1298
  br label %bb24, !dbg !1297

bb24:                                             ; preds = %bb23
  %_69 = load i64, i64* %i, align 8, !dbg !1299
  %_67 = sub i64 %self.1, %_69, !dbg !1300
  %_66 = sub i64 %_67, %chunk1, !dbg !1300
  store i8* %ptr3, i8** %self.dbg.spill.i43, align 8
  call void @llvm.dbg.declare(metadata i8** %self.dbg.spill.i43, metadata !121, metadata !DIExpression()), !dbg !1301
  store i64 %_66, i64* %count.dbg.spill.i42, align 8
  call void @llvm.dbg.declare(metadata i64* %count.dbg.spill.i42, metadata !127, metadata !DIExpression()), !dbg !1303
  store i8* %ptr3, i8** %self.dbg.spill.i.i41, align 8
  call void @llvm.dbg.declare(metadata i8** %self.dbg.spill.i.i41, metadata !131, metadata !DIExpression()), !dbg !1304
  store i64 %_66, i64* %count.dbg.spill.i.i40, align 8
  call void @llvm.dbg.declare(metadata i64* %count.dbg.spill.i.i40, metadata !136, metadata !DIExpression()), !dbg !1306
  %22 = getelementptr inbounds i8, i8* %ptr3, i64 %_66, !dbg !1307
  store i8* %22, i8** %1, align 8, !dbg !1307
  %_3.i.i44 = load i8*, i8** %1, align 8, !dbg !1307
  store i8* %_3.i.i44, i8** %pb.dbg.spill8, align 8, !dbg !1308
  call void @llvm.dbg.declare(metadata i8** %pb.dbg.spill8, metadata !1202, metadata !DIExpression()), !dbg !1309
  br label %bb25, !dbg !1308

bb25:                                             ; preds = %bb24
  %_73 = bitcast i8* %_3.i.i49 to i32*, !dbg !1310
; call core::ptr::read_unaligned
  %va9 = call i32 @_ZN4core3ptr14read_unaligned17h4cb7be963a817d86E(i32* %_73), !dbg !1311
  store i32 %va9, i32* %va.dbg.spill10, align 4, !dbg !1311
  call void @llvm.dbg.declare(metadata i32* %va.dbg.spill10, metadata !1204, metadata !DIExpression()), !dbg !1312
  br label %bb26, !dbg !1311

bb26:                                             ; preds = %bb25
  %_77 = bitcast i8* %_3.i.i44 to i32*, !dbg !1313
; call core::ptr::read_unaligned
  %vb11 = call i32 @_ZN4core3ptr14read_unaligned17h4cb7be963a817d86E(i32* %_77), !dbg !1314
  store i32 %vb11, i32* %vb.dbg.spill12, align 4, !dbg !1314
  call void @llvm.dbg.declare(metadata i32* %vb.dbg.spill12, metadata !1206, metadata !DIExpression()), !dbg !1315
  br label %bb27, !dbg !1314

bb27:                                             ; preds = %bb26
  %_80 = bitcast i8* %_3.i.i49 to i32*, !dbg !1316
  store i32 %vb11, i32* %self.dbg.spill.i39, align 4
  call void @llvm.dbg.declare(metadata i32* %self.dbg.spill.i39, metadata !1317, metadata !DIExpression()) #8, !dbg !1324
  store i32 16, i32* %n.dbg.spill.i38, align 4
  call void @llvm.dbg.declare(metadata i32* %n.dbg.spill.i38, metadata !1323, metadata !DIExpression()) #8, !dbg !1326
  %23 = call i32 @llvm.fshl.i32(i32 %vb11, i32 %vb11, i32 16) #8, !dbg !1327
  store i32 %23, i32* %2, align 4, !dbg !1327
  %24 = load i32, i32* %2, align 4, !dbg !1327
  br label %bb28, !dbg !1328

bb28:                                             ; preds = %bb27
; call core::ptr::write_unaligned
  call void @_ZN4core3ptr15write_unaligned17h7a70f46b5ba62e04E(i32* %_80, i32 %24), !dbg !1329
  br label %bb29, !dbg !1329

bb29:                                             ; preds = %bb28
  %_85 = bitcast i8* %_3.i.i44 to i32*, !dbg !1330
  store i32 %va9, i32* %self.dbg.spill.i35, align 4
  call void @llvm.dbg.declare(metadata i32* %self.dbg.spill.i35, metadata !1317, metadata !DIExpression()) #8, !dbg !1331
  store i32 16, i32* %n.dbg.spill.i, align 4
  call void @llvm.dbg.declare(metadata i32* %n.dbg.spill.i, metadata !1323, metadata !DIExpression()) #8, !dbg !1333
  %25 = call i32 @llvm.fshl.i32(i32 %va9, i32 %va9, i32 16) #8, !dbg !1334
  store i32 %25, i32* %4, align 4, !dbg !1334
  %26 = load i32, i32* %4, align 4, !dbg !1334
  br label %bb30, !dbg !1335

bb30:                                             ; preds = %bb29
; call core::ptr::write_unaligned
  call void @_ZN4core3ptr15write_unaligned17h7a70f46b5ba62e04E(i32* %_85, i32 %26), !dbg !1336
  br label %bb31, !dbg !1336

bb31:                                             ; preds = %bb30
  %27 = load i64, i64* %i, align 8, !dbg !1337
  %28 = add i64 %27, %chunk1, !dbg !1337
  store i64 %28, i64* %i, align 8, !dbg !1337
  br label %bb21, !dbg !1283

bb34:                                             ; preds = %bb39, %bb33
  %_91 = load i64, i64* %i, align 8, !dbg !1338
  %_92 = udiv i64 %self.1, 2, !dbg !1339
  %_90 = icmp ult i64 %_91, %_92, !dbg !1338
  br i1 %_90, label %bb35, label %bb40, !dbg !1338

bb40:                                             ; preds = %bb34
  ret void, !dbg !1340

bb35:                                             ; preds = %bb34
; call core::slice::<impl [T]>::as_mut_ptr
  %ptr13 = call i8* @"_ZN4core5slice29_$LT$impl$u20$$u5b$T$u5d$$GT$10as_mut_ptr17h6e113aa66d3f0dcfE"([0 x i8]* nonnull align 1 %self.0, i64 %self.1), !dbg !1341
  store i8* %ptr13, i8** %ptr.dbg.spill14, align 8, !dbg !1341
  call void @llvm.dbg.declare(metadata i8** %ptr.dbg.spill14, metadata !1208, metadata !DIExpression()), !dbg !1342
  br label %bb36, !dbg !1341

bb36:                                             ; preds = %bb35
  %_98 = load i64, i64* %i, align 8, !dbg !1343
  store i8* %ptr13, i8** %self.dbg.spill.i27, align 8
  call void @llvm.dbg.declare(metadata i8** %self.dbg.spill.i27, metadata !121, metadata !DIExpression()), !dbg !1344
  store i64 %_98, i64* %count.dbg.spill.i26, align 8
  call void @llvm.dbg.declare(metadata i64* %count.dbg.spill.i26, metadata !127, metadata !DIExpression()), !dbg !1346
  store i8* %ptr13, i8** %self.dbg.spill.i.i25, align 8
  call void @llvm.dbg.declare(metadata i8** %self.dbg.spill.i.i25, metadata !131, metadata !DIExpression()), !dbg !1347
  store i64 %_98, i64* %count.dbg.spill.i.i24, align 8
  call void @llvm.dbg.declare(metadata i64* %count.dbg.spill.i.i24, metadata !136, metadata !DIExpression()), !dbg !1349
  %29 = getelementptr inbounds i8, i8* %ptr13, i64 %_98, !dbg !1350
  store i8* %29, i8** %7, align 8, !dbg !1350
  %_3.i.i28 = load i8*, i8** %7, align 8, !dbg !1350
  store i8* %_3.i.i28, i8** %pa.dbg.spill16, align 8, !dbg !1351
  call void @llvm.dbg.declare(metadata i8** %pa.dbg.spill16, metadata !1210, metadata !DIExpression()), !dbg !1352
  br label %bb37, !dbg !1351

bb37:                                             ; preds = %bb36
  %_104 = load i64, i64* %i, align 8, !dbg !1353
  %_102 = sub i64 %self.1, %_104, !dbg !1354
  %_101 = sub i64 %_102, 1, !dbg !1354
  store i8* %ptr13, i8** %self.dbg.spill.i22, align 8
  call void @llvm.dbg.declare(metadata i8** %self.dbg.spill.i22, metadata !121, metadata !DIExpression()), !dbg !1355
  store i64 %_101, i64* %count.dbg.spill.i21, align 8
  call void @llvm.dbg.declare(metadata i64* %count.dbg.spill.i21, metadata !127, metadata !DIExpression()), !dbg !1357
  store i8* %ptr13, i8** %self.dbg.spill.i.i20, align 8
  call void @llvm.dbg.declare(metadata i8** %self.dbg.spill.i.i20, metadata !131, metadata !DIExpression()), !dbg !1358
  store i64 %_101, i64* %count.dbg.spill.i.i19, align 8
  call void @llvm.dbg.declare(metadata i64* %count.dbg.spill.i.i19, metadata !136, metadata !DIExpression()), !dbg !1360
  %30 = getelementptr inbounds i8, i8* %ptr13, i64 %_101, !dbg !1361
  store i8* %30, i8** %8, align 8, !dbg !1361
  %_3.i.i23 = load i8*, i8** %8, align 8, !dbg !1361
  store i8* %_3.i.i23, i8** %pb.dbg.spill18, align 8, !dbg !1362
  call void @llvm.dbg.declare(metadata i8** %pb.dbg.spill18, metadata !1212, metadata !DIExpression()), !dbg !1363
  br label %bb38, !dbg !1362

bb38:                                             ; preds = %bb37
; call core::ptr::swap
  call void @_ZN4core3ptr4swap17h33fb5ebb51ed0679E(i8* %_3.i.i28, i8* %_3.i.i23), !dbg !1364
  br label %bb39, !dbg !1364

bb39:                                             ; preds = %bb38
  %31 = load i64, i64* %i, align 8, !dbg !1365
  %32 = add i64 %31, 1, !dbg !1365
  store i64 %32, i64* %i, align 8, !dbg !1365
  br label %bb34, !dbg !1280
}

; core::slice::<impl [T]>::iter_mut
; Function Attrs: inlinehint nounwind
define { i8*, i8* } @"_ZN4core5slice29_$LT$impl$u20$$u5b$T$u5d$$GT$8iter_mut17hb34eb39318f0adbcE"([0 x i8]* nonnull align 1 %self.0, i64 %self.1) unnamed_addr #0 !dbg !1366 {
start:
  %self.dbg.spill = alloca { [0 x i8]*, i64 }, align 8
  %0 = getelementptr inbounds { [0 x i8]*, i64 }, { [0 x i8]*, i64 }* %self.dbg.spill, i32 0, i32 0
  store [0 x i8]* %self.0, [0 x i8]** %0, align 8
  %1 = getelementptr inbounds { [0 x i8]*, i64 }, { [0 x i8]*, i64 }* %self.dbg.spill, i32 0, i32 1
  store i64 %self.1, i64* %1, align 8
  call void @llvm.dbg.declare(metadata { [0 x i8]*, i64 }* %self.dbg.spill, metadata !1376, metadata !DIExpression()), !dbg !1377
; call core::slice::iter::IterMut<T>::new
  %2 = call { i8*, i8* } @"_ZN4core5slice4iter16IterMut$LT$T$GT$3new17h9ead2c058fe780cbE"([0 x i8]* nonnull align 1 %self.0, i64 %self.1), !dbg !1378
  %3 = extractvalue { i8*, i8* } %2, 0, !dbg !1378
  %4 = extractvalue { i8*, i8* } %2, 1, !dbg !1378
  br label %bb1, !dbg !1378

bb1:                                              ; preds = %start
  %5 = insertvalue { i8*, i8* } undef, i8* %3, 0, !dbg !1379
  %6 = insertvalue { i8*, i8* } %5, i8* %4, 1, !dbg !1379
  ret { i8*, i8* } %6, !dbg !1379
}

; core::slice::iter::Iter<T>::new
; Function Attrs: inlinehint nounwind
define { i8*, i8* } @"_ZN4core5slice4iter13Iter$LT$T$GT$3new17h513350d8da2dce2aE"([0 x i8]* nonnull align 1 %slice.0, i64 %slice.1) unnamed_addr #0 !dbg !1380 {
start:
  %0 = alloca i8*, align 8
  %count.dbg.spill.i.i1 = alloca i64, align 8
  %self.dbg.spill.i.i2 = alloca i8*, align 8
  %count.dbg.spill.i3 = alloca i64, align 8
  %self.dbg.spill.i4 = alloca i8*, align 8
  %1 = alloca i8*, align 8
  %count.dbg.spill.i.i = alloca i64, align 8
  %self.dbg.spill.i.i = alloca i8*, align 8
  %count.dbg.spill.i = alloca i64, align 8
  %self.dbg.spill.i = alloca i8*, align 8
  %ptr.dbg.spill = alloca i8*, align 8
  %slice.dbg.spill = alloca { [0 x i8]*, i64 }, align 8
  %end = alloca i8*, align 8
  %2 = alloca { i8*, i8* }, align 8
  %3 = getelementptr inbounds { [0 x i8]*, i64 }, { [0 x i8]*, i64 }* %slice.dbg.spill, i32 0, i32 0
  store [0 x i8]* %slice.0, [0 x i8]** %3, align 8
  %4 = getelementptr inbounds { [0 x i8]*, i64 }, { [0 x i8]*, i64 }* %slice.dbg.spill, i32 0, i32 1
  store i64 %slice.1, i64* %4, align 8
  call void @llvm.dbg.declare(metadata { [0 x i8]*, i64 }* %slice.dbg.spill, metadata !1383, metadata !DIExpression()), !dbg !1388
  call void @llvm.dbg.declare(metadata i8** %end, metadata !1386, metadata !DIExpression()), !dbg !1389
; call core::slice::<impl [T]>::as_ptr
  %ptr = call i8* @"_ZN4core5slice29_$LT$impl$u20$$u5b$T$u5d$$GT$6as_ptr17h2ff3538276d711c7E"([0 x i8]* nonnull align 1 %slice.0, i64 %slice.1), !dbg !1390
  store i8* %ptr, i8** %ptr.dbg.spill, align 8, !dbg !1390
  call void @llvm.dbg.declare(metadata i8** %ptr.dbg.spill, metadata !1384, metadata !DIExpression()), !dbg !1391
  br label %bb1, !dbg !1390

bb1:                                              ; preds = %start
; call core::ptr::const_ptr::<impl *const T>::is_null
  %_6 = call zeroext i1 @"_ZN4core3ptr9const_ptr33_$LT$impl$u20$$BP$const$u20$T$GT$7is_null17hab0bc388f22a5caeE"(i8* %ptr), !dbg !1392
  br label %bb2, !dbg !1392

bb2:                                              ; preds = %bb1
  %_5 = xor i1 %_6, true, !dbg !1393
  call void @llvm.assume(i1 %_5), !dbg !1394
  br label %bb3, !dbg !1394

bb3:                                              ; preds = %bb2
  br label %bb4, !dbg !1395

bb4:                                              ; preds = %bb3
  %5 = icmp eq i64 1, 0, !dbg !1395
  br i1 %5, label %bb5, label %bb7, !dbg !1395

bb5:                                              ; preds = %bb4
  store i8* %ptr, i8** %self.dbg.spill.i, align 8
  call void @llvm.dbg.declare(metadata i8** %self.dbg.spill.i, metadata !1396, metadata !DIExpression()), !dbg !1400
  store i64 %slice.1, i64* %count.dbg.spill.i, align 8
  call void @llvm.dbg.declare(metadata i64* %count.dbg.spill.i, metadata !1399, metadata !DIExpression()), !dbg !1402
  store i8* %ptr, i8** %self.dbg.spill.i.i, align 8
  call void @llvm.dbg.declare(metadata i8** %self.dbg.spill.i.i, metadata !1403, metadata !DIExpression()), !dbg !1407
  store i64 %slice.1, i64* %count.dbg.spill.i.i, align 8
  call void @llvm.dbg.declare(metadata i64* %count.dbg.spill.i.i, metadata !1406, metadata !DIExpression()), !dbg !1409
  %6 = getelementptr i8, i8* %ptr, i64 %slice.1, !dbg !1410
  store i8* %6, i8** %1, align 8, !dbg !1410
  %7 = load i8*, i8** %1, align 8, !dbg !1410
  br label %bb6, !dbg !1411

bb7:                                              ; preds = %bb4
  store i8* %ptr, i8** %self.dbg.spill.i4, align 8
  call void @llvm.dbg.declare(metadata i8** %self.dbg.spill.i4, metadata !69, metadata !DIExpression()), !dbg !1412
  store i64 %slice.1, i64* %count.dbg.spill.i3, align 8
  call void @llvm.dbg.declare(metadata i64* %count.dbg.spill.i3, metadata !78, metadata !DIExpression()), !dbg !1414
  store i8* %ptr, i8** %self.dbg.spill.i.i2, align 8
  call void @llvm.dbg.declare(metadata i8** %self.dbg.spill.i.i2, metadata !82, metadata !DIExpression()), !dbg !1415
  store i64 %slice.1, i64* %count.dbg.spill.i.i1, align 8
  call void @llvm.dbg.declare(metadata i64* %count.dbg.spill.i.i1, metadata !88, metadata !DIExpression()), !dbg !1417
  %8 = getelementptr inbounds i8, i8* %ptr, i64 %slice.1, !dbg !1418
  store i8* %8, i8** %0, align 8, !dbg !1418
  %9 = load i8*, i8** %0, align 8, !dbg !1418
  store i8* %9, i8** %end, align 8, !dbg !1419
  br label %bb8, !dbg !1419

bb8:                                              ; preds = %bb7
  br label %bb9, !dbg !1420

bb9:                                              ; preds = %bb6, %bb8
; call core::ptr::non_null::NonNull<T>::new_unchecked
  %_18 = call nonnull i8* @"_ZN4core3ptr8non_null16NonNull$LT$T$GT$13new_unchecked17h084e3c4e09f2f47aE"(i8* %ptr), !dbg !1421
  br label %bb10, !dbg !1421

bb6:                                              ; preds = %bb5
  store i8* %7, i8** %end, align 8, !dbg !1411
  br label %bb9, !dbg !1420

bb10:                                             ; preds = %bb9
  %_21 = load i8*, i8** %end, align 8, !dbg !1422
  %10 = bitcast { i8*, i8* }* %2 to i8**, !dbg !1423
  store i8* %_18, i8** %10, align 8, !dbg !1423
  %11 = getelementptr inbounds { i8*, i8* }, { i8*, i8* }* %2, i32 0, i32 1, !dbg !1423
  store i8* %_21, i8** %11, align 8, !dbg !1423
  %12 = getelementptr inbounds { i8*, i8* }, { i8*, i8* }* %2, i32 0, i32 0, !dbg !1424
  %13 = load i8*, i8** %12, align 8, !dbg !1424, !nonnull !4
  %14 = getelementptr inbounds { i8*, i8* }, { i8*, i8* }* %2, i32 0, i32 1, !dbg !1424
  %15 = load i8*, i8** %14, align 8, !dbg !1424
  %16 = insertvalue { i8*, i8* } undef, i8* %13, 0, !dbg !1424
  %17 = insertvalue { i8*, i8* } %16, i8* %15, 1, !dbg !1424
  ret { i8*, i8* } %17, !dbg !1424
}

; core::slice::iter::IterMut<T>::new
; Function Attrs: inlinehint nounwind
define { i8*, i8* } @"_ZN4core5slice4iter16IterMut$LT$T$GT$3new17h9ead2c058fe780cbE"([0 x i8]* nonnull align 1 %slice.0, i64 %slice.1) unnamed_addr #0 !dbg !1425 {
start:
  %0 = alloca i8*, align 8
  %count.dbg.spill.i.i1 = alloca i64, align 8
  %self.dbg.spill.i.i2 = alloca i8*, align 8
  %count.dbg.spill.i3 = alloca i64, align 8
  %self.dbg.spill.i4 = alloca i8*, align 8
  %1 = alloca i8*, align 8
  %count.dbg.spill.i.i = alloca i64, align 8
  %self.dbg.spill.i.i = alloca i8*, align 8
  %count.dbg.spill.i = alloca i64, align 8
  %self.dbg.spill.i = alloca i8*, align 8
  %ptr.dbg.spill = alloca i8*, align 8
  %slice.dbg.spill = alloca { [0 x i8]*, i64 }, align 8
  %end = alloca i8*, align 8
  %2 = alloca { i8*, i8* }, align 8
  %3 = getelementptr inbounds { [0 x i8]*, i64 }, { [0 x i8]*, i64 }* %slice.dbg.spill, i32 0, i32 0
  store [0 x i8]* %slice.0, [0 x i8]** %3, align 8
  %4 = getelementptr inbounds { [0 x i8]*, i64 }, { [0 x i8]*, i64 }* %slice.dbg.spill, i32 0, i32 1
  store i64 %slice.1, i64* %4, align 8
  call void @llvm.dbg.declare(metadata { [0 x i8]*, i64 }* %slice.dbg.spill, metadata !1427, metadata !DIExpression()), !dbg !1432
  call void @llvm.dbg.declare(metadata i8** %end, metadata !1430, metadata !DIExpression()), !dbg !1433
; call core::slice::<impl [T]>::as_mut_ptr
  %ptr = call i8* @"_ZN4core5slice29_$LT$impl$u20$$u5b$T$u5d$$GT$10as_mut_ptr17h6e113aa66d3f0dcfE"([0 x i8]* nonnull align 1 %slice.0, i64 %slice.1), !dbg !1434
  store i8* %ptr, i8** %ptr.dbg.spill, align 8, !dbg !1434
  call void @llvm.dbg.declare(metadata i8** %ptr.dbg.spill, metadata !1428, metadata !DIExpression()), !dbg !1435
  br label %bb1, !dbg !1434

bb1:                                              ; preds = %start
; call core::ptr::mut_ptr::<impl *mut T>::is_null
  %_6 = call zeroext i1 @"_ZN4core3ptr7mut_ptr31_$LT$impl$u20$$BP$mut$u20$T$GT$7is_null17h81f020dc74f116d2E"(i8* %ptr), !dbg !1436
  br label %bb2, !dbg !1436

bb2:                                              ; preds = %bb1
  %_5 = xor i1 %_6, true, !dbg !1437
  call void @llvm.assume(i1 %_5), !dbg !1438
  br label %bb3, !dbg !1438

bb3:                                              ; preds = %bb2
  br label %bb4, !dbg !1439

bb4:                                              ; preds = %bb3
  %5 = icmp eq i64 1, 0, !dbg !1439
  br i1 %5, label %bb5, label %bb7, !dbg !1439

bb5:                                              ; preds = %bb4
  store i8* %ptr, i8** %self.dbg.spill.i, align 8
  call void @llvm.dbg.declare(metadata i8** %self.dbg.spill.i, metadata !1440, metadata !DIExpression()), !dbg !1444
  store i64 %slice.1, i64* %count.dbg.spill.i, align 8
  call void @llvm.dbg.declare(metadata i64* %count.dbg.spill.i, metadata !1443, metadata !DIExpression()), !dbg !1446
  store i8* %ptr, i8** %self.dbg.spill.i.i, align 8
  call void @llvm.dbg.declare(metadata i8** %self.dbg.spill.i.i, metadata !1447, metadata !DIExpression()), !dbg !1451
  store i64 %slice.1, i64* %count.dbg.spill.i.i, align 8
  call void @llvm.dbg.declare(metadata i64* %count.dbg.spill.i.i, metadata !1450, metadata !DIExpression()), !dbg !1453
  %6 = getelementptr i8, i8* %ptr, i64 %slice.1, !dbg !1454
  store i8* %6, i8** %1, align 8, !dbg !1454
  %_3.i.i = load i8*, i8** %1, align 8, !dbg !1454
  br label %bb6, !dbg !1455

bb7:                                              ; preds = %bb4
  store i8* %ptr, i8** %self.dbg.spill.i4, align 8
  call void @llvm.dbg.declare(metadata i8** %self.dbg.spill.i4, metadata !121, metadata !DIExpression()), !dbg !1456
  store i64 %slice.1, i64* %count.dbg.spill.i3, align 8
  call void @llvm.dbg.declare(metadata i64* %count.dbg.spill.i3, metadata !127, metadata !DIExpression()), !dbg !1458
  store i8* %ptr, i8** %self.dbg.spill.i.i2, align 8
  call void @llvm.dbg.declare(metadata i8** %self.dbg.spill.i.i2, metadata !131, metadata !DIExpression()), !dbg !1459
  store i64 %slice.1, i64* %count.dbg.spill.i.i1, align 8
  call void @llvm.dbg.declare(metadata i64* %count.dbg.spill.i.i1, metadata !136, metadata !DIExpression()), !dbg !1461
  %7 = getelementptr inbounds i8, i8* %ptr, i64 %slice.1, !dbg !1462
  store i8* %7, i8** %0, align 8, !dbg !1462
  %_3.i.i5 = load i8*, i8** %0, align 8, !dbg !1462
  store i8* %_3.i.i5, i8** %end, align 8, !dbg !1463
  br label %bb8, !dbg !1463

bb8:                                              ; preds = %bb7
  br label %bb9, !dbg !1464

bb9:                                              ; preds = %bb6, %bb8
; call core::ptr::non_null::NonNull<T>::new_unchecked
  %_18 = call nonnull i8* @"_ZN4core3ptr8non_null16NonNull$LT$T$GT$13new_unchecked17h084e3c4e09f2f47aE"(i8* %ptr), !dbg !1465
  br label %bb10, !dbg !1465

bb6:                                              ; preds = %bb5
  store i8* %_3.i.i, i8** %end, align 8, !dbg !1455
  br label %bb9, !dbg !1464

bb10:                                             ; preds = %bb9
  %_20 = load i8*, i8** %end, align 8, !dbg !1466
  %8 = bitcast { i8*, i8* }* %2 to i8**, !dbg !1467
  store i8* %_18, i8** %8, align 8, !dbg !1467
  %9 = getelementptr inbounds { i8*, i8* }, { i8*, i8* }* %2, i32 0, i32 1, !dbg !1467
  store i8* %_20, i8** %9, align 8, !dbg !1467
  %10 = getelementptr inbounds { i8*, i8* }, { i8*, i8* }* %2, i32 0, i32 0, !dbg !1468
  %11 = load i8*, i8** %10, align 8, !dbg !1468, !nonnull !4
  %12 = getelementptr inbounds { i8*, i8* }, { i8*, i8* }* %2, i32 0, i32 1, !dbg !1468
  %13 = load i8*, i8** %12, align 8, !dbg !1468
  %14 = insertvalue { i8*, i8* } undef, i8* %11, 0, !dbg !1468
  %15 = insertvalue { i8*, i8* } %14, i8* %13, 1, !dbg !1468
  ret { i8*, i8* } %15, !dbg !1468
}

; core::slice::iter::<impl core::iter::traits::collect::IntoIterator for &mut [T]>::into_iter
; Function Attrs: nounwind
define { i8*, i8* } @"_ZN4core5slice4iter95_$LT$impl$u20$core..iter..traits..collect..IntoIterator$u20$for$u20$$RF$mut$u20$$u5b$T$u5d$$GT$9into_iter17ha4f35ea5c52aa541E"([0 x i8]* nonnull align 1 %self.0, i64 %self.1) unnamed_addr #1 !dbg !1469 {
start:
  %self.dbg.spill = alloca { [0 x i8]*, i64 }, align 8
  %0 = getelementptr inbounds { [0 x i8]*, i64 }, { [0 x i8]*, i64 }* %self.dbg.spill, i32 0, i32 0
  store [0 x i8]* %self.0, [0 x i8]** %0, align 8
  %1 = getelementptr inbounds { [0 x i8]*, i64 }, { [0 x i8]*, i64 }* %self.dbg.spill, i32 0, i32 1
  store i64 %self.1, i64* %1, align 8
  call void @llvm.dbg.declare(metadata { [0 x i8]*, i64 }* %self.dbg.spill, metadata !1472, metadata !DIExpression()), !dbg !1473
; call core::slice::<impl [T]>::iter_mut
  %2 = call { i8*, i8* } @"_ZN4core5slice29_$LT$impl$u20$$u5b$T$u5d$$GT$8iter_mut17hb34eb39318f0adbcE"([0 x i8]* nonnull align 1 %self.0, i64 %self.1), !dbg !1474
  %3 = extractvalue { i8*, i8* } %2, 0, !dbg !1474
  %4 = extractvalue { i8*, i8* } %2, 1, !dbg !1474
  br label %bb1, !dbg !1474

bb1:                                              ; preds = %start
  %5 = insertvalue { i8*, i8* } undef, i8* %3, 0, !dbg !1475
  %6 = insertvalue { i8*, i8* } %5, i8* %4, 1, !dbg !1475
  ret { i8*, i8* } %6, !dbg !1475
}

; core::slice::index::<impl core::ops::index::Index<I> for [T]>::index
; Function Attrs: inlinehint nounwind
define { [0 x i8]*, i64 } @"_ZN4core5slice5index74_$LT$impl$u20$core..ops..index..Index$LT$I$GT$$u20$for$u20$$u5b$T$u5d$$GT$5index17h2b8f101aa5ec8ab2E"([0 x i8]* nonnull align 1 %self.0, i64 %self.1, i64 %index, %"core::panic::Location"* align 8 dereferenceable(24) %0) unnamed_addr #0 !dbg !1476 {
start:
  %index.dbg.spill = alloca i64, align 8
  %self.dbg.spill = alloca { [0 x i8]*, i64 }, align 8
  %1 = getelementptr inbounds { [0 x i8]*, i64 }, { [0 x i8]*, i64 }* %self.dbg.spill, i32 0, i32 0
  store [0 x i8]* %self.0, [0 x i8]** %1, align 8
  %2 = getelementptr inbounds { [0 x i8]*, i64 }, { [0 x i8]*, i64 }* %self.dbg.spill, i32 0, i32 1
  store i64 %self.1, i64* %2, align 8
  call void @llvm.dbg.declare(metadata { [0 x i8]*, i64 }* %self.dbg.spill, metadata !1481, metadata !DIExpression()), !dbg !1485
  store i64 %index, i64* %index.dbg.spill, align 8
  call void @llvm.dbg.declare(metadata i64* %index.dbg.spill, metadata !1482, metadata !DIExpression()), !dbg !1486
; call <core::ops::range::RangeFrom<usize> as core::slice::index::SliceIndex<[T]>>::index
  %3 = call { [0 x i8]*, i64 } @"_ZN110_$LT$core..ops..range..RangeFrom$LT$usize$GT$$u20$as$u20$core..slice..index..SliceIndex$LT$$u5b$T$u5d$$GT$$GT$5index17hb906c940cce45f36E"(i64 %index, [0 x i8]* nonnull align 1 %self.0, i64 %self.1, %"core::panic::Location"* align 8 dereferenceable(24) %0), !dbg !1487
  %4 = extractvalue { [0 x i8]*, i64 } %3, 0, !dbg !1487
  %5 = extractvalue { [0 x i8]*, i64 } %3, 1, !dbg !1487
  br label %bb1, !dbg !1487

bb1:                                              ; preds = %start
  %6 = insertvalue { [0 x i8]*, i64 } undef, [0 x i8]* %4, 0, !dbg !1488
  %7 = insertvalue { [0 x i8]*, i64 } %6, i64 %5, 1, !dbg !1488
  ret { [0 x i8]*, i64 } %7, !dbg !1488
}

; core::slice::index::<impl core::ops::index::IndexMut<I> for [T]>::index_mut
; Function Attrs: inlinehint nounwind
define { [0 x i8]*, i64 } @"_ZN4core5slice5index77_$LT$impl$u20$core..ops..index..IndexMut$LT$I$GT$$u20$for$u20$$u5b$T$u5d$$GT$9index_mut17h4304cb83e8be0419E"([0 x i8]* nonnull align 1 %self.0, i64 %self.1, i64 %index, %"core::panic::Location"* align 8 dereferenceable(24) %0) unnamed_addr #0 !dbg !1489 {
start:
  %index.dbg.spill = alloca i64, align 8
  %self.dbg.spill = alloca { [0 x i8]*, i64 }, align 8
  %1 = getelementptr inbounds { [0 x i8]*, i64 }, { [0 x i8]*, i64 }* %self.dbg.spill, i32 0, i32 0
  store [0 x i8]* %self.0, [0 x i8]** %1, align 8
  %2 = getelementptr inbounds { [0 x i8]*, i64 }, { [0 x i8]*, i64 }* %self.dbg.spill, i32 0, i32 1
  store i64 %self.1, i64* %2, align 8
  call void @llvm.dbg.declare(metadata { [0 x i8]*, i64 }* %self.dbg.spill, metadata !1494, metadata !DIExpression()), !dbg !1496
  store i64 %index, i64* %index.dbg.spill, align 8
  call void @llvm.dbg.declare(metadata i64* %index.dbg.spill, metadata !1495, metadata !DIExpression()), !dbg !1497
; call <core::ops::range::RangeFrom<usize> as core::slice::index::SliceIndex<[T]>>::index_mut
  %3 = call { [0 x i8]*, i64 } @"_ZN110_$LT$core..ops..range..RangeFrom$LT$usize$GT$$u20$as$u20$core..slice..index..SliceIndex$LT$$u5b$T$u5d$$GT$$GT$9index_mut17h759d3e7f3c413785E"(i64 %index, [0 x i8]* nonnull align 1 %self.0, i64 %self.1, %"core::panic::Location"* align 8 dereferenceable(24) %0), !dbg !1498
  %_4.0 = extractvalue { [0 x i8]*, i64 } %3, 0, !dbg !1498
  %_4.1 = extractvalue { [0 x i8]*, i64 } %3, 1, !dbg !1498
  br label %bb1, !dbg !1498

bb1:                                              ; preds = %start
  %4 = insertvalue { [0 x i8]*, i64 } undef, [0 x i8]* %_4.0, 0, !dbg !1499
  %5 = insertvalue { [0 x i8]*, i64 } %4, i64 %_4.1, 1, !dbg !1499
  ret { [0 x i8]*, i64 } %5, !dbg !1499
}

; core::slice::index::<impl core::ops::index::IndexMut<I> for [T]>::index_mut
; Function Attrs: inlinehint nounwind
define { [0 x i8]*, i64 } @"_ZN4core5slice5index77_$LT$impl$u20$core..ops..index..IndexMut$LT$I$GT$$u20$for$u20$$u5b$T$u5d$$GT$9index_mut17h5961d36aa196934cE"([0 x i8]* nonnull align 1 %self.0, i64 %self.1, i64 %index.0, i64 %index.1, %"core::panic::Location"* align 8 dereferenceable(24) %0) unnamed_addr #0 !dbg !1500 {
start:
  %index.dbg.spill = alloca { i64, i64 }, align 8
  %self.dbg.spill = alloca { [0 x i8]*, i64 }, align 8
  %1 = getelementptr inbounds { [0 x i8]*, i64 }, { [0 x i8]*, i64 }* %self.dbg.spill, i32 0, i32 0
  store [0 x i8]* %self.0, [0 x i8]** %1, align 8
  %2 = getelementptr inbounds { [0 x i8]*, i64 }, { [0 x i8]*, i64 }* %self.dbg.spill, i32 0, i32 1
  store i64 %self.1, i64* %2, align 8
  call void @llvm.dbg.declare(metadata { [0 x i8]*, i64 }* %self.dbg.spill, metadata !1504, metadata !DIExpression()), !dbg !1508
  %3 = getelementptr inbounds { i64, i64 }, { i64, i64 }* %index.dbg.spill, i32 0, i32 0
  store i64 %index.0, i64* %3, align 8
  %4 = getelementptr inbounds { i64, i64 }, { i64, i64 }* %index.dbg.spill, i32 0, i32 1
  store i64 %index.1, i64* %4, align 8
  call void @llvm.dbg.declare(metadata { i64, i64 }* %index.dbg.spill, metadata !1505, metadata !DIExpression()), !dbg !1509
; call <core::ops::range::Range<usize> as core::slice::index::SliceIndex<[T]>>::index_mut
  %5 = call { [0 x i8]*, i64 } @"_ZN106_$LT$core..ops..range..Range$LT$usize$GT$$u20$as$u20$core..slice..index..SliceIndex$LT$$u5b$T$u5d$$GT$$GT$9index_mut17h822a641f20454c12E"(i64 %index.0, i64 %index.1, [0 x i8]* nonnull align 1 %self.0, i64 %self.1, %"core::panic::Location"* align 8 dereferenceable(24) %0), !dbg !1510
  %_4.0 = extractvalue { [0 x i8]*, i64 } %5, 0, !dbg !1510
  %_4.1 = extractvalue { [0 x i8]*, i64 } %5, 1, !dbg !1510
  br label %bb1, !dbg !1510

bb1:                                              ; preds = %start
  %6 = insertvalue { [0 x i8]*, i64 } undef, [0 x i8]* %_4.0, 0, !dbg !1511
  %7 = insertvalue { [0 x i8]*, i64 } %6, i64 %_4.1, 1, !dbg !1511
  ret { [0 x i8]*, i64 } %7, !dbg !1511
}

; core::slice::index::<impl core::ops::index::IndexMut<I> for [T]>::index_mut
; Function Attrs: inlinehint nounwind
define { [0 x i8]*, i64 } @"_ZN4core5slice5index77_$LT$impl$u20$core..ops..index..IndexMut$LT$I$GT$$u20$for$u20$$u5b$T$u5d$$GT$9index_mut17ha88eac6bdddcd5f9E"([0 x i8]* nonnull align 1 %self.0, i64 %self.1, i64 %index, %"core::panic::Location"* align 8 dereferenceable(24) %0) unnamed_addr #0 !dbg !1512 {
start:
  %index.dbg.spill = alloca i64, align 8
  %self.dbg.spill = alloca { [0 x i8]*, i64 }, align 8
  %1 = getelementptr inbounds { [0 x i8]*, i64 }, { [0 x i8]*, i64 }* %self.dbg.spill, i32 0, i32 0
  store [0 x i8]* %self.0, [0 x i8]** %1, align 8
  %2 = getelementptr inbounds { [0 x i8]*, i64 }, { [0 x i8]*, i64 }* %self.dbg.spill, i32 0, i32 1
  store i64 %self.1, i64* %2, align 8
  call void @llvm.dbg.declare(metadata { [0 x i8]*, i64 }* %self.dbg.spill, metadata !1516, metadata !DIExpression()), !dbg !1520
  store i64 %index, i64* %index.dbg.spill, align 8
  call void @llvm.dbg.declare(metadata i64* %index.dbg.spill, metadata !1517, metadata !DIExpression()), !dbg !1521
; call <core::ops::range::RangeTo<usize> as core::slice::index::SliceIndex<[T]>>::index_mut
  %3 = call { [0 x i8]*, i64 } @"_ZN108_$LT$core..ops..range..RangeTo$LT$usize$GT$$u20$as$u20$core..slice..index..SliceIndex$LT$$u5b$T$u5d$$GT$$GT$9index_mut17h1a70e7bba0cb26e0E"(i64 %index, [0 x i8]* nonnull align 1 %self.0, i64 %self.1, %"core::panic::Location"* align 8 dereferenceable(24) %0), !dbg !1522
  %_4.0 = extractvalue { [0 x i8]*, i64 } %3, 0, !dbg !1522
  %_4.1 = extractvalue { [0 x i8]*, i64 } %3, 1, !dbg !1522
  br label %bb1, !dbg !1522

bb1:                                              ; preds = %start
  %4 = insertvalue { [0 x i8]*, i64 } undef, [0 x i8]* %_4.0, 0, !dbg !1523
  %5 = insertvalue { [0 x i8]*, i64 } %4, i64 %_4.1, 1, !dbg !1523
  ret { [0 x i8]*, i64 } %5, !dbg !1523
}

; core::option::Option<T>::map
; Function Attrs: inlinehint nounwind
define { i64, i64 } @"_ZN4core6option15Option$LT$T$GT$3map17h97d31fb255648ef7E"(i1 zeroext %0, i8 %1) unnamed_addr #0 !dbg !1524 {
start:
  %x.dbg.spill = alloca i8, align 1
  %f.dbg.spill = alloca %"[closure@core::str::Utf8Error::error_len::{closure#0}]", align 1
  %_9 = alloca i8, align 1
  %_7 = alloca i8, align 1
  %2 = alloca { i64, i64 }, align 8
  %self = alloca { i8, i8 }, align 1
  %3 = getelementptr inbounds { i8, i8 }, { i8, i8 }* %self, i32 0, i32 0
  %4 = zext i1 %0 to i8
  store i8 %4, i8* %3, align 1
  %5 = getelementptr inbounds { i8, i8 }, { i8, i8 }* %self, i32 0, i32 1
  store i8 %1, i8* %5, align 1
  call void @llvm.dbg.declare(metadata { i8, i8 }* %self, metadata !1529, metadata !DIExpression()), !dbg !1536
  call void @llvm.dbg.declare(metadata %"[closure@core::str::Utf8Error::error_len::{closure#0}]"* %f.dbg.spill, metadata !1530, metadata !DIExpression()), !dbg !1537
  store i8 0, i8* %_9, align 1, !dbg !1538
  store i8 1, i8* %_9, align 1, !dbg !1538
  %6 = bitcast { i8, i8 }* %self to i8*, !dbg !1538
  %7 = load i8, i8* %6, align 1, !dbg !1538, !range !374
  %8 = trunc i8 %7 to i1, !dbg !1538
  %_3 = zext i1 %8 to i64, !dbg !1538
  switch i64 %_3, label %bb2 [
    i64 0, label %bb1
    i64 1, label %bb3
  ], !dbg !1539

bb2:                                              ; preds = %start
  unreachable, !dbg !1538

bb1:                                              ; preds = %start
  %9 = bitcast { i64, i64 }* %2 to i64*, !dbg !1540
  store i64 0, i64* %9, align 8, !dbg !1540
  br label %bb7, !dbg !1540

bb3:                                              ; preds = %start
  %10 = bitcast { i8, i8 }* %self to %"core::option::Option<u8>::Some"*, !dbg !1541
  %11 = getelementptr inbounds %"core::option::Option<u8>::Some", %"core::option::Option<u8>::Some"* %10, i32 0, i32 1, !dbg !1541
  %x = load i8, i8* %11, align 1, !dbg !1541
  store i8 %x, i8* %x.dbg.spill, align 1, !dbg !1541
  call void @llvm.dbg.declare(metadata i8* %x.dbg.spill, metadata !1531, metadata !DIExpression()), !dbg !1542
  store i8 0, i8* %_9, align 1, !dbg !1543
  store i8 %x, i8* %_7, align 1, !dbg !1543
  %12 = load i8, i8* %_7, align 1, !dbg !1543
; call core::str::error::Utf8Error::error_len::{{closure}}
  %_5 = call i64 @"_ZN4core3str5error9Utf8Error9error_len28_$u7b$$u7b$closure$u7d$$u7d$17h13bc61b4db1cdbcbE"(i8 %12), !dbg !1543
  br label %bb4, !dbg !1543

bb4:                                              ; preds = %bb3
  %13 = bitcast { i64, i64 }* %2 to %"core::option::Option<usize>::Some"*, !dbg !1544
  %14 = getelementptr inbounds %"core::option::Option<usize>::Some", %"core::option::Option<usize>::Some"* %13, i32 0, i32 1, !dbg !1544
  store i64 %_5, i64* %14, align 8, !dbg !1544
  %15 = bitcast { i64, i64 }* %2 to i64*, !dbg !1544
  store i64 1, i64* %15, align 8, !dbg !1544
  br label %bb7, !dbg !1545

bb7:                                              ; preds = %bb1, %bb4
  %16 = load i8, i8* %_9, align 1, !dbg !1545, !range !374
  %17 = trunc i8 %16 to i1, !dbg !1545
  br i1 %17, label %bb6, label %bb5, !dbg !1545

bb5:                                              ; preds = %bb6, %bb7
  %18 = getelementptr inbounds { i64, i64 }, { i64, i64 }* %2, i32 0, i32 0, !dbg !1546
  %19 = load i64, i64* %18, align 8, !dbg !1546, !range !1547
  %20 = getelementptr inbounds { i64, i64 }, { i64, i64 }* %2, i32 0, i32 1, !dbg !1546
  %21 = load i64, i64* %20, align 8, !dbg !1546
  %22 = insertvalue { i64, i64 } undef, i64 %19, 0, !dbg !1546
  %23 = insertvalue { i64, i64 } %22, i64 %21, 1, !dbg !1546
  ret { i64, i64 } %23, !dbg !1546

bb6:                                              ; preds = %bb7
  br label %bb5, !dbg !1545
}

; core::option::Option<T>::ok_or
; Function Attrs: inlinehint nounwind
define void @"_ZN4core6option15Option$LT$T$GT$5ok_or17he645d649ceafd87cE"(%"core::result::Result<&mut u8, decode::Error>"* noalias nocapture sret(%"core::result::Result<&mut u8, decode::Error>") dereferenceable(24) %0, i8* align 1 dereferenceable_or_null(1) %1, i128 %2) unnamed_addr #0 !dbg !1548 {
start:
  %v.dbg.spill = alloca i8*, align 8
  %_7 = alloca i8, align 1
  %_6 = alloca %"decode::Error", align 8
  %3 = alloca i128, align 8
  %err = alloca %"decode::Error", align 8
  %self = alloca i8*, align 8
  store i8* %1, i8** %self, align 8
  store i128 %2, i128* %3, align 8
  %4 = bitcast %"decode::Error"* %err to i8*
  %5 = bitcast i128* %3 to i8*
  call void @llvm.memcpy.p0i8.p0i8.i64(i8* align 8 %4, i8* align 8 %5, i64 16, i1 false)
  call void @llvm.dbg.declare(metadata i8** %self, metadata !1565, metadata !DIExpression()), !dbg !1569
  call void @llvm.dbg.declare(metadata %"decode::Error"* %err, metadata !1566, metadata !DIExpression()), !dbg !1570
  store i8 0, i8* %_7, align 1, !dbg !1571
  store i8 1, i8* %_7, align 1, !dbg !1571
  %6 = bitcast i8** %self to {}**, !dbg !1571
  %7 = load {}*, {}** %6, align 8, !dbg !1571
  %8 = icmp eq {}* %7, null, !dbg !1571
  %_3 = select i1 %8, i64 0, i64 1, !dbg !1571
  switch i64 %_3, label %bb2 [
    i64 0, label %bb1
    i64 1, label %bb3
  ], !dbg !1572

bb2:                                              ; preds = %start
  unreachable, !dbg !1571

bb1:                                              ; preds = %start
  store i8 0, i8* %_7, align 1, !dbg !1573
  %9 = bitcast %"decode::Error"* %_6 to i8*, !dbg !1573
  %10 = bitcast %"decode::Error"* %err to i8*, !dbg !1573
  call void @llvm.memcpy.p0i8.p0i8.i64(i8* align 8 %9, i8* align 8 %10, i64 16, i1 false), !dbg !1573
  %11 = bitcast %"core::result::Result<&mut u8, decode::Error>"* %0 to %"core::result::Result<&mut u8, decode::Error>::Err"*, !dbg !1574
  %12 = getelementptr inbounds %"core::result::Result<&mut u8, decode::Error>::Err", %"core::result::Result<&mut u8, decode::Error>::Err"* %11, i32 0, i32 1, !dbg !1574
  %13 = bitcast %"decode::Error"* %12 to i8*, !dbg !1574
  %14 = bitcast %"decode::Error"* %_6 to i8*, !dbg !1574
  call void @llvm.memcpy.p0i8.p0i8.i64(i8* align 8 %13, i8* align 8 %14, i64 16, i1 false), !dbg !1574
  %15 = bitcast %"core::result::Result<&mut u8, decode::Error>"* %0 to i64*, !dbg !1574
  store i64 1, i64* %15, align 8, !dbg !1574
  br label %bb4, !dbg !1575

bb3:                                              ; preds = %start
  %v = load i8*, i8** %self, align 8, !dbg !1576, !nonnull !4
  store i8* %v, i8** %v.dbg.spill, align 8, !dbg !1576
  call void @llvm.dbg.declare(metadata i8** %v.dbg.spill, metadata !1567, metadata !DIExpression()), !dbg !1577
  %16 = bitcast %"core::result::Result<&mut u8, decode::Error>"* %0 to %"core::result::Result<&mut u8, decode::Error>::Ok"*, !dbg !1578
  %17 = getelementptr inbounds %"core::result::Result<&mut u8, decode::Error>::Ok", %"core::result::Result<&mut u8, decode::Error>::Ok"* %16, i32 0, i32 1, !dbg !1578
  store i8* %v, i8** %17, align 8, !dbg !1578
  %18 = bitcast %"core::result::Result<&mut u8, decode::Error>"* %0 to i64*, !dbg !1578
  store i64 0, i64* %18, align 8, !dbg !1578
  br label %bb4, !dbg !1579

bb4:                                              ; preds = %bb1, %bb3
  %19 = load i8, i8* %_7, align 1, !dbg !1580, !range !374
  %20 = trunc i8 %19 to i1, !dbg !1580
  br i1 %20, label %bb6, label %bb5, !dbg !1580

bb5:                                              ; preds = %bb6, %bb4
  ret void, !dbg !1581

bb6:                                              ; preds = %bb4
  br label %bb5, !dbg !1580
}

; <T as core::convert::From<T>>::from
; Function Attrs: nounwind
define i128 @"_ZN50_$LT$T$u20$as$u20$core..convert..From$LT$T$GT$$GT$4from17h9656035c99efe856E"(i128 %0) unnamed_addr #1 !dbg !1582 {
start:
  %1 = alloca %"decode::Error", align 8
  %2 = alloca i128, align 8
  %t = alloca %"decode::Error", align 8
  store i128 %0, i128* %2, align 8
  %3 = bitcast %"decode::Error"* %t to i8*
  %4 = bitcast i128* %2 to i8*
  call void @llvm.memcpy.p0i8.p0i8.i64(i8* align 8 %3, i8* align 8 %4, i64 16, i1 false)
  call void @llvm.dbg.declare(metadata %"decode::Error"* %t, metadata !1588, metadata !DIExpression()), !dbg !1591
  %5 = bitcast %"decode::Error"* %1 to i8*, !dbg !1592
  %6 = bitcast %"decode::Error"* %t to i8*, !dbg !1592
  call void @llvm.memcpy.p0i8.p0i8.i64(i8* align 8 %5, i8* align 8 %6, i64 16, i1 false), !dbg !1592
  %7 = bitcast %"decode::Error"* %1 to i128*, !dbg !1593
  %8 = load i128, i128* %7, align 8, !dbg !1593
  ret i128 %8, !dbg !1593
}

; <I as core::iter::traits::collect::IntoIterator>::into_iter
; Function Attrs: inlinehint nounwind
define void @"_ZN63_$LT$I$u20$as$u20$core..iter..traits..collect..IntoIterator$GT$9into_iter17h9bff92152ab12c3cE"(%"core::iter::TakeWhile<core::slice::Iter<u8>, [closure@/home/seaceved/.cargo/registry/src/github.com-1ecc6299db9ec823/bs58-0.4.0/src/decode.rs:226:38: 226:53]>"* noalias nocapture sret(%"core::iter::TakeWhile<core::slice::Iter<u8>, [closure@/home/seaceved/.cargo/registry/src/github.com-1ecc6299db9ec823/bs58-0.4.0/src/decode.rs:226:38: 226:53]>") dereferenceable(32) %0, %"core::iter::TakeWhile<core::slice::Iter<u8>, [closure@/home/seaceved/.cargo/registry/src/github.com-1ecc6299db9ec823/bs58-0.4.0/src/decode.rs:226:38: 226:53]>"* noalias nocapture dereferenceable(32) %self) unnamed_addr #0 !dbg !1594 {
start:
  call void @llvm.dbg.declare(metadata %"core::iter::TakeWhile<core::slice::Iter<u8>, [closure@/home/seaceved/.cargo/registry/src/github.com-1ecc6299db9ec823/bs58-0.4.0/src/decode.rs:226:38: 226:53]>"* %self, metadata !1601, metadata !DIExpression()), !dbg !1604
  %1 = bitcast %"core::iter::TakeWhile<core::slice::Iter<u8>, [closure@/home/seaceved/.cargo/registry/src/github.com-1ecc6299db9ec823/bs58-0.4.0/src/decode.rs:226:38: 226:53]>"* %0 to i8*, !dbg !1605
  %2 = bitcast %"core::iter::TakeWhile<core::slice::Iter<u8>, [closure@/home/seaceved/.cargo/registry/src/github.com-1ecc6299db9ec823/bs58-0.4.0/src/decode.rs:226:38: 226:53]>"* %self to i8*, !dbg !1605
  call void @llvm.memcpy.p0i8.p0i8.i64(i8* align 8 %1, i8* align 8 %2, i64 32, i1 false), !dbg !1605
  ret void, !dbg !1606
}

; <I as core::iter::traits::collect::IntoIterator>::into_iter
; Function Attrs: inlinehint nounwind
define void @"_ZN63_$LT$I$u20$as$u20$core..iter..traits..collect..IntoIterator$GT$9into_iter17hfea5a458a007c524E"(%"core::iter::Enumerate<core::slice::Iter<u8>>"* noalias nocapture sret(%"core::iter::Enumerate<core::slice::Iter<u8>>") dereferenceable(24) %0, %"core::iter::Enumerate<core::slice::Iter<u8>>"* noalias nocapture dereferenceable(24) %self) unnamed_addr #0 !dbg !1607 {
start:
  call void @llvm.dbg.declare(metadata %"core::iter::Enumerate<core::slice::Iter<u8>>"* %self, metadata !1611, metadata !DIExpression()), !dbg !1614
  %1 = bitcast %"core::iter::Enumerate<core::slice::Iter<u8>>"* %0 to i8*, !dbg !1615
  %2 = bitcast %"core::iter::Enumerate<core::slice::Iter<u8>>"* %self to i8*, !dbg !1615
  call void @llvm.memcpy.p0i8.p0i8.i64(i8* align 8 %1, i8* align 8 %2, i64 24, i1 false), !dbg !1615
  ret void, !dbg !1616
}

; <core::option::Option<T> as core::ops::try_trait::Try>::branch
; Function Attrs: inlinehint nounwind
define align 1 dereferenceable_or_null(1) i8* @"_ZN75_$LT$core..option..Option$LT$T$GT$$u20$as$u20$core..ops..try_trait..Try$GT$6branch17hdebb28c4145155a6E"(i8* align 1 dereferenceable_or_null(1) %0) unnamed_addr #0 !dbg !1617 {
start:
  %v.dbg.spill = alloca i8*, align 8
  %1 = alloca i8*, align 8
  %self = alloca i8*, align 8
  store i8* %0, i8** %self, align 8
  call void @llvm.dbg.declare(metadata i8** %self, metadata !1639, metadata !DIExpression()), !dbg !1642
  %2 = bitcast i8** %self to {}**, !dbg !1643
  %3 = load {}*, {}** %2, align 8, !dbg !1643
  %4 = icmp eq {}* %3, null, !dbg !1643
  %_2 = select i1 %4, i64 0, i64 1, !dbg !1643
  switch i64 %_2, label %bb2 [
    i64 0, label %bb1
    i64 1, label %bb3
  ], !dbg !1644

bb2:                                              ; preds = %start
  unreachable, !dbg !1643

bb1:                                              ; preds = %start
  %5 = bitcast i8** %1 to {}**, !dbg !1645
  store {}* null, {}** %5, align 8, !dbg !1645
  br label %bb4, !dbg !1646

bb3:                                              ; preds = %start
  %v = load i8*, i8** %self, align 8, !dbg !1647, !nonnull !4
  store i8* %v, i8** %v.dbg.spill, align 8, !dbg !1647
  call void @llvm.dbg.declare(metadata i8** %v.dbg.spill, metadata !1640, metadata !DIExpression()), !dbg !1648
  store i8* %v, i8** %1, align 8, !dbg !1649
  br label %bb4, !dbg !1650

bb4:                                              ; preds = %bb1, %bb3
  %6 = load i8*, i8** %1, align 8, !dbg !1651
  ret i8* %6, !dbg !1651
}

; <usize as core::slice::index::SliceIndex<[T]>>::get_unchecked_mut
; Function Attrs: inlinehint nounwind
define i8* @"_ZN75_$LT$usize$u20$as$u20$core..slice..index..SliceIndex$LT$$u5b$T$u5d$$GT$$GT$17get_unchecked_mut17h677d5bb5172e5fa2E"(i64 %self, [0 x i8]* %slice.0, i64 %slice.1) unnamed_addr #0 !dbg !1652 {
start:
  %0 = alloca i8*, align 8
  %count.dbg.spill.i.i = alloca i64, align 8
  %self.dbg.spill.i.i = alloca i8*, align 8
  %count.dbg.spill.i = alloca i64, align 8
  %self.dbg.spill.i1 = alloca i8*, align 8
  %self.dbg.spill.i = alloca { [0 x i8]*, i64 }, align 8
  %slice.dbg.spill = alloca { [0 x i8]*, i64 }, align 8
  %self.dbg.spill = alloca i64, align 8
  store i64 %self, i64* %self.dbg.spill, align 8
  call void @llvm.dbg.declare(metadata i64* %self.dbg.spill, metadata !1657, metadata !DIExpression()), !dbg !1659
  %1 = getelementptr inbounds { [0 x i8]*, i64 }, { [0 x i8]*, i64 }* %slice.dbg.spill, i32 0, i32 0
  store [0 x i8]* %slice.0, [0 x i8]** %1, align 8
  %2 = getelementptr inbounds { [0 x i8]*, i64 }, { [0 x i8]*, i64 }* %slice.dbg.spill, i32 0, i32 1
  store i64 %slice.1, i64* %2, align 8
  call void @llvm.dbg.declare(metadata { [0 x i8]*, i64 }* %slice.dbg.spill, metadata !1658, metadata !DIExpression()), !dbg !1660
  %3 = getelementptr inbounds { [0 x i8]*, i64 }, { [0 x i8]*, i64 }* %self.dbg.spill.i, i32 0, i32 0
  store [0 x i8]* %slice.0, [0 x i8]** %3, align 8
  %4 = getelementptr inbounds { [0 x i8]*, i64 }, { [0 x i8]*, i64 }* %self.dbg.spill.i, i32 0, i32 1
  store i64 %slice.1, i64* %4, align 8
  call void @llvm.dbg.declare(metadata { [0 x i8]*, i64 }* %self.dbg.spill.i, metadata !108, metadata !DIExpression()), !dbg !1661
  %5 = bitcast [0 x i8]* %slice.0 to i8*, !dbg !1663
  br label %bb1, !dbg !1664

bb1:                                              ; preds = %start
  store i8* %5, i8** %self.dbg.spill.i1, align 8
  call void @llvm.dbg.declare(metadata i8** %self.dbg.spill.i1, metadata !121, metadata !DIExpression()), !dbg !1665
  store i64 %self, i64* %count.dbg.spill.i, align 8
  call void @llvm.dbg.declare(metadata i64* %count.dbg.spill.i, metadata !127, metadata !DIExpression()), !dbg !1667
  store i8* %5, i8** %self.dbg.spill.i.i, align 8
  call void @llvm.dbg.declare(metadata i8** %self.dbg.spill.i.i, metadata !131, metadata !DIExpression()), !dbg !1668
  store i64 %self, i64* %count.dbg.spill.i.i, align 8
  call void @llvm.dbg.declare(metadata i64* %count.dbg.spill.i.i, metadata !136, metadata !DIExpression()), !dbg !1670
  %6 = getelementptr inbounds i8, i8* %5, i64 %self, !dbg !1671
  store i8* %6, i8** %0, align 8, !dbg !1671
  %_3.i.i = load i8*, i8** %0, align 8, !dbg !1671
  br label %bb2, !dbg !1664

bb2:                                              ; preds = %bb1
  ret i8* %_3.i.i, !dbg !1672
}

; <usize as core::slice::index::SliceIndex<[T]>>::get_mut
; Function Attrs: inlinehint nounwind
define align 1 dereferenceable_or_null(1) i8* @"_ZN75_$LT$usize$u20$as$u20$core..slice..index..SliceIndex$LT$$u5b$T$u5d$$GT$$GT$7get_mut17h1ba3f965aaf56d14E"(i64 %self, [0 x i8]* nonnull align 1 %slice.0, i64 %slice.1) unnamed_addr #0 !dbg !1673 {
start:
  %slice.dbg.spill = alloca { [0 x i8]*, i64 }, align 8
  %self.dbg.spill = alloca i64, align 8
  %0 = alloca i8*, align 8
  store i64 %self, i64* %self.dbg.spill, align 8
  call void @llvm.dbg.declare(metadata i64* %self.dbg.spill, metadata !1677, metadata !DIExpression()), !dbg !1679
  %1 = getelementptr inbounds { [0 x i8]*, i64 }, { [0 x i8]*, i64 }* %slice.dbg.spill, i32 0, i32 0
  store [0 x i8]* %slice.0, [0 x i8]** %1, align 8
  %2 = getelementptr inbounds { [0 x i8]*, i64 }, { [0 x i8]*, i64 }* %slice.dbg.spill, i32 0, i32 1
  store i64 %slice.1, i64* %2, align 8
  call void @llvm.dbg.declare(metadata { [0 x i8]*, i64 }* %slice.dbg.spill, metadata !1678, metadata !DIExpression()), !dbg !1680
  %_3 = icmp ult i64 %self, %slice.1, !dbg !1681
  br i1 %_3, label %bb1, label %bb3, !dbg !1681

bb3:                                              ; preds = %start
  %3 = bitcast i8** %0 to {}**, !dbg !1682
  store {}* null, {}** %3, align 8, !dbg !1682
  br label %bb4, !dbg !1683

bb1:                                              ; preds = %start
; call <usize as core::slice::index::SliceIndex<[T]>>::get_unchecked_mut
  %_9 = call i8* @"_ZN75_$LT$usize$u20$as$u20$core..slice..index..SliceIndex$LT$$u5b$T$u5d$$GT$$GT$17get_unchecked_mut17h677d5bb5172e5fa2E"(i64 %self, [0 x i8]* %slice.0, i64 %slice.1), !dbg !1684
  br label %bb2, !dbg !1684

bb2:                                              ; preds = %bb1
  store i8* %_9, i8** %0, align 8, !dbg !1685
  br label %bb4, !dbg !1683

bb4:                                              ; preds = %bb3, %bb2
  %4 = load i8*, i8** %0, align 8, !dbg !1686
  ret i8* %4, !dbg !1686
}

; <core::result::Result<T,E> as core::ops::try_trait::Try>::branch
; Function Attrs: inlinehint nounwind
define void @"_ZN79_$LT$core..result..Result$LT$T$C$E$GT$$u20$as$u20$core..ops..try_trait..Try$GT$6branch17he0e7c3e405fb146cE"(%"core::ops::ControlFlow<core::result::Result<core::convert::Infallible, decode::Error>, &mut u8>"* noalias nocapture sret(%"core::ops::ControlFlow<core::result::Result<core::convert::Infallible, decode::Error>, &mut u8>") dereferenceable(24) %0, %"core::result::Result<&mut u8, decode::Error>"* noalias nocapture dereferenceable(24) %self) unnamed_addr #0 !dbg !1687 {
start:
  %v.dbg.spill = alloca i8*, align 8
  %_7 = alloca %"decode::Error", align 8
  %_6 = alloca %"core::result::Result<core::convert::Infallible, decode::Error>::Err", align 8
  %e = alloca %"decode::Error", align 8
  call void @llvm.dbg.declare(metadata %"core::result::Result<&mut u8, decode::Error>"* %self, metadata !1707, metadata !DIExpression()), !dbg !1712
  call void @llvm.dbg.declare(metadata %"decode::Error"* %e, metadata !1710, metadata !DIExpression()), !dbg !1713
  %1 = bitcast %"core::result::Result<&mut u8, decode::Error>"* %self to i64*, !dbg !1714
  %_2 = load i64, i64* %1, align 8, !dbg !1714, !range !1547
  switch i64 %_2, label %bb2 [
    i64 0, label %bb3
    i64 1, label %bb1
  ], !dbg !1715

bb2:                                              ; preds = %start
  unreachable, !dbg !1714

bb3:                                              ; preds = %start
  %2 = bitcast %"core::result::Result<&mut u8, decode::Error>"* %self to %"core::result::Result<&mut u8, decode::Error>::Ok"*, !dbg !1716
  %3 = getelementptr inbounds %"core::result::Result<&mut u8, decode::Error>::Ok", %"core::result::Result<&mut u8, decode::Error>::Ok"* %2, i32 0, i32 1, !dbg !1716
  %v = load i8*, i8** %3, align 8, !dbg !1716, !nonnull !4
  store i8* %v, i8** %v.dbg.spill, align 8, !dbg !1716
  call void @llvm.dbg.declare(metadata i8** %v.dbg.spill, metadata !1708, metadata !DIExpression()), !dbg !1717
  %4 = bitcast %"core::ops::ControlFlow<core::result::Result<core::convert::Infallible, decode::Error>, &mut u8>"* %0 to %"core::ops::ControlFlow<core::result::Result<core::convert::Infallible, decode::Error>, &mut u8>::Continue"*, !dbg !1718
  %5 = getelementptr inbounds %"core::ops::ControlFlow<core::result::Result<core::convert::Infallible, decode::Error>, &mut u8>::Continue", %"core::ops::ControlFlow<core::result::Result<core::convert::Infallible, decode::Error>, &mut u8>::Continue"* %4, i32 0, i32 1, !dbg !1718
  store i8* %v, i8** %5, align 8, !dbg !1718
  %6 = bitcast %"core::ops::ControlFlow<core::result::Result<core::convert::Infallible, decode::Error>, &mut u8>"* %0 to i64*, !dbg !1718
  store i64 0, i64* %6, align 8, !dbg !1718
  br label %bb4, !dbg !1719

bb1:                                              ; preds = %start
  %7 = bitcast %"core::result::Result<&mut u8, decode::Error>"* %self to %"core::result::Result<&mut u8, decode::Error>::Err"*, !dbg !1720
  %8 = getelementptr inbounds %"core::result::Result<&mut u8, decode::Error>::Err", %"core::result::Result<&mut u8, decode::Error>::Err"* %7, i32 0, i32 1, !dbg !1720
  %9 = bitcast %"decode::Error"* %e to i8*, !dbg !1720
  %10 = bitcast %"decode::Error"* %8 to i8*, !dbg !1720
  call void @llvm.memcpy.p0i8.p0i8.i64(i8* align 8 %9, i8* align 8 %10, i64 16, i1 false), !dbg !1720
  %11 = bitcast %"decode::Error"* %_7 to i8*, !dbg !1721
  %12 = bitcast %"decode::Error"* %e to i8*, !dbg !1721
  call void @llvm.memcpy.p0i8.p0i8.i64(i8* align 8 %11, i8* align 8 %12, i64 16, i1 false), !dbg !1721
  %13 = bitcast %"core::result::Result<core::convert::Infallible, decode::Error>::Err"* %_6 to %"decode::Error"*, !dbg !1722
  %14 = bitcast %"decode::Error"* %13 to i8*, !dbg !1722
  %15 = bitcast %"decode::Error"* %_7 to i8*, !dbg !1722
  call void @llvm.memcpy.p0i8.p0i8.i64(i8* align 8 %14, i8* align 8 %15, i64 16, i1 false), !dbg !1722
  %16 = bitcast %"core::ops::ControlFlow<core::result::Result<core::convert::Infallible, decode::Error>, &mut u8>"* %0 to %"core::ops::ControlFlow<core::result::Result<core::convert::Infallible, decode::Error>, &mut u8>::Break"*, !dbg !1723
  %17 = getelementptr inbounds %"core::ops::ControlFlow<core::result::Result<core::convert::Infallible, decode::Error>, &mut u8>::Break", %"core::ops::ControlFlow<core::result::Result<core::convert::Infallible, decode::Error>, &mut u8>::Break"* %16, i32 0, i32 1, !dbg !1723
  %18 = bitcast %"core::result::Result<core::convert::Infallible, decode::Error>::Err"* %17 to i8*, !dbg !1723
  %19 = bitcast %"core::result::Result<core::convert::Infallible, decode::Error>::Err"* %_6 to i8*, !dbg !1723
  call void @llvm.memcpy.p0i8.p0i8.i64(i8* align 8 %18, i8* align 8 %19, i64 16, i1 false), !dbg !1723
  %20 = bitcast %"core::ops::ControlFlow<core::result::Result<core::convert::Infallible, decode::Error>, &mut u8>"* %0 to i64*, !dbg !1723
  store i64 1, i64* %20, align 8, !dbg !1723
  br label %bb4, !dbg !1724

bb4:                                              ; preds = %bb3, %bb1
  ret void, !dbg !1725
}

; <core::option::Option<T> as core::ops::try_trait::FromResidual>::from_residual
; Function Attrs: inlinehint nounwind
define align 1 dereferenceable_or_null(1) i8* @"_ZN84_$LT$core..option..Option$LT$T$GT$$u20$as$u20$core..ops..try_trait..FromResidual$GT$13from_residual17h1c988e6f638a3d96E"() unnamed_addr #0 !dbg !1726 {
start:
  %residual.dbg.spill = alloca %"core::option::Option<core::convert::Infallible>::None", align 1
  %0 = alloca i8*, align 8
  call void @llvm.dbg.declare(metadata %"core::option::Option<core::convert::Infallible>::None"* %residual.dbg.spill, metadata !1731, metadata !DIExpression()), !dbg !1732
  %1 = bitcast i8** %0 to {}**, !dbg !1733
  store {}* null, {}** %1, align 8, !dbg !1733
  %2 = load i8*, i8** %0, align 8, !dbg !1734
  ret i8* %2, !dbg !1734
}

; <core::option::Option<T> as core::ops::try_trait::FromResidual>::from_residual
; Function Attrs: inlinehint nounwind
define { i64, i8* } @"_ZN84_$LT$core..option..Option$LT$T$GT$$u20$as$u20$core..ops..try_trait..FromResidual$GT$13from_residual17ha7355996df788fd9E"() unnamed_addr #0 !dbg !1735 {
start:
  %residual.dbg.spill = alloca %"core::option::Option<core::convert::Infallible>::None", align 1
  %0 = alloca { i64, i8* }, align 8
  call void @llvm.dbg.declare(metadata %"core::option::Option<core::convert::Infallible>::None"* %residual.dbg.spill, metadata !1739, metadata !DIExpression()), !dbg !1740
  %1 = getelementptr inbounds { i64, i8* }, { i64, i8* }* %0, i32 0, i32 1, !dbg !1741
  %2 = bitcast i8** %1 to {}**, !dbg !1741
  store {}* null, {}** %2, align 8, !dbg !1741
  %3 = getelementptr inbounds { i64, i8* }, { i64, i8* }* %0, i32 0, i32 0, !dbg !1742
  %4 = load i64, i64* %3, align 8, !dbg !1742
  %5 = getelementptr inbounds { i64, i8* }, { i64, i8* }* %0, i32 0, i32 1, !dbg !1742
  %6 = load i8*, i8** %5, align 8, !dbg !1742
  %7 = insertvalue { i64, i8* } undef, i64 %4, 0, !dbg !1742
  %8 = insertvalue { i64, i8* } %7, i8* %6, 1, !dbg !1742
  ret { i64, i8* } %8, !dbg !1742
}

; <core::slice::iter::Iter<T> as core::iter::traits::iterator::Iterator>::next
; Function Attrs: inlinehint nounwind
define align 1 dereferenceable_or_null(1) i8* @"_ZN91_$LT$core..slice..iter..Iter$LT$T$GT$$u20$as$u20$core..iter..traits..iterator..Iterator$GT$4next17hc77c1daee05be341E"({ i8*, i8* }* align 8 dereferenceable(16) %self) unnamed_addr #0 !dbg !1743 {
start:
  %0 = alloca i8*, align 8
  %count.dbg.spill.i1.i = alloca i64, align 8
  %self.dbg.spill.i2.i = alloca i8*, align 8
  %old.dbg.spill.i = alloca i8*, align 8
  %offset.dbg.spill.i = alloca i64, align 8
  %self.dbg.spill.i = alloca { i8*, i8* }*, align 8
  %1 = alloca i8*, align 8
  %self.dbg.spill = alloca { i8*, i8* }*, align 8
  %2 = alloca i8*, align 8
  store { i8*, i8* }* %self, { i8*, i8* }** %self.dbg.spill, align 8
  call void @llvm.dbg.declare(metadata { i8*, i8* }** %self.dbg.spill, metadata !1750, metadata !DIExpression()), !dbg !1751
  %3 = bitcast { i8*, i8* }* %self to i8**, !dbg !1752
  %_6 = load i8*, i8** %3, align 8, !dbg !1752, !nonnull !4
; call core::ptr::non_null::NonNull<T>::as_ptr
  %_5 = call i8* @"_ZN4core3ptr8non_null16NonNull$LT$T$GT$6as_ptr17he9f4ac41c8ef8b16E"(i8* nonnull %_6), !dbg !1752
  br label %bb1, !dbg !1752

bb1:                                              ; preds = %start
; call core::ptr::mut_ptr::<impl *mut T>::is_null
  %_4 = call zeroext i1 @"_ZN4core3ptr7mut_ptr31_$LT$impl$u20$$BP$mut$u20$T$GT$7is_null17h81f020dc74f116d2E"(i8* %_5), !dbg !1752
  br label %bb2, !dbg !1752

bb2:                                              ; preds = %bb1
  %_3 = xor i1 %_4, true, !dbg !1753
  call void @llvm.assume(i1 %_3), !dbg !1754
  br label %bb3, !dbg !1754

bb3:                                              ; preds = %bb2
  br label %bb4, !dbg !1755

bb4:                                              ; preds = %bb3
  %4 = icmp eq i64 1, 0, !dbg !1755
  br i1 %4, label %bb8, label %bb5, !dbg !1755

bb8:                                              ; preds = %bb4
  br label %bb9, !dbg !1756

bb5:                                              ; preds = %bb4
  %5 = getelementptr inbounds { i8*, i8* }, { i8*, i8* }* %self, i32 0, i32 1, !dbg !1757
  %_11 = load i8*, i8** %5, align 8, !dbg !1757
; call core::ptr::const_ptr::<impl *const T>::is_null
  %_10 = call zeroext i1 @"_ZN4core3ptr9const_ptr33_$LT$impl$u20$$BP$const$u20$T$GT$7is_null17hab0bc388f22a5caeE"(i8* %_11), !dbg !1757
  br label %bb6, !dbg !1757

bb6:                                              ; preds = %bb5
  %_9 = xor i1 %_10, true, !dbg !1758
  call void @llvm.assume(i1 %_9), !dbg !1759
  br label %bb7, !dbg !1759

bb7:                                              ; preds = %bb6
  br label %bb9, !dbg !1756

bb9:                                              ; preds = %bb8, %bb7
  %6 = bitcast { i8*, i8* }* %self to i8**, !dbg !1760
  %_15 = load i8*, i8** %6, align 8, !dbg !1760, !nonnull !4
; call core::ptr::non_null::NonNull<T>::as_ptr
  %_14 = call i8* @"_ZN4core3ptr8non_null16NonNull$LT$T$GT$6as_ptr17he9f4ac41c8ef8b16E"(i8* nonnull %_15), !dbg !1760
  br label %bb10, !dbg !1760

bb10:                                             ; preds = %bb9
  %7 = getelementptr inbounds { i8*, i8* }, { i8*, i8* }* %self, i32 0, i32 1, !dbg !1760
  %_16 = load i8*, i8** %7, align 8, !dbg !1760
  %_12 = icmp eq i8* %_14, %_16, !dbg !1760
  br i1 %_12, label %bb11, label %bb12, !dbg !1760

bb12:                                             ; preds = %bb10
  store { i8*, i8* }* %self, { i8*, i8* }** %self.dbg.spill.i, align 8
  call void @llvm.dbg.declare(metadata { i8*, i8* }** %self.dbg.spill.i, metadata !1761, metadata !DIExpression()) #8, !dbg !1769
  store i64 1, i64* %offset.dbg.spill.i, align 8
  call void @llvm.dbg.declare(metadata i64* %offset.dbg.spill.i, metadata !1766, metadata !DIExpression()) #8, !dbg !1771
  %8 = bitcast { i8*, i8* }* %self to i8**, !dbg !1772
  %_12.i = load i8*, i8** %8, align 8, !dbg !1772, !nonnull !4
; call core::ptr::non_null::NonNull<T>::as_ptr
  %old.i = call i8* @"_ZN4core3ptr8non_null16NonNull$LT$T$GT$6as_ptr17he9f4ac41c8ef8b16E"(i8* nonnull %_12.i) #8, !dbg !1772
  store i8* %old.i, i8** %old.dbg.spill.i, align 8, !dbg !1772
  call void @llvm.dbg.declare(metadata i8** %old.dbg.spill.i, metadata !1767, metadata !DIExpression()) #8, !dbg !1773
  %9 = bitcast { i8*, i8* }* %self to i8**, !dbg !1774
  %_16.i = load i8*, i8** %9, align 8, !dbg !1774, !nonnull !4
; call core::ptr::non_null::NonNull<T>::as_ptr
  %_15.i = call i8* @"_ZN4core3ptr8non_null16NonNull$LT$T$GT$6as_ptr17he9f4ac41c8ef8b16E"(i8* nonnull %_16.i) #8, !dbg !1774
  store i8* %_15.i, i8** %self.dbg.spill.i2.i, align 8
  call void @llvm.dbg.declare(metadata i8** %self.dbg.spill.i2.i, metadata !131, metadata !DIExpression()) #8, !dbg !1775
  store i64 1, i64* %count.dbg.spill.i1.i, align 8
  call void @llvm.dbg.declare(metadata i64* %count.dbg.spill.i1.i, metadata !136, metadata !DIExpression()) #8, !dbg !1777
  %10 = getelementptr inbounds i8, i8* %_15.i, i64 1, !dbg !1778
  store i8* %10, i8** %0, align 8, !dbg !1778
  %_3.i.i = load i8*, i8** %0, align 8, !dbg !1778
; call core::ptr::non_null::NonNull<T>::new_unchecked
  %_13.i = call nonnull i8* @"_ZN4core3ptr8non_null16NonNull$LT$T$GT$13new_unchecked17h084e3c4e09f2f47aE"(i8* %_3.i.i) #8, !dbg !1779
  %11 = bitcast { i8*, i8* }* %self to i8**, !dbg !1780
  store i8* %_13.i, i8** %11, align 8, !dbg !1780
  store i8* %old.i, i8** %1, align 8, !dbg !1781
  %12 = load i8*, i8** %1, align 8, !dbg !1782
  br label %bb13, !dbg !1783

bb11:                                             ; preds = %bb10
  %13 = bitcast i8** %2 to {}**, !dbg !1784
  store {}* null, {}** %13, align 8, !dbg !1784
  br label %bb14, !dbg !1785

bb14:                                             ; preds = %bb13, %bb11
  %14 = load i8*, i8** %2, align 8, !dbg !1786
  ret i8* %14, !dbg !1786

bb13:                                             ; preds = %bb12
  store i8* %12, i8** %2, align 8, !dbg !1787
  br label %bb14, !dbg !1785
}

; <core::slice::iter::IterMut<T> as core::iter::traits::iterator::Iterator>::next
; Function Attrs: inlinehint nounwind
define align 1 dereferenceable_or_null(1) i8* @"_ZN94_$LT$core..slice..iter..IterMut$LT$T$GT$$u20$as$u20$core..iter..traits..iterator..Iterator$GT$4next17h29463f6ab3c34ce9E"({ i8*, i8* }* align 8 dereferenceable(16) %self) unnamed_addr #0 !dbg !1788 {
start:
  %0 = alloca i8*, align 8
  %count.dbg.spill.i1.i = alloca i64, align 8
  %self.dbg.spill.i2.i = alloca i8*, align 8
  %old.dbg.spill.i = alloca i8*, align 8
  %offset.dbg.spill.i = alloca i64, align 8
  %self.dbg.spill.i = alloca { i8*, i8* }*, align 8
  %1 = alloca i8*, align 8
  %self.dbg.spill = alloca { i8*, i8* }*, align 8
  %2 = alloca i8*, align 8
  store { i8*, i8* }* %self, { i8*, i8* }** %self.dbg.spill, align 8
  call void @llvm.dbg.declare(metadata { i8*, i8* }** %self.dbg.spill, metadata !1794, metadata !DIExpression()), !dbg !1795
  %3 = bitcast { i8*, i8* }* %self to i8**, !dbg !1796
  %_6 = load i8*, i8** %3, align 8, !dbg !1796, !nonnull !4
; call core::ptr::non_null::NonNull<T>::as_ptr
  %_5 = call i8* @"_ZN4core3ptr8non_null16NonNull$LT$T$GT$6as_ptr17he9f4ac41c8ef8b16E"(i8* nonnull %_6), !dbg !1796
  br label %bb1, !dbg !1796

bb1:                                              ; preds = %start
; call core::ptr::mut_ptr::<impl *mut T>::is_null
  %_4 = call zeroext i1 @"_ZN4core3ptr7mut_ptr31_$LT$impl$u20$$BP$mut$u20$T$GT$7is_null17h81f020dc74f116d2E"(i8* %_5), !dbg !1796
  br label %bb2, !dbg !1796

bb2:                                              ; preds = %bb1
  %_3 = xor i1 %_4, true, !dbg !1797
  call void @llvm.assume(i1 %_3), !dbg !1798
  br label %bb3, !dbg !1798

bb3:                                              ; preds = %bb2
  br label %bb4, !dbg !1799

bb4:                                              ; preds = %bb3
  %4 = icmp eq i64 1, 0, !dbg !1799
  br i1 %4, label %bb8, label %bb5, !dbg !1799

bb8:                                              ; preds = %bb4
  br label %bb9, !dbg !1800

bb5:                                              ; preds = %bb4
  %5 = getelementptr inbounds { i8*, i8* }, { i8*, i8* }* %self, i32 0, i32 1, !dbg !1801
  %_11 = load i8*, i8** %5, align 8, !dbg !1801
; call core::ptr::mut_ptr::<impl *mut T>::is_null
  %_10 = call zeroext i1 @"_ZN4core3ptr7mut_ptr31_$LT$impl$u20$$BP$mut$u20$T$GT$7is_null17h81f020dc74f116d2E"(i8* %_11), !dbg !1801
  br label %bb6, !dbg !1801

bb6:                                              ; preds = %bb5
  %_9 = xor i1 %_10, true, !dbg !1802
  call void @llvm.assume(i1 %_9), !dbg !1803
  br label %bb7, !dbg !1803

bb7:                                              ; preds = %bb6
  br label %bb9, !dbg !1800

bb9:                                              ; preds = %bb8, %bb7
  %6 = bitcast { i8*, i8* }* %self to i8**, !dbg !1804
  %_15 = load i8*, i8** %6, align 8, !dbg !1804, !nonnull !4
; call core::ptr::non_null::NonNull<T>::as_ptr
  %_14 = call i8* @"_ZN4core3ptr8non_null16NonNull$LT$T$GT$6as_ptr17he9f4ac41c8ef8b16E"(i8* nonnull %_15), !dbg !1804
  br label %bb10, !dbg !1804

bb10:                                             ; preds = %bb9
  %7 = getelementptr inbounds { i8*, i8* }, { i8*, i8* }* %self, i32 0, i32 1, !dbg !1804
  %_17 = load i8*, i8** %7, align 8, !dbg !1804
  %_12 = icmp eq i8* %_14, %_17, !dbg !1804
  br i1 %_12, label %bb11, label %bb12, !dbg !1804

bb12:                                             ; preds = %bb10
  store { i8*, i8* }* %self, { i8*, i8* }** %self.dbg.spill.i, align 8
  call void @llvm.dbg.declare(metadata { i8*, i8* }** %self.dbg.spill.i, metadata !1805, metadata !DIExpression()) #8, !dbg !1813
  store i64 1, i64* %offset.dbg.spill.i, align 8
  call void @llvm.dbg.declare(metadata i64* %offset.dbg.spill.i, metadata !1810, metadata !DIExpression()) #8, !dbg !1815
  %8 = bitcast { i8*, i8* }* %self to i8**, !dbg !1816
  %_11.i = load i8*, i8** %8, align 8, !dbg !1816, !nonnull !4
; call core::ptr::non_null::NonNull<T>::as_ptr
  %old.i = call i8* @"_ZN4core3ptr8non_null16NonNull$LT$T$GT$6as_ptr17he9f4ac41c8ef8b16E"(i8* nonnull %_11.i) #8, !dbg !1816
  store i8* %old.i, i8** %old.dbg.spill.i, align 8, !dbg !1816
  call void @llvm.dbg.declare(metadata i8** %old.dbg.spill.i, metadata !1811, metadata !DIExpression()) #8, !dbg !1817
  %9 = bitcast { i8*, i8* }* %self to i8**, !dbg !1818
  %_15.i = load i8*, i8** %9, align 8, !dbg !1818, !nonnull !4
; call core::ptr::non_null::NonNull<T>::as_ptr
  %_14.i = call i8* @"_ZN4core3ptr8non_null16NonNull$LT$T$GT$6as_ptr17he9f4ac41c8ef8b16E"(i8* nonnull %_15.i) #8, !dbg !1818
  store i8* %_14.i, i8** %self.dbg.spill.i2.i, align 8
  call void @llvm.dbg.declare(metadata i8** %self.dbg.spill.i2.i, metadata !131, metadata !DIExpression()) #8, !dbg !1819
  store i64 1, i64* %count.dbg.spill.i1.i, align 8
  call void @llvm.dbg.declare(metadata i64* %count.dbg.spill.i1.i, metadata !136, metadata !DIExpression()) #8, !dbg !1821
  %10 = getelementptr inbounds i8, i8* %_14.i, i64 1, !dbg !1822
  store i8* %10, i8** %0, align 8, !dbg !1822
  %_3.i3.i = load i8*, i8** %0, align 8, !dbg !1822
; call core::ptr::non_null::NonNull<T>::new_unchecked
  %_12.i = call nonnull i8* @"_ZN4core3ptr8non_null16NonNull$LT$T$GT$13new_unchecked17h084e3c4e09f2f47aE"(i8* %_3.i3.i) #8, !dbg !1823
  %11 = bitcast { i8*, i8* }* %self to i8**, !dbg !1824
  store i8* %_12.i, i8** %11, align 8, !dbg !1824
  store i8* %old.i, i8** %1, align 8, !dbg !1825
  %12 = load i8*, i8** %1, align 8, !dbg !1826
  br label %bb13, !dbg !1827

bb11:                                             ; preds = %bb10
  %13 = bitcast i8** %2 to {}**, !dbg !1828
  store {}* null, {}** %13, align 8, !dbg !1828
  br label %bb14, !dbg !1829

bb14:                                             ; preds = %bb13, %bb11
  %14 = load i8*, i8** %2, align 8, !dbg !1830
  ret i8* %14, !dbg !1830

bb13:                                             ; preds = %bb12
  store i8* %12, i8** %2, align 8, !dbg !1831
  br label %bb14, !dbg !1829
}

; bs58::alphabet::Alphabet::new
; Function Attrs: nounwind
define void @_ZN4bs588alphabet8Alphabet3new17heb11b74a63e2a5d3E(%"core::result::Result<alphabet::Alphabet, alphabet::Error>"* noalias nocapture sret(%"core::result::Result<alphabet::Alphabet, alphabet::Error>") dereferenceable(192) %0, [58 x i8]* align 1 dereferenceable(58) %base) unnamed_addr #1 !dbg !1832 {
start:
  %base.dbg.spill = alloca [58 x i8]*, align 8
  %_59 = alloca [128 x i8], align 1
  %_58 = alloca [58 x i8], align 1
  %_57 = alloca %"alphabet::Alphabet", align 1
  %_25 = alloca %"alphabet::Error", align 8
  %_15 = alloca %"alphabet::Error", align 8
  %i = alloca i64, align 8
  %decode = alloca [128 x i8], align 1
  %encode = alloca [58 x i8], align 1
  store [58 x i8]* %base, [58 x i8]** %base.dbg.spill, align 8
  call void @llvm.dbg.declare(metadata [58 x i8]** %base.dbg.spill, metadata !1880, metadata !DIExpression()), !dbg !1887
  call void @llvm.dbg.declare(metadata [58 x i8]* %encode, metadata !1881, metadata !DIExpression()), !dbg !1888
  call void @llvm.dbg.declare(metadata [128 x i8]* %decode, metadata !1883, metadata !DIExpression()), !dbg !1889
  call void @llvm.dbg.declare(metadata i64* %i, metadata !1885, metadata !DIExpression()), !dbg !1890
  %1 = getelementptr inbounds [58 x i8], [58 x i8]* %encode, i64 0, i64 0, !dbg !1891
  call void @llvm.memset.p0i8.i64(i8* align 1 %1, i8 0, i64 58, i1 false), !dbg !1891
  %2 = getelementptr inbounds [128 x i8], [128 x i8]* %decode, i64 0, i64 0, !dbg !1892
  call void @llvm.memset.p0i8.i64(i8* align 1 %2, i8 -1, i64 128, i1 false), !dbg !1892
  store i64 0, i64* %i, align 8, !dbg !1893
  br label %bb1, !dbg !1894

bb1:                                              ; preds = %bb17, %start
  %_6 = load i64, i64* %i, align 8, !dbg !1895
  %_8.0 = bitcast [58 x i8]* %encode to [0 x i8]*, !dbg !1896
  %_5 = icmp ult i64 %_6, 58, !dbg !1895
  br i1 %_5, label %bb2, label %bb18, !dbg !1895

bb18:                                             ; preds = %bb1
  %3 = bitcast [58 x i8]* %_58 to i8*, !dbg !1897
  %4 = bitcast [58 x i8]* %encode to i8*, !dbg !1897
  call void @llvm.memcpy.p0i8.p0i8.i64(i8* align 1 %3, i8* align 1 %4, i64 58, i1 false), !dbg !1897
  %5 = bitcast [128 x i8]* %_59 to i8*, !dbg !1898
  %6 = bitcast [128 x i8]* %decode to i8*, !dbg !1898
  call void @llvm.memcpy.p0i8.p0i8.i64(i8* align 1 %5, i8* align 1 %6, i64 128, i1 false), !dbg !1898
  %7 = bitcast %"alphabet::Alphabet"* %_57 to [58 x i8]*, !dbg !1899
  %8 = bitcast [58 x i8]* %7 to i8*, !dbg !1899
  %9 = bitcast [58 x i8]* %_58 to i8*, !dbg !1899
  call void @llvm.memcpy.p0i8.p0i8.i64(i8* align 1 %8, i8* align 1 %9, i64 58, i1 false), !dbg !1899
  %10 = getelementptr inbounds %"alphabet::Alphabet", %"alphabet::Alphabet"* %_57, i32 0, i32 1, !dbg !1899
  %11 = bitcast [128 x i8]* %10 to i8*, !dbg !1899
  %12 = bitcast [128 x i8]* %_59 to i8*, !dbg !1899
  call void @llvm.memcpy.p0i8.p0i8.i64(i8* align 1 %11, i8* align 1 %12, i64 128, i1 false), !dbg !1899
  %13 = bitcast %"core::result::Result<alphabet::Alphabet, alphabet::Error>"* %0 to %"core::result::Result<alphabet::Alphabet, alphabet::Error>::Ok"*, !dbg !1900
  %14 = getelementptr inbounds %"core::result::Result<alphabet::Alphabet, alphabet::Error>::Ok", %"core::result::Result<alphabet::Alphabet, alphabet::Error>::Ok"* %13, i32 0, i32 1, !dbg !1900
  %15 = bitcast %"alphabet::Alphabet"* %14 to i8*, !dbg !1900
  %16 = bitcast %"alphabet::Alphabet"* %_57 to i8*, !dbg !1900
  call void @llvm.memcpy.p0i8.p0i8.i64(i8* align 1 %15, i8* align 1 %16, i64 186, i1 false), !dbg !1900
  %17 = bitcast %"core::result::Result<alphabet::Alphabet, alphabet::Error>"* %0 to i8*, !dbg !1900
  store i8 0, i8* %17, align 8, !dbg !1900
  br label %bb19, !dbg !1901

bb2:                                              ; preds = %bb1
  %_12 = load i64, i64* %i, align 8, !dbg !1902
  %_14 = icmp ult i64 %_12, 58, !dbg !1903
  %18 = call i1 @llvm.expect.i1(i1 %_14, i1 true), !dbg !1903
  br i1 %18, label %bb3, label %panic, !dbg !1903

bb3:                                              ; preds = %bb2
  %19 = getelementptr inbounds [58 x i8], [58 x i8]* %base, i64 0, i64 %_12, !dbg !1903
  %_11 = load i8, i8* %19, align 1, !dbg !1903
  %_10 = icmp uge i8 %_11, -128, !dbg !1903
  br i1 %_10, label %bb4, label %bb5, !dbg !1903

panic:                                            ; preds = %bb2
; call core::panicking::panic_bounds_check
  call void @_ZN4core9panicking18panic_bounds_check17h865b4c1c7f870517E(i64 %_12, i64 58, %"core::panic::Location"* align 8 dereferenceable(24) bitcast (<{ i8*, [16 x i8] }>* @alloc462 to %"core::panic::Location"*)), !dbg !1903
  unreachable, !dbg !1903

bb5:                                              ; preds = %bb3
  %_20 = load i64, i64* %i, align 8, !dbg !1904
  %_22 = icmp ult i64 %_20, 58, !dbg !1905
  %20 = call i1 @llvm.expect.i1(i1 %_22, i1 true), !dbg !1905
  br i1 %20, label %bb6, label %panic1, !dbg !1905

bb4:                                              ; preds = %bb3
  %_16 = load i64, i64* %i, align 8, !dbg !1906
  %21 = bitcast %"alphabet::Error"* %_15 to %"alphabet::Error::NonAsciiCharacter"*, !dbg !1907
  %22 = getelementptr inbounds %"alphabet::Error::NonAsciiCharacter", %"alphabet::Error::NonAsciiCharacter"* %21, i32 0, i32 1, !dbg !1907
  store i64 %_16, i64* %22, align 8, !dbg !1907
  %23 = bitcast %"alphabet::Error"* %_15 to i32*, !dbg !1907
  store i32 1, i32* %23, align 8, !dbg !1907
  %24 = bitcast %"core::result::Result<alphabet::Alphabet, alphabet::Error>"* %0 to %"core::result::Result<alphabet::Alphabet, alphabet::Error>::Err"*, !dbg !1908
  %25 = getelementptr inbounds %"core::result::Result<alphabet::Alphabet, alphabet::Error>::Err", %"core::result::Result<alphabet::Alphabet, alphabet::Error>::Err"* %24, i32 0, i32 1, !dbg !1908
  %26 = bitcast %"alphabet::Error"* %25 to i8*, !dbg !1908
  %27 = bitcast %"alphabet::Error"* %_15 to i8*, !dbg !1908
  call void @llvm.memcpy.p0i8.p0i8.i64(i8* align 8 %26, i8* align 8 %27, i64 24, i1 false), !dbg !1908
  %28 = bitcast %"core::result::Result<alphabet::Alphabet, alphabet::Error>"* %0 to i8*, !dbg !1908
  store i8 1, i8* %28, align 8, !dbg !1908
  br label %bb19, !dbg !1909

bb19:                                             ; preds = %bb18, %bb11, %bb4
  ret void, !dbg !1901

bb6:                                              ; preds = %bb5
  %29 = getelementptr inbounds [58 x i8], [58 x i8]* %base, i64 0, i64 %_20, !dbg !1905
  %_19 = load i8, i8* %29, align 1, !dbg !1905
  %_18 = zext i8 %_19 to i64, !dbg !1905
  %_24 = icmp ult i64 %_18, 128, !dbg !1912
  %30 = call i1 @llvm.expect.i1(i1 %_24, i1 true), !dbg !1912
  br i1 %30, label %bb7, label %panic2, !dbg !1912

panic1:                                           ; preds = %bb5
; call core::panicking::panic_bounds_check
  call void @_ZN4core9panicking18panic_bounds_check17h865b4c1c7f870517E(i64 %_20, i64 58, %"core::panic::Location"* align 8 dereferenceable(24) bitcast (<{ i8*, [16 x i8] }>* @alloc464 to %"core::panic::Location"*)), !dbg !1905
  unreachable, !dbg !1905

bb7:                                              ; preds = %bb6
  %31 = getelementptr inbounds [128 x i8], [128 x i8]* %decode, i64 0, i64 %_18, !dbg !1912
  %_17 = load i8, i8* %31, align 1, !dbg !1912
  %32 = icmp eq i8 %_17, -1, !dbg !1912
  br i1 %32, label %bb12, label %bb8, !dbg !1912

panic2:                                           ; preds = %bb6
; call core::panicking::panic_bounds_check
  call void @_ZN4core9panicking18panic_bounds_check17h865b4c1c7f870517E(i64 %_18, i64 128, %"core::panic::Location"* align 8 dereferenceable(24) bitcast (<{ i8*, [16 x i8] }>* @alloc466 to %"core::panic::Location"*)), !dbg !1912
  unreachable, !dbg !1912

bb12:                                             ; preds = %bb7
  %_42 = load i64, i64* %i, align 8, !dbg !1913
  %_44 = icmp ult i64 %_42, 58, !dbg !1914
  %33 = call i1 @llvm.expect.i1(i1 %_44, i1 true), !dbg !1914
  br i1 %33, label %bb13, label %panic6, !dbg !1914

bb8:                                              ; preds = %bb7
  %_28 = load i64, i64* %i, align 8, !dbg !1915
  %_30 = icmp ult i64 %_28, 58, !dbg !1916
  %34 = call i1 @llvm.expect.i1(i1 %_30, i1 true), !dbg !1916
  br i1 %34, label %bb9, label %panic3, !dbg !1916

bb9:                                              ; preds = %bb8
  %35 = getelementptr inbounds [58 x i8], [58 x i8]* %base, i64 0, i64 %_28, !dbg !1916
  %_27 = load i8, i8* %35, align 1, !dbg !1916
  %_26 = zext i8 %_27 to i32, !dbg !1916
  %_35 = load i64, i64* %i, align 8, !dbg !1917
  %_37 = icmp ult i64 %_35, 58, !dbg !1918
  %36 = call i1 @llvm.expect.i1(i1 %_37, i1 true), !dbg !1918
  br i1 %36, label %bb10, label %panic4, !dbg !1918

panic3:                                           ; preds = %bb8
; call core::panicking::panic_bounds_check
  call void @_ZN4core9panicking18panic_bounds_check17h865b4c1c7f870517E(i64 %_28, i64 58, %"core::panic::Location"* align 8 dereferenceable(24) bitcast (<{ i8*, [16 x i8] }>* @alloc468 to %"core::panic::Location"*)), !dbg !1916
  unreachable, !dbg !1916

bb10:                                             ; preds = %bb9
  %37 = getelementptr inbounds [58 x i8], [58 x i8]* %base, i64 0, i64 %_35, !dbg !1918
  %_34 = load i8, i8* %37, align 1, !dbg !1918
  %_33 = zext i8 %_34 to i64, !dbg !1918
  %_39 = icmp ult i64 %_33, 128, !dbg !1919
  %38 = call i1 @llvm.expect.i1(i1 %_39, i1 true), !dbg !1919
  br i1 %38, label %bb11, label %panic5, !dbg !1919

panic4:                                           ; preds = %bb9
; call core::panicking::panic_bounds_check
  call void @_ZN4core9panicking18panic_bounds_check17h865b4c1c7f870517E(i64 %_35, i64 58, %"core::panic::Location"* align 8 dereferenceable(24) bitcast (<{ i8*, [16 x i8] }>* @alloc470 to %"core::panic::Location"*)), !dbg !1918
  unreachable, !dbg !1918

bb11:                                             ; preds = %bb10
  %39 = getelementptr inbounds [128 x i8], [128 x i8]* %decode, i64 0, i64 %_33, !dbg !1919
  %_32 = load i8, i8* %39, align 1, !dbg !1919
  %_31 = zext i8 %_32 to i64, !dbg !1919
  %_40 = load i64, i64* %i, align 8, !dbg !1920
  %40 = bitcast %"alphabet::Error"* %_25 to %"alphabet::Error::DuplicateCharacter"*, !dbg !1921
  %41 = getelementptr inbounds %"alphabet::Error::DuplicateCharacter", %"alphabet::Error::DuplicateCharacter"* %40, i32 0, i32 1, !dbg !1921
  store i32 %_26, i32* %41, align 4, !dbg !1921
  %42 = bitcast %"alphabet::Error"* %_25 to %"alphabet::Error::DuplicateCharacter"*, !dbg !1921
  %43 = getelementptr inbounds %"alphabet::Error::DuplicateCharacter", %"alphabet::Error::DuplicateCharacter"* %42, i32 0, i32 2, !dbg !1921
  store i64 %_31, i64* %43, align 8, !dbg !1921
  %44 = bitcast %"alphabet::Error"* %_25 to %"alphabet::Error::DuplicateCharacter"*, !dbg !1921
  %45 = getelementptr inbounds %"alphabet::Error::DuplicateCharacter", %"alphabet::Error::DuplicateCharacter"* %44, i32 0, i32 3, !dbg !1921
  store i64 %_40, i64* %45, align 8, !dbg !1921
  %46 = bitcast %"alphabet::Error"* %_25 to i32*, !dbg !1921
  store i32 0, i32* %46, align 8, !dbg !1921
  %47 = bitcast %"core::result::Result<alphabet::Alphabet, alphabet::Error>"* %0 to %"core::result::Result<alphabet::Alphabet, alphabet::Error>::Err"*, !dbg !1922
  %48 = getelementptr inbounds %"core::result::Result<alphabet::Alphabet, alphabet::Error>::Err", %"core::result::Result<alphabet::Alphabet, alphabet::Error>::Err"* %47, i32 0, i32 1, !dbg !1922
  %49 = bitcast %"alphabet::Error"* %48 to i8*, !dbg !1922
  %50 = bitcast %"alphabet::Error"* %_25 to i8*, !dbg !1922
  call void @llvm.memcpy.p0i8.p0i8.i64(i8* align 8 %49, i8* align 8 %50, i64 24, i1 false), !dbg !1922
  %51 = bitcast %"core::result::Result<alphabet::Alphabet, alphabet::Error>"* %0 to i8*, !dbg !1922
  store i8 1, i8* %51, align 8, !dbg !1922
  br label %bb19, !dbg !1909

panic5:                                           ; preds = %bb10
; call core::panicking::panic_bounds_check
  call void @_ZN4core9panicking18panic_bounds_check17h865b4c1c7f870517E(i64 %_33, i64 128, %"core::panic::Location"* align 8 dereferenceable(24) bitcast (<{ i8*, [16 x i8] }>* @alloc472 to %"core::panic::Location"*)), !dbg !1919
  unreachable, !dbg !1919

bb13:                                             ; preds = %bb12
  %52 = getelementptr inbounds [58 x i8], [58 x i8]* %base, i64 0, i64 %_42, !dbg !1914
  %_41 = load i8, i8* %52, align 1, !dbg !1914
  %_45 = load i64, i64* %i, align 8, !dbg !1923
  %_47 = icmp ult i64 %_45, 58, !dbg !1924
  %53 = call i1 @llvm.expect.i1(i1 %_47, i1 true), !dbg !1924
  br i1 %53, label %bb14, label %panic7, !dbg !1924

panic6:                                           ; preds = %bb12
; call core::panicking::panic_bounds_check
  call void @_ZN4core9panicking18panic_bounds_check17h865b4c1c7f870517E(i64 %_42, i64 58, %"core::panic::Location"* align 8 dereferenceable(24) bitcast (<{ i8*, [16 x i8] }>* @alloc474 to %"core::panic::Location"*)), !dbg !1914
  unreachable, !dbg !1914

bb14:                                             ; preds = %bb13
  %54 = getelementptr inbounds [58 x i8], [58 x i8]* %encode, i64 0, i64 %_45, !dbg !1924
  store i8 %_41, i8* %54, align 1, !dbg !1924
  %_48 = load i64, i64* %i, align 8, !dbg !1925
  %_51 = load i64, i64* %i, align 8, !dbg !1926
  %_53 = icmp ult i64 %_51, 58, !dbg !1927
  %55 = call i1 @llvm.expect.i1(i1 %_53, i1 true), !dbg !1927
  br i1 %55, label %bb15, label %panic8, !dbg !1927

panic7:                                           ; preds = %bb13
; call core::panicking::panic_bounds_check
  call void @_ZN4core9panicking18panic_bounds_check17h865b4c1c7f870517E(i64 %_45, i64 58, %"core::panic::Location"* align 8 dereferenceable(24) bitcast (<{ i8*, [16 x i8] }>* @alloc476 to %"core::panic::Location"*)), !dbg !1924
  unreachable, !dbg !1924

bb15:                                             ; preds = %bb14
  %56 = getelementptr inbounds [58 x i8], [58 x i8]* %base, i64 0, i64 %_51, !dbg !1927
  %_50 = load i8, i8* %56, align 1, !dbg !1927
  %_49 = zext i8 %_50 to i64, !dbg !1927
  %_55 = icmp ult i64 %_49, 128, !dbg !1928
  %57 = call i1 @llvm.expect.i1(i1 %_55, i1 true), !dbg !1928
  br i1 %57, label %bb16, label %panic9, !dbg !1928

panic8:                                           ; preds = %bb14
; call core::panicking::panic_bounds_check
  call void @_ZN4core9panicking18panic_bounds_check17h865b4c1c7f870517E(i64 %_51, i64 58, %"core::panic::Location"* align 8 dereferenceable(24) bitcast (<{ i8*, [16 x i8] }>* @alloc478 to %"core::panic::Location"*)), !dbg !1927
  unreachable, !dbg !1927

bb16:                                             ; preds = %bb15
  %58 = getelementptr inbounds [128 x i8], [128 x i8]* %decode, i64 0, i64 %_49, !dbg !1928
  %59 = trunc i64 %_48 to i8, !dbg !1928
  store i8 %59, i8* %58, align 1, !dbg !1928
  %60 = load i64, i64* %i, align 8, !dbg !1929
  %61 = call { i64, i1 } @llvm.uadd.with.overflow.i64(i64 %60, i64 1), !dbg !1929
  %_56.0 = extractvalue { i64, i1 } %61, 0, !dbg !1929
  %_56.1 = extractvalue { i64, i1 } %61, 1, !dbg !1929
  %62 = call i1 @llvm.expect.i1(i1 %_56.1, i1 false), !dbg !1929
  br i1 %62, label %panic10, label %bb17, !dbg !1929

panic9:                                           ; preds = %bb15
; call core::panicking::panic_bounds_check
  call void @_ZN4core9panicking18panic_bounds_check17h865b4c1c7f870517E(i64 %_49, i64 128, %"core::panic::Location"* align 8 dereferenceable(24) bitcast (<{ i8*, [16 x i8] }>* @alloc480 to %"core::panic::Location"*)), !dbg !1928
  unreachable, !dbg !1928

bb17:                                             ; preds = %bb16
  store i64 %_56.0, i64* %i, align 8, !dbg !1929
  br label %bb1, !dbg !1894

panic10:                                          ; preds = %bb16
; call core::panicking::panic
  call void @_ZN4core9panicking5panic17h560e3e4b7752857aE([0 x i8]* nonnull align 1 bitcast ([28 x i8]* @str.0 to [0 x i8]*), i64 28, %"core::panic::Location"* align 8 dereferenceable(24) bitcast (<{ i8*, [16 x i8] }>* @alloc482 to %"core::panic::Location"*)), !dbg !1929
  unreachable, !dbg !1929
}

; bs58::alphabet::Alphabet::new_unwrap
; Function Attrs: nounwind
define void @_ZN4bs588alphabet8Alphabet10new_unwrap17hae8a77dcc6527295E(%"alphabet::Alphabet"* noalias nocapture sret(%"alphabet::Alphabet") dereferenceable(186) %0, [58 x i8]* align 1 dereferenceable(58) %base) unnamed_addr #1 !dbg !1930 {
start:
  %base.dbg.spill = alloca [58 x i8]*, align 8
  %alphabet = alloca %"alphabet::Alphabet", align 1
  %_4 = alloca [0 x %"alphabet::Alphabet"], align 1
  %result = alloca %"core::result::Result<alphabet::Alphabet, alphabet::Error>", align 8
  store [58 x i8]* %base, [58 x i8]** %base.dbg.spill, align 8
  call void @llvm.dbg.declare(metadata [58 x i8]** %base.dbg.spill, metadata !1934, metadata !DIExpression()), !dbg !1939
  call void @llvm.dbg.declare(metadata %"core::result::Result<alphabet::Alphabet, alphabet::Error>"* %result, metadata !1935, metadata !DIExpression()), !dbg !1940
  call void @llvm.dbg.declare(metadata %"alphabet::Alphabet"* %alphabet, metadata !1937, metadata !DIExpression()), !dbg !1941
; call bs58::alphabet::Alphabet::new
  call void @_ZN4bs588alphabet8Alphabet3new17heb11b74a63e2a5d3E(%"core::result::Result<alphabet::Alphabet, alphabet::Error>"* noalias nocapture sret(%"core::result::Result<alphabet::Alphabet, alphabet::Error>") dereferenceable(192) %result, [58 x i8]* align 1 dereferenceable(58) %base), !dbg !1942
  br label %bb1, !dbg !1942

bb1:                                              ; preds = %start
  %1 = bitcast %"core::result::Result<alphabet::Alphabet, alphabet::Error>"* %result to i8*, !dbg !1943
  %2 = load i8, i8* %1, align 8, !dbg !1943, !range !374
  %3 = trunc i8 %2 to i1, !dbg !1943
  %_6 = zext i1 %3 to i64, !dbg !1943
  switch i64 %_6, label %bb3 [
    i64 0, label %bb4
    i64 1, label %bb2
  ], !dbg !1944

bb3:                                              ; preds = %bb1
  unreachable, !dbg !1943

bb4:                                              ; preds = %bb1
  %4 = bitcast %"core::result::Result<alphabet::Alphabet, alphabet::Error>"* %result to %"core::result::Result<alphabet::Alphabet, alphabet::Error>::Ok"*, !dbg !1945
  %5 = getelementptr inbounds %"core::result::Result<alphabet::Alphabet, alphabet::Error>::Ok", %"core::result::Result<alphabet::Alphabet, alphabet::Error>::Ok"* %4, i32 0, i32 1, !dbg !1945
  %6 = bitcast %"alphabet::Alphabet"* %alphabet to i8*, !dbg !1945
  %7 = bitcast %"alphabet::Alphabet"* %5 to i8*, !dbg !1945
  call void @llvm.memcpy.p0i8.p0i8.i64(i8* align 1 %6, i8* align 1 %7, i64 186, i1 false), !dbg !1945
  %8 = bitcast %"alphabet::Alphabet"* %0 to i8*, !dbg !1946
  %9 = bitcast %"alphabet::Alphabet"* %alphabet to i8*, !dbg !1946
  call void @llvm.memcpy.p0i8.p0i8.i64(i8* align 1 %8, i8* align 1 %9, i64 186, i1 false), !dbg !1946
  br label %bb6, !dbg !1947

bb2:                                              ; preds = %bb1
  %10 = call i1 @llvm.expect.i1(i1 false, i1 true), !dbg !1948
  br i1 %10, label %bb5, label %panic, !dbg !1948

bb5:                                              ; preds = %bb2
  %11 = getelementptr inbounds [0 x %"alphabet::Alphabet"], [0 x %"alphabet::Alphabet"]* %_4, i64 0, i64 0, !dbg !1948
  %12 = bitcast %"alphabet::Alphabet"* %0 to i8*, !dbg !1948
  %13 = bitcast %"alphabet::Alphabet"* %11 to i8*, !dbg !1948
  call void @llvm.memcpy.p0i8.p0i8.i64(i8* align 1 %12, i8* align 1 %13, i64 186, i1 false), !dbg !1948
  br label %bb6, !dbg !1947

panic:                                            ; preds = %bb2
; call core::panicking::panic_bounds_check
  call void @_ZN4core9panicking18panic_bounds_check17h865b4c1c7f870517E(i64 0, i64 0, %"core::panic::Location"* align 8 dereferenceable(24) bitcast (<{ i8*, [16 x i8] }>* @alloc484 to %"core::panic::Location"*)), !dbg !1948
  unreachable, !dbg !1948

bb6:                                              ; preds = %bb4, %bb5
  ret void, !dbg !1947
}

; <bs58::alphabet::Alphabet as core::fmt::Debug>::fmt
; Function Attrs: nounwind
define zeroext i1 @"_ZN61_$LT$bs58..alphabet..Alphabet$u20$as$u20$core..fmt..Debug$GT$3fmt17hd9ec84eeed0f17cfE"(%"alphabet::Alphabet"* align 1 dereferenceable(186) %self, %"core::fmt::Formatter"* align 8 dereferenceable(64) %f) unnamed_addr #1 !dbg !1949 {
start:
  %f.dbg.spill = alloca %"core::fmt::Formatter"*, align 8
  %self.dbg.spill = alloca %"alphabet::Alphabet"*, align 8
  %_12 = alloca %"core::fmt::DebugTuple", align 8
  %s = alloca { [0 x i8]*, i64 }, align 8
  %_3 = alloca %"core::result::Result<&str, core::str::Utf8Error>", align 8
  store %"alphabet::Alphabet"* %self, %"alphabet::Alphabet"** %self.dbg.spill, align 8
  call void @llvm.dbg.declare(metadata %"alphabet::Alphabet"** %self.dbg.spill, metadata !1955, metadata !DIExpression()), !dbg !1959
  store %"core::fmt::Formatter"* %f, %"core::fmt::Formatter"** %f.dbg.spill, align 8
  call void @llvm.dbg.declare(metadata %"core::fmt::Formatter"** %f.dbg.spill, metadata !1956, metadata !DIExpression()), !dbg !1960
  call void @llvm.dbg.declare(metadata { [0 x i8]*, i64 }* %s, metadata !1957, metadata !DIExpression()), !dbg !1961
  %_6 = bitcast %"alphabet::Alphabet"* %self to [58 x i8]*, !dbg !1962
  %_4.0 = bitcast [58 x i8]* %_6 to [0 x i8]*, !dbg !1962
; call core::str::converts::from_utf8
  call void @_ZN4core3str8converts9from_utf817hbd7abfa9d190c3c9E(%"core::result::Result<&str, core::str::Utf8Error>"* noalias nocapture sret(%"core::result::Result<&str, core::str::Utf8Error>") dereferenceable(24) %_3, [0 x i8]* nonnull align 1 %_4.0, i64 58), !dbg !1963
  br label %bb1, !dbg !1963

bb1:                                              ; preds = %start
  %0 = bitcast %"core::result::Result<&str, core::str::Utf8Error>"* %_3 to i64*, !dbg !1964
  %_7 = load i64, i64* %0, align 8, !dbg !1964, !range !1547
  %1 = icmp eq i64 %_7, 0, !dbg !1964
  br i1 %1, label %bb2, label %bb6, !dbg !1964

bb2:                                              ; preds = %bb1
  %2 = bitcast %"core::result::Result<&str, core::str::Utf8Error>"* %_3 to %"core::result::Result<&str, core::str::Utf8Error>::Ok"*, !dbg !1965
  %3 = getelementptr inbounds %"core::result::Result<&str, core::str::Utf8Error>::Ok", %"core::result::Result<&str, core::str::Utf8Error>::Ok"* %2, i32 0, i32 1, !dbg !1965
  %4 = getelementptr inbounds { [0 x i8]*, i64 }, { [0 x i8]*, i64 }* %3, i32 0, i32 0, !dbg !1965
  %5 = load [0 x i8]*, [0 x i8]** %4, align 8, !dbg !1965, !nonnull !4
  %6 = getelementptr inbounds { [0 x i8]*, i64 }, { [0 x i8]*, i64 }* %3, i32 0, i32 1, !dbg !1965
  %7 = load i64, i64* %6, align 8, !dbg !1965
  %8 = getelementptr inbounds { [0 x i8]*, i64 }, { [0 x i8]*, i64 }* %s, i32 0, i32 0, !dbg !1965
  store [0 x i8]* %5, [0 x i8]** %8, align 8, !dbg !1965
  %9 = getelementptr inbounds { [0 x i8]*, i64 }, { [0 x i8]*, i64 }* %s, i32 0, i32 1, !dbg !1965
  store i64 %7, i64* %9, align 8, !dbg !1965
; call core::fmt::Formatter::debug_tuple
  call void @_ZN4core3fmt9Formatter11debug_tuple17h8b0c4b037c736595E(%"core::fmt::DebugTuple"* noalias nocapture sret(%"core::fmt::DebugTuple") dereferenceable(24) %_12, %"core::fmt::Formatter"* align 8 dereferenceable(64) %f, [0 x i8]* nonnull align 1 bitcast (<{ [8 x i8] }>* @alloc488 to [0 x i8]*), i64 8), !dbg !1966
  br label %bb3, !dbg !1966

bb6:                                              ; preds = %bb1
; call core::panicking::panic
  call void @_ZN4core9panicking5panic17h560e3e4b7752857aE([0 x i8]* nonnull align 1 bitcast (<{ [40 x i8] }>* @alloc485 to [0 x i8]*), i64 40, %"core::panic::Location"* align 8 dereferenceable(24) bitcast (<{ i8*, [16 x i8] }>* @alloc487 to %"core::panic::Location"*)), !dbg !1967
  unreachable, !dbg !1967

bb3:                                              ; preds = %bb2
  %_16.0 = bitcast { [0 x i8]*, i64 }* %s to {}*, !dbg !1968
; call core::fmt::builders::DebugTuple::field
  %_10 = call align 8 dereferenceable(24) %"core::fmt::DebugTuple"* @_ZN4core3fmt8builders10DebugTuple5field17haf529c10112494a2E(%"core::fmt::DebugTuple"* align 8 dereferenceable(24) %_12, {}* nonnull align 1 %_16.0, [3 x i64]* align 8 dereferenceable(24) bitcast (<{ i8*, [16 x i8], i8*, [0 x i8] }>* @vtable.1 to [3 x i64]*)), !dbg !1966
  br label %bb4, !dbg !1966

bb4:                                              ; preds = %bb3
; call core::fmt::builders::DebugTuple::finish
  %10 = call zeroext i1 @_ZN4core3fmt8builders10DebugTuple6finish17h819d2cbd4adc1891E(%"core::fmt::DebugTuple"* align 8 dereferenceable(24) %_10), !dbg !1966
  br label %bb5, !dbg !1966

bb5:                                              ; preds = %bb4
  ret i1 %10, !dbg !1969
}

; <bs58::alphabet::Error as core::fmt::Display>::fmt
; Function Attrs: nounwind
define zeroext i1 @"_ZN60_$LT$bs58..alphabet..Error$u20$as$u20$core..fmt..Display$GT$3fmt17h85a51399750e15beE"(%"alphabet::Error"* align 8 dereferenceable(24) %self, %"core::fmt::Formatter"* align 8 dereferenceable(64) %f) unnamed_addr #1 !dbg !1970 {
start:
  %args.dbg.spill3 = alloca [3 x { i8*, i64* }]*, align 8
  %arg2.dbg.spill = alloca i64*, align 8
  %arg1.dbg.spill = alloca i64*, align 8
  %arg0.dbg.spill2 = alloca i32*, align 8
  %args.dbg.spill = alloca [1 x { i8*, i64* }]*, align 8
  %arg0.dbg.spill = alloca i64*, align 8
  %f.dbg.spill = alloca %"core::fmt::Formatter"*, align 8
  %self.dbg.spill = alloca %"alphabet::Error"*, align 8
  %_36 = alloca i64*, align 8
  %_35 = alloca [1 x { i8*, i64* }], align 8
  %_34 = alloca %"core::fmt::Arguments", align 8
  %index = alloca i64, align 8
  %_10 = alloca { i32*, i64*, i64* }, align 8
  %_9 = alloca [3 x { i8*, i64* }], align 8
  %_8 = alloca %"core::fmt::Arguments", align 8
  %second = alloca i64, align 8
  %first = alloca i64, align 8
  %character = alloca i32, align 4
  %0 = alloca i8, align 1
  store %"alphabet::Error"* %self, %"alphabet::Error"** %self.dbg.spill, align 8
  call void @llvm.dbg.declare(metadata %"alphabet::Error"** %self.dbg.spill, metadata !1976, metadata !DIExpression()), !dbg !2005
  store %"core::fmt::Formatter"* %f, %"core::fmt::Formatter"** %f.dbg.spill, align 8
  call void @llvm.dbg.declare(metadata %"core::fmt::Formatter"** %f.dbg.spill, metadata !1977, metadata !DIExpression()), !dbg !2006
  call void @llvm.dbg.declare(metadata i32* %character, metadata !1978, metadata !DIExpression()), !dbg !2007
  call void @llvm.dbg.declare(metadata i64* %first, metadata !1980, metadata !DIExpression()), !dbg !2008
  call void @llvm.dbg.declare(metadata i64* %second, metadata !1981, metadata !DIExpression()), !dbg !2009
  call void @llvm.dbg.declare(metadata i64* %index, metadata !1993, metadata !DIExpression()), !dbg !2010
  %1 = bitcast %"alphabet::Error"* %self to i32*, !dbg !2011
  %2 = load i32, i32* %1, align 8, !dbg !2011, !range !2012
  %_3 = zext i32 %2 to i64, !dbg !2011
  switch i64 %_3, label %bb2 [
    i64 0, label %bb3
    i64 1, label %bb1
  ], !dbg !2013

bb2:                                              ; preds = %start
  unreachable, !dbg !2011

bb3:                                              ; preds = %start
  %3 = bitcast %"alphabet::Error"* %self to %"alphabet::Error::DuplicateCharacter"*, !dbg !2014
  %4 = getelementptr inbounds %"alphabet::Error::DuplicateCharacter", %"alphabet::Error::DuplicateCharacter"* %3, i32 0, i32 1, !dbg !2014
  %5 = load i32, i32* %4, align 4, !dbg !2014, !range !2015
  store i32 %5, i32* %character, align 4, !dbg !2014
  %6 = bitcast %"alphabet::Error"* %self to %"alphabet::Error::DuplicateCharacter"*, !dbg !2016
  %7 = getelementptr inbounds %"alphabet::Error::DuplicateCharacter", %"alphabet::Error::DuplicateCharacter"* %6, i32 0, i32 2, !dbg !2016
  %8 = load i64, i64* %7, align 8, !dbg !2016
  store i64 %8, i64* %first, align 8, !dbg !2016
  %9 = bitcast %"alphabet::Error"* %self to %"alphabet::Error::DuplicateCharacter"*, !dbg !2017
  %10 = getelementptr inbounds %"alphabet::Error::DuplicateCharacter", %"alphabet::Error::DuplicateCharacter"* %9, i32 0, i32 3, !dbg !2017
  %11 = load i64, i64* %10, align 8, !dbg !2017
  store i64 %11, i64* %second, align 8, !dbg !2017
  %12 = bitcast { i32*, i64*, i64* }* %_10 to i32**, !dbg !2018
  store i32* %character, i32** %12, align 8, !dbg !2018
  %13 = getelementptr inbounds { i32*, i64*, i64* }, { i32*, i64*, i64* }* %_10, i32 0, i32 1, !dbg !2018
  store i64* %first, i64** %13, align 8, !dbg !2018
  %14 = getelementptr inbounds { i32*, i64*, i64* }, { i32*, i64*, i64* }* %_10, i32 0, i32 2, !dbg !2018
  store i64* %second, i64** %14, align 8, !dbg !2018
  %15 = bitcast { i32*, i64*, i64* }* %_10 to i32**, !dbg !2018
  %arg01 = load i32*, i32** %15, align 8, !dbg !2018, !nonnull !4
  store i32* %arg01, i32** %arg0.dbg.spill2, align 8, !dbg !2018
  call void @llvm.dbg.declare(metadata i32** %arg0.dbg.spill2, metadata !1982, metadata !DIExpression()), !dbg !2019
  %16 = getelementptr inbounds { i32*, i64*, i64* }, { i32*, i64*, i64* }* %_10, i32 0, i32 1, !dbg !2018
  %arg1 = load i64*, i64** %16, align 8, !dbg !2018, !nonnull !4
  store i64* %arg1, i64** %arg1.dbg.spill, align 8, !dbg !2018
  call void @llvm.dbg.declare(metadata i64** %arg1.dbg.spill, metadata !1986, metadata !DIExpression()), !dbg !2019
  %17 = getelementptr inbounds { i32*, i64*, i64* }, { i32*, i64*, i64* }* %_10, i32 0, i32 2, !dbg !2018
  %arg2 = load i64*, i64** %17, align 8, !dbg !2018, !nonnull !4
  store i64* %arg2, i64** %arg2.dbg.spill, align 8, !dbg !2018
  call void @llvm.dbg.declare(metadata i64** %arg2.dbg.spill, metadata !1987, metadata !DIExpression()), !dbg !2019
; call core::fmt::ArgumentV1::new
  %18 = call { i8*, i64* } @_ZN4core3fmt10ArgumentV13new17hb1649f178ab52ac8E(i32* align 4 dereferenceable(4) %arg01, i1 (i32*, %"core::fmt::Formatter"*)* nonnull @"_ZN43_$LT$char$u20$as$u20$core..fmt..Display$GT$3fmt17hec87f9cce54fff7aE"), !dbg !2019
  %_17.0 = extractvalue { i8*, i64* } %18, 0, !dbg !2019
  %_17.1 = extractvalue { i8*, i64* } %18, 1, !dbg !2019
  br label %bb4, !dbg !2019

bb1:                                              ; preds = %start
  %19 = bitcast %"alphabet::Error"* %self to %"alphabet::Error::NonAsciiCharacter"*, !dbg !2020
  %20 = getelementptr inbounds %"alphabet::Error::NonAsciiCharacter", %"alphabet::Error::NonAsciiCharacter"* %19, i32 0, i32 1, !dbg !2020
  %21 = load i64, i64* %20, align 8, !dbg !2020
  store i64 %21, i64* %index, align 8, !dbg !2020
  store i64* %index, i64** %_36, align 8, !dbg !2021
  %arg0 = load i64*, i64** %_36, align 8, !dbg !2021, !nonnull !4
  store i64* %arg0, i64** %arg0.dbg.spill, align 8, !dbg !2021
  call void @llvm.dbg.declare(metadata i64** %arg0.dbg.spill, metadata !1995, metadata !DIExpression()), !dbg !2022
; call core::fmt::ArgumentV1::new
  %22 = call { i8*, i64* } @_ZN4core3fmt10ArgumentV13new17h8663e96de68d35c7E(i64* align 8 dereferenceable(8) %arg0, i1 (i64*, %"core::fmt::Formatter"*)* nonnull @"_ZN4core3fmt3num3imp54_$LT$impl$u20$core..fmt..Display$u20$for$u20$usize$GT$3fmt17hcb6674a6899bd26aE"), !dbg !2022
  %_39.0 = extractvalue { i8*, i64* } %22, 0, !dbg !2022
  %_39.1 = extractvalue { i8*, i64* } %22, 1, !dbg !2022
  br label %bb8, !dbg !2022

bb8:                                              ; preds = %bb1
  %23 = bitcast [1 x { i8*, i64* }]* %_35 to { i8*, i64* }*, !dbg !2022
  %24 = getelementptr inbounds { i8*, i64* }, { i8*, i64* }* %23, i32 0, i32 0, !dbg !2022
  store i8* %_39.0, i8** %24, align 8, !dbg !2022
  %25 = getelementptr inbounds { i8*, i64* }, { i8*, i64* }* %23, i32 0, i32 1, !dbg !2022
  store i64* %_39.1, i64** %25, align 8, !dbg !2022
  store [1 x { i8*, i64* }]* %_35, [1 x { i8*, i64* }]** %args.dbg.spill, align 8, !dbg !2021
  call void @llvm.dbg.declare(metadata [1 x { i8*, i64* }]** %args.dbg.spill, metadata !1998, metadata !DIExpression()), !dbg !2023
  %_46.0 = bitcast [1 x { i8*, i64* }]* %_35 to [0 x { i8*, i64* }]*, !dbg !2023
; call core::fmt::Arguments::new_v1
  call void @_ZN4core3fmt9Arguments6new_v117h80b2eabf43a2b755E(%"core::fmt::Arguments"* noalias nocapture sret(%"core::fmt::Arguments") dereferenceable(48) %_34, [0 x { [0 x i8]*, i64 }]* nonnull align 8 bitcast (<{ i8*, [8 x i8] }>* @alloc378 to [0 x { [0 x i8]*, i64 }]*), i64 1, [0 x { i8*, i64* }]* nonnull align 8 %_46.0, i64 1), !dbg !2023
  br label %bb9, !dbg !2023

bb9:                                              ; preds = %bb8
; call core::fmt::Formatter::write_fmt
  %26 = call zeroext i1 @_ZN4core3fmt9Formatter9write_fmt17h332d1ec80fba6575E(%"core::fmt::Formatter"* align 8 dereferenceable(64) %f, %"core::fmt::Arguments"* noalias nocapture dereferenceable(48) %_34), !dbg !2021
  %27 = zext i1 %26 to i8, !dbg !2021
  store i8 %27, i8* %0, align 1, !dbg !2021
  br label %bb10, !dbg !2021

bb10:                                             ; preds = %bb7, %bb9
  %28 = load i8, i8* %0, align 1, !dbg !2024, !range !374
  %29 = trunc i8 %28 to i1, !dbg !2024
  ret i1 %29, !dbg !2024

bb4:                                              ; preds = %bb3
; call core::fmt::ArgumentV1::new
  %30 = call { i8*, i64* } @_ZN4core3fmt10ArgumentV13new17h8663e96de68d35c7E(i64* align 8 dereferenceable(8) %arg1, i1 (i64*, %"core::fmt::Formatter"*)* nonnull @"_ZN4core3fmt3num3imp54_$LT$impl$u20$core..fmt..Display$u20$for$u20$usize$GT$3fmt17hcb6674a6899bd26aE"), !dbg !2019
  %_20.0 = extractvalue { i8*, i64* } %30, 0, !dbg !2019
  %_20.1 = extractvalue { i8*, i64* } %30, 1, !dbg !2019
  br label %bb5, !dbg !2019

bb5:                                              ; preds = %bb4
; call core::fmt::ArgumentV1::new
  %31 = call { i8*, i64* } @_ZN4core3fmt10ArgumentV13new17h8663e96de68d35c7E(i64* align 8 dereferenceable(8) %arg2, i1 (i64*, %"core::fmt::Formatter"*)* nonnull @"_ZN4core3fmt3num3imp54_$LT$impl$u20$core..fmt..Display$u20$for$u20$usize$GT$3fmt17hcb6674a6899bd26aE"), !dbg !2019
  %_23.0 = extractvalue { i8*, i64* } %31, 0, !dbg !2019
  %_23.1 = extractvalue { i8*, i64* } %31, 1, !dbg !2019
  br label %bb6, !dbg !2019

bb6:                                              ; preds = %bb5
  %32 = bitcast [3 x { i8*, i64* }]* %_9 to { i8*, i64* }*, !dbg !2019
  %33 = getelementptr inbounds { i8*, i64* }, { i8*, i64* }* %32, i32 0, i32 0, !dbg !2019
  store i8* %_17.0, i8** %33, align 8, !dbg !2019
  %34 = getelementptr inbounds { i8*, i64* }, { i8*, i64* }* %32, i32 0, i32 1, !dbg !2019
  store i64* %_17.1, i64** %34, align 8, !dbg !2019
  %35 = getelementptr inbounds [3 x { i8*, i64* }], [3 x { i8*, i64* }]* %_9, i32 0, i32 1, !dbg !2019
  %36 = getelementptr inbounds { i8*, i64* }, { i8*, i64* }* %35, i32 0, i32 0, !dbg !2019
  store i8* %_20.0, i8** %36, align 8, !dbg !2019
  %37 = getelementptr inbounds { i8*, i64* }, { i8*, i64* }* %35, i32 0, i32 1, !dbg !2019
  store i64* %_20.1, i64** %37, align 8, !dbg !2019
  %38 = getelementptr inbounds [3 x { i8*, i64* }], [3 x { i8*, i64* }]* %_9, i32 0, i32 2, !dbg !2019
  %39 = getelementptr inbounds { i8*, i64* }, { i8*, i64* }* %38, i32 0, i32 0, !dbg !2019
  store i8* %_23.0, i8** %39, align 8, !dbg !2019
  %40 = getelementptr inbounds { i8*, i64* }, { i8*, i64* }* %38, i32 0, i32 1, !dbg !2019
  store i64* %_23.1, i64** %40, align 8, !dbg !2019
  store [3 x { i8*, i64* }]* %_9, [3 x { i8*, i64* }]** %args.dbg.spill3, align 8, !dbg !2018
  call void @llvm.dbg.declare(metadata [3 x { i8*, i64* }]** %args.dbg.spill3, metadata !1988, metadata !DIExpression()), !dbg !2025
  %_30.0 = bitcast [3 x { i8*, i64* }]* %_9 to [0 x { i8*, i64* }]*, !dbg !2025
; call core::fmt::Arguments::new_v1
  call void @_ZN4core3fmt9Arguments6new_v117h80b2eabf43a2b755E(%"core::fmt::Arguments"* noalias nocapture sret(%"core::fmt::Arguments") dereferenceable(48) %_8, [0 x { [0 x i8]*, i64 }]* nonnull align 8 bitcast (<{ i8*, [8 x i8], i8*, [8 x i8], i8*, [8 x i8] }>* @alloc373 to [0 x { [0 x i8]*, i64 }]*), i64 3, [0 x { i8*, i64* }]* nonnull align 8 %_30.0, i64 3), !dbg !2025
  br label %bb7, !dbg !2025

bb7:                                              ; preds = %bb6
; call core::fmt::Formatter::write_fmt
  %41 = call zeroext i1 @_ZN4core3fmt9Formatter9write_fmt17h332d1ec80fba6575E(%"core::fmt::Formatter"* align 8 dereferenceable(64) %f, %"core::fmt::Arguments"* noalias nocapture dereferenceable(48) %_8), !dbg !2018
  %42 = zext i1 %41 to i8, !dbg !2018
  store i8 %42, i8* %0, align 1, !dbg !2018
  br label %bb10, !dbg !2018
}

; bs58::decode::decode_into
; Function Attrs: nounwind
define void @_ZN4bs586decode11decode_into17h10e2da82b4254be0E(%"core::result::Result<usize, decode::Error>"* noalias nocapture sret(%"core::result::Result<usize, decode::Error>") dereferenceable(24) %0, [0 x i8]* nonnull align 1 %input.0, i64 %input.1, [0 x i8]* nonnull align 1 %output.0, i64 %output.1, %"alphabet::Alphabet"* align 1 dereferenceable(186) %alpha) unnamed_addr #1 !dbg !2026 {
start:
  %byte.dbg.spill18 = alloca i8*, align 8
  %val.dbg.spill17 = alloca i8*, align 8
  %__next.dbg.spill15 = alloca i8*, align 8
  %val.dbg.spill14 = alloca i8*, align 8
  %byte.dbg.spill11 = alloca i8*, align 8
  %val.dbg.spill10 = alloca i8*, align 8
  %byte.dbg.spill = alloca i8*, align 8
  %__next.dbg.spill6 = alloca i8*, align 8
  %val.dbg.spill5 = alloca i8*, align 8
  %c.dbg.spill = alloca i8*, align 8
  %i.dbg.spill = alloca i64, align 8
  %__next.dbg.spill = alloca { i64, i8* }, align 8
  %val.dbg.spill = alloca { i64, i8* }, align 8
  %alpha.dbg.spill = alloca %"alphabet::Alphabet"*, align 8
  %output.dbg.spill = alloca { [0 x i8]*, i64 }, align 8
  %input.dbg.spill = alloca { [0 x i8]*, i64 }, align 8
  %_106 = alloca i64, align 8
  %_99 = alloca %"core::result::Result<core::convert::Infallible, decode::Error>::Err", align 8
  %residual3 = alloca %"core::result::Result<core::convert::Infallible, decode::Error>::Err", align 8
  %_96 = alloca %"decode::Error", align 8
  %_92 = alloca %"core::result::Result<&mut u8, decode::Error>", align 8
  %_91 = alloca %"core::ops::ControlFlow<core::result::Result<core::convert::Infallible, decode::Error>, &mut u8>", align 8
  %_84 = alloca i8*, align 8
  %iter2 = alloca %"core::iter::TakeWhile<core::slice::Iter<u8>, [closure@/home/seaceved/.cargo/registry/src/github.com-1ecc6299db9ec823/bs58-0.4.0/src/decode.rs:226:38: 226:53]>", align 8
  %_80 = alloca i8*, align 8
  %_77 = alloca %"core::iter::TakeWhile<core::slice::Iter<u8>, [closure@/home/seaceved/.cargo/registry/src/github.com-1ecc6299db9ec823/bs58-0.4.0/src/decode.rs:226:38: 226:53]>", align 8
  %_76 = alloca %"core::iter::TakeWhile<core::slice::Iter<u8>, [closure@/home/seaceved/.cargo/registry/src/github.com-1ecc6299db9ec823/bs58-0.4.0/src/decode.rs:226:38: 226:53]>", align 8
  %_70 = alloca %"core::result::Result<core::convert::Infallible, decode::Error>::Err", align 8
  %residual = alloca %"core::result::Result<core::convert::Infallible, decode::Error>::Err", align 8
  %_67 = alloca %"decode::Error", align 8
  %_63 = alloca %"core::result::Result<&mut u8, decode::Error>", align 8
  %_62 = alloca %"core::ops::ControlFlow<core::result::Result<core::convert::Infallible, decode::Error>, &mut u8>", align 8
  %_44 = alloca i8*, align 8
  %iter1 = alloca { i8*, i8* }, align 8
  %_40 = alloca i64, align 8
  %_32 = alloca %"decode::Error", align 8
  %val = alloca i64, align 8
  %_23 = alloca %"decode::Error", align 8
  %_13 = alloca { i64, i8* }, align 8
  %iter = alloca %"core::iter::Enumerate<core::slice::Iter<u8>>", align 8
  %_8 = alloca %"core::iter::Enumerate<core::slice::Iter<u8>>", align 8
  %_7 = alloca %"core::iter::Enumerate<core::slice::Iter<u8>>", align 8
  %zero = alloca i8, align 1
  %index = alloca i64, align 8
  %1 = getelementptr inbounds { [0 x i8]*, i64 }, { [0 x i8]*, i64 }* %input.dbg.spill, i32 0, i32 0
  store [0 x i8]* %input.0, [0 x i8]** %1, align 8
  %2 = getelementptr inbounds { [0 x i8]*, i64 }, { [0 x i8]*, i64 }* %input.dbg.spill, i32 0, i32 1
  store i64 %input.1, i64* %2, align 8
  call void @llvm.dbg.declare(metadata { [0 x i8]*, i64 }* %input.dbg.spill, metadata !2031, metadata !DIExpression()), !dbg !2075
  %3 = getelementptr inbounds { [0 x i8]*, i64 }, { [0 x i8]*, i64 }* %output.dbg.spill, i32 0, i32 0
  store [0 x i8]* %output.0, [0 x i8]** %3, align 8
  %4 = getelementptr inbounds { [0 x i8]*, i64 }, { [0 x i8]*, i64 }* %output.dbg.spill, i32 0, i32 1
  store i64 %output.1, i64* %4, align 8
  call void @llvm.dbg.declare(metadata { [0 x i8]*, i64 }* %output.dbg.spill, metadata !2032, metadata !DIExpression()), !dbg !2076
  store %"alphabet::Alphabet"* %alpha, %"alphabet::Alphabet"** %alpha.dbg.spill, align 8
  call void @llvm.dbg.declare(metadata %"alphabet::Alphabet"** %alpha.dbg.spill, metadata !2033, metadata !DIExpression()), !dbg !2077
  call void @llvm.dbg.declare(metadata i64* %index, metadata !2034, metadata !DIExpression()), !dbg !2078
  call void @llvm.dbg.declare(metadata i8* %zero, metadata !2036, metadata !DIExpression()), !dbg !2079
  call void @llvm.dbg.declare(metadata %"core::iter::Enumerate<core::slice::Iter<u8>>"* %iter, metadata !2038, metadata !DIExpression()), !dbg !2080
  call void @llvm.dbg.declare(metadata i64* %val, metadata !2047, metadata !DIExpression()), !dbg !2081
  call void @llvm.dbg.declare(metadata { i8*, i8* }* %iter1, metadata !2049, metadata !DIExpression()), !dbg !2082
  call void @llvm.dbg.declare(metadata %"core::result::Result<core::convert::Infallible, decode::Error>::Err"* %residual, metadata !2059, metadata !DIExpression()), !dbg !2083
  call void @llvm.dbg.declare(metadata %"core::iter::TakeWhile<core::slice::Iter<u8>, [closure@/home/seaceved/.cargo/registry/src/github.com-1ecc6299db9ec823/bs58-0.4.0/src/decode.rs:226:38: 226:53]>"* %iter2, metadata !2063, metadata !DIExpression()), !dbg !2084
  call void @llvm.dbg.declare(metadata %"core::result::Result<core::convert::Infallible, decode::Error>::Err"* %residual3, metadata !2071, metadata !DIExpression()), !dbg !2085
  store i64 0, i64* %index, align 8, !dbg !2086
  %5 = bitcast %"alphabet::Alphabet"* %alpha to [58 x i8]*, !dbg !2087
  %6 = getelementptr inbounds [58 x i8], [58 x i8]* %5, i64 0, i64 0, !dbg !2087
  %7 = load i8, i8* %6, align 1, !dbg !2087
  store i8 %7, i8* %zero, align 1, !dbg !2087
; call core::slice::<impl [T]>::iter
  %8 = call { i8*, i8* } @"_ZN4core5slice29_$LT$impl$u20$$u5b$T$u5d$$GT$4iter17hf87eee2ae8ff29baE"([0 x i8]* nonnull align 1 %input.0, i64 %input.1), !dbg !2088
  %_9.0 = extractvalue { i8*, i8* } %8, 0, !dbg !2088
  %_9.1 = extractvalue { i8*, i8* } %8, 1, !dbg !2088
  br label %bb1, !dbg !2088

bb1:                                              ; preds = %start
; call core::iter::traits::iterator::Iterator::enumerate
  call void @_ZN4core4iter6traits8iterator8Iterator9enumerate17hdb899492825e7fbcE(%"core::iter::Enumerate<core::slice::Iter<u8>>"* noalias nocapture sret(%"core::iter::Enumerate<core::slice::Iter<u8>>") dereferenceable(24) %_8, i8* nonnull %_9.0, i8* %_9.1), !dbg !2088
  br label %bb2, !dbg !2088

bb2:                                              ; preds = %bb1
; call <I as core::iter::traits::collect::IntoIterator>::into_iter
  call void @"_ZN63_$LT$I$u20$as$u20$core..iter..traits..collect..IntoIterator$GT$9into_iter17hfea5a458a007c524E"(%"core::iter::Enumerate<core::slice::Iter<u8>>"* noalias nocapture sret(%"core::iter::Enumerate<core::slice::Iter<u8>>") dereferenceable(24) %_7, %"core::iter::Enumerate<core::slice::Iter<u8>>"* noalias nocapture dereferenceable(24) %_8), !dbg !2088
  br label %bb3, !dbg !2088

bb3:                                              ; preds = %bb2
  %9 = bitcast %"core::iter::Enumerate<core::slice::Iter<u8>>"* %iter to i8*, !dbg !2088
  %10 = bitcast %"core::iter::Enumerate<core::slice::Iter<u8>>"* %_7 to i8*, !dbg !2088
  call void @llvm.memcpy.p0i8.p0i8.i64(i8* align 8 %9, i8* align 8 %10, i64 24, i1 false), !dbg !2088
  br label %bb4, !dbg !2089

bb4:                                              ; preds = %bb23, %bb3
; call <core::iter::adapters::enumerate::Enumerate<I> as core::iter::traits::iterator::Iterator>::next
  %11 = call { i64, i8* } @"_ZN110_$LT$core..iter..adapters..enumerate..Enumerate$LT$I$GT$$u20$as$u20$core..iter..traits..iterator..Iterator$GT$4next17hb3f26e78566e0a63E"(%"core::iter::Enumerate<core::slice::Iter<u8>>"* align 8 dereferenceable(24) %iter), !dbg !2090
  store { i64, i8* } %11, { i64, i8* }* %_13, align 8, !dbg !2090
  br label %bb5, !dbg !2090

bb5:                                              ; preds = %bb4
  %12 = getelementptr inbounds { i64, i8* }, { i64, i8* }* %_13, i32 0, i32 1, !dbg !2090
  %13 = bitcast i8** %12 to {}**, !dbg !2090
  %14 = load {}*, {}** %13, align 8, !dbg !2090
  %15 = icmp eq {}* %14, null, !dbg !2090
  %_16 = select i1 %15, i64 0, i64 1, !dbg !2090
  switch i64 %_16, label %bb7 [
    i64 0, label %bb6
    i64 1, label %bb8
  ], !dbg !2090

bb7:                                              ; preds = %bb5
  unreachable, !dbg !2090

bb6:                                              ; preds = %bb5
; call core::slice::<impl [T]>::iter
  %16 = call { i8*, i8* } @"_ZN4core5slice29_$LT$impl$u20$$u5b$T$u5d$$GT$4iter17hf87eee2ae8ff29baE"([0 x i8]* nonnull align 1 %input.0, i64 %input.1), !dbg !2091
  %_78.0 = extractvalue { i8*, i8* } %16, 0, !dbg !2091
  %_78.1 = extractvalue { i8*, i8* } %16, 1, !dbg !2091
  br label %bb33, !dbg !2091

bb8:                                              ; preds = %bb5
  %17 = getelementptr inbounds { i64, i8* }, { i64, i8* }* %_13, i32 0, i32 0, !dbg !2092
  %val.0 = load i64, i64* %17, align 8, !dbg !2092
  %18 = getelementptr inbounds { i64, i8* }, { i64, i8* }* %_13, i32 0, i32 1, !dbg !2092
  %val.1 = load i8*, i8** %18, align 8, !dbg !2092, !nonnull !4
  %19 = getelementptr inbounds { i64, i8* }, { i64, i8* }* %val.dbg.spill, i32 0, i32 0, !dbg !2092
  store i64 %val.0, i64* %19, align 8, !dbg !2092
  %20 = getelementptr inbounds { i64, i8* }, { i64, i8* }* %val.dbg.spill, i32 0, i32 1, !dbg !2092
  store i8* %val.1, i8** %20, align 8, !dbg !2092
  call void @llvm.dbg.declare(metadata { i64, i8* }* %val.dbg.spill, metadata !2042, metadata !DIExpression()), !dbg !2093
  %21 = getelementptr inbounds { i64, i8* }, { i64, i8* }* %__next.dbg.spill, i32 0, i32 0, !dbg !2093
  store i64 %val.0, i64* %21, align 8, !dbg !2093
  %22 = getelementptr inbounds { i64, i8* }, { i64, i8* }* %__next.dbg.spill, i32 0, i32 1, !dbg !2093
  store i8* %val.1, i8** %22, align 8, !dbg !2093
  call void @llvm.dbg.declare(metadata { i64, i8* }* %__next.dbg.spill, metadata !2040, metadata !DIExpression()), !dbg !2090
  store i64 %val.0, i64* %i.dbg.spill, align 8, !dbg !2094
  call void @llvm.dbg.declare(metadata i64* %i.dbg.spill, metadata !2044, metadata !DIExpression()), !dbg !2095
  store i8* %val.1, i8** %c.dbg.spill, align 8, !dbg !2096
  call void @llvm.dbg.declare(metadata i8** %c.dbg.spill, metadata !2046, metadata !DIExpression()), !dbg !2097
  %_22 = load i8, i8* %val.1, align 1, !dbg !2098
  %_21 = icmp ugt i8 %_22, 127, !dbg !2098
  br i1 %_21, label %bb9, label %bb10, !dbg !2098

bb10:                                             ; preds = %bb8
  %_28 = load i8, i8* %val.1, align 1, !dbg !2099
  %_27 = zext i8 %_28 to i64, !dbg !2099
  %_30 = icmp ult i64 %_27, 128, !dbg !2100
  %23 = call i1 @llvm.expect.i1(i1 %_30, i1 true), !dbg !2100
  br i1 %23, label %bb11, label %panic, !dbg !2100

bb9:                                              ; preds = %bb8
  %24 = bitcast %"decode::Error"* %_23 to %"decode::Error::NonAsciiCharacter"*, !dbg !2101
  %25 = getelementptr inbounds %"decode::Error::NonAsciiCharacter", %"decode::Error::NonAsciiCharacter"* %24, i32 0, i32 1, !dbg !2101
  store i64 %val.0, i64* %25, align 8, !dbg !2101
  %26 = bitcast %"decode::Error"* %_23 to i32*, !dbg !2101
  store i32 2, i32* %26, align 8, !dbg !2101
  %27 = bitcast %"core::result::Result<usize, decode::Error>"* %0 to %"core::result::Result<usize, decode::Error>::Err"*, !dbg !2102
  %28 = getelementptr inbounds %"core::result::Result<usize, decode::Error>::Err", %"core::result::Result<usize, decode::Error>::Err"* %27, i32 0, i32 1, !dbg !2102
  %29 = bitcast %"decode::Error"* %28 to i8*, !dbg !2102
  %30 = bitcast %"decode::Error"* %_23 to i8*, !dbg !2102
  call void @llvm.memcpy.p0i8.p0i8.i64(i8* align 8 %29, i8* align 8 %30, i64 16, i1 false), !dbg !2102
  %31 = bitcast %"core::result::Result<usize, decode::Error>"* %0 to i64*, !dbg !2102
  store i64 1, i64* %31, align 8, !dbg !2102
  br label %bb50, !dbg !2103

bb50:                                             ; preds = %bb49, %bb46, %bb12, %bb30, %bb9
  ret void, !dbg !2105

bb11:                                             ; preds = %bb10
  %32 = getelementptr inbounds %"alphabet::Alphabet", %"alphabet::Alphabet"* %alpha, i32 0, i32 1, !dbg !2100
  %33 = getelementptr inbounds [128 x i8], [128 x i8]* %32, i64 0, i64 %_27, !dbg !2100
  %_26 = load i8, i8* %33, align 1, !dbg !2100
  %34 = zext i8 %_26 to i64, !dbg !2100
  store i64 %34, i64* %val, align 8, !dbg !2100
  %_31 = load i64, i64* %val, align 8, !dbg !2106
  %35 = icmp eq i64 %_31, 255, !dbg !2106
  br i1 %35, label %bb12, label %bb13, !dbg !2106

panic:                                            ; preds = %bb10
; call core::panicking::panic_bounds_check
  call void @_ZN4core9panicking18panic_bounds_check17h865b4c1c7f870517E(i64 %_27, i64 128, %"core::panic::Location"* align 8 dereferenceable(24) bitcast (<{ i8*, [16 x i8] }>* @alloc493 to %"core::panic::Location"*)), !dbg !2100
  unreachable, !dbg !2100

bb12:                                             ; preds = %bb11
  %_34 = load i8, i8* %val.1, align 1, !dbg !2107
  %_33 = zext i8 %_34 to i32, !dbg !2107
  %36 = bitcast %"decode::Error"* %_32 to %"decode::Error::InvalidCharacter"*, !dbg !2108
  %37 = getelementptr inbounds %"decode::Error::InvalidCharacter", %"decode::Error::InvalidCharacter"* %36, i32 0, i32 1, !dbg !2108
  store i32 %_33, i32* %37, align 4, !dbg !2108
  %38 = bitcast %"decode::Error"* %_32 to %"decode::Error::InvalidCharacter"*, !dbg !2108
  %39 = getelementptr inbounds %"decode::Error::InvalidCharacter", %"decode::Error::InvalidCharacter"* %38, i32 0, i32 2, !dbg !2108
  store i64 %val.0, i64* %39, align 8, !dbg !2108
  %40 = bitcast %"decode::Error"* %_32 to i32*, !dbg !2108
  store i32 1, i32* %40, align 8, !dbg !2108
  %41 = bitcast %"core::result::Result<usize, decode::Error>"* %0 to %"core::result::Result<usize, decode::Error>::Err"*, !dbg !2109
  %42 = getelementptr inbounds %"core::result::Result<usize, decode::Error>::Err", %"core::result::Result<usize, decode::Error>::Err"* %41, i32 0, i32 1, !dbg !2109
  %43 = bitcast %"decode::Error"* %42 to i8*, !dbg !2109
  %44 = bitcast %"decode::Error"* %_32 to i8*, !dbg !2109
  call void @llvm.memcpy.p0i8.p0i8.i64(i8* align 8 %43, i8* align 8 %44, i64 16, i1 false), !dbg !2109
  %45 = bitcast %"core::result::Result<usize, decode::Error>"* %0 to i64*, !dbg !2109
  store i64 1, i64* %45, align 8, !dbg !2109
  br label %bb50, !dbg !2110

bb13:                                             ; preds = %bb11
  %_41 = load i64, i64* %index, align 8, !dbg !2112
  store i64 %_41, i64* %_40, align 8, !dbg !2113
  %46 = load i64, i64* %_40, align 8, !dbg !2114
; call core::slice::index::<impl core::ops::index::IndexMut<I> for [T]>::index_mut
  %47 = call { [0 x i8]*, i64 } @"_ZN4core5slice5index77_$LT$impl$u20$core..ops..index..IndexMut$LT$I$GT$$u20$for$u20$$u5b$T$u5d$$GT$9index_mut17ha88eac6bdddcd5f9E"([0 x i8]* nonnull align 1 %output.0, i64 %output.1, i64 %46, %"core::panic::Location"* align 8 dereferenceable(24) bitcast (<{ i8*, [16 x i8] }>* @alloc495 to %"core::panic::Location"*)), !dbg !2114
  %_38.0 = extractvalue { [0 x i8]*, i64 } %47, 0, !dbg !2114
  %_38.1 = extractvalue { [0 x i8]*, i64 } %47, 1, !dbg !2114
  br label %bb14, !dbg !2114

bb14:                                             ; preds = %bb13
; call core::slice::iter::<impl core::iter::traits::collect::IntoIterator for &mut [T]>::into_iter
  %48 = call { i8*, i8* } @"_ZN4core5slice4iter95_$LT$impl$u20$core..iter..traits..collect..IntoIterator$u20$for$u20$$RF$mut$u20$$u5b$T$u5d$$GT$9into_iter17ha4f35ea5c52aa541E"([0 x i8]* nonnull align 1 %_38.0, i64 %_38.1), !dbg !2115
  %_36.0 = extractvalue { i8*, i8* } %48, 0, !dbg !2115
  %_36.1 = extractvalue { i8*, i8* } %48, 1, !dbg !2115
  br label %bb15, !dbg !2115

bb15:                                             ; preds = %bb14
  %49 = getelementptr inbounds { i8*, i8* }, { i8*, i8* }* %iter1, i32 0, i32 0, !dbg !2115
  store i8* %_36.0, i8** %49, align 8, !dbg !2115
  %50 = getelementptr inbounds { i8*, i8* }, { i8*, i8* }* %iter1, i32 0, i32 1, !dbg !2115
  store i8* %_36.1, i8** %50, align 8, !dbg !2115
  br label %bb16, !dbg !2116

bb16:                                             ; preds = %bb22, %bb15
; call <core::slice::iter::IterMut<T> as core::iter::traits::iterator::Iterator>::next
  %51 = call align 1 dereferenceable_or_null(1) i8* @"_ZN94_$LT$core..slice..iter..IterMut$LT$T$GT$$u20$as$u20$core..iter..traits..iterator..Iterator$GT$4next17h29463f6ab3c34ce9E"({ i8*, i8* }* align 8 dereferenceable(16) %iter1), !dbg !2117
  store i8* %51, i8** %_44, align 8, !dbg !2117
  br label %bb17, !dbg !2117

bb17:                                             ; preds = %bb16
  %52 = bitcast i8** %_44 to {}**, !dbg !2117
  %53 = load {}*, {}** %52, align 8, !dbg !2117
  %54 = icmp eq {}* %53, null, !dbg !2117
  %_47 = select i1 %54, i64 0, i64 1, !dbg !2117
  switch i64 %_47, label %bb18 [
    i64 0, label %bb23
    i64 1, label %bb19
  ], !dbg !2117

