; ModuleID = 'serde_bytes.63f9039b-cgu.0'
source_filename = "serde_bytes.63f9039b-cgu.0"
target datalayout = "e-m:e-p:64:64-i64:64-n32:64-S128"
target triple = "bpfel"

%"std::result::Result<(std::alloc::Layout, usize), std::alloc::LayoutError>" = type { [1 x i64], i64, [1 x i64] }
%"std::alloc::LayoutError" = type {}
%"std::result::Result<std::convert::Infallible, std::alloc::LayoutError>::Err" = type { %"std::alloc::LayoutError" }
%"std::result::Result<(std::alloc::Layout, usize), std::alloc::LayoutError>::Err" = type { %"std::alloc::LayoutError" }
%"std::result::Result<std::alloc::Layout, std::alloc::LayoutError>::Err" = type { %"std::alloc::LayoutError" }
%"std::alloc::AllocError" = type {}
%"std::result::Result<std::convert::Infallible, std::alloc::AllocError>::Err" = type { %"std::alloc::AllocError" }
%"std::result::Result<std::ptr::NonNull<[u8]>, std::alloc::AllocError>::Err" = type { %"std::alloc::AllocError" }
%"std::result::Result<(), std::collections::TryReserveError>" = type { i64, [2 x i64] }
%"std::result::Result<(), std::collections::TryReserveError>::Err" = type { [1 x i64], { i64, i64 } }
%"std::option::Option<usize>::Some" = type { [1 x i64], i64 }
%"std::alloc::Global" = type {}
%"std::mem::MaybeUninit<std::alloc::Global>" = type { [0 x i8] }
%"std::mem::ManuallyDrop<std::alloc::Global>" = type { %"std::alloc::Global" }
%"bytes::Bytes" = type { [0 x i8] }
%"std::ptr::metadata::PtrRepr<[std::mem::MaybeUninit<u8>]>" = type { [2 x i64] }
%"std::panic::Location" = type { { [0 x i8]*, i64 }, i32, i32 }
%"std::ops::ControlFlow<std::result::Result<std::convert::Infallible, std::alloc::LayoutError>, (std::alloc::Layout, usize)>" = type { [1 x i64], i64, [1 x i64] }
%"std::ops::ControlFlow<std::result::Result<std::convert::Infallible, std::alloc::LayoutError>, (std::alloc::Layout, usize)>::Continue" = type { { { i64, i64 }, i64 } }
%"std::ops::ControlFlow<std::result::Result<std::convert::Infallible, std::alloc::LayoutError>, usize>::Continue" = type { [1 x i64], i64 }
%"std::result::Result<(std::alloc::Layout, usize), std::alloc::LayoutError>::Ok" = type { { { i64, i64 }, i64 } }
%"std::result::Result<usize, std::alloc::LayoutError>::Err" = type { [8 x i8], %"std::alloc::LayoutError" }
%"std::result::Result<usize, std::alloc::LayoutError>::Ok" = type { [1 x i64], i64 }
%"std::result::Result<std::ptr::NonNull<u8>, std::alloc::AllocError>::Err" = type { %"std::alloc::AllocError" }
%"std::result::Result<std::ptr::NonNull<[u8]>, std::collections::TryReserveErrorKind>" = type { i64, [2 x i64] }
%"std::result::Result<std::ptr::NonNull<[u8]>, std::collections::TryReserveErrorKind>::Ok" = type { [1 x i64], { i8*, i64 } }
%"std::result::Result<std::ptr::NonNull<[u8]>, std::collections::TryReserveErrorKind>::Err" = type { [1 x i64], { i64, i64 } }
%"std::result::Result<(), std::collections::TryReserveErrorKind>" = type { i64, [2 x i64] }
%"[closure@alloc::raw_vec::handle_reserve::{closure#0}]" = type {}
%"std::result::Result<(), std::collections::TryReserveErrorKind>::Ok" = type { [8 x i8], {} }
%"std::result::Result<(), std::collections::TryReserveErrorKind>::Err" = type { [1 x i64], { i64, i64 } }
%"std::vec::Vec<u8>" = type { { i8*, i64 }, i64 }
%"std::mem::ManuallyDrop<std::vec::Vec<u8>>" = type { %"std::vec::Vec<u8>" }
%"std::option::Option<(std::ptr::NonNull<u8>, std::alloc::Layout)>" = type { {}*, [2 x i64] }
%"std::option::Option<(std::ptr::NonNull<u8>, std::alloc::Layout)>::Some" = type { { i8*, { i64, i64 } } }
%"std::ops::ControlFlow<std::result::Result<std::convert::Infallible, std::collections::TryReserveErrorKind>, std::ptr::NonNull<[u8]>>" = type { i64, [2 x i64] }
%"std::ops::ControlFlow<std::result::Result<std::convert::Infallible, std::collections::TryReserveErrorKind>, std::ptr::NonNull<[u8]>>::Continue" = type { [1 x i64], { i8*, i64 } }
%"std::ops::ControlFlow<std::result::Result<std::convert::Infallible, std::collections::TryReserveErrorKind>, std::ptr::NonNull<[u8]>>::Break" = type { [1 x i64], { i64, i64 } }
%"std::ops::ControlFlow<std::result::Result<std::convert::Infallible, std::alloc::LayoutError>, usize>::Break" = type { [8 x i8], %"std::result::Result<std::convert::Infallible, std::alloc::LayoutError>::Err" }
%"std::ops::ControlFlow<std::result::Result<std::convert::Infallible, std::alloc::AllocError>, std::ptr::NonNull<[u8]>>::Break" = type { %"std::result::Result<std::convert::Infallible, std::alloc::AllocError>::Err" }
%"std::ops::ControlFlow<std::result::Result<std::convert::Infallible, std::alloc::AllocError>, std::ptr::NonNull<u8>>::Break" = type { %"std::result::Result<std::convert::Infallible, std::alloc::AllocError>::Err" }
%"std::ops::ControlFlow<std::result::Result<std::convert::Infallible, std::alloc::LayoutError>, (std::alloc::Layout, usize)>::Break" = type { %"std::result::Result<std::convert::Infallible, std::alloc::LayoutError>::Err" }
%"std::vec::IntoIter<u8>" = type { %"std::marker::PhantomData<u8>", %"std::alloc::Global", i8*, i64, i8*, i8* }
%"std::marker::PhantomData<u8>" = type {}
%"std::fmt::Formatter" = type { { i64, i64 }, { i64, i64 }, { {}*, [3 x i64]* }, i32, i32, i8, [7 x i8] }
%"bytebuf::ByteBuf" = type { %"std::vec::Vec<u8>" }
%"bytes::BytesVisitor" = type {}
%"<std::borrow::Cow<'a, [u8]> as de::Deserialize<'de>>::deserialize::CowVisitor" = type {}
%"bytebuf::ByteBufVisitor" = type {}

@alloc86 = private unnamed_addr constant <{ [74 x i8] }> <{ [74 x i8] c"/home/runner/work/bpf-tools/bpf-tools/out/rust/library/core/src/ptr/mod.rs" }>, align 1
@alloc87 = private unnamed_addr constant <{ i8*, [16 x i8] }> <{ i8* getelementptr inbounds (<{ [74 x i8] }>, <{ [74 x i8] }>* @alloc86, i32 0, i32 0, i32 0), [16 x i8] c"J\00\00\00\00\00\00\00\BC\02\00\00\0D\00\00\00" }>, align 8
@alloc88 = private unnamed_addr constant <{ [79 x i8] }> <{ [79 x i8] c"/home/runner/work/bpf-tools/bpf-tools/out/rust/library/core/src/alloc/layout.rs" }>, align 1
@alloc89 = private unnamed_addr constant <{ i8*, [16 x i8] }> <{ i8* getelementptr inbounds (<{ [79 x i8] }>, <{ [79 x i8] }>* @alloc88, i32 0, i32 0, i32 0), [16 x i8] c"O\00\00\00\00\00\00\00\10\01\00\009\00\00\00" }>, align 8
@alloc90 = private unnamed_addr constant <{ [43 x i8] }> <{ [43 x i8] c"called `Result::unwrap()` on an `Err` value" }>, align 1
@vtable.0 = private unnamed_addr constant <{ i8*, [16 x i8], i8*, [0 x i8] }> <{ i8* bitcast (void (%"std::alloc::LayoutError"*)* @"_ZN4core3ptr53drop_in_place$LT$core..alloc..layout..LayoutError$GT$17h65e097f9617b0f19E" to i8*), [16 x i8] c"\00\00\00\00\00\00\00\00\01\00\00\00\00\00\00\00", i8* bitcast (i1 (%"std::alloc::LayoutError"*, %"std::fmt::Formatter"*)* @"_ZN69_$LT$core..alloc..layout..LayoutError$u20$as$u20$core..fmt..Debug$GT$3fmt17hdaf89633c8bfad9eE" to i8*), [0 x i8] zeroinitializer }>, align 8, !dbg !0
@0 = private unnamed_addr constant <{ [16 x i8] }> <{ [16 x i8] c"\01\00\00\00\00\00\00\00\00\00\00\00\00\00\00\00" }>, align 8
@alloc97 = private unnamed_addr constant <{ [75 x i8] }> <{ [75 x i8] c"/home/runner/work/bpf-tools/bpf-tools/out/rust/library/alloc/src/raw_vec.rs" }>, align 1
@alloc95 = private unnamed_addr constant <{ i8*, [16 x i8] }> <{ i8* getelementptr inbounds (<{ [75 x i8] }>, <{ [75 x i8] }>* @alloc97, i32 0, i32 0, i32 0), [16 x i8] c"K\00\00\00\00\00\00\00\97\01\00\00\09\00\00\00" }>, align 8
@str.1 = internal constant [25 x i8] c"attempt to divide by zero"
@alloc96 = private unnamed_addr constant <{ [36 x i8] }> <{ [36 x i8] c"Tried to shrink to a larger capacity" }>, align 1
@alloc98 = private unnamed_addr constant <{ i8*, [16 x i8] }> <{ i8* getelementptr inbounds (<{ [75 x i8] }>, <{ [75 x i8] }>* @alloc97, i32 0, i32 0, i32 0), [16 x i8] c"K\00\00\00\00\00\00\00\D4\01\00\00\09\00\00\00" }>, align 8
@alloc54 = private unnamed_addr constant <{ [0 x i8] }> zeroinitializer, align 1
@alloc99 = private unnamed_addr constant <{ [21 x i8] }> <{ [21 x i8] c"a borrowed byte array" }>, align 1
@alloc100 = private unnamed_addr constant <{ [12 x i8] }> <{ [12 x i8] c"a byte array" }>, align 1
@alloc101 = private unnamed_addr constant <{ [10 x i8] }> <{ [10 x i8] c"byte array" }>, align 1

; <alloc::collections::TryReserveError as core::convert::From<alloc::collections::TryReserveErrorKind>>::from
; Function Attrs: inlinehint nounwind
define internal { i64, i64 } @"_ZN122_$LT$alloc..collections..TryReserveError$u20$as$u20$core..convert..From$LT$alloc..collections..TryReserveErrorKind$GT$$GT$4from17h67bb5bff01fb0302E"(i64 %kind.0, i64 %kind.1) unnamed_addr #0 !dbg !42 {
start:
  %kind.dbg.spill = alloca { i64, i64 }, align 8
  %0 = alloca { i64, i64 }, align 8
  %1 = getelementptr inbounds { i64, i64 }, { i64, i64 }* %kind.dbg.spill, i32 0, i32 0
  store i64 %kind.0, i64* %1, align 8
  %2 = getelementptr inbounds { i64, i64 }, { i64, i64 }* %kind.dbg.spill, i32 0, i32 1
  store i64 %kind.1, i64* %2, align 8
  call void @llvm.dbg.declare(metadata { i64, i64 }* %kind.dbg.spill, metadata !76, metadata !DIExpression()), !dbg !77
  %3 = getelementptr inbounds { i64, i64 }, { i64, i64 }* %0, i32 0, i32 0, !dbg !78
  store i64 %kind.0, i64* %3, align 8, !dbg !78
  %4 = getelementptr inbounds { i64, i64 }, { i64, i64 }* %0, i32 0, i32 1, !dbg !78
  store i64 %kind.1, i64* %4, align 8, !dbg !78
  %5 = getelementptr inbounds { i64, i64 }, { i64, i64 }* %0, i32 0, i32 0, !dbg !79
  %6 = load i64, i64* %5, align 8, !dbg !79
  %7 = getelementptr inbounds { i64, i64 }, { i64, i64 }* %0, i32 0, i32 1, !dbg !79
  %8 = load i64, i64* %7, align 8, !dbg !79
  %9 = insertvalue { i64, i64 } undef, i64 %6, 0, !dbg !79
  %10 = insertvalue { i64, i64 } %9, i64 %8, 1, !dbg !79
  ret { i64, i64 } %10, !dbg !79
}

; <core::result::Result<T,F> as core::ops::try_trait::FromResidual<core::result::Result<core::convert::Infallible,E>>>::from_residual
; Function Attrs: inlinehint nounwind
define void @"_ZN153_$LT$core..result..Result$LT$T$C$F$GT$$u20$as$u20$core..ops..try_trait..FromResidual$LT$core..result..Result$LT$core..convert..Infallible$C$E$GT$$GT$$GT$13from_residual17h574ef96c700c255cE"(%"std::result::Result<(std::alloc::Layout, usize), std::alloc::LayoutError>"* noalias nocapture sret(%"std::result::Result<(std::alloc::Layout, usize), std::alloc::LayoutError>") dereferenceable(24) %0) unnamed_addr #0 !dbg !80 {
start:
  %e.dbg.spill = alloca %"std::alloc::LayoutError", align 1
  %residual.dbg.spill = alloca %"std::result::Result<std::convert::Infallible, std::alloc::LayoutError>::Err", align 1
  call void @llvm.dbg.declare(metadata %"std::result::Result<std::convert::Infallible, std::alloc::LayoutError>::Err"* %residual.dbg.spill, metadata !120, metadata !DIExpression()), !dbg !125
  call void @llvm.dbg.declare(metadata %"std::alloc::LayoutError"* %e.dbg.spill, metadata !121, metadata !DIExpression()), !dbg !126
; call <T as core::convert::From<T>>::from
  call void @"_ZN50_$LT$T$u20$as$u20$core..convert..From$LT$T$GT$$GT$4from17h4f9babcba7ee7c41E"(), !dbg !127
  br label %bb1, !dbg !127

bb1:                                              ; preds = %start
  %1 = bitcast %"std::result::Result<(std::alloc::Layout, usize), std::alloc::LayoutError>"* %0 to %"std::result::Result<(std::alloc::Layout, usize), std::alloc::LayoutError>::Err"*, !dbg !128
  %2 = bitcast %"std::result::Result<(std::alloc::Layout, usize), std::alloc::LayoutError>::Err"* %1 to %"std::alloc::LayoutError"*, !dbg !128
  %3 = getelementptr inbounds %"std::result::Result<(std::alloc::Layout, usize), std::alloc::LayoutError>", %"std::result::Result<(std::alloc::Layout, usize), std::alloc::LayoutError>"* %0, i32 0, i32 1, !dbg !128
  store i64 0, i64* %3, align 8, !dbg !128
  ret void, !dbg !129
}

; <core::result::Result<T,F> as core::ops::try_trait::FromResidual<core::result::Result<core::convert::Infallible,E>>>::from_residual
; Function Attrs: inlinehint nounwind
define { i64, i64 } @"_ZN153_$LT$core..result..Result$LT$T$C$F$GT$$u20$as$u20$core..ops..try_trait..FromResidual$LT$core..result..Result$LT$core..convert..Infallible$C$E$GT$$GT$$GT$13from_residual17hbc8bdea06a5b6fb2E"() unnamed_addr #0 !dbg !130 {
start:
  %e.dbg.spill = alloca %"std::alloc::LayoutError", align 1
  %residual.dbg.spill = alloca %"std::result::Result<std::convert::Infallible, std::alloc::LayoutError>::Err", align 1
  %0 = alloca { i64, i64 }, align 8
  call void @llvm.dbg.declare(metadata %"std::result::Result<std::convert::Infallible, std::alloc::LayoutError>::Err"* %residual.dbg.spill, metadata !148, metadata !DIExpression()), !dbg !152
  call void @llvm.dbg.declare(metadata %"std::alloc::LayoutError"* %e.dbg.spill, metadata !149, metadata !DIExpression()), !dbg !153
; call <T as core::convert::From<T>>::from
  call void @"_ZN50_$LT$T$u20$as$u20$core..convert..From$LT$T$GT$$GT$4from17h4f9babcba7ee7c41E"(), !dbg !154
  br label %bb1, !dbg !154

bb1:                                              ; preds = %start
  %1 = bitcast { i64, i64 }* %0 to %"std::result::Result<std::alloc::Layout, std::alloc::LayoutError>::Err"*, !dbg !155
  %2 = bitcast %"std::result::Result<std::alloc::Layout, std::alloc::LayoutError>::Err"* %1 to %"std::alloc::LayoutError"*, !dbg !155
  %3 = getelementptr inbounds { i64, i64 }, { i64, i64 }* %0, i32 0, i32 1, !dbg !155
  store i64 0, i64* %3, align 8, !dbg !155
  %4 = getelementptr inbounds { i64, i64 }, { i64, i64 }* %0, i32 0, i32 0, !dbg !156
  %5 = load i64, i64* %4, align 8, !dbg !156
  %6 = getelementptr inbounds { i64, i64 }, { i64, i64 }* %0, i32 0, i32 1, !dbg !156
  %7 = load i64, i64* %6, align 8, !dbg !156
  %8 = insertvalue { i64, i64 } undef, i64 %5, 0, !dbg !156
  %9 = insertvalue { i64, i64 } %8, i64 %7, 1, !dbg !156
  ret { i64, i64 } %9, !dbg !156
}

; <core::result::Result<T,F> as core::ops::try_trait::FromResidual<core::result::Result<core::convert::Infallible,E>>>::from_residual
; Function Attrs: inlinehint nounwind
define { i8*, i64 } @"_ZN153_$LT$core..result..Result$LT$T$C$F$GT$$u20$as$u20$core..ops..try_trait..FromResidual$LT$core..result..Result$LT$core..convert..Infallible$C$E$GT$$GT$$GT$13from_residual17hd49052d9436d8ffbE"() unnamed_addr #0 !dbg !157 {
start:
  %e.dbg.spill = alloca %"std::alloc::AllocError", align 1
  %residual.dbg.spill = alloca %"std::result::Result<std::convert::Infallible, std::alloc::AllocError>::Err", align 1
  %0 = alloca { i8*, i64 }, align 8
  call void @llvm.dbg.declare(metadata %"std::result::Result<std::convert::Infallible, std::alloc::AllocError>::Err"* %residual.dbg.spill, metadata !202, metadata !DIExpression()), !dbg !207
  call void @llvm.dbg.declare(metadata %"std::alloc::AllocError"* %e.dbg.spill, metadata !203, metadata !DIExpression()), !dbg !208
; call <T as core::convert::From<T>>::from
  call void @"_ZN50_$LT$T$u20$as$u20$core..convert..From$LT$T$GT$$GT$4from17hd95d9203e8d23170E"(), !dbg !209
  br label %bb1, !dbg !209

bb1:                                              ; preds = %start
  %1 = bitcast { i8*, i64 }* %0 to %"std::result::Result<std::ptr::NonNull<[u8]>, std::alloc::AllocError>::Err"*, !dbg !210
  %2 = bitcast %"std::result::Result<std::ptr::NonNull<[u8]>, std::alloc::AllocError>::Err"* %1 to %"std::alloc::AllocError"*, !dbg !210
  %3 = bitcast { i8*, i64 }* %0 to {}**, !dbg !210
  store {}* null, {}** %3, align 8, !dbg !210
  %4 = getelementptr inbounds { i8*, i64 }, { i8*, i64 }* %0, i32 0, i32 0, !dbg !211
  %5 = load i8*, i8** %4, align 8, !dbg !211
  %6 = getelementptr inbounds { i8*, i64 }, { i8*, i64 }* %0, i32 0, i32 1, !dbg !211
  %7 = load i64, i64* %6, align 8, !dbg !211
  %8 = insertvalue { i8*, i64 } undef, i8* %5, 0, !dbg !211
  %9 = insertvalue { i8*, i64 } %8, i64 %7, 1, !dbg !211
  ret { i8*, i64 } %9, !dbg !211
}

; <core::result::Result<T,F> as core::ops::try_trait::FromResidual<core::result::Result<core::convert::Infallible,E>>>::from_residual
; Function Attrs: inlinehint nounwind
define void @"_ZN153_$LT$core..result..Result$LT$T$C$F$GT$$u20$as$u20$core..ops..try_trait..FromResidual$LT$core..result..Result$LT$core..convert..Infallible$C$E$GT$$GT$$GT$13from_residual17hdd0ca9412f1b24ccE"(%"std::result::Result<(), std::collections::TryReserveError>"* noalias nocapture sret(%"std::result::Result<(), std::collections::TryReserveError>") dereferenceable(24) %0, i64 %1, i64 %2) unnamed_addr #0 !dbg !212 {
start:
  %e.dbg.spill = alloca { i64, i64 }, align 8
  %residual = alloca { i64, i64 }, align 8
  %3 = getelementptr inbounds { i64, i64 }, { i64, i64 }* %residual, i32 0, i32 0
  store i64 %1, i64* %3, align 8
  %4 = getelementptr inbounds { i64, i64 }, { i64, i64 }* %residual, i32 0, i32 1
  store i64 %2, i64* %4, align 8
  call void @llvm.dbg.declare(metadata { i64, i64 }* %residual, metadata !241, metadata !DIExpression()), !dbg !246
  %5 = getelementptr inbounds { i64, i64 }, { i64, i64 }* %residual, i32 0, i32 0, !dbg !247
  %e.0 = load i64, i64* %5, align 8, !dbg !247
  %6 = getelementptr inbounds { i64, i64 }, { i64, i64 }* %residual, i32 0, i32 1, !dbg !247
  %e.1 = load i64, i64* %6, align 8, !dbg !247
  %7 = getelementptr inbounds { i64, i64 }, { i64, i64 }* %e.dbg.spill, i32 0, i32 0, !dbg !247
  store i64 %e.0, i64* %7, align 8, !dbg !247
  %8 = getelementptr inbounds { i64, i64 }, { i64, i64 }* %e.dbg.spill, i32 0, i32 1, !dbg !247
  store i64 %e.1, i64* %8, align 8, !dbg !247
  call void @llvm.dbg.declare(metadata { i64, i64 }* %e.dbg.spill, metadata !242, metadata !DIExpression()), !dbg !248
; call <alloc::collections::TryReserveError as core::convert::From<alloc::collections::TryReserveErrorKind>>::from
  %9 = call { i64, i64 } @"_ZN122_$LT$alloc..collections..TryReserveError$u20$as$u20$core..convert..From$LT$alloc..collections..TryReserveErrorKind$GT$$GT$4from17h67bb5bff01fb0302E"(i64 %e.0, i64 %e.1), !dbg !249
  %_3.0 = extractvalue { i64, i64 } %9, 0, !dbg !249
  %_3.1 = extractvalue { i64, i64 } %9, 1, !dbg !249
  br label %bb1, !dbg !249

bb1:                                              ; preds = %start
  %10 = bitcast %"std::result::Result<(), std::collections::TryReserveError>"* %0 to %"std::result::Result<(), std::collections::TryReserveError>::Err"*, !dbg !250
  %11 = getelementptr inbounds %"std::result::Result<(), std::collections::TryReserveError>::Err", %"std::result::Result<(), std::collections::TryReserveError>::Err"* %10, i32 0, i32 1, !dbg !250
  %12 = getelementptr inbounds { i64, i64 }, { i64, i64 }* %11, i32 0, i32 0, !dbg !250
  store i64 %_3.0, i64* %12, align 8, !dbg !250
  %13 = getelementptr inbounds { i64, i64 }, { i64, i64 }* %11, i32 0, i32 1, !dbg !250
  store i64 %_3.1, i64* %13, align 8, !dbg !250
  %14 = bitcast %"std::result::Result<(), std::collections::TryReserveError>"* %0 to i64*, !dbg !250
  store i64 1, i64* %14, align 8, !dbg !250
  ret void, !dbg !251
}

; core::num::<impl usize>::checked_mul
; Function Attrs: inlinehint nounwind
define internal { i64, i64 } @"_ZN4core3num23_$LT$impl$u20$usize$GT$11checked_mul17haa34520eccbc3bbfE"(i64 %self, i64 %rhs) unnamed_addr #0 !dbg !252 {
start:
  %b.dbg.spill.i = alloca i8, align 1
  %a.dbg.spill.i = alloca i64, align 8
  %0 = alloca { i64, i8 }, align 8
  %rhs.dbg.spill.i = alloca i64, align 8
  %self.dbg.spill.i = alloca i64, align 8
  %1 = alloca { i64, i8 }, align 8
  %2 = alloca i8, align 1
  %b.dbg.spill = alloca i8, align 1
  %a.dbg.spill = alloca i64, align 8
  %rhs.dbg.spill = alloca i64, align 8
  %self.dbg.spill = alloca i64, align 8
  %3 = alloca { i64, i64 }, align 8
  store i64 %self, i64* %self.dbg.spill, align 8
  call void @llvm.dbg.declare(metadata i64* %self.dbg.spill, metadata !272, metadata !DIExpression()), !dbg !278
  store i64 %rhs, i64* %rhs.dbg.spill, align 8
  call void @llvm.dbg.declare(metadata i64* %rhs.dbg.spill, metadata !273, metadata !DIExpression()), !dbg !279
  store i64 %self, i64* %self.dbg.spill.i, align 8
  call void @llvm.dbg.declare(metadata i64* %self.dbg.spill.i, metadata !280, metadata !DIExpression()) #9, !dbg !293
  store i64 %rhs, i64* %rhs.dbg.spill.i, align 8
  call void @llvm.dbg.declare(metadata i64* %rhs.dbg.spill.i, metadata !289, metadata !DIExpression()) #9, !dbg !295
  %4 = call { i64, i1 } @llvm.umul.with.overflow.i64(i64 %self, i64 %rhs) #9, !dbg !296
  %5 = extractvalue { i64, i1 } %4, 0, !dbg !296
  %6 = extractvalue { i64, i1 } %4, 1, !dbg !296
  %7 = zext i1 %6 to i8, !dbg !296
  %8 = bitcast { i64, i8 }* %0 to i64*, !dbg !296
  store i64 %5, i64* %8, align 8, !dbg !296
  %9 = getelementptr inbounds { i64, i8 }, { i64, i8 }* %0, i32 0, i32 1, !dbg !296
  store i8 %7, i8* %9, align 8, !dbg !296
  %10 = getelementptr inbounds { i64, i8 }, { i64, i8 }* %0, i32 0, i32 0, !dbg !296
  %_5.0.i = load i64, i64* %10, align 8, !dbg !296
  %11 = getelementptr inbounds { i64, i8 }, { i64, i8 }* %0, i32 0, i32 1, !dbg !296
  %12 = load i8, i8* %11, align 8, !dbg !296, !range !297
  %_5.1.i = trunc i8 %12 to i1, !dbg !296
  store i64 %_5.0.i, i64* %a.dbg.spill.i, align 8, !dbg !298
  call void @llvm.dbg.declare(metadata i64* %a.dbg.spill.i, metadata !290, metadata !DIExpression()) #9, !dbg !299
  %13 = zext i1 %_5.1.i to i8, !dbg !300
  store i8 %13, i8* %b.dbg.spill.i, align 1, !dbg !300
  call void @llvm.dbg.declare(metadata i8* %b.dbg.spill.i, metadata !292, metadata !DIExpression()) #9, !dbg !301
  %14 = bitcast { i64, i8 }* %1 to i64*, !dbg !302
  store i64 %_5.0.i, i64* %14, align 8, !dbg !302
  %15 = getelementptr inbounds { i64, i8 }, { i64, i8 }* %1, i32 0, i32 1, !dbg !302
  %16 = zext i1 %_5.1.i to i8, !dbg !302
  store i8 %16, i8* %15, align 8, !dbg !302
  %17 = getelementptr inbounds { i64, i8 }, { i64, i8 }* %1, i32 0, i32 0, !dbg !303
  %18 = load i64, i64* %17, align 8, !dbg !303
  %19 = getelementptr inbounds { i64, i8 }, { i64, i8 }* %1, i32 0, i32 1, !dbg !303
  %20 = load i8, i8* %19, align 8, !dbg !303, !range !297
  %21 = trunc i8 %20 to i1, !dbg !303
  %22 = zext i1 %21 to i8, !dbg !303
  %23 = insertvalue { i64, i8 } undef, i64 %18, 0, !dbg !303
  %24 = insertvalue { i64, i8 } %23, i8 %22, 1, !dbg !303
  %_5.0 = extractvalue { i64, i8 } %24, 0, !dbg !304
  %25 = extractvalue { i64, i8 } %24, 1, !dbg !304
  %_5.1 = trunc i8 %25 to i1, !dbg !304
  br label %bb1, !dbg !304

bb1:                                              ; preds = %start
  store i64 %_5.0, i64* %a.dbg.spill, align 8, !dbg !305
  call void @llvm.dbg.declare(metadata i64* %a.dbg.spill, metadata !274, metadata !DIExpression()), !dbg !306
  %26 = zext i1 %_5.1 to i8, !dbg !307
  store i8 %26, i8* %b.dbg.spill, align 1, !dbg !307
  call void @llvm.dbg.declare(metadata i8* %b.dbg.spill, metadata !276, metadata !DIExpression()), !dbg !308
  %27 = call i1 @llvm.expect.i1(i1 %_5.1, i1 false), !dbg !309
  %28 = zext i1 %27 to i8, !dbg !309
  store i8 %28, i8* %2, align 1, !dbg !309
  %29 = load i8, i8* %2, align 1, !dbg !309, !range !297
  %_8 = trunc i8 %29 to i1, !dbg !309
  br label %bb2, !dbg !309

bb2:                                              ; preds = %bb1
  br i1 %_8, label %bb3, label %bb4, !dbg !309

bb4:                                              ; preds = %bb2
  %30 = bitcast { i64, i64 }* %3 to %"std::option::Option<usize>::Some"*, !dbg !310
  %31 = getelementptr inbounds %"std::option::Option<usize>::Some", %"std::option::Option<usize>::Some"* %30, i32 0, i32 1, !dbg !310
  store i64 %_5.0, i64* %31, align 8, !dbg !310
  %32 = bitcast { i64, i64 }* %3 to i64*, !dbg !310
  store i64 1, i64* %32, align 8, !dbg !310
  br label %bb5, !dbg !311

bb3:                                              ; preds = %bb2
  %33 = bitcast { i64, i64 }* %3 to i64*, !dbg !312
  store i64 0, i64* %33, align 8, !dbg !312
  br label %bb5, !dbg !311

bb5:                                              ; preds = %bb4, %bb3
  %34 = getelementptr inbounds { i64, i64 }, { i64, i64 }* %3, i32 0, i32 0, !dbg !313
  %35 = load i64, i64* %34, align 8, !dbg !313, !range !314
  %36 = getelementptr inbounds { i64, i64 }, { i64, i64 }* %3, i32 0, i32 1, !dbg !313
  %37 = load i64, i64* %36, align 8, !dbg !313
  %38 = insertvalue { i64, i64 } undef, i64 %35, 0, !dbg !313
  %39 = insertvalue { i64, i64 } %38, i64 %37, 1, !dbg !313
  ret { i64, i64 } %39, !dbg !313
}

; core::num::nonzero::NonZeroUsize::new_unchecked
; Function Attrs: inlinehint nounwind
define internal i64 @_ZN4core3num7nonzero12NonZeroUsize13new_unchecked17hdcaf62da47e4c94aE(i64 %n) unnamed_addr #0 !dbg !315 {
start:
  %n.dbg.spill = alloca i64, align 8
  %0 = alloca i64, align 8
  store i64 %n, i64* %n.dbg.spill, align 8
  call void @llvm.dbg.declare(metadata i64* %n.dbg.spill, metadata !320, metadata !DIExpression()), !dbg !321
  store i64 %n, i64* %0, align 8, !dbg !322
  %1 = load i64, i64* %0, align 8, !dbg !323, !range !324
  ret i64 %1, !dbg !323
}

; core::num::nonzero::NonZeroUsize::get
; Function Attrs: inlinehint nounwind
define internal i64 @_ZN4core3num7nonzero12NonZeroUsize3get17h02d4a6c3b4ff3238E(i64 %self) unnamed_addr #0 !dbg !325 {
start:
  %self.dbg.spill = alloca i64, align 8
  store i64 %self, i64* %self.dbg.spill, align 8
  call void @llvm.dbg.declare(metadata i64* %self.dbg.spill, metadata !329, metadata !DIExpression()), !dbg !330
  ret i64 %self, !dbg !331
}

; core::ptr::slice_from_raw_parts_mut
; Function Attrs: inlinehint nounwind
define { [0 x i8]*, i64 } @_ZN4core3ptr24slice_from_raw_parts_mut17h4871d44e15180306E(i8* %data, i64 %len) unnamed_addr #0 !dbg !332 {
start:
  %self.dbg.spill.i = alloca i8*, align 8
  %len.dbg.spill = alloca i64, align 8
  %data.dbg.spill = alloca i8*, align 8
  store i8* %data, i8** %data.dbg.spill, align 8
  call void @llvm.dbg.declare(metadata i8** %data.dbg.spill, metadata !355, metadata !DIExpression()), !dbg !359
  store i64 %len, i64* %len.dbg.spill, align 8
  call void @llvm.dbg.declare(metadata i64* %len.dbg.spill, metadata !356, metadata !DIExpression()), !dbg !360
  store i8* %data, i8** %self.dbg.spill.i, align 8
  call void @llvm.dbg.declare(metadata i8** %self.dbg.spill.i, metadata !361, metadata !DIExpression()), !dbg !372
  %0 = bitcast i8* %data to {}*, !dbg !374
  br label %bb1, !dbg !375

bb1:                                              ; preds = %start
; call core::ptr::metadata::from_raw_parts_mut
  %1 = call { [0 x i8]*, i64 } @_ZN4core3ptr8metadata18from_raw_parts_mut17h3df1a18b00b4efceE({}* %0, i64 %len), !dbg !376
  %2 = extractvalue { [0 x i8]*, i64 } %1, 0, !dbg !376
  %3 = extractvalue { [0 x i8]*, i64 } %1, 1, !dbg !376
  br label %bb2, !dbg !376

bb2:                                              ; preds = %bb1
  %4 = insertvalue { [0 x i8]*, i64 } undef, [0 x i8]* %2, 0, !dbg !377
  %5 = insertvalue { [0 x i8]*, i64 } %4, i64 %3, 1, !dbg !377
  ret { [0 x i8]*, i64 } %5, !dbg !377
}

; core::ptr::read
; Function Attrs: inlinehint nounwind
define { i8*, i64 } @_ZN4core3ptr4read17h36e4586bd600cb81E({ i8*, i64 }* %src) unnamed_addr #0 !dbg !378 {
start:
  %self.dbg.spill.i1 = alloca { i8*, i64 }*, align 8
  %slot.dbg.spill.i.i = alloca { i8*, i64 }, align 8
  %self.dbg.spill.i = alloca { i8*, i64 }, align 8
  %0 = alloca { i8*, i64 }, align 8
  %src.dbg.spill = alloca { i8*, i64 }*, align 8
  %tmp = alloca { i8*, i64 }, align 8
  store { i8*, i64 }* %src, { i8*, i64 }** %src.dbg.spill, align 8
  call void @llvm.dbg.declare(metadata { i8*, i64 }** %src.dbg.spill, metadata !399, metadata !DIExpression()), !dbg !411
  call void @llvm.dbg.declare(metadata { i8*, i64 }* %tmp, metadata !400, metadata !DIExpression()), !dbg !412
  %1 = bitcast { i8*, i64 }* %0 to {}*, !dbg !413
  %2 = getelementptr inbounds { i8*, i64 }, { i8*, i64 }* %0, i32 0, i32 0, !dbg !419
  %3 = load i8*, i8** %2, align 8, !dbg !419
  %4 = getelementptr inbounds { i8*, i64 }, { i8*, i64 }* %0, i32 0, i32 1, !dbg !419
  %5 = load i64, i64* %4, align 8, !dbg !419
  %6 = insertvalue { i8*, i64 } undef, i8* %3, 0, !dbg !419
  %7 = insertvalue { i8*, i64 } %6, i64 %5, 1, !dbg !419
  store { i8*, i64 } %7, { i8*, i64 }* %tmp, align 8, !dbg !420
  br label %bb1, !dbg !420

bb1:                                              ; preds = %start
  store { i8*, i64 }* %tmp, { i8*, i64 }** %self.dbg.spill.i1, align 8
  call void @llvm.dbg.declare(metadata { i8*, i64 }** %self.dbg.spill.i1, metadata !421, metadata !DIExpression()), !dbg !428
  br label %bb2, !dbg !430

bb2:                                              ; preds = %bb1
  %8 = bitcast { i8*, i64 }* %tmp to i8*, !dbg !431
  %9 = bitcast { i8*, i64 }* %src to i8*, !dbg !431
  call void @llvm.memcpy.p0i8.p0i8.i64(i8* align 8 %8, i8* align 8 %9, i64 16, i1 false), !dbg !431
  %10 = getelementptr inbounds { i8*, i64 }, { i8*, i64 }* %tmp, i32 0, i32 0, !dbg !432
  %_6.0 = load i8*, i8** %10, align 8, !dbg !432
  %11 = getelementptr inbounds { i8*, i64 }, { i8*, i64 }* %tmp, i32 0, i32 1, !dbg !432
  %_6.1 = load i64, i64* %11, align 8, !dbg !432
  %12 = getelementptr inbounds { i8*, i64 }, { i8*, i64 }* %self.dbg.spill.i, i32 0, i32 0
  store i8* %_6.0, i8** %12, align 8
  %13 = getelementptr inbounds { i8*, i64 }, { i8*, i64 }* %self.dbg.spill.i, i32 0, i32 1
  store i64 %_6.1, i64* %13, align 8
  call void @llvm.dbg.declare(metadata { i8*, i64 }* %self.dbg.spill.i, metadata !433, metadata !DIExpression()), !dbg !451
  %14 = getelementptr inbounds { i8*, i64 }, { i8*, i64 }* %slot.dbg.spill.i.i, i32 0, i32 0
  store i8* %_6.0, i8** %14, align 8
  %15 = getelementptr inbounds { i8*, i64 }, { i8*, i64 }* %slot.dbg.spill.i.i, i32 0, i32 1
  store i64 %_6.1, i64* %15, align 8
  call void @llvm.dbg.declare(metadata { i8*, i64 }* %slot.dbg.spill.i.i, metadata !453, metadata !DIExpression()), !dbg !459
  %16 = insertvalue { i8*, i64 } undef, i8* %_6.0, 0, !dbg !461
  %17 = insertvalue { i8*, i64 } %16, i64 %_6.1, 1, !dbg !461
  %18 = insertvalue { i8*, i64 } undef, i8* %_6.0, 0, !dbg !462
  %19 = insertvalue { i8*, i64 } %18, i64 %_6.1, 1, !dbg !462
  %20 = extractvalue { i8*, i64 } %19, 0, !dbg !432
  %21 = extractvalue { i8*, i64 } %19, 1, !dbg !432
  br label %bb3, !dbg !432

bb3:                                              ; preds = %bb2
  %22 = insertvalue { i8*, i64 } undef, i8* %20, 0, !dbg !463
  %23 = insertvalue { i8*, i64 } %22, i64 %21, 1, !dbg !463
  ret { i8*, i64 } %23, !dbg !463
}

; core::ptr::read
; Function Attrs: inlinehint nounwind
define void @_ZN4core3ptr4read17hcaf9e15a348f9a1cE(%"std::alloc::Global"* %src) unnamed_addr #0 !dbg !464 {
start:
  %self.dbg.spill.i = alloca %"std::mem::MaybeUninit<std::alloc::Global>"*, align 8
  %0 = alloca %"std::mem::MaybeUninit<std::alloc::Global>", align 1
  %src.dbg.spill = alloca %"std::alloc::Global"*, align 8
  %tmp = alloca %"std::mem::MaybeUninit<std::alloc::Global>", align 1
  store %"std::alloc::Global"* %src, %"std::alloc::Global"** %src.dbg.spill, align 8
  call void @llvm.dbg.declare(metadata %"std::alloc::Global"** %src.dbg.spill, metadata !469, metadata !DIExpression()), !dbg !481
  call void @llvm.dbg.declare(metadata %"std::mem::MaybeUninit<std::alloc::Global>"* %tmp, metadata !470, metadata !DIExpression()), !dbg !482
  %1 = bitcast %"std::mem::MaybeUninit<std::alloc::Global>"* %0 to {}*, !dbg !483
  br label %bb1, !dbg !488

bb1:                                              ; preds = %start
  store %"std::mem::MaybeUninit<std::alloc::Global>"* %tmp, %"std::mem::MaybeUninit<std::alloc::Global>"** %self.dbg.spill.i, align 8
  call void @llvm.dbg.declare(metadata %"std::mem::MaybeUninit<std::alloc::Global>"** %self.dbg.spill.i, metadata !489, metadata !DIExpression()), !dbg !496
  %2 = bitcast %"std::mem::MaybeUninit<std::alloc::Global>"* %tmp to %"std::alloc::Global"*, !dbg !498
  br label %bb2, !dbg !499

bb2:                                              ; preds = %bb1
  %3 = bitcast %"std::alloc::Global"* %2 to i8*, !dbg !500
  %4 = bitcast %"std::alloc::Global"* %src to i8*, !dbg !500
  call void @llvm.memcpy.p0i8.p0i8.i64(i8* align 1 %3, i8* align 1 %4, i64 0, i1 false), !dbg !500
  call void @llvm.dbg.declare(metadata %"std::mem::MaybeUninit<std::alloc::Global>"* undef, metadata !501, metadata !DIExpression()), !dbg !506
  call void @llvm.dbg.declare(metadata %"std::mem::ManuallyDrop<std::alloc::Global>"* undef, metadata !508, metadata !DIExpression()), !dbg !513
  br label %bb3, !dbg !515

bb3:                                              ; preds = %bb2
  ret void, !dbg !516
}

; core::ptr::drop_in_place<core::alloc::layout::LayoutError>
; Function Attrs: inlinehint nounwind
define internal void @"_ZN4core3ptr53drop_in_place$LT$core..alloc..layout..LayoutError$GT$17h65e097f9617b0f19E"(%"std::alloc::LayoutError"* %_1) unnamed_addr #0 !dbg !517 {
start:
  %_1.dbg.spill = alloca %"std::alloc::LayoutError"*, align 8
  store %"std::alloc::LayoutError"* %_1, %"std::alloc::LayoutError"** %_1.dbg.spill, align 8
  call void @llvm.dbg.declare(metadata %"std::alloc::LayoutError"** %_1.dbg.spill, metadata !522, metadata !DIExpression()), !dbg !525
  ret void, !dbg !525
}

; core::ptr::unique::Unique<T>::new_unchecked
; Function Attrs: inlinehint nounwind
define { i8*, i64 } @"_ZN4core3ptr6unique15Unique$LT$T$GT$13new_unchecked17h37f143d991fb2569E"(%"bytes::Bytes"* %ptr.0, i64 %ptr.1) unnamed_addr #0 !dbg !526 {
start:
  %ptr.dbg.spill = alloca { %"bytes::Bytes"*, i64 }, align 8
  %0 = alloca { i8*, i64 }, align 8
  %1 = getelementptr inbounds { %"bytes::Bytes"*, i64 }, { %"bytes::Bytes"*, i64 }* %ptr.dbg.spill, i32 0, i32 0
  store %"bytes::Bytes"* %ptr.0, %"bytes::Bytes"** %1, align 8
  %2 = getelementptr inbounds { %"bytes::Bytes"*, i64 }, { %"bytes::Bytes"*, i64 }* %ptr.dbg.spill, i32 0, i32 1
  store i64 %ptr.1, i64* %2, align 8
  call void @llvm.dbg.declare(metadata { %"bytes::Bytes"*, i64 }* %ptr.dbg.spill, metadata !545, metadata !DIExpression()), !dbg !546
  %3 = bitcast { i8*, i64 }* %0 to { %"bytes::Bytes"*, i64 }*, !dbg !547
  %4 = getelementptr inbounds { %"bytes::Bytes"*, i64 }, { %"bytes::Bytes"*, i64 }* %3, i32 0, i32 0, !dbg !547
  store %"bytes::Bytes"* %ptr.0, %"bytes::Bytes"** %4, align 8, !dbg !547
  %5 = getelementptr inbounds { %"bytes::Bytes"*, i64 }, { %"bytes::Bytes"*, i64 }* %3, i32 0, i32 1, !dbg !547
  store i64 %ptr.1, i64* %5, align 8, !dbg !547
  %6 = getelementptr inbounds { i8*, i64 }, { i8*, i64 }* %0, i32 0, i32 0, !dbg !548
  %7 = load i8*, i8** %6, align 8, !dbg !548, !nonnull !4
  %8 = getelementptr inbounds { i8*, i64 }, { i8*, i64 }* %0, i32 0, i32 1, !dbg !548
  %9 = load i64, i64* %8, align 8, !dbg !548
  %10 = insertvalue { i8*, i64 } undef, i8* %7, 0, !dbg !548
  %11 = insertvalue { i8*, i64 } %10, i64 %9, 1, !dbg !548
  ret { i8*, i64 } %11, !dbg !548
}

; core::ptr::unique::Unique<T>::new_unchecked
; Function Attrs: inlinehint nounwind
define { i8*, i64 } @"_ZN4core3ptr6unique15Unique$LT$T$GT$13new_unchecked17h43162a1336684b68E"([0 x i8]* %ptr.0, i64 %ptr.1) unnamed_addr #0 !dbg !549 {
start:
  %ptr.dbg.spill = alloca { [0 x i8]*, i64 }, align 8
  %0 = alloca { i8*, i64 }, align 8
  %1 = getelementptr inbounds { [0 x i8]*, i64 }, { [0 x i8]*, i64 }* %ptr.dbg.spill, i32 0, i32 0
  store [0 x i8]* %ptr.0, [0 x i8]** %1, align 8
  %2 = getelementptr inbounds { [0 x i8]*, i64 }, { [0 x i8]*, i64 }* %ptr.dbg.spill, i32 0, i32 1
  store i64 %ptr.1, i64* %2, align 8
  call void @llvm.dbg.declare(metadata { [0 x i8]*, i64 }* %ptr.dbg.spill, metadata !565, metadata !DIExpression()), !dbg !566
  %3 = bitcast { i8*, i64 }* %0 to { [0 x i8]*, i64 }*, !dbg !567
  %4 = getelementptr inbounds { [0 x i8]*, i64 }, { [0 x i8]*, i64 }* %3, i32 0, i32 0, !dbg !567
  store [0 x i8]* %ptr.0, [0 x i8]** %4, align 8, !dbg !567
  %5 = getelementptr inbounds { [0 x i8]*, i64 }, { [0 x i8]*, i64 }* %3, i32 0, i32 1, !dbg !567
  store i64 %ptr.1, i64* %5, align 8, !dbg !567
  %6 = getelementptr inbounds { i8*, i64 }, { i8*, i64 }* %0, i32 0, i32 0, !dbg !568
  %7 = load i8*, i8** %6, align 8, !dbg !568, !nonnull !4
  %8 = getelementptr inbounds { i8*, i64 }, { i8*, i64 }* %0, i32 0, i32 1, !dbg !568
  %9 = load i64, i64* %8, align 8, !dbg !568
  %10 = insertvalue { i8*, i64 } undef, i8* %7, 0, !dbg !568
  %11 = insertvalue { i8*, i64 } %10, i64 %9, 1, !dbg !568
  ret { i8*, i64 } %11, !dbg !568
}

; core::ptr::unique::Unique<T>::new_unchecked
; Function Attrs: inlinehint nounwind
define { i8*, i64 } @"_ZN4core3ptr6unique15Unique$LT$T$GT$13new_unchecked17h6975d645eaae306dE"([0 x i8]* %ptr.0, i64 %ptr.1) unnamed_addr #0 !dbg !569 {
start:
  %ptr.dbg.spill = alloca { [0 x i8]*, i64 }, align 8
  %0 = alloca { i8*, i64 }, align 8
  %1 = getelementptr inbounds { [0 x i8]*, i64 }, { [0 x i8]*, i64 }* %ptr.dbg.spill, i32 0, i32 0
  store [0 x i8]* %ptr.0, [0 x i8]** %1, align 8
  %2 = getelementptr inbounds { [0 x i8]*, i64 }, { [0 x i8]*, i64 }* %ptr.dbg.spill, i32 0, i32 1
  store i64 %ptr.1, i64* %2, align 8
  call void @llvm.dbg.declare(metadata { [0 x i8]*, i64 }* %ptr.dbg.spill, metadata !582, metadata !DIExpression()), !dbg !583
  %3 = bitcast { i8*, i64 }* %0 to { [0 x i8]*, i64 }*, !dbg !584
  %4 = getelementptr inbounds { [0 x i8]*, i64 }, { [0 x i8]*, i64 }* %3, i32 0, i32 0, !dbg !584
  store [0 x i8]* %ptr.0, [0 x i8]** %4, align 8, !dbg !584
  %5 = getelementptr inbounds { [0 x i8]*, i64 }, { [0 x i8]*, i64 }* %3, i32 0, i32 1, !dbg !584
  store i64 %ptr.1, i64* %5, align 8, !dbg !584
  %6 = getelementptr inbounds { i8*, i64 }, { i8*, i64 }* %0, i32 0, i32 0, !dbg !585
  %7 = load i8*, i8** %6, align 8, !dbg !585, !nonnull !4
  %8 = getelementptr inbounds { i8*, i64 }, { i8*, i64 }* %0, i32 0, i32 1, !dbg !585
  %9 = load i64, i64* %8, align 8, !dbg !585
  %10 = insertvalue { i8*, i64 } undef, i8* %7, 0, !dbg !585
  %11 = insertvalue { i8*, i64 } %10, i64 %9, 1, !dbg !585
  ret { i8*, i64 } %11, !dbg !585
}

; core::ptr::unique::Unique<T>::cast
; Function Attrs: inlinehint nounwind
define nonnull i8* @"_ZN4core3ptr6unique15Unique$LT$T$GT$4cast17hdd7954102af4459fE"(i8* nonnull %self) unnamed_addr #0 !dbg !586 {
start:
  %self.dbg.spill = alloca i8*, align 8
  store i8* %self, i8** %self.dbg.spill, align 8
  call void @llvm.dbg.declare(metadata i8** %self.dbg.spill, metadata !590, metadata !DIExpression()), !dbg !593
; call core::ptr::unique::Unique<T>::as_ptr
  %_3 = call i8* @"_ZN4core3ptr6unique15Unique$LT$T$GT$6as_ptr17h2763cf8a0426b8b4E"(i8* nonnull %self), !dbg !594
  br label %bb1, !dbg !594

bb1:                                              ; preds = %start
; call core::ptr::unique::Unique<T>::new_unchecked
  %0 = call nonnull i8* @"_ZN4core3ptr6unique15Unique$LT$T$GT$13new_unchecked17ha3783e483e1f9c55E"(i8* %_3), !dbg !595
  br label %bb2, !dbg !595

bb2:                                              ; preds = %bb1
  ret i8* %0, !dbg !596
}

; core::ptr::unique::Unique<T>::as_ptr
; Function Attrs: inlinehint nounwind
define { [0 x i8]*, i64 } @"_ZN4core3ptr6unique15Unique$LT$T$GT$6as_ptr17hc6c5ee6cffbdc5deE"(i8* nonnull %self.0, i64 %self.1) unnamed_addr #0 !dbg !597 {
start:
  %self.dbg.spill = alloca { i8*, i64 }, align 8
  %0 = getelementptr inbounds { i8*, i64 }, { i8*, i64 }* %self.dbg.spill, i32 0, i32 0
  store i8* %self.0, i8** %0, align 8
  %1 = getelementptr inbounds { i8*, i64 }, { i8*, i64 }* %self.dbg.spill, i32 0, i32 1
  store i64 %self.1, i64* %1, align 8
  call void @llvm.dbg.declare(metadata { i8*, i64 }* %self.dbg.spill, metadata !601, metadata !DIExpression()), !dbg !602
  %_2.0 = bitcast i8* %self.0 to [0 x i8]*, !dbg !603
  %2 = insertvalue { [0 x i8]*, i64 } undef, [0 x i8]* %_2.0, 0, !dbg !604
  %3 = insertvalue { [0 x i8]*, i64 } %2, i64 %self.1, 1, !dbg !604
  ret { [0 x i8]*, i64 } %3, !dbg !604
}

; core::ptr::unique::Unique<T>::as_ptr
; Function Attrs: inlinehint nounwind
define { [0 x i8]*, i64 } @"_ZN4core3ptr6unique15Unique$LT$T$GT$6as_ptr17hdab647fdd5e08936E"(i8* nonnull %self.0, i64 %self.1) unnamed_addr #0 !dbg !605 {
start:
  %self.dbg.spill = alloca { i8*, i64 }, align 8
  %0 = getelementptr inbounds { i8*, i64 }, { i8*, i64 }* %self.dbg.spill, i32 0, i32 0
  store i8* %self.0, i8** %0, align 8
  %1 = getelementptr inbounds { i8*, i64 }, { i8*, i64 }* %self.dbg.spill, i32 0, i32 1
  store i64 %self.1, i64* %1, align 8
  call void @llvm.dbg.declare(metadata { i8*, i64 }* %self.dbg.spill, metadata !609, metadata !DIExpression()), !dbg !610
  %_2.0 = bitcast i8* %self.0 to [0 x i8]*, !dbg !611
  %2 = insertvalue { [0 x i8]*, i64 } undef, [0 x i8]* %_2.0, 0, !dbg !612
  %3 = insertvalue { [0 x i8]*, i64 } %2, i64 %self.1, 1, !dbg !612
  ret { [0 x i8]*, i64 } %3, !dbg !612
}

; core::ptr::unique::Unique<T>::dangling
; Function Attrs: inlinehint nounwind
define nonnull i8* @"_ZN4core3ptr6unique15Unique$LT$T$GT$8dangling17haacaee27f297908fE"() unnamed_addr #0 !dbg !613 {
start:
  %0 = alloca i64, align 8
  store i64 1, i64* %0, align 8, !dbg !616
  %1 = load i64, i64* %0, align 8, !dbg !616
  br label %bb1, !dbg !622

bb1:                                              ; preds = %start
  %_1 = inttoptr i64 %1 to i8*, !dbg !622
; call core::ptr::unique::Unique<T>::new_unchecked
  %2 = call nonnull i8* @"_ZN4core3ptr6unique15Unique$LT$T$GT$13new_unchecked17ha3783e483e1f9c55E"(i8* %_1), !dbg !623
  br label %bb2, !dbg !623

bb2:                                              ; preds = %bb1
  ret i8* %2, !dbg !624
}

; core::ptr::metadata::from_raw_parts_mut
; Function Attrs: inlinehint nounwind
define { [0 x i8]*, i64 } @_ZN4core3ptr8metadata18from_raw_parts_mut17h3df1a18b00b4efceE({}* %data_address, i64 %metadata) unnamed_addr #0 !dbg !625 {
start:
  %metadata.dbg.spill = alloca i64, align 8
  %data_address.dbg.spill = alloca {}*, align 8
  %_4 = alloca { i8*, i64 }, align 8
  %_3 = alloca %"std::ptr::metadata::PtrRepr<[std::mem::MaybeUninit<u8>]>", align 8
  store {}* %data_address, {}** %data_address.dbg.spill, align 8
  call void @llvm.dbg.declare(metadata {}** %data_address.dbg.spill, metadata !631, metadata !DIExpression()), !dbg !633
  store i64 %metadata, i64* %metadata.dbg.spill, align 8
  call void @llvm.dbg.declare(metadata i64* %metadata.dbg.spill, metadata !632, metadata !DIExpression()), !dbg !634
  %0 = bitcast { i8*, i64 }* %_4 to {}**, !dbg !635
  store {}* %data_address, {}** %0, align 8, !dbg !635
  %1 = getelementptr inbounds { i8*, i64 }, { i8*, i64 }* %_4, i32 0, i32 1, !dbg !635
  store i64 %metadata, i64* %1, align 8, !dbg !635
  %2 = bitcast %"std::ptr::metadata::PtrRepr<[std::mem::MaybeUninit<u8>]>"* %_3 to { i8*, i64 }*, !dbg !636
  %3 = getelementptr inbounds { i8*, i64 }, { i8*, i64 }* %_4, i32 0, i32 0, !dbg !636
  %4 = load i8*, i8** %3, align 8, !dbg !636
  %5 = getelementptr inbounds { i8*, i64 }, { i8*, i64 }* %_4, i32 0, i32 1, !dbg !636
  %6 = load i64, i64* %5, align 8, !dbg !636
  %7 = getelementptr inbounds { i8*, i64 }, { i8*, i64 }* %2, i32 0, i32 0, !dbg !636
  store i8* %4, i8** %7, align 8, !dbg !636
  %8 = getelementptr inbounds { i8*, i64 }, { i8*, i64 }* %2, i32 0, i32 1, !dbg !636
  store i64 %6, i64* %8, align 8, !dbg !636
  %9 = bitcast %"std::ptr::metadata::PtrRepr<[std::mem::MaybeUninit<u8>]>"* %_3 to { [0 x i8]*, i64 }*, !dbg !636
  %10 = getelementptr inbounds { [0 x i8]*, i64 }, { [0 x i8]*, i64 }* %9, i32 0, i32 0, !dbg !636
  %11 = load [0 x i8]*, [0 x i8]** %10, align 8, !dbg !636
  %12 = getelementptr inbounds { [0 x i8]*, i64 }, { [0 x i8]*, i64 }* %9, i32 0, i32 1, !dbg !636
  %13 = load i64, i64* %12, align 8, !dbg !636
  %14 = insertvalue { [0 x i8]*, i64 } undef, [0 x i8]* %11, 0, !dbg !637
  %15 = insertvalue { [0 x i8]*, i64 } %14, i64 %13, 1, !dbg !637
  ret { [0 x i8]*, i64 } %15, !dbg !637
}

; core::ptr::non_null::NonNull<T>::new_unchecked
; Function Attrs: inlinehint nounwind
define { i8*, i64 } @"_ZN4core3ptr8non_null16NonNull$LT$T$GT$13new_unchecked17hcc93420bfda8b3d1E"([0 x i8]* %ptr.0, i64 %ptr.1) unnamed_addr #0 !dbg !638 {
start:
  %ptr.dbg.spill = alloca { [0 x i8]*, i64 }, align 8
  %0 = alloca { i8*, i64 }, align 8
  %1 = getelementptr inbounds { [0 x i8]*, i64 }, { [0 x i8]*, i64 }* %ptr.dbg.spill, i32 0, i32 0
  store [0 x i8]* %ptr.0, [0 x i8]** %1, align 8
  %2 = getelementptr inbounds { [0 x i8]*, i64 }, { [0 x i8]*, i64 }* %ptr.dbg.spill, i32 0, i32 1
  store i64 %ptr.1, i64* %2, align 8
  call void @llvm.dbg.declare(metadata { [0 x i8]*, i64 }* %ptr.dbg.spill, metadata !643, metadata !DIExpression()), !dbg !644
  %3 = bitcast { i8*, i64 }* %0 to { [0 x i8]*, i64 }*, !dbg !645
  %4 = getelementptr inbounds { [0 x i8]*, i64 }, { [0 x i8]*, i64 }* %3, i32 0, i32 0, !dbg !645
  store [0 x i8]* %ptr.0, [0 x i8]** %4, align 8, !dbg !645
  %5 = getelementptr inbounds { [0 x i8]*, i64 }, { [0 x i8]*, i64 }* %3, i32 0, i32 1, !dbg !645
  store i64 %ptr.1, i64* %5, align 8, !dbg !645
  %6 = getelementptr inbounds { i8*, i64 }, { i8*, i64 }* %0, i32 0, i32 0, !dbg !646
  %7 = load i8*, i8** %6, align 8, !dbg !646, !nonnull !4
  %8 = getelementptr inbounds { i8*, i64 }, { i8*, i64 }* %0, i32 0, i32 1, !dbg !646
  %9 = load i64, i64* %8, align 8, !dbg !646
  %10 = insertvalue { i8*, i64 } undef, i8* %7, 0, !dbg !646
  %11 = insertvalue { i8*, i64 } %10, i64 %9, 1, !dbg !646
  ret { i8*, i64 } %11, !dbg !646
}

; core::ptr::non_null::NonNull<T>::new
; Function Attrs: inlinehint nounwind
define i8* @"_ZN4core3ptr8non_null16NonNull$LT$T$GT$3new17h7c90de7dd0009927E"(i8* %ptr) unnamed_addr #0 !dbg !647 {
start:
  %ptr.dbg.spill = alloca i8*, align 8
  %0 = alloca i8*, align 8
  store i8* %ptr, i8** %ptr.dbg.spill, align 8
  call void @llvm.dbg.declare(metadata i8** %ptr.dbg.spill, metadata !667, metadata !DIExpression()), !dbg !668
; call core::ptr::mut_ptr::<impl *mut T>::is_null
  %_3 = call zeroext i1 @"_ZN4core3ptr7mut_ptr31_$LT$impl$u20$$BP$mut$u20$T$GT$7is_null17h6a2a0bd716f25be5E"(i8* %ptr), !dbg !669
  br label %bb1, !dbg !669

bb1:                                              ; preds = %start
  %_2 = xor i1 %_3, true, !dbg !670
  br i1 %_2, label %bb2, label %bb4, !dbg !670

bb4:                                              ; preds = %bb1
  %1 = bitcast i8** %0 to {}**, !dbg !671
  store {}* null, {}** %1, align 8, !dbg !671
  br label %bb5, !dbg !672

bb2:                                              ; preds = %bb1
; call core::ptr::non_null::NonNull<T>::new_unchecked
  %_5 = call nonnull i8* @"_ZN4core3ptr8non_null16NonNull$LT$T$GT$13new_unchecked17hc2da2043f3870a87E"(i8* %ptr), !dbg !673
  br label %bb3, !dbg !673

bb3:                                              ; preds = %bb2
  store i8* %_5, i8** %0, align 8, !dbg !674
  br label %bb5, !dbg !672

bb5:                                              ; preds = %bb4, %bb3
  %2 = load i8*, i8** %0, align 8, !dbg !675
  ret i8* %2, !dbg !675
}

; core::ptr::non_null::NonNull<T>::cast
; Function Attrs: inlinehint nounwind
define nonnull i8* @"_ZN4core3ptr8non_null16NonNull$LT$T$GT$4cast17h1db3bf6300e1c822E"(i8* nonnull %self.0, i64 %self.1) unnamed_addr #0 !dbg !676 {
start:
  %self.dbg.spill = alloca { i8*, i64 }, align 8
  %0 = getelementptr inbounds { i8*, i64 }, { i8*, i64 }* %self.dbg.spill, i32 0, i32 0
  store i8* %self.0, i8** %0, align 8
  %1 = getelementptr inbounds { i8*, i64 }, { i8*, i64 }* %self.dbg.spill, i32 0, i32 1
  store i64 %self.1, i64* %1, align 8
  call void @llvm.dbg.declare(metadata { i8*, i64 }* %self.dbg.spill, metadata !680, metadata !DIExpression()), !dbg !682
; call core::ptr::non_null::NonNull<T>::as_ptr
  %2 = call { [0 x i8]*, i64 } @"_ZN4core3ptr8non_null16NonNull$LT$T$GT$6as_ptr17hc465e11773d4b700E"(i8* nonnull %self.0, i64 %self.1), !dbg !683
  %_3.0 = extractvalue { [0 x i8]*, i64 } %2, 0, !dbg !683
  %_3.1 = extractvalue { [0 x i8]*, i64 } %2, 1, !dbg !683
  br label %bb1, !dbg !683

bb1:                                              ; preds = %start
  %_2 = bitcast [0 x i8]* %_3.0 to i8*, !dbg !683
; call core::ptr::non_null::NonNull<T>::new_unchecked
  %3 = call nonnull i8* @"_ZN4core3ptr8non_null16NonNull$LT$T$GT$13new_unchecked17hc2da2043f3870a87E"(i8* %_2), !dbg !684
  br label %bb2, !dbg !684

bb2:                                              ; preds = %bb1
  ret i8* %3, !dbg !685
}

; core::ptr::non_null::NonNull<T>::as_ptr
; Function Attrs: inlinehint nounwind
define { [0 x i8]*, i64 } @"_ZN4core3ptr8non_null16NonNull$LT$T$GT$6as_ptr17hc465e11773d4b700E"(i8* nonnull %self.0, i64 %self.1) unnamed_addr #0 !dbg !686 {
start:
  %self.dbg.spill = alloca { i8*, i64 }, align 8
  %0 = getelementptr inbounds { i8*, i64 }, { i8*, i64 }* %self.dbg.spill, i32 0, i32 0
  store i8* %self.0, i8** %0, align 8
  %1 = getelementptr inbounds { i8*, i64 }, { i8*, i64 }* %self.dbg.spill, i32 0, i32 1
  store i64 %self.1, i64* %1, align 8
  call void @llvm.dbg.declare(metadata { i8*, i64 }* %self.dbg.spill, metadata !690, metadata !DIExpression()), !dbg !691
  %_2.0 = bitcast i8* %self.0 to [0 x i8]*, !dbg !692
  %2 = insertvalue { [0 x i8]*, i64 } undef, [0 x i8]* %_2.0, 0, !dbg !693
  %3 = insertvalue { [0 x i8]*, i64 } %2, i64 %self.1, 1, !dbg !693
  ret { [0 x i8]*, i64 } %3, !dbg !693
}

; core::ptr::non_null::NonNull<[T]>::as_mut_ptr
; Function Attrs: inlinehint nounwind
define i8* @"_ZN4core3ptr8non_null26NonNull$LT$$u5b$T$u5d$$GT$10as_mut_ptr17h2a3b59e4385a7594E"(i8* nonnull %self.0, i64 %self.1) unnamed_addr #0 !dbg !694 {
start:
  %self.dbg.spill = alloca { i8*, i64 }, align 8
  %0 = getelementptr inbounds { i8*, i64 }, { i8*, i64 }* %self.dbg.spill, i32 0, i32 0
  store i8* %self.0, i8** %0, align 8
  %1 = getelementptr inbounds { i8*, i64 }, { i8*, i64 }* %self.dbg.spill, i32 0, i32 1
  store i64 %self.1, i64* %1, align 8
  call void @llvm.dbg.declare(metadata { i8*, i64 }* %self.dbg.spill, metadata !698, metadata !DIExpression()), !dbg !699
; call core::ptr::non_null::NonNull<[T]>::as_non_null_ptr
  %_2 = call nonnull i8* @"_ZN4core3ptr8non_null26NonNull$LT$$u5b$T$u5d$$GT$15as_non_null_ptr17he4239ddb668f1963E"(i8* nonnull %self.0, i64 %self.1), !dbg !700
  br label %bb1, !dbg !700

bb1:                                              ; preds = %start
; call core::ptr::non_null::NonNull<T>::as_ptr
  %2 = call i8* @"_ZN4core3ptr8non_null16NonNull$LT$T$GT$6as_ptr17hbde849f63aae2924E"(i8* nonnull %_2), !dbg !700
  br label %bb2, !dbg !700

bb2:                                              ; preds = %bb1
  ret i8* %2, !dbg !701
}

; core::ptr::non_null::NonNull<[T]>::as_non_null_ptr
; Function Attrs: inlinehint nounwind
define nonnull i8* @"_ZN4core3ptr8non_null26NonNull$LT$$u5b$T$u5d$$GT$15as_non_null_ptr17he4239ddb668f1963E"(i8* nonnull %self.0, i64 %self.1) unnamed_addr #0 !dbg !702 {
start:
  %self.dbg.spill.i = alloca { [0 x i8]*, i64 }, align 8
  %self.dbg.spill = alloca { i8*, i64 }, align 8
  %0 = getelementptr inbounds { i8*, i64 }, { i8*, i64 }* %self.dbg.spill, i32 0, i32 0
  store i8* %self.0, i8** %0, align 8
  %1 = getelementptr inbounds { i8*, i64 }, { i8*, i64 }* %self.dbg.spill, i32 0, i32 1
  store i64 %self.1, i64* %1, align 8
  call void @llvm.dbg.declare(metadata { i8*, i64 }* %self.dbg.spill, metadata !704, metadata !DIExpression()), !dbg !705
; call core::ptr::non_null::NonNull<T>::as_ptr
  %2 = call { [0 x i8]*, i64 } @"_ZN4core3ptr8non_null16NonNull$LT$T$GT$6as_ptr17hc465e11773d4b700E"(i8* nonnull %self.0, i64 %self.1), !dbg !706
  %_3.0 = extractvalue { [0 x i8]*, i64 } %2, 0, !dbg !706
  %_3.1 = extractvalue { [0 x i8]*, i64 } %2, 1, !dbg !706
  br label %bb1, !dbg !706

bb1:                                              ; preds = %start
  %3 = getelementptr inbounds { [0 x i8]*, i64 }, { [0 x i8]*, i64 }* %self.dbg.spill.i, i32 0, i32 0
  store [0 x i8]* %_3.0, [0 x i8]** %3, align 8
  %4 = getelementptr inbounds { [0 x i8]*, i64 }, { [0 x i8]*, i64 }* %self.dbg.spill.i, i32 0, i32 1
  store i64 %_3.1, i64* %4, align 8
  call void @llvm.dbg.declare(metadata { [0 x i8]*, i64 }* %self.dbg.spill.i, metadata !707, metadata !DIExpression()), !dbg !713
  %5 = bitcast [0 x i8]* %_3.0 to i8*, !dbg !715
  br label %bb2, !dbg !706

bb2:                                              ; preds = %bb1
; call core::ptr::non_null::NonNull<T>::new_unchecked
  %6 = call nonnull i8* @"_ZN4core3ptr8non_null16NonNull$LT$T$GT$13new_unchecked17hc2da2043f3870a87E"(i8* %5), !dbg !716
  br label %bb3, !dbg !716

bb3:                                              ; preds = %bb2
  ret i8* %6, !dbg !717
}

; core::ptr::non_null::NonNull<[T]>::slice_from_raw_parts
; Function Attrs: inlinehint nounwind
define { i8*, i64 } @"_ZN4core3ptr8non_null26NonNull$LT$$u5b$T$u5d$$GT$20slice_from_raw_parts17h320140499ae14144E"(i8* nonnull %data, i64 %len) unnamed_addr #0 !dbg !718 {
start:
  %len.dbg.spill = alloca i64, align 8
  %data.dbg.spill = alloca i8*, align 8
  store i8* %data, i8** %data.dbg.spill, align 8
  call void @llvm.dbg.declare(metadata i8** %data.dbg.spill, metadata !722, metadata !DIExpression()), !dbg !724
  store i64 %len, i64* %len.dbg.spill, align 8
  call void @llvm.dbg.declare(metadata i64* %len.dbg.spill, metadata !723, metadata !DIExpression()), !dbg !725
; call core::ptr::non_null::NonNull<T>::as_ptr
  %_4 = call i8* @"_ZN4core3ptr8non_null16NonNull$LT$T$GT$6as_ptr17hbde849f63aae2924E"(i8* nonnull %data), !dbg !726
  br label %bb1, !dbg !726

bb1:                                              ; preds = %start
; call core::ptr::slice_from_raw_parts_mut
  %0 = call { [0 x i8]*, i64 } @_ZN4core3ptr24slice_from_raw_parts_mut17ha423c167c8324f43E(i8* %_4, i64 %len), !dbg !727
  %_3.0 = extractvalue { [0 x i8]*, i64 } %0, 0, !dbg !727
  %_3.1 = extractvalue { [0 x i8]*, i64 } %0, 1, !dbg !727
  br label %bb2, !dbg !727

bb2:                                              ; preds = %bb1
; call core::ptr::non_null::NonNull<T>::new_unchecked
  %1 = call { i8*, i64 } @"_ZN4core3ptr8non_null16NonNull$LT$T$GT$13new_unchecked17hcc93420bfda8b3d1E"([0 x i8]* %_3.0, i64 %_3.1), !dbg !728
  %2 = extractvalue { i8*, i64 } %1, 0, !dbg !728
  %3 = extractvalue { i8*, i64 } %1, 1, !dbg !728
  br label %bb3, !dbg !728

bb3:                                              ; preds = %bb2
  %4 = insertvalue { i8*, i64 } undef, i8* %2, 0, !dbg !729
  %5 = insertvalue { i8*, i64 } %4, i64 %3, 1, !dbg !729
  ret { i8*, i64 } %5, !dbg !729
}

; core::ptr::non_null::NonNull<[T]>::len
; Function Attrs: inlinehint nounwind
define i64 @"_ZN4core3ptr8non_null26NonNull$LT$$u5b$T$u5d$$GT$3len17h96da3ea39ecd65c2E"(i8* nonnull %self.0, i64 %self.1) unnamed_addr #0 !dbg !730 {
start:
  %self.dbg.spill.i = alloca { [0 x i8]*, i64 }, align 8
  %self.dbg.spill = alloca { i8*, i64 }, align 8
  %0 = getelementptr inbounds { i8*, i64 }, { i8*, i64 }* %self.dbg.spill, i32 0, i32 0
  store i8* %self.0, i8** %0, align 8
  %1 = getelementptr inbounds { i8*, i64 }, { i8*, i64 }* %self.dbg.spill, i32 0, i32 1
  store i64 %self.1, i64* %1, align 8
  call void @llvm.dbg.declare(metadata { i8*, i64 }* %self.dbg.spill, metadata !734, metadata !DIExpression()), !dbg !735
; call core::ptr::non_null::NonNull<T>::as_ptr
  %2 = call { [0 x i8]*, i64 } @"_ZN4core3ptr8non_null16NonNull$LT$T$GT$6as_ptr17hc465e11773d4b700E"(i8* nonnull %self.0, i64 %self.1), !dbg !736
  %_2.0 = extractvalue { [0 x i8]*, i64 } %2, 0, !dbg !736
  %_2.1 = extractvalue { [0 x i8]*, i64 } %2, 1, !dbg !736
  br label %bb1, !dbg !736

bb1:                                              ; preds = %start
  %3 = getelementptr inbounds { [0 x i8]*, i64 }, { [0 x i8]*, i64 }* %self.dbg.spill.i, i32 0, i32 0
  store [0 x i8]* %_2.0, [0 x i8]** %3, align 8
  %4 = getelementptr inbounds { [0 x i8]*, i64 }, { [0 x i8]*, i64 }* %self.dbg.spill.i, i32 0, i32 1
  store i64 %_2.1, i64* %4, align 8
  call void @llvm.dbg.declare(metadata { [0 x i8]*, i64 }* %self.dbg.spill.i, metadata !737, metadata !DIExpression()) #9, !dbg !742
; call core::ptr::metadata::metadata
  %5 = call i64 @_ZN4core3ptr8metadata8metadata17ha34c49fe66cd02d1E([0 x i8]* %_2.0, i64 %_2.1) #9, !dbg !744
  br label %bb2, !dbg !736

bb2:                                              ; preds = %bb1
  ret i64 %5, !dbg !745
}

; core::ptr::const_ptr::<impl *const T>::copy_to_nonoverlapping
; Function Attrs: inlinehint nounwind
define void @"_ZN4core3ptr9const_ptr33_$LT$impl$u20$$BP$const$u20$T$GT$22copy_to_nonoverlapping17h295619596a7b24aaE"(i8* %self, i8* %dest, i64 %count) unnamed_addr #0 !dbg !746 {
start:
  %count.dbg.spill = alloca i64, align 8
  %dest.dbg.spill = alloca i8*, align 8
  %self.dbg.spill = alloca i8*, align 8
  store i8* %self, i8** %self.dbg.spill, align 8
  call void @llvm.dbg.declare(metadata i8** %self.dbg.spill, metadata !753, metadata !DIExpression()), !dbg !756
  store i8* %dest, i8** %dest.dbg.spill, align 8
  call void @llvm.dbg.declare(metadata i8** %dest.dbg.spill, metadata !754, metadata !DIExpression()), !dbg !757
  store i64 %count, i64* %count.dbg.spill, align 8
  call void @llvm.dbg.declare(metadata i64* %count.dbg.spill, metadata !755, metadata !DIExpression()), !dbg !758
; call core::intrinsics::copy_nonoverlapping
  call void @_ZN4core10intrinsics19copy_nonoverlapping17h33ad5936512e667eE(i8* %self, i8* %dest, i64 %count), !dbg !759
  br label %bb1, !dbg !759

bb1:                                              ; preds = %start
  ret void, !dbg !760
}

; core::alloc::layout::size_align
; Function Attrs: nounwind
define { i64, i64 } @_ZN4core5alloc6layout10size_align17h9ddf581229d0af4bE() unnamed_addr #1 !dbg !761 {
start:
  %0 = alloca i64, align 8
  %1 = alloca { i64, i64 }, align 8
  br label %bb1, !dbg !769

bb1:                                              ; preds = %start
  store i64 1, i64* %0, align 8, !dbg !770
  %2 = load i64, i64* %0, align 8, !dbg !770
  br label %bb2, !dbg !772

bb2:                                              ; preds = %bb1
  %3 = bitcast { i64, i64 }* %1 to i64*, !dbg !773
  store i64 1, i64* %3, align 8, !dbg !773
  %4 = getelementptr inbounds { i64, i64 }, { i64, i64 }* %1, i32 0, i32 1, !dbg !773
  store i64 %2, i64* %4, align 8, !dbg !773
  %5 = getelementptr inbounds { i64, i64 }, { i64, i64 }* %1, i32 0, i32 0, !dbg !774
  %6 = load i64, i64* %5, align 8, !dbg !774
  %7 = getelementptr inbounds { i64, i64 }, { i64, i64 }* %1, i32 0, i32 1, !dbg !774
  %8 = load i64, i64* %7, align 8, !dbg !774
  %9 = insertvalue { i64, i64 } undef, i64 %6, 0, !dbg !774
  %10 = insertvalue { i64, i64 } %9, i64 %8, 1, !dbg !774
  ret { i64, i64 } %10, !dbg !774
}

; core::alloc::layout::Layout::pad_to_align
; Function Attrs: inlinehint nounwind
define internal { i64, i64 } @_ZN4core5alloc6layout6Layout12pad_to_align17h8b68337e9a0b4f5eE({ i64, i64 }* align 8 dereferenceable(16) %self) unnamed_addr #0 !dbg !775 {
start:
  %new_size.dbg.spill = alloca i64, align 8
  %pad.dbg.spill = alloca i64, align 8
  %self.dbg.spill = alloca { i64, i64 }*, align 8
  store { i64, i64 }* %self, { i64, i64 }** %self.dbg.spill, align 8
  call void @llvm.dbg.declare(metadata { i64, i64 }** %self.dbg.spill, metadata !780, metadata !DIExpression()), !dbg !785
; call core::alloc::layout::Layout::align
  %_4 = call i64 @_ZN4core5alloc6layout6Layout5align17h276944d621282157E({ i64, i64 }* align 8 dereferenceable(16) %self), !dbg !786
  br label %bb1, !dbg !786

bb1:                                              ; preds = %start
; call core::alloc::layout::Layout::padding_needed_for
  %pad = call i64 @_ZN4core5alloc6layout6Layout18padding_needed_for17hd6220d9f99d09752E({ i64, i64 }* align 8 dereferenceable(16) %self, i64 %_4), !dbg !787
  store i64 %pad, i64* %pad.dbg.spill, align 8, !dbg !787
  call void @llvm.dbg.declare(metadata i64* %pad.dbg.spill, metadata !781, metadata !DIExpression()), !dbg !788
  br label %bb2, !dbg !787

bb2:                                              ; preds = %bb1
; call core::alloc::layout::Layout::size
  %_7 = call i64 @_ZN4core5alloc6layout6Layout4size17hff23cbd9e508b07eE({ i64, i64 }* align 8 dereferenceable(16) %self), !dbg !789
  br label %bb3, !dbg !789

bb3:                                              ; preds = %bb2
  %new_size = add i64 %_7, %pad, !dbg !789
  store i64 %new_size, i64* %new_size.dbg.spill, align 8, !dbg !789
  call void @llvm.dbg.declare(metadata i64* %new_size.dbg.spill, metadata !783, metadata !DIExpression()), !dbg !790
; call core::alloc::layout::Layout::align
  %_12 = call i64 @_ZN4core5alloc6layout6Layout5align17h276944d621282157E({ i64, i64 }* align 8 dereferenceable(16) %self), !dbg !791
  br label %bb4, !dbg !791

bb4:                                              ; preds = %bb3
; call core::alloc::layout::Layout::from_size_align
  %0 = call { i64, i64 } @_ZN4core5alloc6layout6Layout15from_size_align17h57369dfe9dce3c7aE(i64 %new_size, i64 %_12), !dbg !792
  %_10.0 = extractvalue { i64, i64 } %0, 0, !dbg !792
  %_10.1 = extractvalue { i64, i64 } %0, 1, !dbg !792
  br label %bb5, !dbg !792

bb5:                                              ; preds = %bb4
; call core::result::Result<T,E>::unwrap
  %1 = call { i64, i64 } @"_ZN4core6result19Result$LT$T$C$E$GT$6unwrap17h5e00425fbc2383bbE"(i64 %_10.0, i64 %_10.1, %"std::panic::Location"* align 8 dereferenceable(24) bitcast (<{ i8*, [16 x i8] }>* @alloc89 to %"std::panic::Location"*)), !dbg !792
  %2 = extractvalue { i64, i64 } %1, 0, !dbg !792
  %3 = extractvalue { i64, i64 } %1, 1, !dbg !792
  br label %bb6, !dbg !792

bb6:                                              ; preds = %bb5
  %4 = insertvalue { i64, i64 } undef, i64 %2, 0, !dbg !793
  %5 = insertvalue { i64, i64 } %4, i64 %3, 1, !dbg !793
  ret { i64, i64 } %5, !dbg !793
}

; core::alloc::layout::Layout::from_size_align
; Function Attrs: inlinehint nounwind
define internal { i64, i64 } @_ZN4core5alloc6layout6Layout15from_size_align17h57369dfe9dce3c7aE(i64 %size, i64 %align) unnamed_addr #0 !dbg !794 {
start:
  %0 = alloca i64, align 8
  %self.dbg.spill.i.i = alloca i64, align 8
  %self.dbg.spill.i = alloca i64, align 8
  %align.dbg.spill = alloca i64, align 8
  %size.dbg.spill = alloca i64, align 8
  %1 = alloca { i64, i64 }, align 8
  store i64 %size, i64* %size.dbg.spill, align 8
  call void @llvm.dbg.declare(metadata i64* %size.dbg.spill, metadata !798, metadata !DIExpression()), !dbg !800
  store i64 %align, i64* %align.dbg.spill, align 8
  call void @llvm.dbg.declare(metadata i64* %align.dbg.spill, metadata !799, metadata !DIExpression()), !dbg !801
  store i64 %align, i64* %self.dbg.spill.i, align 8
  call void @llvm.dbg.declare(metadata i64* %self.dbg.spill.i, metadata !802, metadata !DIExpression()) #9, !dbg !807
  store i64 %align, i64* %self.dbg.spill.i.i, align 8
  call void @llvm.dbg.declare(metadata i64* %self.dbg.spill.i.i, metadata !809, metadata !DIExpression()) #9, !dbg !814
  %2 = call i64 @llvm.ctpop.i64(i64 %align) #9, !dbg !816
  store i64 %2, i64* %0, align 8, !dbg !816
  %_2.i.i = load i64, i64* %0, align 8, !dbg !816
  %3 = trunc i64 %_2.i.i to i32, !dbg !816
  %4 = icmp eq i32 %3, 1, !dbg !817
  br label %bb1, !dbg !818

bb1:                                              ; preds = %start
  %_3 = xor i1 %4, true, !dbg !819
  br i1 %_3, label %bb2, label %bb3, !dbg !819

bb3:                                              ; preds = %bb1
  %_9 = sub i64 %align, 1, !dbg !820
  %_8 = sub i64 -1, %_9, !dbg !821
  %_6 = icmp ugt i64 %size, %_8, !dbg !822
  br i1 %_6, label %bb4, label %bb5, !dbg !822

bb2:                                              ; preds = %bb1
  %5 = getelementptr inbounds { i64, i64 }, { i64, i64 }* %1, i32 0, i32 1, !dbg !823
  store i64 0, i64* %5, align 8, !dbg !823
  br label %bb7, !dbg !824

bb7:                                              ; preds = %bb6, %bb4, %bb2
  %6 = getelementptr inbounds { i64, i64 }, { i64, i64 }* %1, i32 0, i32 0, !dbg !827
  %7 = load i64, i64* %6, align 8, !dbg !827
  %8 = getelementptr inbounds { i64, i64 }, { i64, i64 }* %1, i32 0, i32 1, !dbg !827
  %9 = load i64, i64* %8, align 8, !dbg !827
  %10 = insertvalue { i64, i64 } undef, i64 %7, 0, !dbg !827
  %11 = insertvalue { i64, i64 } %10, i64 %9, 1, !dbg !827
  ret { i64, i64 } %11, !dbg !827

bb5:                                              ; preds = %bb3
; call core::alloc::layout::Layout::from_size_align_unchecked
  %12 = call { i64, i64 } @_ZN4core5alloc6layout6Layout25from_size_align_unchecked17h3c89da80eff8ac97E(i64 %size, i64 %align), !dbg !828
  %_11.0 = extractvalue { i64, i64 } %12, 0, !dbg !828
  %_11.1 = extractvalue { i64, i64 } %12, 1, !dbg !828
  br label %bb6, !dbg !828

bb4:                                              ; preds = %bb3
  %13 = getelementptr inbounds { i64, i64 }, { i64, i64 }* %1, i32 0, i32 1, !dbg !829
  store i64 0, i64* %13, align 8, !dbg !829
  br label %bb7, !dbg !824

bb6:                                              ; preds = %bb5
  %14 = getelementptr inbounds { i64, i64 }, { i64, i64 }* %1, i32 0, i32 0, !dbg !830
  store i64 %_11.0, i64* %14, align 8, !dbg !830
  %15 = getelementptr inbounds { i64, i64 }, { i64, i64 }* %1, i32 0, i32 1, !dbg !830
  store i64 %_11.1, i64* %15, align 8, !dbg !830
  br label %bb7, !dbg !827
}

; core::alloc::layout::Layout::padding_needed_for
; Function Attrs: inlinehint nounwind
define internal i64 @_ZN4core5alloc6layout6Layout18padding_needed_for17hd6220d9f99d09752E({ i64, i64 }* align 8 dereferenceable(16) %self, i64 %align) unnamed_addr #0 !dbg !831 {
start:
  %rhs.dbg.spill.i5 = alloca i64, align 8
  %self.dbg.spill.i6 = alloca i64, align 8
  %rhs.dbg.spill.i3 = alloca i64, align 8
  %self.dbg.spill.i4 = alloca i64, align 8
  %rhs.dbg.spill.i1 = alloca i64, align 8
  %self.dbg.spill.i2 = alloca i64, align 8
  %rhs.dbg.spill.i = alloca i64, align 8
  %self.dbg.spill.i = alloca i64, align 8
  %len_rounded_up.dbg.spill = alloca i64, align 8
  %len.dbg.spill = alloca i64, align 8
  %align.dbg.spill = alloca i64, align 8
  %self.dbg.spill = alloca { i64, i64 }*, align 8
  store { i64, i64 }* %self, { i64, i64 }** %self.dbg.spill, align 8
  call void @llvm.dbg.declare(metadata { i64, i64 }** %self.dbg.spill, metadata !835, metadata !DIExpression()), !dbg !841
  store i64 %align, i64* %align.dbg.spill, align 8
  call void @llvm.dbg.declare(metadata i64* %align.dbg.spill, metadata !836, metadata !DIExpression()), !dbg !842
; call core::alloc::layout::Layout::size
  %len = call i64 @_ZN4core5alloc6layout6Layout4size17hff23cbd9e508b07eE({ i64, i64 }* align 8 dereferenceable(16) %self), !dbg !843
  store i64 %len, i64* %len.dbg.spill, align 8, !dbg !843
  call void @llvm.dbg.declare(metadata i64* %len.dbg.spill, metadata !837, metadata !DIExpression()), !dbg !844
  br label %bb1, !dbg !843

bb1:                                              ; preds = %start
  store i64 %len, i64* %self.dbg.spill.i, align 8
  call void @llvm.dbg.declare(metadata i64* %self.dbg.spill.i, metadata !845, metadata !DIExpression()), !dbg !851
  store i64 %align, i64* %rhs.dbg.spill.i, align 8
  call void @llvm.dbg.declare(metadata i64* %rhs.dbg.spill.i, metadata !850, metadata !DIExpression()), !dbg !853
  %0 = add i64 %len, %align, !dbg !854
  br label %bb2, !dbg !855

bb2:                                              ; preds = %bb1
  store i64 %0, i64* %self.dbg.spill.i6, align 8
  call void @llvm.dbg.declare(metadata i64* %self.dbg.spill.i6, metadata !856, metadata !DIExpression()), !dbg !860
  store i64 1, i64* %rhs.dbg.spill.i5, align 8
  call void @llvm.dbg.declare(metadata i64* %rhs.dbg.spill.i5, metadata !859, metadata !DIExpression()), !dbg !862
  %1 = sub i64 %0, 1, !dbg !863
  br label %bb3, !dbg !855

bb3:                                              ; preds = %bb2
  store i64 %align, i64* %self.dbg.spill.i4, align 8
  call void @llvm.dbg.declare(metadata i64* %self.dbg.spill.i4, metadata !856, metadata !DIExpression()), !dbg !864
  store i64 1, i64* %rhs.dbg.spill.i3, align 8
  call void @llvm.dbg.declare(metadata i64* %rhs.dbg.spill.i3, metadata !859, metadata !DIExpression()), !dbg !866
  %2 = sub i64 %align, 1, !dbg !867
  br label %bb4, !dbg !868

bb4:                                              ; preds = %bb3
  %_10 = xor i64 %2, -1, !dbg !869
  %len_rounded_up = and i64 %1, %_10, !dbg !855
  store i64 %len_rounded_up, i64* %len_rounded_up.dbg.spill, align 8, !dbg !855
  call void @llvm.dbg.declare(metadata i64* %len_rounded_up.dbg.spill, metadata !839, metadata !DIExpression()), !dbg !870
  store i64 %len_rounded_up, i64* %self.dbg.spill.i2, align 8
  call void @llvm.dbg.declare(metadata i64* %self.dbg.spill.i2, metadata !856, metadata !DIExpression()), !dbg !871
  store i64 %len, i64* %rhs.dbg.spill.i1, align 8
  call void @llvm.dbg.declare(metadata i64* %rhs.dbg.spill.i1, metadata !859, metadata !DIExpression()), !dbg !873
  %3 = sub i64 %len_rounded_up, %len, !dbg !874
  br label %bb5, !dbg !875

bb5:                                              ; preds = %bb4
  ret i64 %3, !dbg !876
}

; core::alloc::layout::Layout::from_size_align_unchecked
; Function Attrs: inlinehint nounwind
define internal { i64, i64 } @_ZN4core5alloc6layout6Layout25from_size_align_unchecked17h3c89da80eff8ac97E(i64 %size, i64 %align) unnamed_addr #0 !dbg !877 {
start:
  %align.dbg.spill = alloca i64, align 8
  %size.dbg.spill = alloca i64, align 8
  %0 = alloca { i64, i64 }, align 8
  store i64 %size, i64* %size.dbg.spill, align 8
  call void @llvm.dbg.declare(metadata i64* %size.dbg.spill, metadata !881, metadata !DIExpression()), !dbg !883
  store i64 %align, i64* %align.dbg.spill, align 8
  call void @llvm.dbg.declare(metadata i64* %align.dbg.spill, metadata !882, metadata !DIExpression()), !dbg !884
; call core::num::nonzero::NonZeroUsize::new_unchecked
  %_4 = call i64 @_ZN4core3num7nonzero12NonZeroUsize13new_unchecked17hdcaf62da47e4c94aE(i64 %align), !dbg !885, !range !324
  br label %bb1, !dbg !885

bb1:                                              ; preds = %start
  %1 = bitcast { i64, i64 }* %0 to i64*, !dbg !886
  store i64 %size, i64* %1, align 8, !dbg !886
  %2 = getelementptr inbounds { i64, i64 }, { i64, i64 }* %0, i32 0, i32 1, !dbg !886
  store i64 %_4, i64* %2, align 8, !dbg !886
  %3 = getelementptr inbounds { i64, i64 }, { i64, i64 }* %0, i32 0, i32 0, !dbg !887
  %4 = load i64, i64* %3, align 8, !dbg !887
  %5 = getelementptr inbounds { i64, i64 }, { i64, i64 }* %0, i32 0, i32 1, !dbg !887
  %6 = load i64, i64* %5, align 8, !dbg !887, !range !324
  %7 = insertvalue { i64, i64 } undef, i64 %4, 0, !dbg !887
  %8 = insertvalue { i64, i64 } %7, i64 %6, 1, !dbg !887
  ret { i64, i64 } %8, !dbg !887
}

; core::alloc::layout::Layout::new
; Function Attrs: inlinehint nounwind
define { i64, i64 } @_ZN4core5alloc6layout6Layout3new17hb1d90a0399247f44E() unnamed_addr #0 !dbg !888 {
start:
  %align.dbg.spill = alloca i64, align 8, !dbg !895
  %size.dbg.spill = alloca i64, align 8, !dbg !895
; call core::alloc::layout::size_align
  %0 = call { i64, i64 } @_ZN4core5alloc6layout10size_align17h9ddf581229d0af4bE(), !dbg !895
  %_3.0 = extractvalue { i64, i64 } %0, 0, !dbg !895
  %_3.1 = extractvalue { i64, i64 } %0, 1, !dbg !895
  br label %bb1, !dbg !895

bb1:                                              ; preds = %start
  store i64 %_3.0, i64* %size.dbg.spill, align 8, !dbg !896
  call void @llvm.dbg.declare(metadata i64* %size.dbg.spill, metadata !892, metadata !DIExpression()), !dbg !897
  store i64 %_3.1, i64* %align.dbg.spill, align 8, !dbg !898
  call void @llvm.dbg.declare(metadata i64* %align.dbg.spill, metadata !894, metadata !DIExpression()), !dbg !899
; call core::alloc::layout::Layout::from_size_align_unchecked
  %1 = call { i64, i64 } @_ZN4core5alloc6layout6Layout25from_size_align_unchecked17h3c89da80eff8ac97E(i64 %_3.0, i64 %_3.1), !dbg !900
  %2 = extractvalue { i64, i64 } %1, 0, !dbg !900
  %3 = extractvalue { i64, i64 } %1, 1, !dbg !900
  br label %bb2, !dbg !900

bb2:                                              ; preds = %bb1
  %4 = insertvalue { i64, i64 } undef, i64 %2, 0, !dbg !901
  %5 = insertvalue { i64, i64 } %4, i64 %3, 1, !dbg !901
  ret { i64, i64 } %5, !dbg !901
}

; core::alloc::layout::Layout::size
; Function Attrs: inlinehint nounwind
define internal i64 @_ZN4core5alloc6layout6Layout4size17hff23cbd9e508b07eE({ i64, i64 }* align 8 dereferenceable(16) %self) unnamed_addr #0 !dbg !902 {
start:
  %self.dbg.spill = alloca { i64, i64 }*, align 8
  store { i64, i64 }* %self, { i64, i64 }** %self.dbg.spill, align 8
  call void @llvm.dbg.declare(metadata { i64, i64 }** %self.dbg.spill, metadata !906, metadata !DIExpression()), !dbg !907
  %0 = bitcast { i64, i64 }* %self to i64*, !dbg !908
  %1 = load i64, i64* %0, align 8, !dbg !908
  ret i64 %1, !dbg !909
}

; core::alloc::layout::Layout::align
; Function Attrs: inlinehint nounwind
define internal i64 @_ZN4core5alloc6layout6Layout5align17h276944d621282157E({ i64, i64 }* align 8 dereferenceable(16) %self) unnamed_addr #0 !dbg !910 {
start:
  %self.dbg.spill = alloca { i64, i64 }*, align 8
  store { i64, i64 }* %self, { i64, i64 }** %self.dbg.spill, align 8
  call void @llvm.dbg.declare(metadata { i64, i64 }** %self.dbg.spill, metadata !912, metadata !DIExpression()), !dbg !913
  %0 = getelementptr inbounds { i64, i64 }, { i64, i64 }* %self, i32 0, i32 1, !dbg !914
  %_2 = load i64, i64* %0, align 8, !dbg !914, !range !324
; call core::num::nonzero::NonZeroUsize::get
  %1 = call i64 @_ZN4core3num7nonzero12NonZeroUsize3get17h02d4a6c3b4ff3238E(i64 %_2), !dbg !914
  br label %bb1, !dbg !914

bb1:                                              ; preds = %start
  ret i64 %1, !dbg !915
}

; core::alloc::layout::Layout::array
; Function Attrs: inlinehint nounwind
define { i64, i64 } @_ZN4core5alloc6layout6Layout5array17h16691f0070d4227aE(i64 %n) unnamed_addr #0 !dbg !916 {
start:
  %offset.dbg.spill = alloca i64, align 8
  %residual.dbg.spill = alloca %"std::result::Result<std::convert::Infallible, std::alloc::LayoutError>::Err", align 1
  %n.dbg.spill = alloca i64, align 8
  %val = alloca { { i64, i64 }, i64 }, align 8
  %_8 = alloca { i64, i64 }, align 8
  %_6 = alloca %"std::result::Result<(std::alloc::Layout, usize), std::alloc::LayoutError>", align 8
  %_5 = alloca %"std::ops::ControlFlow<std::result::Result<std::convert::Infallible, std::alloc::LayoutError>, (std::alloc::Layout, usize)>", align 8
  %_4 = alloca { { i64, i64 }, i64 }, align 8
  %layout = alloca { i64, i64 }, align 8
  %0 = alloca { i64, i64 }, align 8
  store i64 %n, i64* %n.dbg.spill, align 8
  call void @llvm.dbg.declare(metadata i64* %n.dbg.spill, metadata !920, metadata !DIExpression()), !dbg !937
  call void @llvm.dbg.declare(metadata { i64, i64 }* %layout, metadata !921, metadata !DIExpression()), !dbg !938
  call void @llvm.dbg.declare(metadata %"std::result::Result<std::convert::Infallible, std::alloc::LayoutError>::Err"* %residual.dbg.spill, metadata !924, metadata !DIExpression()), !dbg !939
  call void @llvm.dbg.declare(metadata { { i64, i64 }, i64 }* %val, metadata !926, metadata !DIExpression()), !dbg !940
; call core::alloc::layout::Layout::new
  %1 = call { i64, i64 } @_ZN4core5alloc6layout6Layout3new17hb1d90a0399247f44E(), !dbg !941
  store { i64, i64 } %1, { i64, i64 }* %_8, align 8, !dbg !941
  br label %bb1, !dbg !941

bb1:                                              ; preds = %start
; call core::alloc::layout::Layout::repeat
  call void @_ZN4core5alloc6layout6Layout6repeat17h776208b8c5ac0e23E(%"std::result::Result<(std::alloc::Layout, usize), std::alloc::LayoutError>"* noalias nocapture sret(%"std::result::Result<(std::alloc::Layout, usize), std::alloc::LayoutError>") dereferenceable(24) %_6, { i64, i64 }* align 8 dereferenceable(16) %_8, i64 %n), !dbg !941
  br label %bb2, !dbg !941

bb2:                                              ; preds = %bb1
; call <core::result::Result<T,E> as core::ops::try_trait::Try>::branch
  call void @"_ZN79_$LT$core..result..Result$LT$T$C$E$GT$$u20$as$u20$core..ops..try_trait..Try$GT$6branch17hbbd37fda0f9d6b00E"(%"std::ops::ControlFlow<std::result::Result<std::convert::Infallible, std::alloc::LayoutError>, (std::alloc::Layout, usize)>"* noalias nocapture sret(%"std::ops::ControlFlow<std::result::Result<std::convert::Infallible, std::alloc::LayoutError>, (std::alloc::Layout, usize)>") dereferenceable(24) %_5, %"std::result::Result<(std::alloc::Layout, usize), std::alloc::LayoutError>"* noalias nocapture dereferenceable(24) %_6), !dbg !941
  br label %bb3, !dbg !941

bb3:                                              ; preds = %bb2
  %2 = getelementptr inbounds %"std::ops::ControlFlow<std::result::Result<std::convert::Infallible, std::alloc::LayoutError>, (std::alloc::Layout, usize)>", %"std::ops::ControlFlow<std::result::Result<std::convert::Infallible, std::alloc::LayoutError>, (std::alloc::Layout, usize)>"* %_5, i32 0, i32 1, !dbg !941
  %3 = load i64, i64* %2, align 8, !dbg !941
  %4 = icmp eq i64 %3, 0, !dbg !941
  %_10 = select i1 %4, i64 1, i64 0, !dbg !941
  switch i64 %_10, label %bb5 [
    i64 0, label %bb4
    i64 1, label %bb6
  ], !dbg !941

bb5:                                              ; preds = %bb3
  unreachable, !dbg !941

bb4:                                              ; preds = %bb3
  %5 = bitcast %"std::ops::ControlFlow<std::result::Result<std::convert::Infallible, std::alloc::LayoutError>, (std::alloc::Layout, usize)>"* %_5 to %"std::ops::ControlFlow<std::result::Result<std::convert::Infallible, std::alloc::LayoutError>, (std::alloc::Layout, usize)>::Continue"*, !dbg !941
  %6 = bitcast %"std::ops::ControlFlow<std::result::Result<std::convert::Infallible, std::alloc::LayoutError>, (std::alloc::Layout, usize)>::Continue"* %5 to { { i64, i64 }, i64 }*, !dbg !941
  %7 = bitcast { { i64, i64 }, i64 }* %val to i8*, !dbg !941
  %8 = bitcast { { i64, i64 }, i64 }* %6 to i8*, !dbg !941
  call void @llvm.memcpy.p0i8.p0i8.i64(i8* align 8 %7, i8* align 8 %8, i64 24, i1 false), !dbg !941
  %9 = bitcast { { i64, i64 }, i64 }* %_4 to i8*, !dbg !940
  %10 = bitcast { { i64, i64 }, i64 }* %val to i8*, !dbg !940
  call void @llvm.memcpy.p0i8.p0i8.i64(i8* align 8 %9, i8* align 8 %10, i64 24, i1 false), !dbg !940
  %11 = bitcast { { i64, i64 }, i64 }* %_4 to { i64, i64 }*, !dbg !942
  %12 = getelementptr inbounds { i64, i64 }, { i64, i64 }* %11, i32 0, i32 0, !dbg !942
  %13 = load i64, i64* %12, align 8, !dbg !942
  %14 = getelementptr inbounds { i64, i64 }, { i64, i64 }* %11, i32 0, i32 1, !dbg !942
  %15 = load i64, i64* %14, align 8, !dbg !942, !range !324
  %16 = getelementptr inbounds { i64, i64 }, { i64, i64 }* %layout, i32 0, i32 0, !dbg !942
  store i64 %13, i64* %16, align 8, !dbg !942
  %17 = getelementptr inbounds { i64, i64 }, { i64, i64 }* %layout, i32 0, i32 1, !dbg !942
  store i64 %15, i64* %17, align 8, !dbg !942
  %18 = getelementptr inbounds { { i64, i64 }, i64 }, { { i64, i64 }, i64 }* %_4, i32 0, i32 1, !dbg !943
  %offset = load i64, i64* %18, align 8, !dbg !943
  store i64 %offset, i64* %offset.dbg.spill, align 8, !dbg !943
  call void @llvm.dbg.declare(metadata i64* %offset.dbg.spill, metadata !923, metadata !DIExpression()), !dbg !944
; call core::alloc::layout::Layout::pad_to_align
  %19 = call { i64, i64 } @_ZN4core5alloc6layout6Layout12pad_to_align17h8b68337e9a0b4f5eE({ i64, i64 }* align 8 dereferenceable(16) %layout), !dbg !945
  %_17.0 = extractvalue { i64, i64 } %19, 0, !dbg !945
  %_17.1 = extractvalue { i64, i64 } %19, 1, !dbg !945
  br label %bb8, !dbg !945

bb6:                                              ; preds = %bb3
; call <core::result::Result<T,F> as core::ops::try_trait::FromResidual<core::result::Result<core::convert::Infallible,E>>>::from_residual
  %20 = call { i64, i64 } @"_ZN153_$LT$core..result..Result$LT$T$C$F$GT$$u20$as$u20$core..ops..try_trait..FromResidual$LT$core..result..Result$LT$core..convert..Infallible$C$E$GT$$GT$$GT$13from_residual17hbc8bdea06a5b6fb2E"(), !dbg !946
  store { i64, i64 } %20, { i64, i64 }* %0, align 8, !dbg !946
  br label %bb7, !dbg !946

bb7:                                              ; preds = %bb6
  br label %bb9, !dbg !947

bb9:                                              ; preds = %bb8, %bb7
  %21 = getelementptr inbounds { i64, i64 }, { i64, i64 }* %0, i32 0, i32 0, !dbg !947
  %22 = load i64, i64* %21, align 8, !dbg !947
  %23 = getelementptr inbounds { i64, i64 }, { i64, i64 }* %0, i32 0, i32 1, !dbg !947
  %24 = load i64, i64* %23, align 8, !dbg !947
  %25 = insertvalue { i64, i64 } undef, i64 %22, 0, !dbg !947
  %26 = insertvalue { i64, i64 } %25, i64 %24, 1, !dbg !947
  ret { i64, i64 } %26, !dbg !947

bb8:                                              ; preds = %bb4
  %27 = getelementptr inbounds { i64, i64 }, { i64, i64 }* %0, i32 0, i32 0, !dbg !948
  store i64 %_17.0, i64* %27, align 8, !dbg !948
  %28 = getelementptr inbounds { i64, i64 }, { i64, i64 }* %0, i32 0, i32 1, !dbg !948
  store i64 %_17.1, i64* %28, align 8, !dbg !948
  br label %bb9, !dbg !947
}

; core::alloc::layout::Layout::repeat
; Function Attrs: inlinehint nounwind
define internal void @_ZN4core5alloc6layout6Layout6repeat17h776208b8c5ac0e23E(%"std::result::Result<(std::alloc::Layout, usize), std::alloc::LayoutError>"* noalias nocapture sret(%"std::result::Result<(std::alloc::Layout, usize), std::alloc::LayoutError>") dereferenceable(24) %0, { i64, i64 }* align 8 dereferenceable(16) %self, i64 %n) unnamed_addr #0 !dbg !949 {
start:
  %alloc_size.dbg.spill = alloca i64, align 8
  %val.dbg.spill = alloca i64, align 8
  %padded_size.dbg.spill = alloca i64, align 8
  %residual.dbg.spill = alloca %"std::result::Result<std::convert::Infallible, std::alloc::LayoutError>::Err", align 1
  %n.dbg.spill = alloca i64, align 8
  %self.dbg.spill = alloca { i64, i64 }*, align 8
  %_21 = alloca { { i64, i64 }, i64 }, align 8
  %_11 = alloca { i64, i64 }, align 8
  store { i64, i64 }* %self, { i64, i64 }** %self.dbg.spill, align 8
  call void @llvm.dbg.declare(metadata { i64, i64 }** %self.dbg.spill, metadata !953, metadata !DIExpression()), !dbg !963
  store i64 %n, i64* %n.dbg.spill, align 8
  call void @llvm.dbg.declare(metadata i64* %n.dbg.spill, metadata !954, metadata !DIExpression()), !dbg !964
  call void @llvm.dbg.declare(metadata %"std::result::Result<std::convert::Infallible, std::alloc::LayoutError>::Err"* %residual.dbg.spill, metadata !959, metadata !DIExpression()), !dbg !965
; call core::alloc::layout::Layout::size
  %_4 = call i64 @_ZN4core5alloc6layout6Layout4size17hff23cbd9e508b07eE({ i64, i64 }* align 8 dereferenceable(16) %self), !dbg !966
  br label %bb1, !dbg !966

bb1:                                              ; preds = %start
; call core::alloc::layout::Layout::align
  %_8 = call i64 @_ZN4core5alloc6layout6Layout5align17h276944d621282157E({ i64, i64 }* align 8 dereferenceable(16) %self), !dbg !967
  br label %bb2, !dbg !967

bb2:                                              ; preds = %bb1
; call core::alloc::layout::Layout::padding_needed_for
  %_6 = call i64 @_ZN4core5alloc6layout6Layout18padding_needed_for17hd6220d9f99d09752E({ i64, i64 }* align 8 dereferenceable(16) %self, i64 %_8), !dbg !968
  br label %bb3, !dbg !968

bb3:                                              ; preds = %bb2
  %padded_size = add i64 %_4, %_6, !dbg !966
  store i64 %padded_size, i64* %padded_size.dbg.spill, align 8, !dbg !966
  call void @llvm.dbg.declare(metadata i64* %padded_size.dbg.spill, metadata !955, metadata !DIExpression()), !dbg !969
; call core::num::<impl usize>::checked_mul
  %1 = call { i64, i64 } @"_ZN4core3num23_$LT$impl$u20$usize$GT$11checked_mul17haa34520eccbc3bbfE"(i64 %padded_size, i64 %n), !dbg !970
  %_13.0 = extractvalue { i64, i64 } %1, 0, !dbg !970
  %_13.1 = extractvalue { i64, i64 } %1, 1, !dbg !970
  br label %bb4, !dbg !970

bb4:                                              ; preds = %bb3
; call core::option::Option<T>::ok_or
  %2 = call { i64, i64 } @"_ZN4core6option15Option$LT$T$GT$5ok_or17hdba21655eb9fcba7E"(i64 %_13.0, i64 %_13.1), !dbg !970
  %_12.0 = extractvalue { i64, i64 } %2, 0, !dbg !970
  %_12.1 = extractvalue { i64, i64 } %2, 1, !dbg !970
  br label %bb5, !dbg !970

bb5:                                              ; preds = %bb4
; call <core::result::Result<T,E> as core::ops::try_trait::Try>::branch
  %3 = call { i64, i64 } @"_ZN79_$LT$core..result..Result$LT$T$C$E$GT$$u20$as$u20$core..ops..try_trait..Try$GT$6branch17h181936db1af3712fE"(i64 %_12.0, i64 %_12.1), !dbg !970
  store { i64, i64 } %3, { i64, i64 }* %_11, align 8, !dbg !970
  br label %bb6, !dbg !970

bb6:                                              ; preds = %bb5
  %4 = bitcast { i64, i64 }* %_11 to i64*, !dbg !970
  %_17 = load i64, i64* %4, align 8, !dbg !970, !range !314
  switch i64 %_17, label %bb8 [
    i64 0, label %bb7
    i64 1, label %bb9
  ], !dbg !970

bb8:                                              ; preds = %bb6
  unreachable, !dbg !970

bb7:                                              ; preds = %bb6
  %5 = bitcast { i64, i64 }* %_11 to %"std::ops::ControlFlow<std::result::Result<std::convert::Infallible, std::alloc::LayoutError>, usize>::Continue"*, !dbg !970
  %6 = getelementptr inbounds %"std::ops::ControlFlow<std::result::Result<std::convert::Infallible, std::alloc::LayoutError>, usize>::Continue", %"std::ops::ControlFlow<std::result::Result<std::convert::Infallible, std::alloc::LayoutError>, usize>::Continue"* %5, i32 0, i32 1, !dbg !970
  %val = load i64, i64* %6, align 8, !dbg !970
  store i64 %val, i64* %val.dbg.spill, align 8, !dbg !970
  call void @llvm.dbg.declare(metadata i64* %val.dbg.spill, metadata !961, metadata !DIExpression()), !dbg !971
  store i64 %val, i64* %alloc_size.dbg.spill, align 8, !dbg !971
  call void @llvm.dbg.declare(metadata i64* %alloc_size.dbg.spill, metadata !957, metadata !DIExpression()), !dbg !972
; call core::alloc::layout::Layout::align
  %_24 = call i64 @_ZN4core5alloc6layout6Layout5align17h276944d621282157E({ i64, i64 }* align 8 dereferenceable(16) %self), !dbg !973
  br label %bb11, !dbg !973

bb9:                                              ; preds = %bb6
; call <core::result::Result<T,F> as core::ops::try_trait::FromResidual<core::result::Result<core::convert::Infallible,E>>>::from_residual
  call void @"_ZN153_$LT$core..result..Result$LT$T$C$F$GT$$u20$as$u20$core..ops..try_trait..FromResidual$LT$core..result..Result$LT$core..convert..Infallible$C$E$GT$$GT$$GT$13from_residual17h574ef96c700c255cE"(%"std::result::Result<(std::alloc::Layout, usize), std::alloc::LayoutError>"* noalias nocapture sret(%"std::result::Result<(std::alloc::Layout, usize), std::alloc::LayoutError>") dereferenceable(24) %0), !dbg !974
  br label %bb10, !dbg !974

bb10:                                             ; preds = %bb9
  br label %bb13, !dbg !975

bb13:                                             ; preds = %bb12, %bb10
  ret void, !dbg !975

bb11:                                             ; preds = %bb7
; call core::alloc::layout::Layout::from_size_align_unchecked
  %7 = call { i64, i64 } @_ZN4core5alloc6layout6Layout25from_size_align_unchecked17h3c89da80eff8ac97E(i64 %val, i64 %_24), !dbg !976
  %_22.0 = extractvalue { i64, i64 } %7, 0, !dbg !976
  %_22.1 = extractvalue { i64, i64 } %7, 1, !dbg !976
  br label %bb12, !dbg !976

bb12:                                             ; preds = %bb11
  %8 = bitcast { { i64, i64 }, i64 }* %_21 to { i64, i64 }*, !dbg !977
  %9 = getelementptr inbounds { i64, i64 }, { i64, i64 }* %8, i32 0, i32 0, !dbg !977
  store i64 %_22.0, i64* %9, align 8, !dbg !977
  %10 = getelementptr inbounds { i64, i64 }, { i64, i64 }* %8, i32 0, i32 1, !dbg !977
  store i64 %_22.1, i64* %10, align 8, !dbg !977
  %11 = getelementptr inbounds { { i64, i64 }, i64 }, { { i64, i64 }, i64 }* %_21, i32 0, i32 1, !dbg !977
  store i64 %padded_size, i64* %11, align 8, !dbg !977
  %12 = bitcast %"std::result::Result<(std::alloc::Layout, usize), std::alloc::LayoutError>"* %0 to %"std::result::Result<(std::alloc::Layout, usize), std::alloc::LayoutError>::Ok"*, !dbg !978
  %13 = bitcast %"std::result::Result<(std::alloc::Layout, usize), std::alloc::LayoutError>::Ok"* %12 to { { i64, i64 }, i64 }*, !dbg !978
  %14 = bitcast { { i64, i64 }, i64 }* %13 to i8*, !dbg !978
  %15 = bitcast { { i64, i64 }, i64 }* %_21 to i8*, !dbg !978
  call void @llvm.memcpy.p0i8.p0i8.i64(i8* align 8 %14, i8* align 8 %15, i64 24, i1 false), !dbg !978
  br label %bb13, !dbg !975
}

; core::alloc::layout::Layout::dangling
; Function Attrs: inlinehint nounwind
define internal nonnull i8* @_ZN4core5alloc6layout6Layout8dangling17h4630f55a498046bcE({ i64, i64 }* align 8 dereferenceable(16) %self) unnamed_addr #0 !dbg !979 {
start:
  %self.dbg.spill = alloca { i64, i64 }*, align 8
  store { i64, i64 }* %self, { i64, i64 }** %self.dbg.spill, align 8
  call void @llvm.dbg.declare(metadata { i64, i64 }** %self.dbg.spill, metadata !983, metadata !DIExpression()), !dbg !984
; call core::alloc::layout::Layout::align
  %_3 = call i64 @_ZN4core5alloc6layout6Layout5align17h276944d621282157E({ i64, i64 }* align 8 dereferenceable(16) %self), !dbg !985
  br label %bb1, !dbg !985

bb1:                                              ; preds = %start
  %_2 = inttoptr i64 %_3 to i8*, !dbg !985
; call core::ptr::non_null::NonNull<T>::new_unchecked
  %0 = call nonnull i8* @"_ZN4core3ptr8non_null16NonNull$LT$T$GT$13new_unchecked17hc2da2043f3870a87E"(i8* %_2), !dbg !986
  br label %bb2, !dbg !986

bb2:                                              ; preds = %bb1
  ret i8* %0, !dbg !987
}

; core::clone::Clone::clone
; Function Attrs: inlinehint nounwind
define internal void @_ZN4core5clone5Clone5clone17hbe3797f3a2d4f3b0E({}* nonnull align 1 %_1) unnamed_addr #0 !dbg !988 {
start:
  %_1.dbg.spill = alloca {}*, align 8
  store {}* %_1, {}** %_1.dbg.spill, align 8
  call void @llvm.dbg.declare(metadata {}** %_1.dbg.spill, metadata !996, metadata !DIExpression()), !dbg !999
  ret void, !dbg !999
}

; core::slice::<impl [T]>::iter_mut
; Function Attrs: inlinehint nounwind
define { i8*, i8* } @"_ZN4core5slice29_$LT$impl$u20$$u5b$T$u5d$$GT$8iter_mut17h10bfe3b719d13996E"([0 x i8]* nonnull align 1 %self.0, i64 %self.1) unnamed_addr #0 !dbg !1000 {
start:
  %self.dbg.spill = alloca { [0 x i8]*, i64 }, align 8
  %0 = getelementptr inbounds { [0 x i8]*, i64 }, { [0 x i8]*, i64 }* %self.dbg.spill, i32 0, i32 0
  store [0 x i8]* %self.0, [0 x i8]** %0, align 8
  %1 = getelementptr inbounds { [0 x i8]*, i64 }, { [0 x i8]*, i64 }* %self.dbg.spill, i32 0, i32 1
  store i64 %self.1, i64* %1, align 8
  call void @llvm.dbg.declare(metadata { [0 x i8]*, i64 }* %self.dbg.spill, metadata !1021, metadata !DIExpression()), !dbg !1022
; call core::slice::iter::IterMut<T>::new
  %2 = call { i8*, i8* } @"_ZN4core5slice4iter16IterMut$LT$T$GT$3new17h262492c02c3eb9f6E"([0 x i8]* nonnull align 1 %self.0, i64 %self.1), !dbg !1023
  %3 = extractvalue { i8*, i8* } %2, 0, !dbg !1023
  %4 = extractvalue { i8*, i8* } %2, 1, !dbg !1023
  br label %bb1, !dbg !1023

bb1:                                              ; preds = %start
  %5 = insertvalue { i8*, i8* } undef, i8* %3, 0, !dbg !1024
  %6 = insertvalue { i8*, i8* } %5, i8* %4, 1, !dbg !1024
  ret { i8*, i8* } %6, !dbg !1024
}

; core::slice::raw::from_raw_parts_mut
; Function Attrs: inlinehint nounwind
define { [0 x i8]*, i64 } @_ZN4core5slice3raw18from_raw_parts_mut17h2e42d2ca04973cf5E(i8* %data, i64 %len) unnamed_addr #0 !dbg !1025 {
start:
  %len.dbg.spill = alloca i64, align 8
  %data.dbg.spill = alloca i8*, align 8
  store i8* %data, i8** %data.dbg.spill, align 8
  call void @llvm.dbg.declare(metadata i8** %data.dbg.spill, metadata !1035, metadata !DIExpression()), !dbg !1037
  store i64 %len, i64* %len.dbg.spill, align 8
  call void @llvm.dbg.declare(metadata i64* %len.dbg.spill, metadata !1036, metadata !DIExpression()), !dbg !1038
; call core::ptr::slice_from_raw_parts_mut
  %0 = call { [0 x i8]*, i64 } @_ZN4core3ptr24slice_from_raw_parts_mut17h4871d44e15180306E(i8* %data, i64 %len), !dbg !1039
  %_6.0 = extractvalue { [0 x i8]*, i64 } %0, 0, !dbg !1039
  %_6.1 = extractvalue { [0 x i8]*, i64 } %0, 1, !dbg !1039
  br label %bb1, !dbg !1039

bb1:                                              ; preds = %start
  %1 = insertvalue { [0 x i8]*, i64 } undef, [0 x i8]* %_6.0, 0, !dbg !1040
  %2 = insertvalue { [0 x i8]*, i64 } %1, i64 %_6.1, 1, !dbg !1040
  ret { [0 x i8]*, i64 } %2, !dbg !1040
}

; core::slice::raw::from_raw_parts_mut
; Function Attrs: inlinehint nounwind
define { [0 x i8]*, i64 } @_ZN4core5slice3raw18from_raw_parts_mut17h4bc4a647db40be6aE(i8* %data, i64 %len) unnamed_addr #0 !dbg !1041 {
start:
  %len.dbg.spill = alloca i64, align 8
  %data.dbg.spill = alloca i8*, align 8
  store i8* %data, i8** %data.dbg.spill, align 8
  call void @llvm.dbg.declare(metadata i8** %data.dbg.spill, metadata !1045, metadata !DIExpression()), !dbg !1047
  store i64 %len, i64* %len.dbg.spill, align 8
  call void @llvm.dbg.declare(metadata i64* %len.dbg.spill, metadata !1046, metadata !DIExpression()), !dbg !1048
; call core::ptr::slice_from_raw_parts_mut
  %0 = call { [0 x i8]*, i64 } @_ZN4core3ptr24slice_from_raw_parts_mut17ha423c167c8324f43E(i8* %data, i64 %len), !dbg !1049
  %_6.0 = extractvalue { [0 x i8]*, i64 } %0, 0, !dbg !1049
  %_6.1 = extractvalue { [0 x i8]*, i64 } %0, 1, !dbg !1049
  br label %bb1, !dbg !1049

bb1:                                              ; preds = %start
  %1 = insertvalue { [0 x i8]*, i64 } undef, [0 x i8]* %_6.0, 0, !dbg !1050
  %2 = insertvalue { [0 x i8]*, i64 } %1, i64 %_6.1, 1, !dbg !1050
  ret { [0 x i8]*, i64 } %2, !dbg !1050
}

; core::slice::iter::IterMut<T>::new
; Function Attrs: inlinehint nounwind
define { i8*, i8* } @"_ZN4core5slice4iter16IterMut$LT$T$GT$3new17h262492c02c3eb9f6E"([0 x i8]* nonnull align 1 %slice.0, i64 %slice.1) unnamed_addr #0 !dbg !1051 {
start:
  %0 = alloca i8*, align 8
  %count.dbg.spill.i.i1 = alloca i64, align 8
  %self.dbg.spill.i.i2 = alloca i8*, align 8
  %count.dbg.spill.i3 = alloca i64, align 8
  %self.dbg.spill.i4 = alloca i8*, align 8
  %1 = alloca i8*, align 8
  %count.dbg.spill.i.i = alloca i64, align 8
  %self.dbg.spill.i.i = alloca i8*, align 8
  %count.dbg.spill.i = alloca i64, align 8
  %self.dbg.spill.i = alloca i8*, align 8
  %ptr.dbg.spill = alloca i8*, align 8
  %slice.dbg.spill = alloca { [0 x i8]*, i64 }, align 8
  %end = alloca i8*, align 8
  %2 = alloca { i8*, i8* }, align 8
  %3 = getelementptr inbounds { [0 x i8]*, i64 }, { [0 x i8]*, i64 }* %slice.dbg.spill, i32 0, i32 0
  store [0 x i8]* %slice.0, [0 x i8]** %3, align 8
  %4 = getelementptr inbounds { [0 x i8]*, i64 }, { [0 x i8]*, i64 }* %slice.dbg.spill, i32 0, i32 1
  store i64 %slice.1, i64* %4, align 8
  call void @llvm.dbg.declare(metadata { [0 x i8]*, i64 }* %slice.dbg.spill, metadata !1054, metadata !DIExpression()), !dbg !1059
  call void @llvm.dbg.declare(metadata i8** %end, metadata !1057, metadata !DIExpression()), !dbg !1060
; call core::slice::<impl [T]>::as_mut_ptr
  %ptr = call i8* @"_ZN4core5slice29_$LT$impl$u20$$u5b$T$u5d$$GT$10as_mut_ptr17h5e507730b25b65e8E"([0 x i8]* nonnull align 1 %slice.0, i64 %slice.1), !dbg !1061
  store i8* %ptr, i8** %ptr.dbg.spill, align 8, !dbg !1061
  call void @llvm.dbg.declare(metadata i8** %ptr.dbg.spill, metadata !1055, metadata !DIExpression()), !dbg !1062
  br label %bb1, !dbg !1061

bb1:                                              ; preds = %start
; call core::ptr::mut_ptr::<impl *mut T>::is_null
  %_6 = call zeroext i1 @"_ZN4core3ptr7mut_ptr31_$LT$impl$u20$$BP$mut$u20$T$GT$7is_null17h6a2a0bd716f25be5E"(i8* %ptr), !dbg !1063
  br label %bb2, !dbg !1063

bb2:                                              ; preds = %bb1
  %_5 = xor i1 %_6, true, !dbg !1064
  call void @llvm.assume(i1 %_5), !dbg !1065
  br label %bb3, !dbg !1065

bb3:                                              ; preds = %bb2
  br label %bb4, !dbg !1066

bb4:                                              ; preds = %bb3
  %5 = icmp eq i64 1, 0, !dbg !1066
  br i1 %5, label %bb5, label %bb7, !dbg !1066

bb5:                                              ; preds = %bb4
  store i8* %ptr, i8** %self.dbg.spill.i4, align 8
  call void @llvm.dbg.declare(metadata i8** %self.dbg.spill.i4, metadata !1067, metadata !DIExpression()), !dbg !1073
  store i64 %slice.1, i64* %count.dbg.spill.i3, align 8
  call void @llvm.dbg.declare(metadata i64* %count.dbg.spill.i3, metadata !1072, metadata !DIExpression()), !dbg !1075
  store i8* %ptr, i8** %self.dbg.spill.i.i2, align 8
  call void @llvm.dbg.declare(metadata i8** %self.dbg.spill.i.i2, metadata !1076, metadata !DIExpression()), !dbg !1083
  store i64 %slice.1, i64* %count.dbg.spill.i.i1, align 8
  call void @llvm.dbg.declare(metadata i64* %count.dbg.spill.i.i1, metadata !1082, metadata !DIExpression()), !dbg !1085
  %6 = getelementptr i8, i8* %ptr, i64 %slice.1, !dbg !1086
  store i8* %6, i8** %0, align 8, !dbg !1086
  %_3.i.i5 = load i8*, i8** %0, align 8, !dbg !1086
  br label %bb6, !dbg !1087

bb7:                                              ; preds = %bb4
  store i8* %ptr, i8** %self.dbg.spill.i, align 8
  call void @llvm.dbg.declare(metadata i8** %self.dbg.spill.i, metadata !1088, metadata !DIExpression()), !dbg !1092
  store i64 %slice.1, i64* %count.dbg.spill.i, align 8
  call void @llvm.dbg.declare(metadata i64* %count.dbg.spill.i, metadata !1091, metadata !DIExpression()), !dbg !1094
  store i8* %ptr, i8** %self.dbg.spill.i.i, align 8
  call void @llvm.dbg.declare(metadata i8** %self.dbg.spill.i.i, metadata !1095, metadata !DIExpression()), !dbg !1099
  store i64 %slice.1, i64* %count.dbg.spill.i.i, align 8
  call void @llvm.dbg.declare(metadata i64* %count.dbg.spill.i.i, metadata !1098, metadata !DIExpression()), !dbg !1101
  %7 = getelementptr inbounds i8, i8* %ptr, i64 %slice.1, !dbg !1102
  store i8* %7, i8** %1, align 8, !dbg !1102
  %_3.i.i = load i8*, i8** %1, align 8, !dbg !1102
  store i8* %_3.i.i, i8** %end, align 8, !dbg !1103
  br label %bb8, !dbg !1103

bb8:                                              ; preds = %bb7
  br label %bb9, !dbg !1104

bb9:                                              ; preds = %bb6, %bb8
; call core::ptr::non_null::NonNull<T>::new_unchecked
  %_18 = call nonnull i8* @"_ZN4core3ptr8non_null16NonNull$LT$T$GT$13new_unchecked17hc2da2043f3870a87E"(i8* %ptr), !dbg !1105
  br label %bb10, !dbg !1105

bb6:                                              ; preds = %bb5
  store i8* %_3.i.i5, i8** %end, align 8, !dbg !1087
  br label %bb9, !dbg !1104

bb10:                                             ; preds = %bb9
  %_20 = load i8*, i8** %end, align 8, !dbg !1106
  %8 = bitcast { i8*, i8* }* %2 to i8**, !dbg !1107
  store i8* %_18, i8** %8, align 8, !dbg !1107
  %9 = getelementptr inbounds { i8*, i8* }, { i8*, i8* }* %2, i32 0, i32 1, !dbg !1107
  store i8* %_20, i8** %9, align 8, !dbg !1107
  %10 = getelementptr inbounds { i8*, i8* }, { i8*, i8* }* %2, i32 0, i32 0, !dbg !1108
  %11 = load i8*, i8** %10, align 8, !dbg !1108, !nonnull !4
  %12 = getelementptr inbounds { i8*, i8* }, { i8*, i8* }* %2, i32 0, i32 1, !dbg !1108
  %13 = load i8*, i8** %12, align 8, !dbg !1108
  %14 = insertvalue { i8*, i8* } undef, i8* %11, 0, !dbg !1108
  %15 = insertvalue { i8*, i8* } %14, i8* %13, 1, !dbg !1108
  ret { i8*, i8* } %15, !dbg !1108
}

; core::option::Option<T>::ok_or
; Function Attrs: inlinehint nounwind
define { i64, i64 } @"_ZN4core6option15Option$LT$T$GT$5ok_or17hdba21655eb9fcba7E"(i64 %0, i64 %1) unnamed_addr #0 !dbg !1109 {
start:
  %v.dbg.spill = alloca i64, align 8
  %err.dbg.spill = alloca %"std::alloc::LayoutError", align 1
  %_7 = alloca i8, align 1
  %2 = alloca { i64, i64 }, align 8
  %self = alloca { i64, i64 }, align 8
  %3 = getelementptr inbounds { i64, i64 }, { i64, i64 }* %self, i32 0, i32 0
  store i64 %0, i64* %3, align 8
  %4 = getelementptr inbounds { i64, i64 }, { i64, i64 }* %self, i32 0, i32 1
  store i64 %1, i64* %4, align 8
  call void @llvm.dbg.declare(metadata { i64, i64 }* %self, metadata !1127, metadata !DIExpression()), !dbg !1131
  call void @llvm.dbg.declare(metadata %"std::alloc::LayoutError"* %err.dbg.spill, metadata !1128, metadata !DIExpression()), !dbg !1132
  store i8 0, i8* %_7, align 1, !dbg !1133
  store i8 1, i8* %_7, align 1, !dbg !1133
  %5 = bitcast { i64, i64 }* %self to i64*, !dbg !1133
  %_3 = load i64, i64* %5, align 8, !dbg !1133, !range !314
  switch i64 %_3, label %bb2 [
    i64 0, label %bb1
    i64 1, label %bb3
  ], !dbg !1134

bb2:                                              ; preds = %start
  unreachable, !dbg !1133

bb1:                                              ; preds = %start
  store i8 0, i8* %_7, align 1, !dbg !1135
  %6 = bitcast { i64, i64 }* %2 to %"std::result::Result<usize, std::alloc::LayoutError>::Err"*, !dbg !1136
  %7 = getelementptr inbounds %"std::result::Result<usize, std::alloc::LayoutError>::Err", %"std::result::Result<usize, std::alloc::LayoutError>::Err"* %6, i32 0, i32 1, !dbg !1136
  %8 = bitcast { i64, i64 }* %2 to i64*, !dbg !1136
  store i64 1, i64* %8, align 8, !dbg !1136
  br label %bb4, !dbg !1137

bb3:                                              ; preds = %start
  %9 = bitcast { i64, i64 }* %self to %"std::option::Option<usize>::Some"*, !dbg !1138
  %10 = getelementptr inbounds %"std::option::Option<usize>::Some", %"std::option::Option<usize>::Some"* %9, i32 0, i32 1, !dbg !1138
  %v = load i64, i64* %10, align 8, !dbg !1138
  store i64 %v, i64* %v.dbg.spill, align 8, !dbg !1138
  call void @llvm.dbg.declare(metadata i64* %v.dbg.spill, metadata !1129, metadata !DIExpression()), !dbg !1139
  %11 = bitcast { i64, i64 }* %2 to %"std::result::Result<usize, std::alloc::LayoutError>::Ok"*, !dbg !1140
  %12 = getelementptr inbounds %"std::result::Result<usize, std::alloc::LayoutError>::Ok", %"std::result::Result<usize, std::alloc::LayoutError>::Ok"* %11, i32 0, i32 1, !dbg !1140
  store i64 %v, i64* %12, align 8, !dbg !1140
  %13 = bitcast { i64, i64 }* %2 to i64*, !dbg !1140
  store i64 0, i64* %13, align 8, !dbg !1140
  br label %bb4, !dbg !1141

bb4:                                              ; preds = %bb1, %bb3
  %14 = load i8, i8* %_7, align 1, !dbg !1142, !range !297
  %15 = trunc i8 %14 to i1, !dbg !1142
  br i1 %15, label %bb6, label %bb5, !dbg !1142

bb5:                                              ; preds = %bb6, %bb4
  %16 = getelementptr inbounds { i64, i64 }, { i64, i64 }* %2, i32 0, i32 0, !dbg !1143
  %17 = load i64, i64* %16, align 8, !dbg !1143, !range !314
  %18 = getelementptr inbounds { i64, i64 }, { i64, i64 }* %2, i32 0, i32 1, !dbg !1143
  %19 = load i64, i64* %18, align 8, !dbg !1143
  %20 = insertvalue { i64, i64 } undef, i64 %17, 0, !dbg !1143
  %21 = insertvalue { i64, i64 } %20, i64 %19, 1, !dbg !1143
  ret { i64, i64 } %21, !dbg !1143

bb6:                                              ; preds = %bb4
  br label %bb5, !dbg !1142
}

; core::option::Option<T>::ok_or
; Function Attrs: inlinehint nounwind
define i8* @"_ZN4core6option15Option$LT$T$GT$5ok_or17heff60f8863cbf4caE"(i8* %0) unnamed_addr #0 !dbg !1144 {
start:
  %v.dbg.spill = alloca i8*, align 8
  %err.dbg.spill = alloca %"std::alloc::AllocError", align 1
  %_7 = alloca i8, align 1
  %1 = alloca i8*, align 8
  %self = alloca i8*, align 8
  store i8* %0, i8** %self, align 8
  call void @llvm.dbg.declare(metadata i8** %self, metadata !1161, metadata !DIExpression()), !dbg !1165
  call void @llvm.dbg.declare(metadata %"std::alloc::AllocError"* %err.dbg.spill, metadata !1162, metadata !DIExpression()), !dbg !1166
  store i8 0, i8* %_7, align 1, !dbg !1167
  store i8 1, i8* %_7, align 1, !dbg !1167
  %2 = bitcast i8** %self to {}**, !dbg !1167
  %3 = load {}*, {}** %2, align 8, !dbg !1167
  %4 = icmp eq {}* %3, null, !dbg !1167
  %_3 = select i1 %4, i64 0, i64 1, !dbg !1167
  switch i64 %_3, label %bb2 [
    i64 0, label %bb1
    i64 1, label %bb3
  ], !dbg !1168

bb2:                                              ; preds = %start
  unreachable, !dbg !1167

bb1:                                              ; preds = %start
  store i8 0, i8* %_7, align 1, !dbg !1169
  %5 = bitcast i8** %1 to %"std::result::Result<std::ptr::NonNull<u8>, std::alloc::AllocError>::Err"*, !dbg !1170
  %6 = bitcast %"std::result::Result<std::ptr::NonNull<u8>, std::alloc::AllocError>::Err"* %5 to %"std::alloc::AllocError"*, !dbg !1170
  %7 = bitcast i8** %1 to {}**, !dbg !1170
  store {}* null, {}** %7, align 8, !dbg !1170
  br label %bb4, !dbg !1171

bb3:                                              ; preds = %start
  %v = load i8*, i8** %self, align 8, !dbg !1172, !nonnull !4
  store i8* %v, i8** %v.dbg.spill, align 8, !dbg !1172
  call void @llvm.dbg.declare(metadata i8** %v.dbg.spill, metadata !1163, metadata !DIExpression()), !dbg !1173
  store i8* %v, i8** %1, align 8, !dbg !1174
  br label %bb4, !dbg !1175

bb4:                                              ; preds = %bb1, %bb3
  %8 = load i8, i8* %_7, align 1, !dbg !1176, !range !297
  %9 = trunc i8 %8 to i1, !dbg !1176
  br i1 %9, label %bb6, label %bb5, !dbg !1176

bb5:                                              ; preds = %bb6, %bb4
  %10 = load i8*, i8** %1, align 8, !dbg !1177
  ret i8* %10, !dbg !1177

bb6:                                              ; preds = %bb4
  br label %bb5, !dbg !1176
}

; core::result::Result<T,E>::unwrap
; Function Attrs: inlinehint nounwind
define { i64, i64 } @"_ZN4core6result19Result$LT$T$C$E$GT$6unwrap17h5e00425fbc2383bbE"(i64 %0, i64 %1, %"std::panic::Location"* align 8 dereferenceable(24) %2) unnamed_addr #0 !dbg !1178 {
start:
  %t.dbg.spill = alloca { i64, i64 }, align 8
  %e = alloca %"std::alloc::LayoutError", align 1
  %self = alloca { i64, i64 }, align 8
  %3 = getelementptr inbounds { i64, i64 }, { i64, i64 }* %self, i32 0, i32 0
  store i64 %0, i64* %3, align 8
  %4 = getelementptr inbounds { i64, i64 }, { i64, i64 }* %self, i32 0, i32 1
  store i64 %1, i64* %4, align 8
  call void @llvm.dbg.declare(metadata { i64, i64 }* %self, metadata !1182, metadata !DIExpression()), !dbg !1187
  call void @llvm.dbg.declare(metadata %"std::alloc::LayoutError"* %e, metadata !1185, metadata !DIExpression()), !dbg !1188
  %5 = getelementptr inbounds { i64, i64 }, { i64, i64 }* %self, i32 0, i32 1, !dbg !1189
  %6 = load i64, i64* %5, align 8, !dbg !1189
  %7 = icmp eq i64 %6, 0, !dbg !1189
  %_2 = select i1 %7, i64 1, i64 0, !dbg !1189
  switch i64 %_2, label %bb2 [
    i64 0, label %bb3
    i64 1, label %bb1
  ], !dbg !1190

bb2:                                              ; preds = %start
  unreachable, !dbg !1189

bb3:                                              ; preds = %start
  %8 = getelementptr inbounds { i64, i64 }, { i64, i64 }* %self, i32 0, i32 0, !dbg !1191
  %t.0 = load i64, i64* %8, align 8, !dbg !1191
  %9 = getelementptr inbounds { i64, i64 }, { i64, i64 }* %self, i32 0, i32 1, !dbg !1191
  %t.1 = load i64, i64* %9, align 8, !dbg !1191, !range !324
  %10 = getelementptr inbounds { i64, i64 }, { i64, i64 }* %t.dbg.spill, i32 0, i32 0, !dbg !1191
  store i64 %t.0, i64* %10, align 8, !dbg !1191
  %11 = getelementptr inbounds { i64, i64 }, { i64, i64 }* %t.dbg.spill, i32 0, i32 1, !dbg !1191
  store i64 %t.1, i64* %11, align 8, !dbg !1191
  call void @llvm.dbg.declare(metadata { i64, i64 }* %t.dbg.spill, metadata !1183, metadata !DIExpression()), !dbg !1192
  %12 = insertvalue { i64, i64 } undef, i64 %t.0, 0, !dbg !1193
  %13 = insertvalue { i64, i64 } %12, i64 %t.1, 1, !dbg !1193
  ret { i64, i64 } %13, !dbg !1193

bb1:                                              ; preds = %start
  %_6.0 = bitcast %"std::alloc::LayoutError"* %e to {}*, !dbg !1194
; call core::result::unwrap_failed
  call void @_ZN4core6result13unwrap_failed17h84047e2415998400E([0 x i8]* nonnull align 1 bitcast (<{ [43 x i8] }>* @alloc90 to [0 x i8]*), i64 43, {}* nonnull align 1 %_6.0, [3 x i64]* align 8 dereferenceable(24) bitcast (<{ i8*, [16 x i8], i8*, [0 x i8] }>* @vtable.0 to [3 x i64]*), %"std::panic::Location"* align 8 dereferenceable(24) %2), !dbg !1195
  unreachable, !dbg !1195
}

; core::result::Result<T,E>::map_err
; Function Attrs: inlinehint nounwind
define void @"_ZN4core6result19Result$LT$T$C$E$GT$7map_err17h2f35bf70ba7cd143E"(%"std::result::Result<std::ptr::NonNull<[u8]>, std::collections::TryReserveErrorKind>"* noalias nocapture sret(%"std::result::Result<std::ptr::NonNull<[u8]>, std::collections::TryReserveErrorKind>") dereferenceable(24) %0, i8* %1, i64 %2, i64* align 8 dereferenceable(16) %op) unnamed_addr #0 !dbg !1196 {
start:
  %t.dbg.spill = alloca { i8*, i64 }, align 8
  %e.dbg.spill = alloca %"std::alloc::AllocError", align 1
  %op.dbg.spill = alloca i64*, align 8
  %_11 = alloca i8, align 1
  %_9 = alloca { %"std::alloc::AllocError" }, align 1
  %self = alloca { i8*, i64 }, align 8
  %3 = getelementptr inbounds { i8*, i64 }, { i8*, i64 }* %self, i32 0, i32 0
  store i8* %1, i8** %3, align 8
  %4 = getelementptr inbounds { i8*, i64 }, { i8*, i64 }* %self, i32 0, i32 1
  store i64 %2, i64* %4, align 8
  call void @llvm.dbg.declare(metadata { i8*, i64 }* %self, metadata !1218, metadata !DIExpression()), !dbg !1227
  store i64* %op, i64** %op.dbg.spill, align 8
  call void @llvm.dbg.declare(metadata i64** %op.dbg.spill, metadata !1219, metadata !DIExpression()), !dbg !1228
  call void @llvm.dbg.declare(metadata %"std::alloc::AllocError"* %e.dbg.spill, metadata !1222, metadata !DIExpression()), !dbg !1229
  store i8 0, i8* %_11, align 1, !dbg !1230
  store i8 1, i8* %_11, align 1, !dbg !1230
  %5 = bitcast { i8*, i64 }* %self to {}**, !dbg !1230
  %6 = load {}*, {}** %5, align 8, !dbg !1230
  %7 = icmp eq {}* %6, null, !dbg !1230
  %_3 = select i1 %7, i64 1, i64 0, !dbg !1230
  switch i64 %_3, label %bb2 [
    i64 0, label %bb3
    i64 1, label %bb1
  ], !dbg !1231

bb2:                                              ; preds = %start
  unreachable, !dbg !1230

bb3:                                              ; preds = %start
  %8 = getelementptr inbounds { i8*, i64 }, { i8*, i64 }* %self, i32 0, i32 0, !dbg !1232
  %t.0 = load i8*, i8** %8, align 8, !dbg !1232, !nonnull !4
  %9 = getelementptr inbounds { i8*, i64 }, { i8*, i64 }* %self, i32 0, i32 1, !dbg !1232
  %t.1 = load i64, i64* %9, align 8, !dbg !1232
  %10 = getelementptr inbounds { i8*, i64 }, { i8*, i64 }* %t.dbg.spill, i32 0, i32 0, !dbg !1232
  store i8* %t.0, i8** %10, align 8, !dbg !1232
  %11 = getelementptr inbounds { i8*, i64 }, { i8*, i64 }* %t.dbg.spill, i32 0, i32 1, !dbg !1232
  store i64 %t.1, i64* %11, align 8, !dbg !1232
  call void @llvm.dbg.declare(metadata { i8*, i64 }* %t.dbg.spill, metadata !1220, metadata !DIExpression()), !dbg !1233
  %12 = bitcast %"std::result::Result<std::ptr::NonNull<[u8]>, std::collections::TryReserveErrorKind>"* %0 to %"std::result::Result<std::ptr::NonNull<[u8]>, std::collections::TryReserveErrorKind>::Ok"*, !dbg !1234
  %13 = getelementptr inbounds %"std::result::Result<std::ptr::NonNull<[u8]>, std::collections::TryReserveErrorKind>::Ok", %"std::result::Result<std::ptr::NonNull<[u8]>, std::collections::TryReserveErrorKind>::Ok"* %12, i32 0, i32 1, !dbg !1234
  %14 = getelementptr inbounds { i8*, i64 }, { i8*, i64 }* %13, i32 0, i32 0, !dbg !1234
  store i8* %t.0, i8** %14, align 8, !dbg !1234
  %15 = getelementptr inbounds { i8*, i64 }, { i8*, i64 }* %13, i32 0, i32 1, !dbg !1234
  store i64 %t.1, i64* %15, align 8, !dbg !1234
  %16 = bitcast %"std::result::Result<std::ptr::NonNull<[u8]>, std::collections::TryReserveErrorKind>"* %0 to i64*, !dbg !1234
  store i64 0, i64* %16, align 8, !dbg !1234
  br label %bb5, !dbg !1235

bb1:                                              ; preds = %start
  store i8 0, i8* %_11, align 1, !dbg !1236
  %17 = bitcast { %"std::alloc::AllocError" }* %_9 to %"std::alloc::AllocError"*, !dbg !1236
; call alloc::raw_vec::RawVec<T,A>::shrink::{{closure}}
  %18 = call { i64, i64 } @"_ZN5alloc7raw_vec19RawVec$LT$T$C$A$GT$6shrink28_$u7b$$u7b$closure$u7d$$u7d$17hfd81c9a46083ca1cE"(i64* align 8 dereferenceable(16) %op), !dbg !1236
  %_7.0 = extractvalue { i64, i64 } %18, 0, !dbg !1236
  %_7.1 = extractvalue { i64, i64 } %18, 1, !dbg !1236
  br label %bb4, !dbg !1236

bb4:                                              ; preds = %bb1
  %19 = bitcast %"std::result::Result<std::ptr::NonNull<[u8]>, std::collections::TryReserveErrorKind>"* %0 to %"std::result::Result<std::ptr::NonNull<[u8]>, std::collections::TryReserveErrorKind>::Err"*, !dbg !1237
  %20 = getelementptr inbounds %"std::result::Result<std::ptr::NonNull<[u8]>, std::collections::TryReserveErrorKind>::Err", %"std::result::Result<std::ptr::NonNull<[u8]>, std::collections::TryReserveErrorKind>::Err"* %19, i32 0, i32 1, !dbg !1237
  %21 = getelementptr inbounds { i64, i64 }, { i64, i64 }* %20, i32 0, i32 0, !dbg !1237
  store i64 %_7.0, i64* %21, align 8, !dbg !1237
  %22 = getelementptr inbounds { i64, i64 }, { i64, i64 }* %20, i32 0, i32 1, !dbg !1237
  store i64 %_7.1, i64* %22, align 8, !dbg !1237
  %23 = bitcast %"std::result::Result<std::ptr::NonNull<[u8]>, std::collections::TryReserveErrorKind>"* %0 to i64*, !dbg !1237
  store i64 1, i64* %23, align 8, !dbg !1237
  br label %bb5, !dbg !1238

bb5:                                              ; preds = %bb3, %bb4
  %24 = load i8, i8* %_11, align 1, !dbg !1239, !range !297
  %25 = trunc i8 %24 to i1, !dbg !1239
  br i1 %25, label %bb7, label %bb6, !dbg !1239

bb6:                                              ; preds = %bb7, %bb5
  ret void, !dbg !1240

bb7:                                              ; preds = %bb5
  br label %bb6, !dbg !1239
}

; core::result::Result<T,E>::map_err
; Function Attrs: inlinehint nounwind
define void @"_ZN4core6result19Result$LT$T$C$E$GT$7map_err17hba6a2535d55cdadfE"(%"std::result::Result<(), std::collections::TryReserveErrorKind>"* noalias nocapture sret(%"std::result::Result<(), std::collections::TryReserveErrorKind>") dereferenceable(24) %0, %"std::result::Result<(), std::collections::TryReserveError>"* noalias nocapture dereferenceable(24) %self) unnamed_addr #0 !dbg !1241 {
start:
  %e.dbg.spill = alloca { i64, i64 }, align 8
  %t.dbg.spill = alloca {}, align 1
  %op.dbg.spill = alloca %"[closure@alloc::raw_vec::handle_reserve::{closure#0}]", align 1
  %_11 = alloca i8, align 1
  %_9 = alloca { i64, i64 }, align 8
  call void @llvm.dbg.declare(metadata %"std::result::Result<(), std::collections::TryReserveError>"* %self, metadata !1260, metadata !DIExpression()), !dbg !1268
  call void @llvm.dbg.declare(metadata %"[closure@alloc::raw_vec::handle_reserve::{closure#0}]"* %op.dbg.spill, metadata !1261, metadata !DIExpression()), !dbg !1269
  call void @llvm.dbg.declare(metadata {}* %t.dbg.spill, metadata !1262, metadata !DIExpression()), !dbg !1270
  store i8 0, i8* %_11, align 1, !dbg !1271
  store i8 1, i8* %_11, align 1, !dbg !1271
  %1 = bitcast %"std::result::Result<(), std::collections::TryReserveError>"* %self to i64*, !dbg !1271
  %_3 = load i64, i64* %1, align 8, !dbg !1271, !range !314
  switch i64 %_3, label %bb2 [
    i64 0, label %bb3
    i64 1, label %bb1
  ], !dbg !1272

bb2:                                              ; preds = %start
  unreachable, !dbg !1271

bb3:                                              ; preds = %start
  %2 = bitcast %"std::result::Result<(), std::collections::TryReserveErrorKind>"* %0 to %"std::result::Result<(), std::collections::TryReserveErrorKind>::Ok"*, !dbg !1273
  %3 = getelementptr inbounds %"std::result::Result<(), std::collections::TryReserveErrorKind>::Ok", %"std::result::Result<(), std::collections::TryReserveErrorKind>::Ok"* %2, i32 0, i32 1, !dbg !1273
  %4 = bitcast %"std::result::Result<(), std::collections::TryReserveErrorKind>"* %0 to i64*, !dbg !1273
  store i64 0, i64* %4, align 8, !dbg !1273
  br label %bb5, !dbg !1274

bb1:                                              ; preds = %start
  %5 = bitcast %"std::result::Result<(), std::collections::TryReserveError>"* %self to %"std::result::Result<(), std::collections::TryReserveError>::Err"*, !dbg !1275
  %6 = getelementptr inbounds %"std::result::Result<(), std::collections::TryReserveError>::Err", %"std::result::Result<(), std::collections::TryReserveError>::Err"* %5, i32 0, i32 1, !dbg !1275
  %7 = getelementptr inbounds { i64, i64 }, { i64, i64 }* %6, i32 0, i32 0, !dbg !1275
  %e.0 = load i64, i64* %7, align 8, !dbg !1275
  %8 = getelementptr inbounds { i64, i64 }, { i64, i64 }* %6, i32 0, i32 1, !dbg !1275
  %e.1 = load i64, i64* %8, align 8, !dbg !1275
  %9 = getelementptr inbounds { i64, i64 }, { i64, i64 }* %e.dbg.spill, i32 0, i32 0, !dbg !1275
  store i64 %e.0, i64* %9, align 8, !dbg !1275
  %10 = getelementptr inbounds { i64, i64 }, { i64, i64 }* %e.dbg.spill, i32 0, i32 1, !dbg !1275
  store i64 %e.1, i64* %10, align 8, !dbg !1275
  call void @llvm.dbg.declare(metadata { i64, i64 }* %e.dbg.spill, metadata !1264, metadata !DIExpression()), !dbg !1276
  store i8 0, i8* %_11, align 1, !dbg !1277
  %11 = getelementptr inbounds { i64, i64 }, { i64, i64 }* %_9, i32 0, i32 0, !dbg !1277
  store i64 %e.0, i64* %11, align 8, !dbg !1277
  %12 = getelementptr inbounds { i64, i64 }, { i64, i64 }* %_9, i32 0, i32 1, !dbg !1277
  store i64 %e.1, i64* %12, align 8, !dbg !1277
  %13 = getelementptr inbounds { i64, i64 }, { i64, i64 }* %_9, i32 0, i32 0, !dbg !1277
  %14 = load i64, i64* %13, align 8, !dbg !1277
  %15 = getelementptr inbounds { i64, i64 }, { i64, i64 }* %_9, i32 0, i32 1, !dbg !1277
  %16 = load i64, i64* %15, align 8, !dbg !1277
; call alloc::raw_vec::handle_reserve::{{closure}}
  %17 = call { i64, i64 } @"_ZN5alloc7raw_vec14handle_reserve28_$u7b$$u7b$closure$u7d$$u7d$17h514065499dbcbdbbE"(i64 %14, i64 %16), !dbg !1277
  %_7.0 = extractvalue { i64, i64 } %17, 0, !dbg !1277
  %_7.1 = extractvalue { i64, i64 } %17, 1, !dbg !1277
  br label %bb4, !dbg !1277

bb4:                                              ; preds = %bb1
  %18 = bitcast %"std::result::Result<(), std::collections::TryReserveErrorKind>"* %0 to %"std::result::Result<(), std::collections::TryReserveErrorKind>::Err"*, !dbg !1278
  %19 = getelementptr inbounds %"std::result::Result<(), std::collections::TryReserveErrorKind>::Err", %"std::result::Result<(), std::collections::TryReserveErrorKind>::Err"* %18, i32 0, i32 1, !dbg !1278
  %20 = getelementptr inbounds { i64, i64 }, { i64, i64 }* %19, i32 0, i32 0, !dbg !1278
  store i64 %_7.0, i64* %20, align 8, !dbg !1278
  %21 = getelementptr inbounds { i64, i64 }, { i64, i64 }* %19, i32 0, i32 1, !dbg !1278
  store i64 %_7.1, i64* %21, align 8, !dbg !1278
  %22 = bitcast %"std::result::Result<(), std::collections::TryReserveErrorKind>"* %0 to i64*, !dbg !1278
  store i64 1, i64* %22, align 8, !dbg !1278
  br label %bb5, !dbg !1279

bb5:                                              ; preds = %bb3, %bb4
  %23 = load i8, i8* %_11, align 1, !dbg !1280, !range !297
  %24 = trunc i8 %23 to i1, !dbg !1280
  br i1 %24, label %bb7, label %bb6, !dbg !1280

bb6:                                              ; preds = %bb7, %bb5
  ret void, !dbg !1281

bb7:                                              ; preds = %bb5
  br label %bb6, !dbg !1280
}

; <T as core::convert::From<T>>::from
; Function Attrs: nounwind
define void @"_ZN50_$LT$T$u20$as$u20$core..convert..From$LT$T$GT$$GT$4from17h4f9babcba7ee7c41E"() unnamed_addr #1 !dbg !1282 {
start:
  %t.dbg.spill = alloca %"std::alloc::LayoutError", align 1
  call void @llvm.dbg.declare(metadata %"std::alloc::LayoutError"* %t.dbg.spill, metadata !1288, metadata !DIExpression()), !dbg !1289
  ret void, !dbg !1290
}

; <T as core::convert::From<T>>::from
; Function Attrs: nounwind
define void @"_ZN50_$LT$T$u20$as$u20$core..convert..From$LT$T$GT$$GT$4from17h6b754af793caefdfE"(%"std::vec::Vec<u8>"* noalias nocapture sret(%"std::vec::Vec<u8>") dereferenceable(24) %0, %"std::vec::Vec<u8>"* noalias nocapture dereferenceable(24) %t) unnamed_addr #1 !dbg !1291 {
start:
  call void @llvm.dbg.declare(metadata %"std::vec::Vec<u8>"* %t, metadata !1300, metadata !DIExpression()), !dbg !1303
  %1 = bitcast %"std::vec::Vec<u8>"* %0 to i8*, !dbg !1304
  %2 = bitcast %"std::vec::Vec<u8>"* %t to i8*, !dbg !1304
  call void @llvm.memcpy.p0i8.p0i8.i64(i8* align 8 %1, i8* align 8 %2, i64 24, i1 false), !dbg !1304
  ret void, !dbg !1305
}

; <T as core::convert::From<T>>::from
; Function Attrs: nounwind
define void @"_ZN50_$LT$T$u20$as$u20$core..convert..From$LT$T$GT$$GT$4from17hd95d9203e8d23170E"() unnamed_addr #1 !dbg !1306 {
start:
  %t.dbg.spill = alloca %"std::alloc::AllocError", align 1
  call void @llvm.dbg.declare(metadata %"std::alloc::AllocError"* %t.dbg.spill, metadata !1310, metadata !DIExpression()), !dbg !1313
  ret void, !dbg !1314
}

; <T as core::convert::Into<U>>::into
; Function Attrs: nounwind
define { %"bytes::Bytes"*, i64 } @"_ZN50_$LT$T$u20$as$u20$core..convert..Into$LT$U$GT$$GT$4into17h3f0c653b09943337E"([0 x i8]* noalias nonnull align 1 %self.0, i64 %self.1) unnamed_addr #1 !dbg !1315 {
start:
  %self.dbg.spill = alloca { [0 x i8]*, i64 }, align 8
  %0 = getelementptr inbounds { [0 x i8]*, i64 }, { [0 x i8]*, i64 }* %self.dbg.spill, i32 0, i32 0
  store [0 x i8]* %self.0, [0 x i8]** %0, align 8
  %1 = getelementptr inbounds { [0 x i8]*, i64 }, { [0 x i8]*, i64 }* %self.dbg.spill, i32 0, i32 1
  store i64 %self.1, i64* %1, align 8
  call void @llvm.dbg.declare(metadata { [0 x i8]*, i64 }* %self.dbg.spill, metadata !1326, metadata !DIExpression()), !dbg !1330
; call serde_bytes::bytes::<impl core::convert::From<alloc::boxed::Box<[u8]>> for alloc::boxed::Box<serde_bytes::bytes::Bytes>>::from
  %2 = call { %"bytes::Bytes"*, i64 } @"_ZN11serde_bytes5bytes145_$LT$impl$u20$core..convert..From$LT$alloc..boxed..Box$LT$$u5b$u8$u5d$$GT$$GT$$u20$for$u20$alloc..boxed..Box$LT$serde_bytes..bytes..Bytes$GT$$GT$4from17hf328e6657944a714E"([0 x i8]* noalias nonnull align 1 %self.0, i64 %self.1), !dbg !1331
  %3 = extractvalue { %"bytes::Bytes"*, i64 } %2, 0, !dbg !1331
  %4 = extractvalue { %"bytes::Bytes"*, i64 } %2, 1, !dbg !1331
  br label %bb1, !dbg !1331

bb1:                                              ; preds = %start
  %5 = insertvalue { %"bytes::Bytes"*, i64 } undef, %"bytes::Bytes"* %3, 0, !dbg !1332
  %6 = insertvalue { %"bytes::Bytes"*, i64 } %5, i64 %4, 1, !dbg !1332
  ret { %"bytes::Bytes"*, i64 } %6, !dbg !1332
}

; <T as core::convert::Into<U>>::into
; Function Attrs: nounwind
define void @"_ZN50_$LT$T$u20$as$u20$core..convert..Into$LT$U$GT$$GT$4into17hb193ecb33ed6fa08E"(%"std::vec::Vec<u8>"* noalias nocapture sret(%"std::vec::Vec<u8>") dereferenceable(24) %0, [0 x i8]* nonnull align 1 %self.0, i64 %self.1) unnamed_addr #1 !dbg !1333 {
start:
  %self.dbg.spill = alloca { [0 x i8]*, i64 }, align 8
  %1 = getelementptr inbounds { [0 x i8]*, i64 }, { [0 x i8]*, i64 }* %self.dbg.spill, i32 0, i32 0
  store [0 x i8]* %self.0, [0 x i8]** %1, align 8
  %2 = getelementptr inbounds { [0 x i8]*, i64 }, { [0 x i8]*, i64 }* %self.dbg.spill, i32 0, i32 1
  store i64 %self.1, i64* %2, align 8
  call void @llvm.dbg.declare(metadata { [0 x i8]*, i64 }* %self.dbg.spill, metadata !1341, metadata !DIExpression()), !dbg !1345
; call <alloc::vec::Vec<T> as core::convert::From<&[T]>>::from
  call void @"_ZN87_$LT$alloc..vec..Vec$LT$T$GT$$u20$as$u20$core..convert..From$LT$$RF$$u5b$T$u5d$$GT$$GT$4from17hf253685d849787baE"(%"std::vec::Vec<u8>"* noalias nocapture sret(%"std::vec::Vec<u8>") dereferenceable(24) %0, [0 x i8]* nonnull align 1 %self.0, i64 %self.1), !dbg !1346
  br label %bb1, !dbg !1346

bb1:                                              ; preds = %start
  ret void, !dbg !1347
}

; <T as core::convert::Into<U>>::into
; Function Attrs: nounwind
define void @"_ZN50_$LT$T$u20$as$u20$core..convert..Into$LT$U$GT$$GT$4into17he6b25eac047911c3E"(%"std::vec::Vec<u8>"* noalias nocapture sret(%"std::vec::Vec<u8>") dereferenceable(24) %0, %"std::vec::Vec<u8>"* noalias nocapture dereferenceable(24) %self) unnamed_addr #1 !dbg !1348 {
start:
  %_2 = alloca %"std::vec::Vec<u8>", align 8
  call void @llvm.dbg.declare(metadata %"std::vec::Vec<u8>"* %self, metadata !1350, metadata !DIExpression()), !dbg !1352
  %1 = bitcast %"std::vec::Vec<u8>"* %_2 to i8*, !dbg !1353
  %2 = bitcast %"std::vec::Vec<u8>"* %self to i8*, !dbg !1353
  call void @llvm.memcpy.p0i8.p0i8.i64(i8* align 8 %1, i8* align 8 %2, i64 24, i1 false), !dbg !1353
; call <T as core::convert::From<T>>::from
  call void @"_ZN50_$LT$T$u20$as$u20$core..convert..From$LT$T$GT$$GT$4from17h6b754af793caefdfE"(%"std::vec::Vec<u8>"* noalias nocapture sret(%"std::vec::Vec<u8>") dereferenceable(24) %0, %"std::vec::Vec<u8>"* noalias nocapture dereferenceable(24) %_2), !dbg !1354
  br label %bb1, !dbg !1354

bb1:                                              ; preds = %start
  ret void, !dbg !1355
}

; <T as core::convert::Into<U>>::into
; Function Attrs: nounwind
define { i64, i64 } @"_ZN50_$LT$T$u20$as$u20$core..convert..Into$LT$U$GT$$GT$4into17hfd1565f9acf852b3E"(i64 %self.0, i64 %self.1) unnamed_addr #1 !dbg !1356 {
start:
  %self.dbg.spill = alloca { i64, i64 }, align 8
  %0 = getelementptr inbounds { i64, i64 }, { i64, i64 }* %self.dbg.spill, i32 0, i32 0
  store i64 %self.0, i64* %0, align 8
  %1 = getelementptr inbounds { i64, i64 }, { i64, i64 }* %self.dbg.spill, i32 0, i32 1
  store i64 %self.1, i64* %1, align 8
  call void @llvm.dbg.declare(metadata { i64, i64 }* %self.dbg.spill, metadata !1358, metadata !DIExpression()), !dbg !1362
; call <alloc::collections::TryReserveError as core::convert::From<alloc::collections::TryReserveErrorKind>>::from
  %2 = call { i64, i64 } @"_ZN122_$LT$alloc..collections..TryReserveError$u20$as$u20$core..convert..From$LT$alloc..collections..TryReserveErrorKind$GT$$GT$4from17h67bb5bff01fb0302E"(i64 %self.0, i64 %self.1), !dbg !1363
  %3 = extractvalue { i64, i64 } %2, 0, !dbg !1363
  %4 = extractvalue { i64, i64 } %2, 1, !dbg !1363
  br label %bb1, !dbg !1363

bb1:                                              ; preds = %start
  %5 = insertvalue { i64, i64 } undef, i64 %3, 0, !dbg !1364
  %6 = insertvalue { i64, i64 } %5, i64 %4, 1, !dbg !1364
  ret { i64, i64 } %6, !dbg !1364
}

; <T as alloc::slice::hack::ConvertVec>::to_vec
; Function Attrs: inlinehint nounwind
define void @"_ZN52_$LT$T$u20$as$u20$alloc..slice..hack..ConvertVec$GT$6to_vec17h7eb0db8f93187d1dE"(%"std::vec::Vec<u8>"* noalias nocapture sret(%"std::vec::Vec<u8>") dereferenceable(24) %v, [0 x i8]* nonnull align 1 %s.0, i64 %s.1) unnamed_addr #0 !dbg !1365 {
start:
  %alloc.dbg.spill = alloca %"std::alloc::Global", align 1, !dbg !1377
  %s.dbg.spill = alloca { [0 x i8]*, i64 }, align 8, !dbg !1377
  call void @llvm.dbg.declare(metadata %"std::vec::Vec<u8>"* %v, metadata !1375, metadata !DIExpression()), !dbg !1377
  %0 = getelementptr inbounds { [0 x i8]*, i64 }, { [0 x i8]*, i64 }* %s.dbg.spill, i32 0, i32 0
  store [0 x i8]* %s.0, [0 x i8]** %0, align 8
  %1 = getelementptr inbounds { [0 x i8]*, i64 }, { [0 x i8]*, i64 }* %s.dbg.spill, i32 0, i32 1
  store i64 %s.1, i64* %1, align 8
  call void @llvm.dbg.declare(metadata { [0 x i8]*, i64 }* %s.dbg.spill, metadata !1373, metadata !DIExpression()), !dbg !1378
  call void @llvm.dbg.declare(metadata %"std::alloc::Global"* %alloc.dbg.spill, metadata !1374, metadata !DIExpression()), !dbg !1379
; call alloc::vec::Vec<T,A>::with_capacity_in
  call void @"_ZN5alloc3vec16Vec$LT$T$C$A$GT$16with_capacity_in17hd8a7c5bb9213e292E"(%"std::vec::Vec<u8>"* noalias nocapture sret(%"std::vec::Vec<u8>") dereferenceable(24) %v, i64 %s.1), !dbg !1380
  br label %bb1, !dbg !1380

bb1:                                              ; preds = %start
; call core::slice::<impl [T]>::as_ptr
  %_7 = call i8* @"_ZN4core5slice29_$LT$impl$u20$$u5b$T$u5d$$GT$6as_ptr17hda6e2ee7a42375d1E"([0 x i8]* nonnull align 1 %s.0, i64 %s.1), !dbg !1381
  br label %bb2, !dbg !1381

bb2:                                              ; preds = %bb1
; call alloc::vec::Vec<T,A>::as_mut_ptr
  %_9 = call i8* @"_ZN5alloc3vec16Vec$LT$T$C$A$GT$10as_mut_ptr17hadb40b65b2e1b5ccE"(%"std::vec::Vec<u8>"* align 8 dereferenceable(24) %v), !dbg !1382
  br label %bb3, !dbg !1382

bb3:                                              ; preds = %bb2
; call core::ptr::const_ptr::<impl *const T>::copy_to_nonoverlapping
  call void @"_ZN4core3ptr9const_ptr33_$LT$impl$u20$$BP$const$u20$T$GT$22copy_to_nonoverlapping17h295619596a7b24aaE"(i8* %_7, i8* %_9, i64 %s.1), !dbg !1381
  br label %bb4, !dbg !1381

bb4:                                              ; preds = %bb3
; call alloc::vec::Vec<T,A>::set_len
  call void @"_ZN5alloc3vec16Vec$LT$T$C$A$GT$7set_len17hfb8022e1f44594f6E"(%"std::vec::Vec<u8>"* align 8 dereferenceable(24) %v, i64 %s.1), !dbg !1383
  br label %bb5, !dbg !1383

bb5:                                              ; preds = %bb4
  ret void, !dbg !1384
}

; alloc::collections::TryReserveError::kind
; Function Attrs: inlinehint nounwind
define internal { i64, i64 } @_ZN5alloc11collections15TryReserveError4kind17he445e5ff113faf2dE({ i64, i64 }* align 8 dereferenceable(16) %self) unnamed_addr #0 !dbg !1385 {
start:
  %self.dbg.spill = alloca { i64, i64 }*, align 8
  store { i64, i64 }* %self, { i64, i64 }** %self.dbg.spill, align 8
  call void @llvm.dbg.declare(metadata { i64, i64 }** %self.dbg.spill, metadata !1390, metadata !DIExpression()), !dbg !1391
; call <alloc::collections::TryReserveErrorKind as core::clone::Clone>::clone
  %0 = call { i64, i64 } @"_ZN78_$LT$alloc..collections..TryReserveErrorKind$u20$as$u20$core..clone..Clone$GT$5clone17hdd61edc810567817E"({ i64, i64 }* align 8 dereferenceable(16) %self), !dbg !1392
  %1 = extractvalue { i64, i64 } %0, 0, !dbg !1392
  %2 = extractvalue { i64, i64 } %0, 1, !dbg !1392
  br label %bb1, !dbg !1392

bb1:                                              ; preds = %start
  %3 = insertvalue { i64, i64 } undef, i64 %1, 0, !dbg !1393
  %4 = insertvalue { i64, i64 } %3, i64 %2, 1, !dbg !1393
  ret { i64, i64 } %4, !dbg !1393
}

; alloc::vec::Vec<T>::with_capacity
; Function Attrs: inlinehint nounwind
define void @"_ZN5alloc3vec12Vec$LT$T$GT$13with_capacity17hef5d10ae99e823d9E"(%"std::vec::Vec<u8>"* noalias nocapture sret(%"std::vec::Vec<u8>") dereferenceable(24) %0, i64 %capacity) unnamed_addr #0 !dbg !1394 {
start:
  %capacity.dbg.spill = alloca i64, align 8
  store i64 %capacity, i64* %capacity.dbg.spill, align 8
  call void @llvm.dbg.declare(metadata i64* %capacity.dbg.spill, metadata !1399, metadata !DIExpression()), !dbg !1400
; call alloc::vec::Vec<T,A>::with_capacity_in
  call void @"_ZN5alloc3vec16Vec$LT$T$C$A$GT$16with_capacity_in17hd8a7c5bb9213e292E"(%"std::vec::Vec<u8>"* noalias nocapture sret(%"std::vec::Vec<u8>") dereferenceable(24) %0, i64 %capacity), !dbg !1401
  br label %bb1, !dbg !1401

bb1:                                              ; preds = %start
  ret void, !dbg !1402
}

; alloc::vec::Vec<T>::new
; Function Attrs: inlinehint nounwind
define void @"_ZN5alloc3vec12Vec$LT$T$GT$3new17ha8cfc264d5ee480aE"(%"std::vec::Vec<u8>"* noalias nocapture sret(%"std::vec::Vec<u8>") dereferenceable(24) %0) unnamed_addr #0 !dbg !1403 {
start:
  %1 = bitcast %"std::vec::Vec<u8>"* %0 to { i8*, i64 }*, !dbg !1406
  %2 = load i8*, i8** getelementptr inbounds ({ i8*, i64 }, { i8*, i64 }* bitcast (<{ [16 x i8] }>* @0 to { i8*, i64 }*), i32 0, i32 0), align 8, !dbg !1406, !nonnull !4
  %3 = load i64, i64* getelementptr inbounds ({ i8*, i64 }, { i8*, i64 }* bitcast (<{ [16 x i8] }>* @0 to { i8*, i64 }*), i32 0, i32 1), align 8, !dbg !1406
  %4 = getelementptr inbounds { i8*, i64 }, { i8*, i64 }* %1, i32 0, i32 0, !dbg !1406
  store i8* %2, i8** %4, align 8, !dbg !1406
  %5 = getelementptr inbounds { i8*, i64 }, { i8*, i64 }* %1, i32 0, i32 1, !dbg !1406
  store i64 %3, i64* %5, align 8, !dbg !1406
  %6 = getelementptr inbounds %"std::vec::Vec<u8>", %"std::vec::Vec<u8>"* %0, i32 0, i32 1, !dbg !1406
  store i64 0, i64* %6, align 8, !dbg !1406
  ret void, !dbg !1407
}

; alloc::vec::Vec<T,A>::as_mut_ptr
; Function Attrs: inlinehint nounwind
define i8* @"_ZN5alloc3vec16Vec$LT$T$C$A$GT$10as_mut_ptr17hadb40b65b2e1b5ccE"(%"std::vec::Vec<u8>"* align 8 dereferenceable(24) %self) unnamed_addr #0 !dbg !1408 {
start:
  %ptr.dbg.spill = alloca i8*, align 8
  %self.dbg.spill = alloca %"std::vec::Vec<u8>"*, align 8
  store %"std::vec::Vec<u8>"* %self, %"std::vec::Vec<u8>"** %self.dbg.spill, align 8
  call void @llvm.dbg.declare(metadata %"std::vec::Vec<u8>"** %self.dbg.spill, metadata !1413, metadata !DIExpression()), !dbg !1416
  %_2 = bitcast %"std::vec::Vec<u8>"* %self to { i8*, i64 }*, !dbg !1417
; call alloc::raw_vec::RawVec<T,A>::ptr
  %ptr = call i8* @"_ZN5alloc7raw_vec19RawVec$LT$T$C$A$GT$3ptr17h8c2a778103a4ae4cE"({ i8*, i64 }* align 8 dereferenceable(16) %_2), !dbg !1417
  store i8* %ptr, i8** %ptr.dbg.spill, align 8, !dbg !1417
  call void @llvm.dbg.declare(metadata i8** %ptr.dbg.spill, metadata !1414, metadata !DIExpression()), !dbg !1418
  br label %bb1, !dbg !1417

bb1:                                              ; preds = %start
; call core::ptr::mut_ptr::<impl *mut T>::is_null
  %_5 = call zeroext i1 @"_ZN4core3ptr7mut_ptr31_$LT$impl$u20$$BP$mut$u20$T$GT$7is_null17h6a2a0bd716f25be5E"(i8* %ptr), !dbg !1419
  br label %bb2, !dbg !1419

bb2:                                              ; preds = %bb1
  %_4 = xor i1 %_5, true, !dbg !1420
  call void @llvm.assume(i1 %_4), !dbg !1421
  br label %bb3, !dbg !1421

bb3:                                              ; preds = %bb2
  ret i8* %ptr, !dbg !1422
}

; alloc::vec::Vec<T,A>::shrink_to_fit
; Function Attrs: nounwind
define void @"_ZN5alloc3vec16Vec$LT$T$C$A$GT$13shrink_to_fit17h36ad28a87a7221d0E"(%"std::vec::Vec<u8>"* align 8 dereferenceable(24) %self) unnamed_addr #1 !dbg !1423 {
start:
  %self.dbg.spill = alloca %"std::vec::Vec<u8>"*, align 8
  store %"std::vec::Vec<u8>"* %self, %"std::vec::Vec<u8>"** %self.dbg.spill, align 8
  call void @llvm.dbg.declare(metadata %"std::vec::Vec<u8>"** %self.dbg.spill, metadata !1427, metadata !DIExpression()), !dbg !1428
; call alloc::vec::Vec<T,A>::capacity
  %_3 = call i64 @"_ZN5alloc3vec16Vec$LT$T$C$A$GT$8capacity17h6e64e50a943dfc96E"(%"std::vec::Vec<u8>"* align 8 dereferenceable(24) %self), !dbg !1429
  br label %bb1, !dbg !1429

bb1:                                              ; preds = %start
  %0 = getelementptr inbounds %"std::vec::Vec<u8>", %"std::vec::Vec<u8>"* %self, i32 0, i32 1, !dbg !1430
  %_5 = load i64, i64* %0, align 8, !dbg !1430
  %_2 = icmp ugt i64 %_3, %_5, !dbg !1429
  br i1 %_2, label %bb2, label %bb4, !dbg !1429

bb4:                                              ; preds = %bb3, %bb1
  ret void, !dbg !1431

bb2:                                              ; preds = %bb1
  %_7 = bitcast %"std::vec::Vec<u8>"* %self to { i8*, i64 }*, !dbg !1432
  %1 = getelementptr inbounds %"std::vec::Vec<u8>", %"std::vec::Vec<u8>"* %self, i32 0, i32 1, !dbg !1433
  %_8 = load i64, i64* %1, align 8, !dbg !1433
; call alloc::raw_vec::RawVec<T,A>::shrink_to_fit
  call void @"_ZN5alloc7raw_vec19RawVec$LT$T$C$A$GT$13shrink_to_fit17h85f19461b1305c24E"({ i8*, i64 }* align 8 dereferenceable(16) %_7, i64 %_8), !dbg !1432
  br label %bb3, !dbg !1432

bb3:                                              ; preds = %bb2
  br label %bb4, !dbg !1434
}

; alloc::vec::Vec<T,A>::into_boxed_slice
; Function Attrs: nounwind
define { [0 x i8]*, i64 } @"_ZN5alloc3vec16Vec$LT$T$C$A$GT$16into_boxed_slice17hf6b885369d45338bE"(%"std::vec::Vec<u8>"* noalias nocapture dereferenceable(24) %self) unnamed_addr #1 !dbg !1435 {
start:
  %self.dbg.spill.i1 = alloca %"std::mem::ManuallyDrop<std::vec::Vec<u8>>"*, align 8
  %self.dbg.spill.i = alloca %"std::mem::ManuallyDrop<std::vec::Vec<u8>>"*, align 8
  %_2.i = alloca %"std::vec::Vec<u8>", align 8
  %len.dbg.spill = alloca i64, align 8
  %buf.dbg.spill = alloca { i8*, i64 }, align 8
  %_5 = alloca %"std::vec::Vec<u8>", align 8
  %me = alloca %"std::mem::ManuallyDrop<std::vec::Vec<u8>>", align 8
  call void @llvm.dbg.declare(metadata %"std::vec::Vec<u8>"* %self, metadata !1439, metadata !DIExpression()), !dbg !1449
  call void @llvm.dbg.declare(metadata %"std::mem::ManuallyDrop<std::vec::Vec<u8>>"* %me, metadata !1440, metadata !DIExpression()), !dbg !1450
; call alloc::vec::Vec<T,A>::shrink_to_fit
  call void @"_ZN5alloc3vec16Vec$LT$T$C$A$GT$13shrink_to_fit17h36ad28a87a7221d0E"(%"std::vec::Vec<u8>"* align 8 dereferenceable(24) %self), !dbg !1451
  br label %bb1, !dbg !1451

bb1:                                              ; preds = %start
  %0 = bitcast %"std::vec::Vec<u8>"* %_5 to i8*, !dbg !1452
  %1 = bitcast %"std::vec::Vec<u8>"* %self to i8*, !dbg !1452
  call void @llvm.memcpy.p0i8.p0i8.i64(i8* align 8 %0, i8* align 8 %1, i64 24, i1 false), !dbg !1452
  call void @llvm.experimental.noalias.scope.decl(metadata !1453), !dbg !1456
  call void @llvm.experimental.noalias.scope.decl(metadata !1457), !dbg !1456
  call void @llvm.dbg.declare(metadata %"std::vec::Vec<u8>"* %_5, metadata !1459, metadata !DIExpression()) #9, !dbg !1464
  %2 = bitcast %"std::vec::Vec<u8>"* %_2.i to i8*, !dbg !1466
  %3 = bitcast %"std::vec::Vec<u8>"* %_5 to i8*, !dbg !1466
  call void @llvm.memcpy.p0i8.p0i8.i64(i8* align 8 %2, i8* align 8 %3, i64 24, i1 false) #9, !dbg !1466, !noalias !1453
  %4 = bitcast %"std::mem::ManuallyDrop<std::vec::Vec<u8>>"* %me to %"std::vec::Vec<u8>"*, !dbg !1467
  %5 = bitcast %"std::vec::Vec<u8>"* %4 to i8*, !dbg !1467
  %6 = bitcast %"std::vec::Vec<u8>"* %_2.i to i8*, !dbg !1467
  call void @llvm.memcpy.p0i8.p0i8.i64(i8* align 8 %5, i8* align 8 %6, i64 24, i1 false) #9, !dbg !1467, !noalias !1457
  br label %bb2, !dbg !1456

bb2:                                              ; preds = %bb1
  store %"std::mem::ManuallyDrop<std::vec::Vec<u8>>"* %me, %"std::mem::ManuallyDrop<std::vec::Vec<u8>>"** %self.dbg.spill.i, align 8
  call void @llvm.dbg.declare(metadata %"std::mem::ManuallyDrop<std::vec::Vec<u8>>"** %self.dbg.spill.i, metadata !1468, metadata !DIExpression()), !dbg !1476
  %7 = bitcast %"std::mem::ManuallyDrop<std::vec::Vec<u8>>"* %me to %"std::vec::Vec<u8>"*, !dbg !1478
  br label %bb3, !dbg !1479

bb3:                                              ; preds = %bb2
  %_8 = bitcast %"std::vec::Vec<u8>"* %7 to { i8*, i64 }*, !dbg !1480
; call core::ptr::read
  %8 = call { i8*, i64 } @_ZN4core3ptr4read17h36e4586bd600cb81E({ i8*, i64 }* %_8), !dbg !1481
  %buf.0 = extractvalue { i8*, i64 } %8, 0, !dbg !1481
  %buf.1 = extractvalue { i8*, i64 } %8, 1, !dbg !1481
  %9 = getelementptr inbounds { i8*, i64 }, { i8*, i64 }* %buf.dbg.spill, i32 0, i32 0, !dbg !1481
  store i8* %buf.0, i8** %9, align 8, !dbg !1481
  %10 = getelementptr inbounds { i8*, i64 }, { i8*, i64 }* %buf.dbg.spill, i32 0, i32 1, !dbg !1481
  store i64 %buf.1, i64* %10, align 8, !dbg !1481
  call void @llvm.dbg.declare(metadata { i8*, i64 }* %buf.dbg.spill, metadata !1445, metadata !DIExpression()), !dbg !1482
  br label %bb4, !dbg !1481

bb4:                                              ; preds = %bb3
  store %"std::mem::ManuallyDrop<std::vec::Vec<u8>>"* %me, %"std::mem::ManuallyDrop<std::vec::Vec<u8>>"** %self.dbg.spill.i1, align 8
  call void @llvm.dbg.declare(metadata %"std::mem::ManuallyDrop<std::vec::Vec<u8>>"** %self.dbg.spill.i1, metadata !1468, metadata !DIExpression()), !dbg !1483
  %11 = bitcast %"std::mem::ManuallyDrop<std::vec::Vec<u8>>"* %me to %"std::vec::Vec<u8>"*, !dbg !1485
  br label %bb5, !dbg !1486

bb5:                                              ; preds = %bb4
; call alloc::vec::Vec<T,A>::len
  %len = call i64 @"_ZN5alloc3vec16Vec$LT$T$C$A$GT$3len17h3a8da021e4317493E"(%"std::vec::Vec<u8>"* align 8 dereferenceable(24) %11), !dbg !1486
  store i64 %len, i64* %len.dbg.spill, align 8, !dbg !1486
  call void @llvm.dbg.declare(metadata i64* %len.dbg.spill, metadata !1447, metadata !DIExpression()), !dbg !1487
  br label %bb6, !dbg !1486

bb6:                                              ; preds = %bb5
; call alloc::raw_vec::RawVec<T,A>::into_box
  %12 = call { [0 x i8]*, i64 } @"_ZN5alloc7raw_vec19RawVec$LT$T$C$A$GT$8into_box17h3d34a5a1ec21e0edE"(i8* nonnull %buf.0, i64 %buf.1, i64 %len), !dbg !1488
  %_15.0 = extractvalue { [0 x i8]*, i64 } %12, 0, !dbg !1488
  %_15.1 = extractvalue { [0 x i8]*, i64 } %12, 1, !dbg !1488
  br label %bb7, !dbg !1488

bb7:                                              ; preds = %bb6
; call alloc::boxed::Box<[core::mem::maybe_uninit::MaybeUninit<T>],A>::assume_init
  %13 = call { [0 x i8]*, i64 } @"_ZN5alloc5boxed70Box$LT$$u5b$core..mem..maybe_uninit..MaybeUninit$LT$T$GT$$u5d$$C$A$GT$11assume_init17hf348d439c6128ee2E"([0 x i8]* noalias nonnull align 1 %_15.0, i64 %_15.1), !dbg !1488
  %14 = extractvalue { [0 x i8]*, i64 } %13, 0, !dbg !1488
  %15 = extractvalue { [0 x i8]*, i64 } %13, 1, !dbg !1488
  br label %bb8, !dbg !1488

bb8:                                              ; preds = %bb7
  %16 = insertvalue { [0 x i8]*, i64 } undef, [0 x i8]* %14, 0, !dbg !1489
  %17 = insertvalue { [0 x i8]*, i64 } %16, i64 %15, 1, !dbg !1489
  ret { [0 x i8]*, i64 } %17, !dbg !1489
}

; alloc::vec::Vec<T,A>::with_capacity_in
; Function Attrs: inlinehint nounwind
define void @"_ZN5alloc3vec16Vec$LT$T$C$A$GT$16with_capacity_in17hd8a7c5bb9213e292E"(%"std::vec::Vec<u8>"* noalias nocapture sret(%"std::vec::Vec<u8>") dereferenceable(24) %0, i64 %capacity) unnamed_addr #0 !dbg !1490 {
start:
  %alloc.dbg.spill = alloca %"std::alloc::Global", align 1
  %capacity.dbg.spill = alloca i64, align 8
  store i64 %capacity, i64* %capacity.dbg.spill, align 8
  call void @llvm.dbg.declare(metadata i64* %capacity.dbg.spill, metadata !1494, metadata !DIExpression()), !dbg !1496
  call void @llvm.dbg.declare(metadata %"std::alloc::Global"* %alloc.dbg.spill, metadata !1495, metadata !DIExpression()), !dbg !1497
; call alloc::raw_vec::RawVec<T,A>::with_capacity_in
  %1 = call { i8*, i64 } @"_ZN5alloc7raw_vec19RawVec$LT$T$C$A$GT$16with_capacity_in17h019ff4cdd11b3072E"(i64 %capacity), !dbg !1498
  %_3.0 = extractvalue { i8*, i64 } %1, 0, !dbg !1498
  %_3.1 = extractvalue { i8*, i64 } %1, 1, !dbg !1498
  br label %bb1, !dbg !1498

bb1:                                              ; preds = %start
  %2 = bitcast %"std::vec::Vec<u8>"* %0 to { i8*, i64 }*, !dbg !1499
  %3 = getelementptr inbounds { i8*, i64 }, { i8*, i64 }* %2, i32 0, i32 0, !dbg !1499
  store i8* %_3.0, i8** %3, align 8, !dbg !1499
  %4 = getelementptr inbounds { i8*, i64 }, { i8*, i64 }* %2, i32 0, i32 1, !dbg !1499
  store i64 %_3.1, i64* %4, align 8, !dbg !1499
  %5 = getelementptr inbounds %"std::vec::Vec<u8>", %"std::vec::Vec<u8>"* %0, i32 0, i32 1, !dbg !1499
  store i64 0, i64* %5, align 8, !dbg !1499
  ret void, !dbg !1500
}

; alloc::vec::Vec<T,A>::len
; Function Attrs: inlinehint nounwind
define i64 @"_ZN5alloc3vec16Vec$LT$T$C$A$GT$3len17h3a8da021e4317493E"(%"std::vec::Vec<u8>"* align 8 dereferenceable(24) %self) unnamed_addr #0 !dbg !1501 {
start:
  %self.dbg.spill = alloca %"std::vec::Vec<u8>"*, align 8
  store %"std::vec::Vec<u8>"* %self, %"std::vec::Vec<u8>"** %self.dbg.spill, align 8
  call void @llvm.dbg.declare(metadata %"std::vec::Vec<u8>"** %self.dbg.spill, metadata !1505, metadata !DIExpression()), !dbg !1506
  %0 = getelementptr inbounds %"std::vec::Vec<u8>", %"std::vec::Vec<u8>"* %self, i32 0, i32 1, !dbg !1507
  %1 = load i64, i64* %0, align 8, !dbg !1507
  ret i64 %1, !dbg !1508
}

; alloc::vec::Vec<T,A>::set_len
; Function Attrs: inlinehint nounwind
define void @"_ZN5alloc3vec16Vec$LT$T$C$A$GT$7set_len17hfb8022e1f44594f6E"(%"std::vec::Vec<u8>"* align 8 dereferenceable(24) %self, i64 %new_len) unnamed_addr #0 !dbg !1509 {
start:
  %new_len.dbg.spill = alloca i64, align 8
  %self.dbg.spill = alloca %"std::vec::Vec<u8>"*, align 8
  store %"std::vec::Vec<u8>"* %self, %"std::vec::Vec<u8>"** %self.dbg.spill, align 8
  call void @llvm.dbg.declare(metadata %"std::vec::Vec<u8>"** %self.dbg.spill, metadata !1513, metadata !DIExpression()), !dbg !1515
  store i64 %new_len, i64* %new_len.dbg.spill, align 8
  call void @llvm.dbg.declare(metadata i64* %new_len.dbg.spill, metadata !1514, metadata !DIExpression()), !dbg !1516
  %0 = getelementptr inbounds %"std::vec::Vec<u8>", %"std::vec::Vec<u8>"* %self, i32 0, i32 1, !dbg !1517
  store i64 %new_len, i64* %0, align 8, !dbg !1517
  ret void, !dbg !1518
}

; alloc::vec::Vec<T,A>::capacity
; Function Attrs: inlinehint nounwind
define i64 @"_ZN5alloc3vec16Vec$LT$T$C$A$GT$8capacity17h6e64e50a943dfc96E"(%"std::vec::Vec<u8>"* align 8 dereferenceable(24) %self) unnamed_addr #0 !dbg !1519 {
start:
  %self.dbg.spill.i = alloca { i8*, i64 }*, align 8
  %0 = alloca i64, align 8
  %self.dbg.spill = alloca %"std::vec::Vec<u8>"*, align 8
  store %"std::vec::Vec<u8>"* %self, %"std::vec::Vec<u8>"** %self.dbg.spill, align 8
  call void @llvm.dbg.declare(metadata %"std::vec::Vec<u8>"** %self.dbg.spill, metadata !1521, metadata !DIExpression()), !dbg !1522
  %_2 = bitcast %"std::vec::Vec<u8>"* %self to { i8*, i64 }*, !dbg !1523
  store { i8*, i64 }* %_2, { i8*, i64 }** %self.dbg.spill.i, align 8
  call void @llvm.dbg.declare(metadata { i8*, i64 }** %self.dbg.spill.i, metadata !1524, metadata !DIExpression()), !dbg !1531
  %1 = getelementptr inbounds { i8*, i64 }, { i8*, i64 }* %_2, i32 0, i32 1, !dbg !1533
  %2 = load i64, i64* %1, align 8, !dbg !1533
  store i64 %2, i64* %0, align 8, !dbg !1533
  %3 = load i64, i64* %0, align 8, !dbg !1534
  br label %bb1, !dbg !1523

bb1:                                              ; preds = %start
  ret i64 %3, !dbg !1535
}

; alloc::vec::Vec<T,A>::allocator
; Function Attrs: inlinehint nounwind
define nonnull align 1 %"std::alloc::Global"* @"_ZN5alloc3vec16Vec$LT$T$C$A$GT$9allocator17hd754153120aa10d6E"(%"std::vec::Vec<u8>"* align 8 dereferenceable(24) %self) unnamed_addr #0 !dbg !1536 {
start:
  %self.dbg.spill = alloca %"std::vec::Vec<u8>"*, align 8
  store %"std::vec::Vec<u8>"* %self, %"std::vec::Vec<u8>"** %self.dbg.spill, align 8
  call void @llvm.dbg.declare(metadata %"std::vec::Vec<u8>"** %self.dbg.spill, metadata !1541, metadata !DIExpression()), !dbg !1542
  %_2 = bitcast %"std::vec::Vec<u8>"* %self to { i8*, i64 }*, !dbg !1543
; call alloc::raw_vec::RawVec<T,A>::allocator
  %0 = call nonnull align 1 %"std::alloc::Global"* @"_ZN5alloc7raw_vec19RawVec$LT$T$C$A$GT$9allocator17hca8252beba27a06dE"({ i8*, i64 }* align 8 dereferenceable(16) %_2), !dbg !1543
  br label %bb1, !dbg !1543

bb1:                                              ; preds = %start
  ret %"std::alloc::Global"* %0, !dbg !1544
}

; alloc::alloc::alloc_zeroed
; Function Attrs: inlinehint nounwind
define internal i8* @_ZN5alloc5alloc12alloc_zeroed17hf792ba9011ae767cE(i64 %0, i64 %1) unnamed_addr #0 !dbg !1545 {
start:
  %layout = alloca { i64, i64 }, align 8
  %2 = getelementptr inbounds { i64, i64 }, { i64, i64 }* %layout, i32 0, i32 0
  store i64 %0, i64* %2, align 8
  %3 = getelementptr inbounds { i64, i64 }, { i64, i64 }* %layout, i32 0, i32 1
  store i64 %1, i64* %3, align 8
  call void @llvm.dbg.declare(metadata { i64, i64 }* %layout, metadata !1550, metadata !DIExpression()), !dbg !1551
; call core::alloc::layout::Layout::size
  %_2 = call i64 @_ZN4core5alloc6layout6Layout4size17hff23cbd9e508b07eE({ i64, i64 }* align 8 dereferenceable(16) %layout), !dbg !1552
  br label %bb1, !dbg !1552

bb1:                                              ; preds = %start
; call core::alloc::layout::Layout::align
  %_4 = call i64 @_ZN4core5alloc6layout6Layout5align17h276944d621282157E({ i64, i64 }* align 8 dereferenceable(16) %layout), !dbg !1553
  br label %bb2, !dbg !1553

bb2:                                              ; preds = %bb1
  %4 = call i8* @__rust_alloc_zeroed(i64 %_2, i64 %_4), !dbg !1554
  br label %bb3, !dbg !1554

bb3:                                              ; preds = %bb2
  ret i8* %4, !dbg !1555
}

; alloc::alloc::alloc
; Function Attrs: inlinehint nounwind
define internal i8* @_ZN5alloc5alloc5alloc17h3d4f92088443147cE(i64 %0, i64 %1) unnamed_addr #0 !dbg !1556 {
start:
  %layout = alloca { i64, i64 }, align 8
  %2 = getelementptr inbounds { i64, i64 }, { i64, i64 }* %layout, i32 0, i32 0
  store i64 %0, i64* %2, align 8
  %3 = getelementptr inbounds { i64, i64 }, { i64, i64 }* %layout, i32 0, i32 1
  store i64 %1, i64* %3, align 8
  call void @llvm.dbg.declare(metadata { i64, i64 }* %layout, metadata !1558, metadata !DIExpression()), !dbg !1559
; call core::alloc::layout::Layout::size
  %_2 = call i64 @_ZN4core5alloc6layout6Layout4size17hff23cbd9e508b07eE({ i64, i64 }* align 8 dereferenceable(16) %layout), !dbg !1560
  br label %bb1, !dbg !1560

bb1:                                              ; preds = %start
; call core::alloc::layout::Layout::align
  %_4 = call i64 @_ZN4core5alloc6layout6Layout5align17h276944d621282157E({ i64, i64 }* align 8 dereferenceable(16) %layout), !dbg !1561
  br label %bb2, !dbg !1561

bb2:                                              ; preds = %bb1
  %4 = call i8* @__rust_alloc(i64 %_2, i64 %_4), !dbg !1562
  br label %bb3, !dbg !1562

bb3:                                              ; preds = %bb2
  ret i8* %4, !dbg !1563
}

; alloc::alloc::Global::alloc_impl
; Function Attrs: inlinehint nounwind
define internal { i8*, i64 } @_ZN5alloc5alloc6Global10alloc_impl17h538db30de82804d0E(%"std::alloc::Global"* nonnull align 1 %self, i64 %0, i64 %1, i1 zeroext %zeroed) unnamed_addr #0 !dbg !1564 {
start:
  %ptr.dbg.spill = alloca i8*, align 8
  %val.dbg.spill = alloca i8*, align 8
  %size.dbg.spill = alloca i64, align 8
  %residual.dbg.spill = alloca %"std::result::Result<std::convert::Infallible, std::alloc::AllocError>::Err", align 1
  %zeroed.dbg.spill = alloca i8, align 1
  %self.dbg.spill = alloca %"std::alloc::Global"*, align 8
  %_15 = alloca i8*, align 8
  %raw_ptr = alloca i8*, align 8
  %2 = alloca { i8*, i64 }, align 8
  %layout = alloca { i64, i64 }, align 8
  %3 = getelementptr inbounds { i64, i64 }, { i64, i64 }* %layout, i32 0, i32 0
  store i64 %0, i64* %3, align 8
  %4 = getelementptr inbounds { i64, i64 }, { i64, i64 }* %layout, i32 0, i32 1
  store i64 %1, i64* %4, align 8
  store %"std::alloc::Global"* %self, %"std::alloc::Global"** %self.dbg.spill, align 8
  call void @llvm.dbg.declare(metadata %"std::alloc::Global"** %self.dbg.spill, metadata !1568, metadata !DIExpression()), !dbg !1581
  call void @llvm.dbg.declare(metadata { i64, i64 }* %layout, metadata !1569, metadata !DIExpression()), !dbg !1582
  %5 = zext i1 %zeroed to i8
  store i8 %5, i8* %zeroed.dbg.spill, align 1
  call void @llvm.dbg.declare(metadata i8* %zeroed.dbg.spill, metadata !1570, metadata !DIExpression()), !dbg !1583
  call void @llvm.dbg.declare(metadata i8** %raw_ptr, metadata !1573, metadata !DIExpression()), !dbg !1584
  call void @llvm.dbg.declare(metadata %"std::result::Result<std::convert::Infallible, std::alloc::AllocError>::Err"* %residual.dbg.spill, metadata !1577, metadata !DIExpression()), !dbg !1585
; call core::alloc::layout::Layout::size
  %_4 = call i64 @_ZN4core5alloc6layout6Layout4size17hff23cbd9e508b07eE({ i64, i64 }* align 8 dereferenceable(16) %layout), !dbg !1586
  br label %bb1, !dbg !1586

bb1:                                              ; preds = %start
  %6 = icmp eq i64 %_4, 0, !dbg !1587
  br i1 %6, label %bb3, label %bb2, !dbg !1587

bb3:                                              ; preds = %bb1
; call core::alloc::layout::Layout::dangling
  %_7 = call nonnull i8* @_ZN4core5alloc6layout6Layout8dangling17h4630f55a498046bcE({ i64, i64 }* align 8 dereferenceable(16) %layout), !dbg !1588
  br label %bb4, !dbg !1588

bb2:                                              ; preds = %bb1
  store i64 %_4, i64* %size.dbg.spill, align 8, !dbg !1589
  call void @llvm.dbg.declare(metadata i64* %size.dbg.spill, metadata !1571, metadata !DIExpression()), !dbg !1590
  br i1 %zeroed, label %bb6, label %bb8, !dbg !1591

bb8:                                              ; preds = %bb2
  %7 = getelementptr inbounds { i64, i64 }, { i64, i64 }* %layout, i32 0, i32 0, !dbg !1592
  %_13.0 = load i64, i64* %7, align 8, !dbg !1592
  %8 = getelementptr inbounds { i64, i64 }, { i64, i64 }* %layout, i32 0, i32 1, !dbg !1592
  %_13.1 = load i64, i64* %8, align 8, !dbg !1592, !range !324
; call alloc::alloc::alloc
  %9 = call i8* @_ZN5alloc5alloc5alloc17h3d4f92088443147cE(i64 %_13.0, i64 %_13.1), !dbg !1593
  store i8* %9, i8** %raw_ptr, align 8, !dbg !1593
  br label %bb9, !dbg !1593

bb6:                                              ; preds = %bb2
  %10 = getelementptr inbounds { i64, i64 }, { i64, i64 }* %layout, i32 0, i32 0, !dbg !1594
  %_12.0 = load i64, i64* %10, align 8, !dbg !1594
  %11 = getelementptr inbounds { i64, i64 }, { i64, i64 }* %layout, i32 0, i32 1, !dbg !1594
  %_12.1 = load i64, i64* %11, align 8, !dbg !1594, !range !324
; call alloc::alloc::alloc_zeroed
  %12 = call i8* @_ZN5alloc5alloc12alloc_zeroed17hf792ba9011ae767cE(i64 %_12.0, i64 %_12.1), !dbg !1595
  store i8* %12, i8** %raw_ptr, align 8, !dbg !1595
  br label %bb7, !dbg !1595

bb7:                                              ; preds = %bb6
  br label %bb10, !dbg !1596

bb10:                                             ; preds = %bb9, %bb7
  %_18 = load i8*, i8** %raw_ptr, align 8, !dbg !1597
; call core::ptr::non_null::NonNull<T>::new
  %_17 = call i8* @"_ZN4core3ptr8non_null16NonNull$LT$T$GT$3new17h7c90de7dd0009927E"(i8* %_18), !dbg !1598
  br label %bb11, !dbg !1598

bb9:                                              ; preds = %bb8
  br label %bb10, !dbg !1596

bb11:                                             ; preds = %bb10
; call core::option::Option<T>::ok_or
  %_16 = call i8* @"_ZN4core6option15Option$LT$T$GT$5ok_or17heff60f8863cbf4caE"(i8* %_17), !dbg !1598
  br label %bb12, !dbg !1598

bb12:                                             ; preds = %bb11
; call <core::result::Result<T,E> as core::ops::try_trait::Try>::branch
  %13 = call i8* @"_ZN79_$LT$core..result..Result$LT$T$C$E$GT$$u20$as$u20$core..ops..try_trait..Try$GT$6branch17h6a00143b2e5ebea7E"(i8* %_16), !dbg !1598
  store i8* %13, i8** %_15, align 8, !dbg !1598
  br label %bb13, !dbg !1598

bb13:                                             ; preds = %bb12
  %14 = bitcast i8** %_15 to {}**, !dbg !1598
  %15 = load {}*, {}** %14, align 8, !dbg !1598
  %16 = icmp eq {}* %15, null, !dbg !1598
  %_20 = select i1 %16, i64 1, i64 0, !dbg !1598
  switch i64 %_20, label %bb15 [
    i64 0, label %bb14
    i64 1, label %bb16
  ], !dbg !1598

bb15:                                             ; preds = %bb13
  unreachable, !dbg !1598

bb14:                                             ; preds = %bb13
  %val = load i8*, i8** %_15, align 8, !dbg !1598, !nonnull !4
  store i8* %val, i8** %val.dbg.spill, align 8, !dbg !1598
  call void @llvm.dbg.declare(metadata i8** %val.dbg.spill, metadata !1579, metadata !DIExpression()), !dbg !1599
  store i8* %val, i8** %ptr.dbg.spill, align 8, !dbg !1599
  call void @llvm.dbg.declare(metadata i8** %ptr.dbg.spill, metadata !1575, metadata !DIExpression()), !dbg !1600
; call core::ptr::non_null::NonNull<[T]>::slice_from_raw_parts
  %17 = call { i8*, i64 } @"_ZN4core3ptr8non_null26NonNull$LT$$u5b$T$u5d$$GT$20slice_from_raw_parts17h320140499ae14144E"(i8* nonnull %val, i64 %_4), !dbg !1601
  %_24.0 = extractvalue { i8*, i64 } %17, 0, !dbg !1601
  %_24.1 = extractvalue { i8*, i64 } %17, 1, !dbg !1601
  br label %bb18, !dbg !1601

bb16:                                             ; preds = %bb13
; call <core::result::Result<T,F> as core::ops::try_trait::FromResidual<core::result::Result<core::convert::Infallible,E>>>::from_residual
  %18 = call { i8*, i64 } @"_ZN153_$LT$core..result..Result$LT$T$C$F$GT$$u20$as$u20$core..ops..try_trait..FromResidual$LT$core..result..Result$LT$core..convert..Infallible$C$E$GT$$GT$$GT$13from_residual17hd49052d9436d8ffbE"(), !dbg !1602
  store { i8*, i64 } %18, { i8*, i64 }* %2, align 8, !dbg !1602
  br label %bb17, !dbg !1602

bb17:                                             ; preds = %bb16
  br label %bb20, !dbg !1603

bb20:                                             ; preds = %bb19, %bb17
  %19 = getelementptr inbounds { i8*, i64 }, { i8*, i64 }* %2, i32 0, i32 0, !dbg !1603
  %20 = load i8*, i8** %19, align 8, !dbg !1603
  %21 = getelementptr inbounds { i8*, i64 }, { i8*, i64 }* %2, i32 0, i32 1, !dbg !1603
  %22 = load i64, i64* %21, align 8, !dbg !1603
  %23 = insertvalue { i8*, i64 } undef, i8* %20, 0, !dbg !1603
  %24 = insertvalue { i8*, i64 } %23, i64 %22, 1, !dbg !1603
  ret { i8*, i64 } %24, !dbg !1603

bb18:                                             ; preds = %bb14
  %25 = getelementptr inbounds { i8*, i64 }, { i8*, i64 }* %2, i32 0, i32 0, !dbg !1604
  store i8* %_24.0, i8** %25, align 8, !dbg !1604
  %26 = getelementptr inbounds { i8*, i64 }, { i8*, i64 }* %2, i32 0, i32 1, !dbg !1604
  store i64 %_24.1, i64* %26, align 8, !dbg !1604
  br label %bb19, !dbg !1605

bb19:                                             ; preds = %bb5, %bb18
  br label %bb20, !dbg !1603

bb4:                                              ; preds = %bb3
; call core::ptr::non_null::NonNull<[T]>::slice_from_raw_parts
  %27 = call { i8*, i64 } @"_ZN4core3ptr8non_null26NonNull$LT$$u5b$T$u5d$$GT$20slice_from_raw_parts17h320140499ae14144E"(i8* nonnull %_7, i64 0), !dbg !1606
  %_6.0 = extractvalue { i8*, i64 } %27, 0, !dbg !1606
  %_6.1 = extractvalue { i8*, i64 } %27, 1, !dbg !1606
  br label %bb5, !dbg !1606

bb5:                                              ; preds = %bb4
  %28 = getelementptr inbounds { i8*, i64 }, { i8*, i64 }* %2, i32 0, i32 0, !dbg !1607
  store i8* %_6.0, i8** %28, align 8, !dbg !1607
  %29 = getelementptr inbounds { i8*, i64 }, { i8*, i64 }* %2, i32 0, i32 1, !dbg !1607
  store i64 %_6.1, i64* %29, align 8, !dbg !1607
  br label %bb19, !dbg !1608
}

; alloc::alloc::dealloc
; Function Attrs: inlinehint nounwind
define internal void @_ZN5alloc5alloc7dealloc17h8ceb080fa8e4b46eE(i8* %ptr, i64 %0, i64 %1) unnamed_addr #0 !dbg !1609 {
start:
  %ptr.dbg.spill = alloca i8*, align 8
  %layout = alloca { i64, i64 }, align 8
  %2 = getelementptr inbounds { i64, i64 }, { i64, i64 }* %layout, i32 0, i32 0
  store i64 %0, i64* %2, align 8
  %3 = getelementptr inbounds { i64, i64 }, { i64, i64 }* %layout, i32 0, i32 1
  store i64 %1, i64* %3, align 8
  store i8* %ptr, i8** %ptr.dbg.spill, align 8
  call void @llvm.dbg.declare(metadata i8** %ptr.dbg.spill, metadata !1613, metadata !DIExpression()), !dbg !1615
  call void @llvm.dbg.declare(metadata { i64, i64 }* %layout, metadata !1614, metadata !DIExpression()), !dbg !1616
; call core::alloc::layout::Layout::size
  %_4 = call i64 @_ZN4core5alloc6layout6Layout4size17hff23cbd9e508b07eE({ i64, i64 }* align 8 dereferenceable(16) %layout), !dbg !1617
  br label %bb1, !dbg !1617

bb1:                                              ; preds = %start
; call core::alloc::layout::Layout::align
  %_6 = call i64 @_ZN4core5alloc6layout6Layout5align17h276944d621282157E({ i64, i64 }* align 8 dereferenceable(16) %layout), !dbg !1618
  br label %bb2, !dbg !1618

bb2:                                              ; preds = %bb1
  call void @__rust_dealloc(i8* %ptr, i64 %_4, i64 %_6), !dbg !1619
  br label %bb3, !dbg !1619

bb3:                                              ; preds = %bb2
  ret void, !dbg !1620
}

; alloc::alloc::realloc
; Function Attrs: inlinehint nounwind
define internal i8* @_ZN5alloc5alloc7realloc17hebc8271c109e1c1dE(i8* %ptr, i64 %0, i64 %1, i64 %new_size) unnamed_addr #0 !dbg !1621 {
start:
  %new_size.dbg.spill = alloca i64, align 8
  %ptr.dbg.spill = alloca i8*, align 8
  %layout = alloca { i64, i64 }, align 8
  %2 = getelementptr inbounds { i64, i64 }, { i64, i64 }* %layout, i32 0, i32 0
  store i64 %0, i64* %2, align 8
  %3 = getelementptr inbounds { i64, i64 }, { i64, i64 }* %layout, i32 0, i32 1
  store i64 %1, i64* %3, align 8
  store i8* %ptr, i8** %ptr.dbg.spill, align 8
  call void @llvm.dbg.declare(metadata i8** %ptr.dbg.spill, metadata !1625, metadata !DIExpression()), !dbg !1628
  call void @llvm.dbg.declare(metadata { i64, i64 }* %layout, metadata !1626, metadata !DIExpression()), !dbg !1629
  store i64 %new_size, i64* %new_size.dbg.spill, align 8
  call void @llvm.dbg.declare(metadata i64* %new_size.dbg.spill, metadata !1627, metadata !DIExpression()), !dbg !1630
; call core::alloc::layout::Layout::size
  %_5 = call i64 @_ZN4core5alloc6layout6Layout4size17hff23cbd9e508b07eE({ i64, i64 }* align 8 dereferenceable(16) %layout), !dbg !1631
  br label %bb1, !dbg !1631

bb1:                                              ; preds = %start
; call core::alloc::layout::Layout::align
  %_7 = call i64 @_ZN4core5alloc6layout6Layout5align17h276944d621282157E({ i64, i64 }* align 8 dereferenceable(16) %layout), !dbg !1632
  br label %bb2, !dbg !1632

bb2:                                              ; preds = %bb1
  %4 = call i8* @__rust_realloc(i8* %ptr, i64 %_5, i64 %_7, i64 %new_size), !dbg !1633
  br label %bb3, !dbg !1633

bb3:                                              ; preds = %bb2
  ret i8* %4, !dbg !1634
}

; alloc::boxed::Box<T>::from_raw
; Function Attrs: inlinehint nounwind
define { %"bytes::Bytes"*, i64 } @"_ZN5alloc5boxed12Box$LT$T$GT$8from_raw17hc7ecd98483275062E"(%"bytes::Bytes"* %raw.0, i64 %raw.1) unnamed_addr #0 !dbg !1635 {
start:
  %raw.dbg.spill = alloca { %"bytes::Bytes"*, i64 }, align 8
  %0 = getelementptr inbounds { %"bytes::Bytes"*, i64 }, { %"bytes::Bytes"*, i64 }* %raw.dbg.spill, i32 0, i32 0
  store %"bytes::Bytes"* %raw.0, %"bytes::Bytes"** %0, align 8
  %1 = getelementptr inbounds { %"bytes::Bytes"*, i64 }, { %"bytes::Bytes"*, i64 }* %raw.dbg.spill, i32 0, i32 1
  store i64 %raw.1, i64* %1, align 8
  call void @llvm.dbg.declare(metadata { %"bytes::Bytes"*, i64 }* %raw.dbg.spill, metadata !1642, metadata !DIExpression()), !dbg !1643
; call alloc::boxed::Box<T,A>::from_raw_in
  %2 = call { %"bytes::Bytes"*, i64 } @"_ZN5alloc5boxed16Box$LT$T$C$A$GT$11from_raw_in17hab4bef92b210e035E"(%"bytes::Bytes"* %raw.0, i64 %raw.1), !dbg !1644
  %3 = extractvalue { %"bytes::Bytes"*, i64 } %2, 0, !dbg !1644
  %4 = extractvalue { %"bytes::Bytes"*, i64 } %2, 1, !dbg !1644
  br label %bb1, !dbg !1644

bb1:                                              ; preds = %start
  %5 = insertvalue { %"bytes::Bytes"*, i64 } undef, %"bytes::Bytes"* %3, 0, !dbg !1645
  %6 = insertvalue { %"bytes::Bytes"*, i64 } %5, i64 %4, 1, !dbg !1645
  ret { %"bytes::Bytes"*, i64 } %6, !dbg !1645
}

; alloc::boxed::Box<T,A>::from_raw_in
; Function Attrs: inlinehint nounwind
define { [0 x i8]*, i64 } @"_ZN5alloc5boxed16Box$LT$T$C$A$GT$11from_raw_in17h6cf1d5c222eadafbE"([0 x i8]* %raw.0, i64 %raw.1) unnamed_addr #0 !dbg !1646 {
start:
  %alloc.dbg.spill = alloca %"std::alloc::Global", align 1
  %raw.dbg.spill = alloca { [0 x i8]*, i64 }, align 8
  %0 = alloca { [0 x i8]*, i64 }, align 8
  %1 = getelementptr inbounds { [0 x i8]*, i64 }, { [0 x i8]*, i64 }* %raw.dbg.spill, i32 0, i32 0
  store [0 x i8]* %raw.0, [0 x i8]** %1, align 8
  %2 = getelementptr inbounds { [0 x i8]*, i64 }, { [0 x i8]*, i64 }* %raw.dbg.spill, i32 0, i32 1
  store i64 %raw.1, i64* %2, align 8
  call void @llvm.dbg.declare(metadata { [0 x i8]*, i64 }* %raw.dbg.spill, metadata !1656, metadata !DIExpression()), !dbg !1658
  call void @llvm.dbg.declare(metadata %"std::alloc::Global"* %alloc.dbg.spill, metadata !1657, metadata !DIExpression()), !dbg !1659
; call core::ptr::unique::Unique<T>::new_unchecked
  %3 = call { i8*, i64 } @"_ZN4core3ptr6unique15Unique$LT$T$GT$13new_unchecked17h43162a1336684b68E"([0 x i8]* %raw.0, i64 %raw.1), !dbg !1660
  %_3.0 = extractvalue { i8*, i64 } %3, 0, !dbg !1660
  %_3.1 = extractvalue { i8*, i64 } %3, 1, !dbg !1660
  br label %bb1, !dbg !1660

bb1:                                              ; preds = %start
  %4 = bitcast { [0 x i8]*, i64 }* %0 to { i8*, i64 }*, !dbg !1661
  %5 = getelementptr inbounds { i8*, i64 }, { i8*, i64 }* %4, i32 0, i32 0, !dbg !1661
  store i8* %_3.0, i8** %5, align 8, !dbg !1661
  %6 = getelementptr inbounds { i8*, i64 }, { i8*, i64 }* %4, i32 0, i32 1, !dbg !1661
  store i64 %_3.1, i64* %6, align 8, !dbg !1661
  %7 = bitcast { [0 x i8]*, i64 }* %0 to %"std::alloc::Global"*, !dbg !1661
  %8 = getelementptr inbounds { [0 x i8]*, i64 }, { [0 x i8]*, i64 }* %0, i32 0, i32 0, !dbg !1662
  %9 = load [0 x i8]*, [0 x i8]** %8, align 8, !dbg !1662, !nonnull !4
  %10 = getelementptr inbounds { [0 x i8]*, i64 }, { [0 x i8]*, i64 }* %0, i32 0, i32 1, !dbg !1662
  %11 = load i64, i64* %10, align 8, !dbg !1662
  %12 = insertvalue { [0 x i8]*, i64 } undef, [0 x i8]* %9, 0, !dbg !1662
  %13 = insertvalue { [0 x i8]*, i64 } %12, i64 %11, 1, !dbg !1662
  ret { [0 x i8]*, i64 } %13, !dbg !1662
}

; alloc::boxed::Box<T,A>::from_raw_in
; Function Attrs: inlinehint nounwind
define { %"bytes::Bytes"*, i64 } @"_ZN5alloc5boxed16Box$LT$T$C$A$GT$11from_raw_in17hab4bef92b210e035E"(%"bytes::Bytes"* %raw.0, i64 %raw.1) unnamed_addr #0 !dbg !1663 {
start:
  %alloc.dbg.spill = alloca %"std::alloc::Global", align 1
  %raw.dbg.spill = alloca { %"bytes::Bytes"*, i64 }, align 8
  %0 = alloca { %"bytes::Bytes"*, i64 }, align 8
  %1 = getelementptr inbounds { %"bytes::Bytes"*, i64 }, { %"bytes::Bytes"*, i64 }* %raw.dbg.spill, i32 0, i32 0
  store %"bytes::Bytes"* %raw.0, %"bytes::Bytes"** %1, align 8
  %2 = getelementptr inbounds { %"bytes::Bytes"*, i64 }, { %"bytes::Bytes"*, i64 }* %raw.dbg.spill, i32 0, i32 1
  store i64 %raw.1, i64* %2, align 8
  call void @llvm.dbg.declare(metadata { %"bytes::Bytes"*, i64 }* %raw.dbg.spill, metadata !1667, metadata !DIExpression()), !dbg !1670
  call void @llvm.dbg.declare(metadata %"std::alloc::Global"* %alloc.dbg.spill, metadata !1668, metadata !DIExpression()), !dbg !1671
; call core::ptr::unique::Unique<T>::new_unchecked
  %3 = call { i8*, i64 } @"_ZN4core3ptr6unique15Unique$LT$T$GT$13new_unchecked17h37f143d991fb2569E"(%"bytes::Bytes"* %raw.0, i64 %raw.1), !dbg !1672
  %_3.0 = extractvalue { i8*, i64 } %3, 0, !dbg !1672
  %_3.1 = extractvalue { i8*, i64 } %3, 1, !dbg !1672
  br label %bb1, !dbg !1672

bb1:                                              ; preds = %start
  %4 = bitcast { %"bytes::Bytes"*, i64 }* %0 to { i8*, i64 }*, !dbg !1673
  %5 = getelementptr inbounds { i8*, i64 }, { i8*, i64 }* %4, i32 0, i32 0, !dbg !1673
  store i8* %_3.0, i8** %5, align 8, !dbg !1673
  %6 = getelementptr inbounds { i8*, i64 }, { i8*, i64 }* %4, i32 0, i32 1, !dbg !1673
  store i64 %_3.1, i64* %6, align 8, !dbg !1673
  %7 = bitcast { %"bytes::Bytes"*, i64 }* %0 to %"std::alloc::Global"*, !dbg !1673
  %8 = getelementptr inbounds { %"bytes::Bytes"*, i64 }, { %"bytes::Bytes"*, i64 }* %0, i32 0, i32 0, !dbg !1674
  %9 = load %"bytes::Bytes"*, %"bytes::Bytes"** %8, align 8, !dbg !1674, !nonnull !4
  %10 = getelementptr inbounds { %"bytes::Bytes"*, i64 }, { %"bytes::Bytes"*, i64 }* %0, i32 0, i32 1, !dbg !1674
  %11 = load i64, i64* %10, align 8, !dbg !1674
  %12 = insertvalue { %"bytes::Bytes"*, i64 } undef, %"bytes::Bytes"* %9, 0, !dbg !1674
  %13 = insertvalue { %"bytes::Bytes"*, i64 } %12, i64 %11, 1, !dbg !1674
  ret { %"bytes::Bytes"*, i64 } %13, !dbg !1674
}

; alloc::boxed::Box<T,A>::from_raw_in
; Function Attrs: inlinehint nounwind
define { [0 x i8]*, i64 } @"_ZN5alloc5boxed16Box$LT$T$C$A$GT$11from_raw_in17hd89bf9c86d9c060aE"([0 x i8]* %raw.0, i64 %raw.1) unnamed_addr #0 !dbg !1675 {
start:
  %alloc.dbg.spill = alloca %"std::alloc::Global", align 1
  %raw.dbg.spill = alloca { [0 x i8]*, i64 }, align 8
  %0 = alloca { [0 x i8]*, i64 }, align 8
  %1 = getelementptr inbounds { [0 x i8]*, i64 }, { [0 x i8]*, i64 }* %raw.dbg.spill, i32 0, i32 0
  store [0 x i8]* %raw.0, [0 x i8]** %1, align 8
  %2 = getelementptr inbounds { [0 x i8]*, i64 }, { [0 x i8]*, i64 }* %raw.dbg.spill, i32 0, i32 1
  store i64 %raw.1, i64* %2, align 8
  call void @llvm.dbg.declare(metadata { [0 x i8]*, i64 }* %raw.dbg.spill, metadata !1679, metadata !DIExpression()), !dbg !1681
  call void @llvm.dbg.declare(metadata %"std::alloc::Global"* %alloc.dbg.spill, metadata !1680, metadata !DIExpression()), !dbg !1682
; call core::ptr::unique::Unique<T>::new_unchecked
  %3 = call { i8*, i64 } @"_ZN4core3ptr6unique15Unique$LT$T$GT$13new_unchecked17h6975d645eaae306dE"([0 x i8]* %raw.0, i64 %raw.1), !dbg !1683
  %_3.0 = extractvalue { i8*, i64 } %3, 0, !dbg !1683
  %_3.1 = extractvalue { i8*, i64 } %3, 1, !dbg !1683
  br label %bb1, !dbg !1683

bb1:                                              ; preds = %start
  %4 = bitcast { [0 x i8]*, i64 }* %0 to { i8*, i64 }*, !dbg !1684
  %5 = getelementptr inbounds { i8*, i64 }, { i8*, i64 }* %4, i32 0, i32 0, !dbg !1684
  store i8* %_3.0, i8** %5, align 8, !dbg !1684
  %6 = getelementptr inbounds { i8*, i64 }, { i8*, i64 }* %4, i32 0, i32 1, !dbg !1684
  store i64 %_3.1, i64* %6, align 8, !dbg !1684
  %7 = bitcast { [0 x i8]*, i64 }* %0 to %"std::alloc::Global"*, !dbg !1684
  %8 = getelementptr inbounds { [0 x i8]*, i64 }, { [0 x i8]*, i64 }* %0, i32 0, i32 0, !dbg !1685
  %9 = load [0 x i8]*, [0 x i8]** %8, align 8, !dbg !1685, !nonnull !4
  %10 = getelementptr inbounds { [0 x i8]*, i64 }, { [0 x i8]*, i64 }* %0, i32 0, i32 1, !dbg !1685
  %11 = load i64, i64* %10, align 8, !dbg !1685
  %12 = insertvalue { [0 x i8]*, i64 } undef, [0 x i8]* %9, 0, !dbg !1685
  %13 = insertvalue { [0 x i8]*, i64 } %12, i64 %11, 1, !dbg !1685
  ret { [0 x i8]*, i64 } %13, !dbg !1685
}

; alloc::boxed::Box<T,A>::into_unique
; Function Attrs: inlinehint nounwind
define { i8*, i64 } @"_ZN5alloc5boxed16Box$LT$T$C$A$GT$11into_unique17h3cd9a31685b26f98E"([0 x i8]* noalias nonnull align 1 %0, i64 %1) unnamed_addr #0 !dbg !1686 {
start:
  %alloc.dbg.spill = alloca %"std::alloc::Global", align 1
  %2 = alloca { i8*, i64 }, align 8
  %b = alloca { [0 x i8]*, i64 }, align 8
  %3 = getelementptr inbounds { [0 x i8]*, i64 }, { [0 x i8]*, i64 }* %b, i32 0, i32 0
  store [0 x i8]* %0, [0 x i8]** %3, align 8
  %4 = getelementptr inbounds { [0 x i8]*, i64 }, { [0 x i8]*, i64 }* %b, i32 0, i32 1
  store i64 %1, i64* %4, align 8
  call void @llvm.dbg.declare(metadata { [0 x i8]*, i64 }* %b, metadata !1694, metadata !DIExpression()), !dbg !1697
  call void @llvm.dbg.declare(metadata %"std::alloc::Global"* %alloc.dbg.spill, metadata !1695, metadata !DIExpression()), !dbg !1698
  %_4 = bitcast { [0 x i8]*, i64 }* %b to %"std::alloc::Global"*, !dbg !1699
; call core::ptr::read
  call void @_ZN4core3ptr4read17hcaf9e15a348f9a1cE(%"std::alloc::Global"* %_4), !dbg !1700
  br label %bb1, !dbg !1700

bb1:                                              ; preds = %start
  %5 = getelementptr inbounds { [0 x i8]*, i64 }, { [0 x i8]*, i64 }* %b, i32 0, i32 0, !dbg !1701
  %_7.0 = load [0 x i8]*, [0 x i8]** %5, align 8, !dbg !1701, !nonnull !4
  %6 = getelementptr inbounds { [0 x i8]*, i64 }, { [0 x i8]*, i64 }* %b, i32 0, i32 1, !dbg !1701
  %_7.1 = load i64, i64* %6, align 8, !dbg !1701
; call alloc::boxed::Box<T,A>::leak
  %7 = call { [0 x i8]*, i64 } @"_ZN5alloc5boxed16Box$LT$T$C$A$GT$4leak17hf7569b08946ca9caE"([0 x i8]* noalias nonnull align 1 %_7.0, i64 %_7.1), !dbg !1702
  %_6.0 = extractvalue { [0 x i8]*, i64 } %7, 0, !dbg !1702
  %_6.1 = extractvalue { [0 x i8]*, i64 } %7, 1, !dbg !1702
  br label %bb2, !dbg !1702

bb2:                                              ; preds = %bb1
; call <core::ptr::unique::Unique<T> as core::convert::From<&mut T>>::from
  %8 = call { i8*, i64 } @"_ZN95_$LT$core..ptr..unique..Unique$LT$T$GT$$u20$as$u20$core..convert..From$LT$$RF$mut$u20$T$GT$$GT$4from17hb53efa97df48e097E"([0 x i8]* nonnull align 1 %_6.0, i64 %_6.1), !dbg !1703
  %_5.0 = extractvalue { i8*, i64 } %8, 0, !dbg !1703
  %_5.1 = extractvalue { i8*, i64 } %8, 1, !dbg !1703
  br label %bb3, !dbg !1703

bb3:                                              ; preds = %bb2
  %9 = getelementptr inbounds { i8*, i64 }, { i8*, i64 }* %2, i32 0, i32 0, !dbg !1704
  store i8* %_5.0, i8** %9, align 8, !dbg !1704
  %10 = getelementptr inbounds { i8*, i64 }, { i8*, i64 }* %2, i32 0, i32 1, !dbg !1704
  store i64 %_5.1, i64* %10, align 8, !dbg !1704
  %11 = bitcast { i8*, i64 }* %2 to i8*, !dbg !1704
  %12 = getelementptr i8, i8* %11, i64 16, !dbg !1704
  %13 = bitcast i8* %12 to %"std::alloc::Global"*, !dbg !1704
  %14 = getelementptr inbounds { i8*, i64 }, { i8*, i64 }* %2, i32 0, i32 0, !dbg !1705
  %15 = load i8*, i8** %14, align 8, !dbg !1705, !nonnull !4
  %16 = getelementptr inbounds { i8*, i64 }, { i8*, i64 }* %2, i32 0, i32 1, !dbg !1705
  %17 = load i64, i64* %16, align 8, !dbg !1705
  %18 = insertvalue { i8*, i64 } undef, i8* %15, 0, !dbg !1705
  %19 = insertvalue { i8*, i64 } %18, i64 %17, 1, !dbg !1705
  ret { i8*, i64 } %19, !dbg !1705
}

; alloc::boxed::Box<T,A>::into_unique
; Function Attrs: inlinehint nounwind
define { i8*, i64 } @"_ZN5alloc5boxed16Box$LT$T$C$A$GT$11into_unique17h63c68e3752329b4eE"([0 x i8]* noalias nonnull align 1 %0, i64 %1) unnamed_addr #0 !dbg !1706 {
start:
  %alloc.dbg.spill = alloca %"std::alloc::Global", align 1
  %2 = alloca { i8*, i64 }, align 8
  %b = alloca { [0 x i8]*, i64 }, align 8
  %3 = getelementptr inbounds { [0 x i8]*, i64 }, { [0 x i8]*, i64 }* %b, i32 0, i32 0
  store [0 x i8]* %0, [0 x i8]** %3, align 8
  %4 = getelementptr inbounds { [0 x i8]*, i64 }, { [0 x i8]*, i64 }* %b, i32 0, i32 1
  store i64 %1, i64* %4, align 8
  call void @llvm.dbg.declare(metadata { [0 x i8]*, i64 }* %b, metadata !1714, metadata !DIExpression()), !dbg !1717
  call void @llvm.dbg.declare(metadata %"std::alloc::Global"* %alloc.dbg.spill, metadata !1715, metadata !DIExpression()), !dbg !1718
  %_4 = bitcast { [0 x i8]*, i64 }* %b to %"std::alloc::Global"*, !dbg !1719
; call core::ptr::read
  call void @_ZN4core3ptr4read17hcaf9e15a348f9a1cE(%"std::alloc::Global"* %_4), !dbg !1720
  br label %bb1, !dbg !1720

bb1:                                              ; preds = %start
  %5 = getelementptr inbounds { [0 x i8]*, i64 }, { [0 x i8]*, i64 }* %b, i32 0, i32 0, !dbg !1721
  %_7.0 = load [0 x i8]*, [0 x i8]** %5, align 8, !dbg !1721, !nonnull !4
  %6 = getelementptr inbounds { [0 x i8]*, i64 }, { [0 x i8]*, i64 }* %b, i32 0, i32 1, !dbg !1721
  %_7.1 = load i64, i64* %6, align 8, !dbg !1721
; call alloc::boxed::Box<T,A>::leak
  %7 = call { [0 x i8]*, i64 } @"_ZN5alloc5boxed16Box$LT$T$C$A$GT$4leak17hcc2cebc1e17ad5d8E"([0 x i8]* noalias nonnull align 1 %_7.0, i64 %_7.1), !dbg !1722
  %_6.0 = extractvalue { [0 x i8]*, i64 } %7, 0, !dbg !1722
  %_6.1 = extractvalue { [0 x i8]*, i64 } %7, 1, !dbg !1722
  br label %bb2, !dbg !1722

bb2:                                              ; preds = %bb1
; call <core::ptr::unique::Unique<T> as core::convert::From<&mut T>>::from
  %8 = call { i8*, i64 } @"_ZN95_$LT$core..ptr..unique..Unique$LT$T$GT$$u20$as$u20$core..convert..From$LT$$RF$mut$u20$T$GT$$GT$4from17h7152bfc6d237e1f4E"([0 x i8]* nonnull align 1 %_6.0, i64 %_6.1), !dbg !1723
  %_5.0 = extractvalue { i8*, i64 } %8, 0, !dbg !1723
  %_5.1 = extractvalue { i8*, i64 } %8, 1, !dbg !1723
  br label %bb3, !dbg !1723

bb3:                                              ; preds = %bb2
  %9 = getelementptr inbounds { i8*, i64 }, { i8*, i64 }* %2, i32 0, i32 0, !dbg !1724
  store i8* %_5.0, i8** %9, align 8, !dbg !1724
  %10 = getelementptr inbounds { i8*, i64 }, { i8*, i64 }* %2, i32 0, i32 1, !dbg !1724
  store i64 %_5.1, i64* %10, align 8, !dbg !1724
  %11 = bitcast { i8*, i64 }* %2 to i8*, !dbg !1724
  %12 = getelementptr i8, i8* %11, i64 16, !dbg !1724
  %13 = bitcast i8* %12 to %"std::alloc::Global"*, !dbg !1724
  %14 = getelementptr inbounds { i8*, i64 }, { i8*, i64 }* %2, i32 0, i32 0, !dbg !1725
  %15 = load i8*, i8** %14, align 8, !dbg !1725, !nonnull !4
  %16 = getelementptr inbounds { i8*, i64 }, { i8*, i64 }* %2, i32 0, i32 1, !dbg !1725
  %17 = load i64, i64* %16, align 8, !dbg !1725
  %18 = insertvalue { i8*, i64 } undef, i8* %15, 0, !dbg !1725
  %19 = insertvalue { i8*, i64 } %18, i64 %17, 1, !dbg !1725
  ret { i8*, i64 } %19, !dbg !1725
}

; alloc::boxed::Box<T,A>::into_raw_with_allocator
; Function Attrs: inlinehint nounwind
define { i8*, i64 } @"_ZN5alloc5boxed16Box$LT$T$C$A$GT$23into_raw_with_allocator17h9b24ce32b4f999d7E"([0 x i8]* noalias nonnull align 1 %b.0, i64 %b.1) unnamed_addr #0 !dbg !1726 {
start:
  %leaked.dbg.spill = alloca { i8*, i64 }, align 8
  %alloc.dbg.spill = alloca %"std::alloc::Global", align 1
  %b.dbg.spill = alloca { [0 x i8]*, i64 }, align 8
  %0 = alloca { i8*, i64 }, align 8
  %1 = getelementptr inbounds { [0 x i8]*, i64 }, { [0 x i8]*, i64 }* %b.dbg.spill, i32 0, i32 0
  store [0 x i8]* %b.0, [0 x i8]** %1, align 8
  %2 = getelementptr inbounds { [0 x i8]*, i64 }, { [0 x i8]*, i64 }* %b.dbg.spill, i32 0, i32 1
  store i64 %b.1, i64* %2, align 8
  call void @llvm.dbg.declare(metadata { [0 x i8]*, i64 }* %b.dbg.spill, metadata !1734, metadata !DIExpression()), !dbg !1738
  call void @llvm.dbg.declare(metadata %"std::alloc::Global"* %alloc.dbg.spill, metadata !1737, metadata !DIExpression()), !dbg !1739
; call alloc::boxed::Box<T,A>::into_unique
  %3 = call { i8*, i64 } @"_ZN5alloc5boxed16Box$LT$T$C$A$GT$11into_unique17h63c68e3752329b4eE"([0 x i8]* noalias nonnull align 1 %b.0, i64 %b.1), !dbg !1740
  %_4.0 = extractvalue { i8*, i64 } %3, 0, !dbg !1740
  %_4.1 = extractvalue { i8*, i64 } %3, 1, !dbg !1740
  br label %bb1, !dbg !1740

bb1:                                              ; preds = %start
  %4 = getelementptr inbounds { i8*, i64 }, { i8*, i64 }* %leaked.dbg.spill, i32 0, i32 0, !dbg !1741
  store i8* %_4.0, i8** %4, align 8, !dbg !1741
  %5 = getelementptr inbounds { i8*, i64 }, { i8*, i64 }* %leaked.dbg.spill, i32 0, i32 1, !dbg !1741
  store i64 %_4.1, i64* %5, align 8, !dbg !1741
  call void @llvm.dbg.declare(metadata { i8*, i64 }* %leaked.dbg.spill, metadata !1735, metadata !DIExpression()), !dbg !1742
; call core::ptr::unique::Unique<T>::as_ptr
  %6 = call { [0 x i8]*, i64 } @"_ZN4core3ptr6unique15Unique$LT$T$GT$6as_ptr17hdab647fdd5e08936E"(i8* nonnull %_4.0, i64 %_4.1), !dbg !1743
  %_6.0 = extractvalue { [0 x i8]*, i64 } %6, 0, !dbg !1743
  %_6.1 = extractvalue { [0 x i8]*, i64 } %6, 1, !dbg !1743
  br label %bb2, !dbg !1743

bb2:                                              ; preds = %bb1
  %7 = bitcast { i8*, i64 }* %0 to { [0 x i8]*, i64 }*, !dbg !1744
  %8 = getelementptr inbounds { [0 x i8]*, i64 }, { [0 x i8]*, i64 }* %7, i32 0, i32 0, !dbg !1744
  store [0 x i8]* %_6.0, [0 x i8]** %8, align 8, !dbg !1744
  %9 = getelementptr inbounds { [0 x i8]*, i64 }, { [0 x i8]*, i64 }* %7, i32 0, i32 1, !dbg !1744
  store i64 %_6.1, i64* %9, align 8, !dbg !1744
  %10 = bitcast { i8*, i64 }* %0 to i8*, !dbg !1744
  %11 = getelementptr i8, i8* %10, i64 16, !dbg !1744
  %12 = bitcast i8* %11 to %"std::alloc::Global"*, !dbg !1744
  %13 = getelementptr inbounds { i8*, i64 }, { i8*, i64 }* %0, i32 0, i32 0, !dbg !1745
  %14 = load i8*, i8** %13, align 8, !dbg !1745
  %15 = getelementptr inbounds { i8*, i64 }, { i8*, i64 }* %0, i32 0, i32 1, !dbg !1745
  %16 = load i64, i64* %15, align 8, !dbg !1745
  %17 = insertvalue { i8*, i64 } undef, i8* %14, 0, !dbg !1745
  %18 = insertvalue { i8*, i64 } %17, i64 %16, 1, !dbg !1745
  ret { i8*, i64 } %18, !dbg !1745
}

; alloc::boxed::Box<T,A>::into_raw_with_allocator
; Function Attrs: inlinehint nounwind
define { i8*, i64 } @"_ZN5alloc5boxed16Box$LT$T$C$A$GT$23into_raw_with_allocator17hfc9d45cc81efdb1dE"([0 x i8]* noalias nonnull align 1 %b.0, i64 %b.1) unnamed_addr #0 !dbg !1746 {
start:
  %leaked.dbg.spill = alloca { i8*, i64 }, align 8
  %alloc.dbg.spill = alloca %"std::alloc::Global", align 1
  %b.dbg.spill = alloca { [0 x i8]*, i64 }, align 8
  %0 = alloca { i8*, i64 }, align 8
  %1 = getelementptr inbounds { [0 x i8]*, i64 }, { [0 x i8]*, i64 }* %b.dbg.spill, i32 0, i32 0
  store [0 x i8]* %b.0, [0 x i8]** %1, align 8
  %2 = getelementptr inbounds { [0 x i8]*, i64 }, { [0 x i8]*, i64 }* %b.dbg.spill, i32 0, i32 1
  store i64 %b.1, i64* %2, align 8
  call void @llvm.dbg.declare(metadata { [0 x i8]*, i64 }* %b.dbg.spill, metadata !1754, metadata !DIExpression()), !dbg !1758
  call void @llvm.dbg.declare(metadata %"std::alloc::Global"* %alloc.dbg.spill, metadata !1757, metadata !DIExpression()), !dbg !1759
; call alloc::boxed::Box<T,A>::into_unique
  %3 = call { i8*, i64 } @"_ZN5alloc5boxed16Box$LT$T$C$A$GT$11into_unique17h3cd9a31685b26f98E"([0 x i8]* noalias nonnull align 1 %b.0, i64 %b.1), !dbg !1760
  %_4.0 = extractvalue { i8*, i64 } %3, 0, !dbg !1760
  %_4.1 = extractvalue { i8*, i64 } %3, 1, !dbg !1760
  br label %bb1, !dbg !1760

bb1:                                              ; preds = %start
  %4 = getelementptr inbounds { i8*, i64 }, { i8*, i64 }* %leaked.dbg.spill, i32 0, i32 0, !dbg !1761
  store i8* %_4.0, i8** %4, align 8, !dbg !1761
  %5 = getelementptr inbounds { i8*, i64 }, { i8*, i64 }* %leaked.dbg.spill, i32 0, i32 1, !dbg !1761
  store i64 %_4.1, i64* %5, align 8, !dbg !1761
  call void @llvm.dbg.declare(metadata { i8*, i64 }* %leaked.dbg.spill, metadata !1755, metadata !DIExpression()), !dbg !1762
; call core::ptr::unique::Unique<T>::as_ptr
  %6 = call { [0 x i8]*, i64 } @"_ZN4core3ptr6unique15Unique$LT$T$GT$6as_ptr17hc6c5ee6cffbdc5deE"(i8* nonnull %_4.0, i64 %_4.1), !dbg !1763
  %_6.0 = extractvalue { [0 x i8]*, i64 } %6, 0, !dbg !1763
  %_6.1 = extractvalue { [0 x i8]*, i64 } %6, 1, !dbg !1763
  br label %bb2, !dbg !1763

bb2:                                              ; preds = %bb1
  %7 = bitcast { i8*, i64 }* %0 to { [0 x i8]*, i64 }*, !dbg !1764
  %8 = getelementptr inbounds { [0 x i8]*, i64 }, { [0 x i8]*, i64 }* %7, i32 0, i32 0, !dbg !1764
  store [0 x i8]* %_6.0, [0 x i8]** %8, align 8, !dbg !1764
  %9 = getelementptr inbounds { [0 x i8]*, i64 }, { [0 x i8]*, i64 }* %7, i32 0, i32 1, !dbg !1764
  store i64 %_6.1, i64* %9, align 8, !dbg !1764
  %10 = bitcast { i8*, i64 }* %0 to i8*, !dbg !1764
  %11 = getelementptr i8, i8* %10, i64 16, !dbg !1764
  %12 = bitcast i8* %11 to %"std::alloc::Global"*, !dbg !1764
  %13 = getelementptr inbounds { i8*, i64 }, { i8*, i64 }* %0, i32 0, i32 0, !dbg !1765
  %14 = load i8*, i8** %13, align 8, !dbg !1765
  %15 = getelementptr inbounds { i8*, i64 }, { i8*, i64 }* %0, i32 0, i32 1, !dbg !1765
  %16 = load i64, i64* %15, align 8, !dbg !1765
  %17 = insertvalue { i8*, i64 } undef, i8* %14, 0, !dbg !1765
  %18 = insertvalue { i8*, i64 } %17, i64 %16, 1, !dbg !1765
  ret { i8*, i64 } %18, !dbg !1765
}

; alloc::boxed::Box<T,A>::leak
; Function Attrs: inlinehint nounwind
define { [0 x i8]*, i64 } @"_ZN5alloc5boxed16Box$LT$T$C$A$GT$4leak17hcc2cebc1e17ad5d8E"([0 x i8]* noalias nonnull align 1 %b.0, i64 %b.1) unnamed_addr #0 !dbg !1766 {
start:
  %self.dbg.spill.i = alloca { i8*, i64 }*, align 8
  %value.dbg.spill.i = alloca { [0 x i8]*, i64 }, align 8
  %0 = alloca { i8*, i64 }, align 8
  %b.dbg.spill = alloca { [0 x i8]*, i64 }, align 8
  %_9 = alloca { i8*, i64 }, align 8
  %1 = getelementptr inbounds { [0 x i8]*, i64 }, { [0 x i8]*, i64 }* %b.dbg.spill, i32 0, i32 0
  store [0 x i8]* %b.0, [0 x i8]** %1, align 8
  %2 = getelementptr inbounds { [0 x i8]*, i64 }, { [0 x i8]*, i64 }* %b.dbg.spill, i32 0, i32 1
  store i64 %b.1, i64* %2, align 8
  call void @llvm.dbg.declare(metadata { [0 x i8]*, i64 }* %b.dbg.spill, metadata !1770, metadata !DIExpression()), !dbg !1771
  call void @llvm.experimental.noalias.scope.decl(metadata !1772), !dbg !1775
  %3 = getelementptr inbounds { [0 x i8]*, i64 }, { [0 x i8]*, i64 }* %value.dbg.spill.i, i32 0, i32 0
  store [0 x i8]* %b.0, [0 x i8]** %3, align 8, !noalias !1772
  %4 = getelementptr inbounds { [0 x i8]*, i64 }, { [0 x i8]*, i64 }* %value.dbg.spill.i, i32 0, i32 1
  store i64 %b.1, i64* %4, align 8, !noalias !1772
  call void @llvm.dbg.declare(metadata { [0 x i8]*, i64 }* %value.dbg.spill.i, metadata !1776, metadata !DIExpression()), !dbg !1785
  %5 = bitcast { i8*, i64 }* %0 to { [0 x i8]*, i64 }*, !dbg !1787
  %6 = getelementptr inbounds { [0 x i8]*, i64 }, { [0 x i8]*, i64 }* %5, i32 0, i32 0, !dbg !1787
  store [0 x i8]* %b.0, [0 x i8]** %6, align 8, !dbg !1787, !noalias !1772
  %7 = getelementptr inbounds { [0 x i8]*, i64 }, { [0 x i8]*, i64 }* %5, i32 0, i32 1, !dbg !1787
  store i64 %b.1, i64* %7, align 8, !dbg !1787, !noalias !1772
  %8 = getelementptr inbounds { i8*, i64 }, { i8*, i64 }* %0, i32 0, i32 0, !dbg !1788
  %9 = load i8*, i8** %8, align 8, !dbg !1788, !noalias !1772, !nonnull !4
  %10 = getelementptr inbounds { i8*, i64 }, { i8*, i64 }* %0, i32 0, i32 1, !dbg !1788
  %11 = load i64, i64* %10, align 8, !dbg !1788, !noalias !1772
  %12 = insertvalue { i8*, i64 } undef, i8* %9, 0, !dbg !1788
  %13 = insertvalue { i8*, i64 } %12, i64 %11, 1, !dbg !1788
  store { i8*, i64 } %13, { i8*, i64 }* %_9, align 8, !dbg !1775
  br label %bb1, !dbg !1775

bb1:                                              ; preds = %start
  store { i8*, i64 }* %_9, { i8*, i64 }** %self.dbg.spill.i, align 8
  call void @llvm.dbg.declare(metadata { i8*, i64 }** %self.dbg.spill.i, metadata !1789, metadata !DIExpression()), !dbg !1796
  %14 = bitcast { i8*, i64 }* %_9 to { [0 x i8]*, i64 }*, !dbg !1798
  br label %bb2, !dbg !1775

bb2:                                              ; preds = %bb1
  %15 = bitcast { [0 x i8]*, i64 }* %14 to { i8*, i64 }*, !dbg !1775
  %16 = getelementptr inbounds { i8*, i64 }, { i8*, i64 }* %15, i32 0, i32 0, !dbg !1775
  %_6.0 = load i8*, i8** %16, align 8, !dbg !1775, !nonnull !4
  %17 = getelementptr inbounds { i8*, i64 }, { i8*, i64 }* %15, i32 0, i32 1, !dbg !1775
  %_6.1 = load i64, i64* %17, align 8, !dbg !1775
; call core::ptr::unique::Unique<T>::as_ptr
  %18 = call { [0 x i8]*, i64 } @"_ZN4core3ptr6unique15Unique$LT$T$GT$6as_ptr17hdab647fdd5e08936E"(i8* nonnull %_6.0, i64 %_6.1), !dbg !1775
  %_5.0 = extractvalue { [0 x i8]*, i64 } %18, 0, !dbg !1775
  %_5.1 = extractvalue { [0 x i8]*, i64 } %18, 1, !dbg !1775
  br label %bb3, !dbg !1775

bb3:                                              ; preds = %bb2
  %19 = insertvalue { [0 x i8]*, i64 } undef, [0 x i8]* %_5.0, 0, !dbg !1799
  %20 = insertvalue { [0 x i8]*, i64 } %19, i64 %_5.1, 1, !dbg !1799
  ret { [0 x i8]*, i64 } %20, !dbg !1799
}

; alloc::boxed::Box<T,A>::leak
; Function Attrs: inlinehint nounwind
define { [0 x i8]*, i64 } @"_ZN5alloc5boxed16Box$LT$T$C$A$GT$4leak17hf7569b08946ca9caE"([0 x i8]* noalias nonnull align 1 %b.0, i64 %b.1) unnamed_addr #0 !dbg !1800 {
start:
  %self.dbg.spill.i = alloca { i8*, i64 }*, align 8
  %value.dbg.spill.i = alloca { [0 x i8]*, i64 }, align 8
  %0 = alloca { i8*, i64 }, align 8
  %b.dbg.spill = alloca { [0 x i8]*, i64 }, align 8
  %_9 = alloca { i8*, i64 }, align 8
  %1 = getelementptr inbounds { [0 x i8]*, i64 }, { [0 x i8]*, i64 }* %b.dbg.spill, i32 0, i32 0
  store [0 x i8]* %b.0, [0 x i8]** %1, align 8
  %2 = getelementptr inbounds { [0 x i8]*, i64 }, { [0 x i8]*, i64 }* %b.dbg.spill, i32 0, i32 1
  store i64 %b.1, i64* %2, align 8
  call void @llvm.dbg.declare(metadata { [0 x i8]*, i64 }* %b.dbg.spill, metadata !1804, metadata !DIExpression()), !dbg !1805
  call void @llvm.experimental.noalias.scope.decl(metadata !1806), !dbg !1809
  %3 = getelementptr inbounds { [0 x i8]*, i64 }, { [0 x i8]*, i64 }* %value.dbg.spill.i, i32 0, i32 0
  store [0 x i8]* %b.0, [0 x i8]** %3, align 8, !noalias !1806
  %4 = getelementptr inbounds { [0 x i8]*, i64 }, { [0 x i8]*, i64 }* %value.dbg.spill.i, i32 0, i32 1
  store i64 %b.1, i64* %4, align 8, !noalias !1806
  call void @llvm.dbg.declare(metadata { [0 x i8]*, i64 }* %value.dbg.spill.i, metadata !1810, metadata !DIExpression()), !dbg !1820
  %5 = bitcast { i8*, i64 }* %0 to { [0 x i8]*, i64 }*, !dbg !1822
  %6 = getelementptr inbounds { [0 x i8]*, i64 }, { [0 x i8]*, i64 }* %5, i32 0, i32 0, !dbg !1822
  store [0 x i8]* %b.0, [0 x i8]** %6, align 8, !dbg !1822, !noalias !1806
  %7 = getelementptr inbounds { [0 x i8]*, i64 }, { [0 x i8]*, i64 }* %5, i32 0, i32 1, !dbg !1822
  store i64 %b.1, i64* %7, align 8, !dbg !1822, !noalias !1806
  %8 = getelementptr inbounds { i8*, i64 }, { i8*, i64 }* %0, i32 0, i32 0, !dbg !1823
  %9 = load i8*, i8** %8, align 8, !dbg !1823, !noalias !1806, !nonnull !4
  %10 = getelementptr inbounds { i8*, i64 }, { i8*, i64 }* %0, i32 0, i32 1, !dbg !1823
  %11 = load i64, i64* %10, align 8, !dbg !1823, !noalias !1806
  %12 = insertvalue { i8*, i64 } undef, i8* %9, 0, !dbg !1823
  %13 = insertvalue { i8*, i64 } %12, i64 %11, 1, !dbg !1823
  store { i8*, i64 } %13, { i8*, i64 }* %_9, align 8, !dbg !1809
  br label %bb1, !dbg !1809

bb1:                                              ; preds = %start
  store { i8*, i64 }* %_9, { i8*, i64 }** %self.dbg.spill.i, align 8
  call void @llvm.dbg.declare(metadata { i8*, i64 }** %self.dbg.spill.i, metadata !1824, metadata !DIExpression()), !dbg !1831
  %14 = bitcast { i8*, i64 }* %_9 to { [0 x i8]*, i64 }*, !dbg !1833
  br label %bb2, !dbg !1809

bb2:                                              ; preds = %bb1
  %15 = bitcast { [0 x i8]*, i64 }* %14 to { i8*, i64 }*, !dbg !1809
  %16 = getelementptr inbounds { i8*, i64 }, { i8*, i64 }* %15, i32 0, i32 0, !dbg !1809
  %_6.0 = load i8*, i8** %16, align 8, !dbg !1809, !nonnull !4
  %17 = getelementptr inbounds { i8*, i64 }, { i8*, i64 }* %15, i32 0, i32 1, !dbg !1809
  %_6.1 = load i64, i64* %17, align 8, !dbg !1809
; call core::ptr::unique::Unique<T>::as_ptr
  %18 = call { [0 x i8]*, i64 } @"_ZN4core3ptr6unique15Unique$LT$T$GT$6as_ptr17hc6c5ee6cffbdc5deE"(i8* nonnull %_6.0, i64 %_6.1), !dbg !1809
  %_5.0 = extractvalue { [0 x i8]*, i64 } %18, 0, !dbg !1809
  %_5.1 = extractvalue { [0 x i8]*, i64 } %18, 1, !dbg !1809
  br label %bb3, !dbg !1809

bb3:                                              ; preds = %bb2
  %19 = insertvalue { [0 x i8]*, i64 } undef, [0 x i8]* %_5.0, 0, !dbg !1834
  %20 = insertvalue { [0 x i8]*, i64 } %19, i64 %_5.1, 1, !dbg !1834
  ret { [0 x i8]*, i64 } %20, !dbg !1834
}

; alloc::boxed::Box<T,A>::into_raw
; Function Attrs: inlinehint nounwind
define { [0 x i8]*, i64 } @"_ZN5alloc5boxed16Box$LT$T$C$A$GT$8into_raw17h3ec325c544d9dc08E"([0 x i8]* noalias nonnull align 1 %b.0, i64 %b.1) unnamed_addr #0 !dbg !1835 {
start:
  %b.dbg.spill = alloca { [0 x i8]*, i64 }, align 8
  %0 = getelementptr inbounds { [0 x i8]*, i64 }, { [0 x i8]*, i64 }* %b.dbg.spill, i32 0, i32 0
  store [0 x i8]* %b.0, [0 x i8]** %0, align 8
  %1 = getelementptr inbounds { [0 x i8]*, i64 }, { [0 x i8]*, i64 }* %b.dbg.spill, i32 0, i32 1
  store i64 %b.1, i64* %1, align 8
  call void @llvm.dbg.declare(metadata { [0 x i8]*, i64 }* %b.dbg.spill, metadata !1839, metadata !DIExpression()), !dbg !1840
; call alloc::boxed::Box<T,A>::into_raw_with_allocator
  %2 = call { i8*, i64 } @"_ZN5alloc5boxed16Box$LT$T$C$A$GT$23into_raw_with_allocator17h9b24ce32b4f999d7E"([0 x i8]* noalias nonnull align 1 %b.0, i64 %b.1), !dbg !1841
  %_2.0 = extractvalue { i8*, i64 } %2, 0, !dbg !1841
  %_2.1 = extractvalue { i8*, i64 } %2, 1, !dbg !1841
  br label %bb1, !dbg !1841

bb1:                                              ; preds = %start
  %3 = bitcast i8* %_2.0 to [0 x i8]*, !dbg !1841
  br label %bb2, !dbg !1842

bb2:                                              ; preds = %bb1
  %4 = insertvalue { [0 x i8]*, i64 } undef, [0 x i8]* %3, 0, !dbg !1843
  %5 = insertvalue { [0 x i8]*, i64 } %4, i64 %_2.1, 1, !dbg !1843
  ret { [0 x i8]*, i64 } %5, !dbg !1843
}

; alloc::boxed::Box<[core::mem::maybe_uninit::MaybeUninit<T>],A>::assume_init
; Function Attrs: inlinehint nounwind
define { [0 x i8]*, i64 } @"_ZN5alloc5boxed70Box$LT$$u5b$core..mem..maybe_uninit..MaybeUninit$LT$T$GT$$u5d$$C$A$GT$11assume_init17hf348d439c6128ee2E"([0 x i8]* noalias nonnull align 1 %self.0, i64 %self.1) unnamed_addr #0 !dbg !1844 {
start:
  %raw.dbg.spill = alloca { [0 x i8]*, i64 }, align 8
  %alloc.dbg.spill = alloca %"std::alloc::Global", align 1
  %self.dbg.spill = alloca { [0 x i8]*, i64 }, align 8
  %0 = getelementptr inbounds { [0 x i8]*, i64 }, { [0 x i8]*, i64 }* %self.dbg.spill, i32 0, i32 0
  store [0 x i8]* %self.0, [0 x i8]** %0, align 8
  %1 = getelementptr inbounds { [0 x i8]*, i64 }, { [0 x i8]*, i64 }* %self.dbg.spill, i32 0, i32 1
  store i64 %self.1, i64* %1, align 8
  call void @llvm.dbg.declare(metadata { [0 x i8]*, i64 }* %self.dbg.spill, metadata !1849, metadata !DIExpression()), !dbg !1853
  call void @llvm.dbg.declare(metadata %"std::alloc::Global"* %alloc.dbg.spill, metadata !1852, metadata !DIExpression()), !dbg !1854
; call alloc::boxed::Box<T,A>::into_raw_with_allocator
  %2 = call { i8*, i64 } @"_ZN5alloc5boxed16Box$LT$T$C$A$GT$23into_raw_with_allocator17hfc9d45cc81efdb1dE"([0 x i8]* noalias nonnull align 1 %self.0, i64 %self.1), !dbg !1855
  %_4.0 = extractvalue { i8*, i64 } %2, 0, !dbg !1855
  %_4.1 = extractvalue { i8*, i64 } %2, 1, !dbg !1855
  br label %bb1, !dbg !1855

bb1:                                              ; preds = %start
  %raw.0 = bitcast i8* %_4.0 to [0 x i8]*, !dbg !1856
  %3 = getelementptr inbounds { [0 x i8]*, i64 }, { [0 x i8]*, i64 }* %raw.dbg.spill, i32 0, i32 0, !dbg !1856
  store [0 x i8]* %raw.0, [0 x i8]** %3, align 8, !dbg !1856
  %4 = getelementptr inbounds { [0 x i8]*, i64 }, { [0 x i8]*, i64 }* %raw.dbg.spill, i32 0, i32 1, !dbg !1856
  store i64 %_4.1, i64* %4, align 8, !dbg !1856
  call void @llvm.dbg.declare(metadata { [0 x i8]*, i64 }* %raw.dbg.spill, metadata !1850, metadata !DIExpression()), !dbg !1857
; call alloc::boxed::Box<T,A>::from_raw_in
  %5 = call { [0 x i8]*, i64 } @"_ZN5alloc5boxed16Box$LT$T$C$A$GT$11from_raw_in17hd89bf9c86d9c060aE"([0 x i8]* %raw.0, i64 %_4.1), !dbg !1858
  %6 = extractvalue { [0 x i8]*, i64 } %5, 0, !dbg !1858
  %7 = extractvalue { [0 x i8]*, i64 } %5, 1, !dbg !1858
  br label %bb2, !dbg !1858

bb2:                                              ; preds = %bb1
  %8 = insertvalue { [0 x i8]*, i64 } undef, [0 x i8]* %6, 0, !dbg !1859
  %9 = insertvalue { [0 x i8]*, i64 } %8, i64 %7, 1, !dbg !1859
  ret { [0 x i8]*, i64 } %9, !dbg !1859
}

; alloc::slice::<impl [T]>::to_vec
; Function Attrs: inlinehint nounwind
define void @"_ZN5alloc5slice29_$LT$impl$u20$$u5b$T$u5d$$GT$6to_vec17h9ec1022159734f6aE"(%"std::vec::Vec<u8>"* noalias nocapture sret(%"std::vec::Vec<u8>") dereferenceable(24) %0, [0 x i8]* nonnull align 1 %self.0, i64 %self.1) unnamed_addr #0 !dbg !1860 {
start:
  %self.dbg.spill = alloca { [0 x i8]*, i64 }, align 8
  %1 = getelementptr inbounds { [0 x i8]*, i64 }, { [0 x i8]*, i64 }* %self.dbg.spill, i32 0, i32 0
  store [0 x i8]* %self.0, [0 x i8]** %1, align 8
  %2 = getelementptr inbounds { [0 x i8]*, i64 }, { [0 x i8]*, i64 }* %self.dbg.spill, i32 0, i32 1
  store i64 %self.1, i64* %2, align 8
  call void @llvm.dbg.declare(metadata { [0 x i8]*, i64 }* %self.dbg.spill, metadata !1863, metadata !DIExpression()), !dbg !1864
; call alloc::slice::<impl [T]>::to_vec_in
  call void @"_ZN5alloc5slice29_$LT$impl$u20$$u5b$T$u5d$$GT$9to_vec_in17h705266a37567aaf1E"(%"std::vec::Vec<u8>"* noalias nocapture sret(%"std::vec::Vec<u8>") dereferenceable(24) %0, [0 x i8]* nonnull align 1 %self.0, i64 %self.1), !dbg !1865
  br label %bb1, !dbg !1865

bb1:                                              ; preds = %start
  ret void, !dbg !1866
}

; alloc::slice::<impl [T]>::to_vec_in
; Function Attrs: inlinehint nounwind
define void @"_ZN5alloc5slice29_$LT$impl$u20$$u5b$T$u5d$$GT$9to_vec_in17h705266a37567aaf1E"(%"std::vec::Vec<u8>"* noalias nocapture sret(%"std::vec::Vec<u8>") dereferenceable(24) %0, [0 x i8]* nonnull align 1 %self.0, i64 %self.1) unnamed_addr #0 !dbg !1867 {
start:
  %alloc.dbg.spill = alloca %"std::alloc::Global", align 1
  %self.dbg.spill = alloca { [0 x i8]*, i64 }, align 8
  %1 = getelementptr inbounds { [0 x i8]*, i64 }, { [0 x i8]*, i64 }* %self.dbg.spill, i32 0, i32 0
  store [0 x i8]* %self.0, [0 x i8]** %1, align 8
  %2 = getelementptr inbounds { [0 x i8]*, i64 }, { [0 x i8]*, i64 }* %self.dbg.spill, i32 0, i32 1
  store i64 %self.1, i64* %2, align 8
  call void @llvm.dbg.declare(metadata { [0 x i8]*, i64 }* %self.dbg.spill, metadata !1869, metadata !DIExpression()), !dbg !1871
  call void @llvm.dbg.declare(metadata %"std::alloc::Global"* %alloc.dbg.spill, metadata !1870, metadata !DIExpression()), !dbg !1872
; call alloc::slice::hack::to_vec
  call void @_ZN5alloc5slice4hack6to_vec17h3717bbe66535f009E(%"std::vec::Vec<u8>"* noalias nocapture sret(%"std::vec::Vec<u8>") dereferenceable(24) %0, [0 x i8]* nonnull align 1 %self.0, i64 %self.1), !dbg !1873
  br label %bb1, !dbg !1873

bb1:                                              ; preds = %start
  ret void, !dbg !1874
}

; alloc::slice::hack::to_vec
; Function Attrs: inlinehint nounwind
define void @_ZN5alloc5slice4hack6to_vec17h3717bbe66535f009E(%"std::vec::Vec<u8>"* noalias nocapture sret(%"std::vec::Vec<u8>") dereferenceable(24) %0, [0 x i8]* nonnull align 1 %s.0, i64 %s.1) unnamed_addr #0 !dbg !1875 {
start:
  %alloc.dbg.spill = alloca %"std::alloc::Global", align 1
  %s.dbg.spill = alloca { [0 x i8]*, i64 }, align 8
  %1 = getelementptr inbounds { [0 x i8]*, i64 }, { [0 x i8]*, i64 }* %s.dbg.spill, i32 0, i32 0
  store [0 x i8]* %s.0, [0 x i8]** %1, align 8
  %2 = getelementptr inbounds { [0 x i8]*, i64 }, { [0 x i8]*, i64 }* %s.dbg.spill, i32 0, i32 1
  store i64 %s.1, i64* %2, align 8
  call void @llvm.dbg.declare(metadata { [0 x i8]*, i64 }* %s.dbg.spill, metadata !1877, metadata !DIExpression()), !dbg !1879
  call void @llvm.dbg.declare(metadata %"std::alloc::Global"* %alloc.dbg.spill, metadata !1878, metadata !DIExpression()), !dbg !1880
; call <T as alloc::slice::hack::ConvertVec>::to_vec
  call void @"_ZN52_$LT$T$u20$as$u20$alloc..slice..hack..ConvertVec$GT$6to_vec17h7eb0db8f93187d1dE"(%"std::vec::Vec<u8>"* noalias nocapture sret(%"std::vec::Vec<u8>") dereferenceable(24) %0, [0 x i8]* nonnull align 1 %s.0, i64 %s.1), !dbg !1881
  br label %bb1, !dbg !1881

bb1:                                              ; preds = %start
  ret void, !dbg !1882
}

; alloc::raw_vec::alloc_guard
; Function Attrs: inlinehint nounwind
define internal void @_ZN5alloc7raw_vec11alloc_guard17h2eaf17003e0623cfE(%"std::result::Result<(), std::collections::TryReserveError>"* noalias nocapture sret(%"std::result::Result<(), std::collections::TryReserveError>") dereferenceable(24) %0, i64 %alloc_size) unnamed_addr #0 !dbg !1883 {
start:
  %alloc_size.dbg.spill = alloca i64, align 8
  %_4 = alloca { i64, i64 }, align 8
  store i64 %alloc_size, i64* %alloc_size.dbg.spill, align 8
  call void @llvm.dbg.declare(metadata i64* %alloc_size.dbg.spill, metadata !1887, metadata !DIExpression()), !dbg !1888
  br i1 false, label %bb1, label %bb3, !dbg !1889

bb3:                                              ; preds = %start
  %1 = bitcast %"std::result::Result<(), std::collections::TryReserveError>"* %0 to i64*, !dbg !1890
  store i64 0, i64* %1, align 8, !dbg !1890
  br label %bb4, !dbg !1891

bb1:                                              ; preds = %start
  %2 = getelementptr inbounds { i64, i64 }, { i64, i64 }* %_4, i32 0, i32 1, !dbg !1892
  store i64 0, i64* %2, align 8, !dbg !1892
  %3 = getelementptr inbounds { i64, i64 }, { i64, i64 }* %_4, i32 0, i32 0, !dbg !1892
  %4 = load i64, i64* %3, align 8, !dbg !1892
  %5 = getelementptr inbounds { i64, i64 }, { i64, i64 }* %_4, i32 0, i32 1, !dbg !1892
  %6 = load i64, i64* %5, align 8, !dbg !1892
; call <T as core::convert::Into<U>>::into
  %7 = call { i64, i64 } @"_ZN50_$LT$T$u20$as$u20$core..convert..Into$LT$U$GT$$GT$4into17hfd1565f9acf852b3E"(i64 %4, i64 %6), !dbg !1892
  %_3.0 = extractvalue { i64, i64 } %7, 0, !dbg !1892
  %_3.1 = extractvalue { i64, i64 } %7, 1, !dbg !1892
  br label %bb2, !dbg !1892

bb2:                                              ; preds = %bb1
  %8 = bitcast %"std::result::Result<(), std::collections::TryReserveError>"* %0 to %"std::result::Result<(), std::collections::TryReserveError>::Err"*, !dbg !1893
  %9 = getelementptr inbounds %"std::result::Result<(), std::collections::TryReserveError>::Err", %"std::result::Result<(), std::collections::TryReserveError>::Err"* %8, i32 0, i32 1, !dbg !1893
  %10 = getelementptr inbounds { i64, i64 }, { i64, i64 }* %9, i32 0, i32 0, !dbg !1893
  store i64 %_3.0, i64* %10, align 8, !dbg !1893
  %11 = getelementptr inbounds { i64, i64 }, { i64, i64 }* %9, i32 0, i32 1, !dbg !1893
  store i64 %_3.1, i64* %11, align 8, !dbg !1893
  %12 = bitcast %"std::result::Result<(), std::collections::TryReserveError>"* %0 to i64*, !dbg !1893
  store i64 1, i64* %12, align 8, !dbg !1893
  br label %bb4, !dbg !1891

bb4:                                              ; preds = %bb3, %bb2
  ret void, !dbg !1894
}

; alloc::raw_vec::handle_reserve
; Function Attrs: inlinehint nounwind
define internal void @_ZN5alloc7raw_vec14handle_reserve17h2cc4c134bc51b024E(%"std::result::Result<(), std::collections::TryReserveError>"* noalias nocapture dereferenceable(24) %result) unnamed_addr #0 !dbg !1895 {
start:
  %layout.dbg.spill = alloca { i64, i64 }, align 8
  %_3 = alloca %"std::result::Result<(), std::collections::TryReserveError>", align 8
  %_2 = alloca %"std::result::Result<(), std::collections::TryReserveErrorKind>", align 8
  call void @llvm.dbg.declare(metadata %"std::result::Result<(), std::collections::TryReserveError>"* %result, metadata !1899, metadata !DIExpression()), !dbg !1902
  %0 = bitcast %"std::result::Result<(), std::collections::TryReserveError>"* %_3 to i8*, !dbg !1903
  %1 = bitcast %"std::result::Result<(), std::collections::TryReserveError>"* %result to i8*, !dbg !1903
  call void @llvm.memcpy.p0i8.p0i8.i64(i8* align 8 %0, i8* align 8 %1, i64 24, i1 false), !dbg !1903
; call core::result::Result<T,E>::map_err
  call void @"_ZN4core6result19Result$LT$T$C$E$GT$7map_err17hba6a2535d55cdadfE"(%"std::result::Result<(), std::collections::TryReserveErrorKind>"* noalias nocapture sret(%"std::result::Result<(), std::collections::TryReserveErrorKind>") dereferenceable(24) %_2, %"std::result::Result<(), std::collections::TryReserveError>"* noalias nocapture dereferenceable(24) %_3), !dbg !1903
  br label %bb1, !dbg !1903

bb1:                                              ; preds = %start
  %2 = bitcast %"std::result::Result<(), std::collections::TryReserveErrorKind>"* %_2 to i64*, !dbg !1903
  %_6 = load i64, i64* %2, align 8, !dbg !1903, !range !314
  switch i64 %_6, label %bb4 [
    i64 0, label %bb2
    i64 1, label %bb3
  ], !dbg !1904

bb4:                                              ; preds = %bb3, %bb1
  unreachable, !dbg !1903

bb2:                                              ; preds = %bb1
  ret void, !dbg !1905

bb3:                                              ; preds = %bb1
  %3 = bitcast %"std::result::Result<(), std::collections::TryReserveErrorKind>"* %_2 to %"std::result::Result<(), std::collections::TryReserveErrorKind>::Err"*, !dbg !1903
  %4 = getelementptr inbounds %"std::result::Result<(), std::collections::TryReserveErrorKind>::Err", %"std::result::Result<(), std::collections::TryReserveErrorKind>::Err"* %3, i32 0, i32 1, !dbg !1903
  %5 = getelementptr inbounds { i64, i64 }, { i64, i64 }* %4, i32 0, i32 1, !dbg !1903
  %6 = load i64, i64* %5, align 8, !dbg !1903
  %7 = icmp eq i64 %6, 0, !dbg !1903
  %_5 = select i1 %7, i64 0, i64 1, !dbg !1903
  switch i64 %_5, label %bb4 [
    i64 0, label %bb5
    i64 1, label %bb6
  ], !dbg !1904

bb5:                                              ; preds = %bb3
; call alloc::raw_vec::capacity_overflow
  call void @_ZN5alloc7raw_vec17capacity_overflow17hd70bf339531c8dfaE(), !dbg !1906
  unreachable, !dbg !1906

bb6:                                              ; preds = %bb3
  %8 = bitcast %"std::result::Result<(), std::collections::TryReserveErrorKind>"* %_2 to %"std::result::Result<(), std::collections::TryReserveErrorKind>::Err"*, !dbg !1907
  %9 = getelementptr inbounds %"std::result::Result<(), std::collections::TryReserveErrorKind>::Err", %"std::result::Result<(), std::collections::TryReserveErrorKind>::Err"* %8, i32 0, i32 1, !dbg !1907
  %10 = getelementptr inbounds { i64, i64 }, { i64, i64 }* %9, i32 0, i32 0, !dbg !1907
  %layout.0 = load i64, i64* %10, align 8, !dbg !1907
  %11 = getelementptr inbounds { i64, i64 }, { i64, i64 }* %9, i32 0, i32 1, !dbg !1907
  %layout.1 = load i64, i64* %11, align 8, !dbg !1907, !range !324
  %12 = getelementptr inbounds { i64, i64 }, { i64, i64 }* %layout.dbg.spill, i32 0, i32 0, !dbg !1907
  store i64 %layout.0, i64* %12, align 8, !dbg !1907
  %13 = getelementptr inbounds { i64, i64 }, { i64, i64 }* %layout.dbg.spill, i32 0, i32 1, !dbg !1907
  store i64 %layout.1, i64* %13, align 8, !dbg !1907
  call void @llvm.dbg.declare(metadata { i64, i64 }* %layout.dbg.spill, metadata !1900, metadata !DIExpression()), !dbg !1908
; call alloc::alloc::handle_alloc_error
  call void @_ZN5alloc5alloc18handle_alloc_error17hc3aabe6032ee3c5aE(i64 %layout.0, i64 %layout.1), !dbg !1909
  unreachable, !dbg !1909
}

; alloc::raw_vec::handle_reserve::{{closure}}
; Function Attrs: inlinehint nounwind
define { i64, i64 } @"_ZN5alloc7raw_vec14handle_reserve28_$u7b$$u7b$closure$u7d$$u7d$17h514065499dbcbdbbE"(i64 %0, i64 %1) unnamed_addr #0 !dbg !1910 {
start:
  %_1.dbg.spill = alloca %"[closure@alloc::raw_vec::handle_reserve::{closure#0}]", align 1
  %e = alloca { i64, i64 }, align 8
  %2 = getelementptr inbounds { i64, i64 }, { i64, i64 }* %e, i32 0, i32 0
  store i64 %0, i64* %2, align 8
  %3 = getelementptr inbounds { i64, i64 }, { i64, i64 }* %e, i32 0, i32 1
  store i64 %1, i64* %3, align 8
  call void @llvm.dbg.declare(metadata %"[closure@alloc::raw_vec::handle_reserve::{closure#0}]"* %_1.dbg.spill, metadata !1915, metadata !DIExpression()), !dbg !1916
  call void @llvm.dbg.declare(metadata { i64, i64 }* %e, metadata !1914, metadata !DIExpression()), !dbg !1917
; call alloc::collections::TryReserveError::kind
  %4 = call { i64, i64 } @_ZN5alloc11collections15TryReserveError4kind17he445e5ff113faf2dE({ i64, i64 }* align 8 dereferenceable(16) %e), !dbg !1918
  %5 = extractvalue { i64, i64 } %4, 0, !dbg !1918
  %6 = extractvalue { i64, i64 } %4, 1, !dbg !1918
  br label %bb1, !dbg !1918

bb1:                                              ; preds = %start
  %7 = insertvalue { i64, i64 } undef, i64 %5, 0, !dbg !1919
  %8 = insertvalue { i64, i64 } %7, i64 %6, 1, !dbg !1919
  ret { i64, i64 } %8, !dbg !1919
}

; alloc::raw_vec::RawVec<T,A>::allocate_in
; Function Attrs: nounwind
define { i8*, i64 } @"_ZN5alloc7raw_vec19RawVec$LT$T$C$A$GT$11allocate_in17h97b7cd997d933fdbE"(i64 %capacity, i1 zeroext %0) unnamed_addr #1 !dbg !1920 {
start:
  %ptr.dbg.spill1 = alloca { i8*, i64 }, align 8
  %ptr.dbg.spill = alloca { i8*, i64 }, align 8
  %layout.dbg.spill = alloca { i64, i64 }, align 8
  %capacity.dbg.spill = alloca i64, align 8
  %result = alloca { i8*, i64 }, align 8
  %_11 = alloca %"std::result::Result<(), std::collections::TryReserveError>", align 8
  %_7 = alloca { i64, i64 }, align 8
  %layout = alloca { i64, i64 }, align 8
  %1 = alloca { i8*, i64 }, align 8
  %alloc = alloca %"std::alloc::Global", align 1
  %init = alloca i8, align 1
  %2 = zext i1 %0 to i8
  store i8 %2, i8* %init, align 1
  store i64 %capacity, i64* %capacity.dbg.spill, align 8
  call void @llvm.dbg.declare(metadata i64* %capacity.dbg.spill, metadata !1924, metadata !DIExpression()), !dbg !1937
  call void @llvm.dbg.declare(metadata i8* %init, metadata !1925, metadata !DIExpression()), !dbg !1938
  call void @llvm.dbg.declare(metadata %"std::alloc::Global"* %alloc, metadata !1926, metadata !DIExpression()), !dbg !1939
  call void @llvm.dbg.declare(metadata { i64, i64 }* %layout, metadata !1927, metadata !DIExpression()), !dbg !1940
  call void @llvm.dbg.declare(metadata { i8*, i64 }* %result, metadata !1931, metadata !DIExpression()), !dbg !1941
  br label %bb1, !dbg !1942

bb1:                                              ; preds = %start
  %3 = icmp eq i64 1, 0, !dbg !1942
  br i1 %3, label %bb2, label %bb4, !dbg !1942

bb2:                                              ; preds = %bb1
; call alloc::raw_vec::RawVec<T,A>::new_in
  %4 = call { i8*, i64 } @"_ZN5alloc7raw_vec19RawVec$LT$T$C$A$GT$6new_in17h80abfa0e8d858030E"(), !dbg !1943
  store { i8*, i64 } %4, { i8*, i64 }* %1, align 8, !dbg !1943
  br label %bb3, !dbg !1943

bb4:                                              ; preds = %bb1
; call core::alloc::layout::Layout::array
  %5 = call { i64, i64 } @_ZN4core5alloc6layout6Layout5array17h16691f0070d4227aE(i64 %capacity), !dbg !1944
  store { i64, i64 } %5, { i64, i64 }* %_7, align 8, !dbg !1944
  br label %bb5, !dbg !1944

bb5:                                              ; preds = %bb4
  %6 = getelementptr inbounds { i64, i64 }, { i64, i64 }* %_7, i32 0, i32 1, !dbg !1944
  %7 = load i64, i64* %6, align 8, !dbg !1944
  %8 = icmp eq i64 %7, 0, !dbg !1944
  %_9 = select i1 %8, i64 1, i64 0, !dbg !1944
  switch i64 %_9, label %bb7 [
    i64 0, label %bb8
    i64 1, label %bb6
  ], !dbg !1945

bb7:                                              ; preds = %bb5
  unreachable, !dbg !1944

bb8:                                              ; preds = %bb5
  %9 = getelementptr inbounds { i64, i64 }, { i64, i64 }* %_7, i32 0, i32 0, !dbg !1946
  %layout.0 = load i64, i64* %9, align 8, !dbg !1946
  %10 = getelementptr inbounds { i64, i64 }, { i64, i64 }* %_7, i32 0, i32 1, !dbg !1946
  %layout.1 = load i64, i64* %10, align 8, !dbg !1946, !range !324
  %11 = getelementptr inbounds { i64, i64 }, { i64, i64 }* %layout.dbg.spill, i32 0, i32 0, !dbg !1946
  store i64 %layout.0, i64* %11, align 8, !dbg !1946
  %12 = getelementptr inbounds { i64, i64 }, { i64, i64 }* %layout.dbg.spill, i32 0, i32 1, !dbg !1946
  store i64 %layout.1, i64* %12, align 8, !dbg !1946
  call void @llvm.dbg.declare(metadata { i64, i64 }* %layout.dbg.spill, metadata !1929, metadata !DIExpression()), !dbg !1947
  %13 = getelementptr inbounds { i64, i64 }, { i64, i64 }* %layout, i32 0, i32 0, !dbg !1948
  store i64 %layout.0, i64* %13, align 8, !dbg !1948
  %14 = getelementptr inbounds { i64, i64 }, { i64, i64 }* %layout, i32 0, i32 1, !dbg !1948
  store i64 %layout.1, i64* %14, align 8, !dbg !1948
; call core::alloc::layout::Layout::size
  %_12 = call i64 @_ZN4core5alloc6layout6Layout4size17hff23cbd9e508b07eE({ i64, i64 }* align 8 dereferenceable(16) %layout), !dbg !1949
  br label %bb9, !dbg !1949

bb6:                                              ; preds = %bb5
; call alloc::raw_vec::capacity_overflow
  call void @_ZN5alloc7raw_vec17capacity_overflow17hd70bf339531c8dfaE(), !dbg !1950
  unreachable, !dbg !1950

bb9:                                              ; preds = %bb8
; call alloc::raw_vec::alloc_guard
  call void @_ZN5alloc7raw_vec11alloc_guard17h2eaf17003e0623cfE(%"std::result::Result<(), std::collections::TryReserveError>"* noalias nocapture sret(%"std::result::Result<(), std::collections::TryReserveError>") dereferenceable(24) %_11, i64 %_12), !dbg !1951
  br label %bb10, !dbg !1951

bb10:                                             ; preds = %bb9
  %15 = bitcast %"std::result::Result<(), std::collections::TryReserveError>"* %_11 to i64*, !dbg !1951
  %_14 = load i64, i64* %15, align 8, !dbg !1951, !range !314
  switch i64 %_14, label %bb12 [
    i64 0, label %bb13
    i64 1, label %bb11
  ], !dbg !1952

bb12:                                             ; preds = %bb10
  unreachable, !dbg !1951

bb13:                                             ; preds = %bb10
  %16 = load i8, i8* %init, align 1, !dbg !1953, !range !297
  %17 = trunc i8 %16 to i1, !dbg !1953
  %_16 = zext i1 %17 to i64, !dbg !1953
  switch i64 %_16, label %bb15 [
    i64 0, label %bb16
    i64 1, label %bb14
  ], !dbg !1954

bb11:                                             ; preds = %bb10
; call alloc::raw_vec::capacity_overflow
  call void @_ZN5alloc7raw_vec17capacity_overflow17hd70bf339531c8dfaE(), !dbg !1955
  unreachable, !dbg !1955

bb15:                                             ; preds = %bb13
  unreachable, !dbg !1953

bb16:                                             ; preds = %bb13
  %18 = getelementptr inbounds { i64, i64 }, { i64, i64 }* %layout, i32 0, i32 0, !dbg !1956
  %_18.0 = load i64, i64* %18, align 8, !dbg !1956
  %19 = getelementptr inbounds { i64, i64 }, { i64, i64 }* %layout, i32 0, i32 1, !dbg !1956
  %_18.1 = load i64, i64* %19, align 8, !dbg !1956, !range !324
; call <alloc::alloc::Global as core::alloc::Allocator>::allocate
  %20 = call { i8*, i64 } @"_ZN63_$LT$alloc..alloc..Global$u20$as$u20$core..alloc..Allocator$GT$8allocate17ha33cbc4b2e78dd68E"(%"std::alloc::Global"* nonnull align 1 %alloc, i64 %_18.0, i64 %_18.1), !dbg !1957
  store { i8*, i64 } %20, { i8*, i64 }* %result, align 8, !dbg !1957
  br label %bb17, !dbg !1957

bb14:                                             ; preds = %bb13
  %21 = getelementptr inbounds { i64, i64 }, { i64, i64 }* %layout, i32 0, i32 0, !dbg !1958
  %_20.0 = load i64, i64* %21, align 8, !dbg !1958
  %22 = getelementptr inbounds { i64, i64 }, { i64, i64 }* %layout, i32 0, i32 1, !dbg !1958
  %_20.1 = load i64, i64* %22, align 8, !dbg !1958, !range !324
; call <alloc::alloc::Global as core::alloc::Allocator>::allocate_zeroed
  %23 = call { i8*, i64 } @"_ZN63_$LT$alloc..alloc..Global$u20$as$u20$core..alloc..Allocator$GT$15allocate_zeroed17h9e8b16000e7f5a28E"(%"std::alloc::Global"* nonnull align 1 %alloc, i64 %_20.0, i64 %_20.1), !dbg !1959
  store { i8*, i64 } %23, { i8*, i64 }* %result, align 8, !dbg !1959
  br label %bb18, !dbg !1959

bb18:                                             ; preds = %bb14
  br label %bb19, !dbg !1960

bb19:                                             ; preds = %bb17, %bb18
  %24 = bitcast { i8*, i64 }* %result to {}**, !dbg !1961
  %25 = load {}*, {}** %24, align 8, !dbg !1961
  %26 = icmp eq {}* %25, null, !dbg !1961
  %_22 = select i1 %26, i64 1, i64 0, !dbg !1961
  switch i64 %_22, label %bb21 [
    i64 0, label %bb22
    i64 1, label %bb20
  ], !dbg !1962

bb17:                                             ; preds = %bb16
  br label %bb19, !dbg !1963

bb21:                                             ; preds = %bb19
  unreachable, !dbg !1961

bb22:                                             ; preds = %bb19
  %27 = getelementptr inbounds { i8*, i64 }, { i8*, i64 }* %result, i32 0, i32 0, !dbg !1964
  %ptr.0 = load i8*, i8** %27, align 8, !dbg !1964, !nonnull !4
  %28 = getelementptr inbounds { i8*, i64 }, { i8*, i64 }* %result, i32 0, i32 1, !dbg !1964
  %ptr.1 = load i64, i64* %28, align 8, !dbg !1964
  %29 = getelementptr inbounds { i8*, i64 }, { i8*, i64 }* %ptr.dbg.spill, i32 0, i32 0, !dbg !1964
  store i8* %ptr.0, i8** %29, align 8, !dbg !1964
  %30 = getelementptr inbounds { i8*, i64 }, { i8*, i64 }* %ptr.dbg.spill, i32 0, i32 1, !dbg !1964
  store i64 %ptr.1, i64* %30, align 8, !dbg !1964
  call void @llvm.dbg.declare(metadata { i8*, i64 }* %ptr.dbg.spill, metadata !1935, metadata !DIExpression()), !dbg !1965
  %31 = getelementptr inbounds { i8*, i64 }, { i8*, i64 }* %ptr.dbg.spill1, i32 0, i32 0, !dbg !1966
  store i8* %ptr.0, i8** %31, align 8, !dbg !1966
  %32 = getelementptr inbounds { i8*, i64 }, { i8*, i64 }* %ptr.dbg.spill1, i32 0, i32 1, !dbg !1966
  store i64 %ptr.1, i64* %32, align 8, !dbg !1966
  call void @llvm.dbg.declare(metadata { i8*, i64 }* %ptr.dbg.spill1, metadata !1933, metadata !DIExpression()), !dbg !1967
; call core::ptr::non_null::NonNull<T>::cast
  %_27 = call nonnull i8* @"_ZN4core3ptr8non_null16NonNull$LT$T$GT$4cast17h1db3bf6300e1c822E"(i8* nonnull %ptr.0, i64 %ptr.1), !dbg !1968
  br label %bb23, !dbg !1968

bb20:                                             ; preds = %bb19
  %33 = getelementptr inbounds { i64, i64 }, { i64, i64 }* %layout, i32 0, i32 0, !dbg !1969
  %_24.0 = load i64, i64* %33, align 8, !dbg !1969
  %34 = getelementptr inbounds { i64, i64 }, { i64, i64 }* %layout, i32 0, i32 1, !dbg !1969
  %_24.1 = load i64, i64* %34, align 8, !dbg !1969, !range !324
; call alloc::alloc::handle_alloc_error
  call void @_ZN5alloc5alloc18handle_alloc_error17hc3aabe6032ee3c5aE(i64 %_24.0, i64 %_24.1), !dbg !1970
  unreachable, !dbg !1970

bb23:                                             ; preds = %bb22
; call core::ptr::non_null::NonNull<T>::as_ptr
  %_26 = call i8* @"_ZN4core3ptr8non_null16NonNull$LT$T$GT$6as_ptr17hbde849f63aae2924E"(i8* nonnull %_27), !dbg !1968
  br label %bb24, !dbg !1968

bb24:                                             ; preds = %bb23
; call core::ptr::unique::Unique<T>::new_unchecked
  %_25 = call nonnull i8* @"_ZN4core3ptr6unique15Unique$LT$T$GT$13new_unchecked17ha3783e483e1f9c55E"(i8* %_26), !dbg !1971
  br label %bb25, !dbg !1971

bb25:                                             ; preds = %bb24
; call core::ptr::non_null::NonNull<[T]>::len
  %_30 = call i64 @"_ZN4core3ptr8non_null26NonNull$LT$$u5b$T$u5d$$GT$3len17h96da3ea39ecd65c2E"(i8* nonnull %ptr.0, i64 %ptr.1), !dbg !1972
  br label %bb26, !dbg !1972

bb26:                                             ; preds = %bb25
; call alloc::raw_vec::RawVec<T,A>::capacity_from_bytes
  %_29 = call i64 @"_ZN5alloc7raw_vec19RawVec$LT$T$C$A$GT$19capacity_from_bytes17h5e392f63da8fc2acE"(i64 %_30), !dbg !1973
  br label %bb27, !dbg !1973

bb27:                                             ; preds = %bb26
  %35 = bitcast { i8*, i64 }* %1 to i8**, !dbg !1974
  store i8* %_25, i8** %35, align 8, !dbg !1974
  %36 = getelementptr inbounds { i8*, i64 }, { i8*, i64 }* %1, i32 0, i32 1, !dbg !1974
  store i64 %_29, i64* %36, align 8, !dbg !1974
  %37 = bitcast { i8*, i64 }* %1 to %"std::alloc::Global"*, !dbg !1974
  br label %bb28, !dbg !1975

bb28:                                             ; preds = %bb3, %bb27
  %38 = getelementptr inbounds { i8*, i64 }, { i8*, i64 }* %1, i32 0, i32 0, !dbg !1976
  %39 = load i8*, i8** %38, align 8, !dbg !1976, !nonnull !4
  %40 = getelementptr inbounds { i8*, i64 }, { i8*, i64 }* %1, i32 0, i32 1, !dbg !1976
  %41 = load i64, i64* %40, align 8, !dbg !1976
  %42 = insertvalue { i8*, i64 } undef, i8* %39, 0, !dbg !1976
  %43 = insertvalue { i8*, i64 } %42, i64 %41, 1, !dbg !1976
  ret { i8*, i64 } %43, !dbg !1976

bb3:                                              ; preds = %bb2
  br label %bb28, !dbg !1975
}

; alloc::raw_vec::RawVec<T,A>::shrink_to_fit
; Function Attrs: nounwind
define void @"_ZN5alloc7raw_vec19RawVec$LT$T$C$A$GT$13shrink_to_fit17h85f19461b1305c24E"({ i8*, i64 }* align 8 dereferenceable(16) %self, i64 %amount) unnamed_addr #1 !dbg !1977 {
start:
  %amount.dbg.spill = alloca i64, align 8
  %self.dbg.spill = alloca { i8*, i64 }*, align 8
  %_4 = alloca %"std::result::Result<(), std::collections::TryReserveError>", align 8
  store { i8*, i64 }* %self, { i8*, i64 }** %self.dbg.spill, align 8
  call void @llvm.dbg.declare(metadata { i8*, i64 }** %self.dbg.spill, metadata !1982, metadata !DIExpression()), !dbg !1984
  store i64 %amount, i64* %amount.dbg.spill, align 8
  call void @llvm.dbg.declare(metadata i64* %amount.dbg.spill, metadata !1983, metadata !DIExpression()), !dbg !1985
; call alloc::raw_vec::RawVec<T,A>::shrink
  call void @"_ZN5alloc7raw_vec19RawVec$LT$T$C$A$GT$6shrink17h4e542c40c0ec3ec5E"(%"std::result::Result<(), std::collections::TryReserveError>"* noalias nocapture sret(%"std::result::Result<(), std::collections::TryReserveError>") dereferenceable(24) %_4, { i8*, i64 }* align 8 dereferenceable(16) %self, i64 %amount), !dbg !1986
  br label %bb1, !dbg !1986

bb1:                                              ; preds = %start
; call alloc::raw_vec::handle_reserve
  call void @_ZN5alloc7raw_vec14handle_reserve17h2cc4c134bc51b024E(%"std::result::Result<(), std::collections::TryReserveError>"* noalias nocapture dereferenceable(24) %_4), !dbg !1987
  br label %bb2, !dbg !1987

bb2:                                              ; preds = %bb1
  ret void, !dbg !1988
}

; alloc::raw_vec::RawVec<T,A>::current_memory
; Function Attrs: nounwind
define void @"_ZN5alloc7raw_vec19RawVec$LT$T$C$A$GT$14current_memory17ha5c0b8e6801840ccE"(%"std::option::Option<(std::ptr::NonNull<u8>, std::alloc::Layout)>"* noalias nocapture sret(%"std::option::Option<(std::ptr::NonNull<u8>, std::alloc::Layout)>") dereferenceable(24) %0, { i8*, i64 }* align 8 dereferenceable(16) %self) unnamed_addr #1 !dbg !1989 {
start:
  %1 = alloca i64, align 8
  %layout.dbg.spill = alloca { i64, i64 }, align 8
  %size.dbg.spill = alloca i64, align 8
  %align.dbg.spill = alloca i64, align 8
  %self.dbg.spill = alloca { i8*, i64 }*, align 8
  %_13 = alloca { i8*, { i64, i64 } }, align 8
  %_2 = alloca i8, align 1
  store { i8*, i64 }* %self, { i8*, i64 }** %self.dbg.spill, align 8
  call void @llvm.dbg.declare(metadata { i8*, i64 }** %self.dbg.spill, metadata !2009, metadata !DIExpression()), !dbg !2016
  br label %bb4, !dbg !2017

bb4:                                              ; preds = %start
  %2 = icmp eq i64 1, 0, !dbg !2017
  br i1 %2, label %bb1, label %bb2, !dbg !2017

bb1:                                              ; preds = %bb4
  store i8 1, i8* %_2, align 1, !dbg !2017
  br label %bb3, !dbg !2017

bb2:                                              ; preds = %bb4
  %3 = getelementptr inbounds { i8*, i64 }, { i8*, i64 }* %self, i32 0, i32 1, !dbg !2018
  %_5 = load i64, i64* %3, align 8, !dbg !2018
  %_4 = icmp eq i64 %_5, 0, !dbg !2018
  %4 = zext i1 %_4 to i8, !dbg !2017
  store i8 %4, i8* %_2, align 1, !dbg !2017
  br label %bb3, !dbg !2017

bb3:                                              ; preds = %bb1, %bb2
  %5 = load i8, i8* %_2, align 1, !dbg !2017, !range !297
  %6 = trunc i8 %5 to i1, !dbg !2017
  br i1 %6, label %bb5, label %bb6, !dbg !2017

bb6:                                              ; preds = %bb3
  store i64 1, i64* %1, align 8, !dbg !2019
  %7 = load i64, i64* %1, align 8, !dbg !2019
  store i64 %7, i64* %align.dbg.spill, align 8, !dbg !2021
  call void @llvm.dbg.declare(metadata i64* %align.dbg.spill, metadata !2010, metadata !DIExpression()), !dbg !2022
  br label %bb7, !dbg !2021

bb5:                                              ; preds = %bb3
  %8 = bitcast %"std::option::Option<(std::ptr::NonNull<u8>, std::alloc::Layout)>"* %0 to {}**, !dbg !2023
  store {}* null, {}** %8, align 8, !dbg !2023
  br label %bb12, !dbg !2024

bb12:                                             ; preds = %bb11, %bb5
  ret void, !dbg !2025

bb7:                                              ; preds = %bb6
  br label %bb8, !dbg !2026

bb8:                                              ; preds = %bb7
  %9 = getelementptr inbounds { i8*, i64 }, { i8*, i64 }* %self, i32 0, i32 1, !dbg !2027
  %_9 = load i64, i64* %9, align 8, !dbg !2027
  %size = mul i64 1, %_9, !dbg !2026
  store i64 %size, i64* %size.dbg.spill, align 8, !dbg !2026
  call void @llvm.dbg.declare(metadata i64* %size.dbg.spill, metadata !2012, metadata !DIExpression()), !dbg !2028
; call core::alloc::layout::Layout::from_size_align_unchecked
  %10 = call { i64, i64 } @_ZN4core5alloc6layout6Layout25from_size_align_unchecked17h3c89da80eff8ac97E(i64 %size, i64 %7), !dbg !2029
  %layout.0 = extractvalue { i64, i64 } %10, 0, !dbg !2029
  %layout.1 = extractvalue { i64, i64 } %10, 1, !dbg !2029
  %11 = getelementptr inbounds { i64, i64 }, { i64, i64 }* %layout.dbg.spill, i32 0, i32 0, !dbg !2029
  store i64 %layout.0, i64* %11, align 8, !dbg !2029
  %12 = getelementptr inbounds { i64, i64 }, { i64, i64 }* %layout.dbg.spill, i32 0, i32 1, !dbg !2029
  store i64 %layout.1, i64* %12, align 8, !dbg !2029
  call void @llvm.dbg.declare(metadata { i64, i64 }* %layout.dbg.spill, metadata !2014, metadata !DIExpression()), !dbg !2030
  br label %bb9, !dbg !2029

bb9:                                              ; preds = %bb8
  %13 = bitcast { i8*, i64 }* %self to i8**, !dbg !2031
  %_16 = load i8*, i8** %13, align 8, !dbg !2031, !nonnull !4
; call core::ptr::unique::Unique<T>::cast
  %_15 = call nonnull i8* @"_ZN4core3ptr6unique15Unique$LT$T$GT$4cast17hdd7954102af4459fE"(i8* nonnull %_16), !dbg !2031
  br label %bb10, !dbg !2031

bb10:                                             ; preds = %bb9
; call <T as core::convert::Into<U>>::into
  %_14 = call nonnull i8* @"_ZN50_$LT$T$u20$as$u20$core..convert..Into$LT$U$GT$$GT$4into17h699f074357053075E"(i8* nonnull %_15), !dbg !2031
  br label %bb11, !dbg !2031

bb11:                                             ; preds = %bb10
  %14 = bitcast { i8*, { i64, i64 } }* %_13 to i8**, !dbg !2032
  store i8* %_14, i8** %14, align 8, !dbg !2032
  %15 = getelementptr inbounds { i8*, { i64, i64 } }, { i8*, { i64, i64 } }* %_13, i32 0, i32 1, !dbg !2032
  %16 = getelementptr inbounds { i64, i64 }, { i64, i64 }* %15, i32 0, i32 0, !dbg !2032
  store i64 %layout.0, i64* %16, align 8, !dbg !2032
  %17 = getelementptr inbounds { i64, i64 }, { i64, i64 }* %15, i32 0, i32 1, !dbg !2032
  store i64 %layout.1, i64* %17, align 8, !dbg !2032
  %18 = bitcast %"std::option::Option<(std::ptr::NonNull<u8>, std::alloc::Layout)>"* %0 to %"std::option::Option<(std::ptr::NonNull<u8>, std::alloc::Layout)>::Some"*, !dbg !2033
  %19 = bitcast %"std::option::Option<(std::ptr::NonNull<u8>, std::alloc::Layout)>::Some"* %18 to { i8*, { i64, i64 } }*, !dbg !2033
  %20 = bitcast { i8*, { i64, i64 } }* %19 to i8*, !dbg !2033
  %21 = bitcast { i8*, { i64, i64 } }* %_13 to i8*, !dbg !2033
  call void @llvm.memcpy.p0i8.p0i8.i64(i8* align 8 %20, i8* align 8 %21, i64 24, i1 false), !dbg !2033
  br label %bb12, !dbg !2024
}

; alloc::raw_vec::RawVec<T,A>::with_capacity_in
; Function Attrs: inlinehint nounwind
define { i8*, i64 } @"_ZN5alloc7raw_vec19RawVec$LT$T$C$A$GT$16with_capacity_in17h019ff4cdd11b3072E"(i64 %capacity) unnamed_addr #0 !dbg !2034 {
start:
  %alloc.dbg.spill = alloca %"std::alloc::Global", align 1
  %capacity.dbg.spill = alloca i64, align 8
  %_4 = alloca i8, align 1
  store i64 %capacity, i64* %capacity.dbg.spill, align 8
  call void @llvm.dbg.declare(metadata i64* %capacity.dbg.spill, metadata !2038, metadata !DIExpression()), !dbg !2040
  call void @llvm.dbg.declare(metadata %"std::alloc::Global"* %alloc.dbg.spill, metadata !2039, metadata !DIExpression()), !dbg !2041
  store i8 0, i8* %_4, align 1, !dbg !2042
  %0 = load i8, i8* %_4, align 1, !dbg !2043, !range !297
  %1 = trunc i8 %0 to i1, !dbg !2043
; call alloc::raw_vec::RawVec<T,A>::allocate_in
  %2 = call { i8*, i64 } @"_ZN5alloc7raw_vec19RawVec$LT$T$C$A$GT$11allocate_in17h97b7cd997d933fdbE"(i64 %capacity, i1 zeroext %1), !dbg !2043
  %3 = extractvalue { i8*, i64 } %2, 0, !dbg !2043
  %4 = extractvalue { i8*, i64 } %2, 1, !dbg !2043
  br label %bb1, !dbg !2043

bb1:                                              ; preds = %start
  %5 = insertvalue { i8*, i64 } undef, i8* %3, 0, !dbg !2044
  %6 = insertvalue { i8*, i64 } %5, i64 %4, 1, !dbg !2044
  ret { i8*, i64 } %6, !dbg !2044
}

; alloc::raw_vec::RawVec<T,A>::capacity_from_bytes
; Function Attrs: nounwind
define i64 @"_ZN5alloc7raw_vec19RawVec$LT$T$C$A$GT$19capacity_from_bytes17h5e392f63da8fc2acE"(i64 %excess) unnamed_addr #1 !dbg !2045 {
start:
  %excess.dbg.spill = alloca i64, align 8
  store i64 %excess, i64* %excess.dbg.spill, align 8
  call void @llvm.dbg.declare(metadata i64* %excess.dbg.spill, metadata !2049, metadata !DIExpression()), !dbg !2057
  br label %bb1, !dbg !2058

bb1:                                              ; preds = %start
  %_7 = icmp eq i64 1, 0, !dbg !2059
  %0 = call i1 @llvm.expect.i1(i1 %_7, i1 false), !dbg !2059
  br i1 %0, label %panic, label %bb2, !dbg !2059

bb2:                                              ; preds = %bb1
  %1 = udiv i64 %excess, 1, !dbg !2059
  ret i64 %1, !dbg !2060

panic:                                            ; preds = %bb1
; call core::panicking::panic
  call void @_ZN4core9panicking5panic17h560e3e4b7752857aE([0 x i8]* nonnull align 1 bitcast ([25 x i8]* @str.1 to [0 x i8]*), i64 25, %"std::panic::Location"* align 8 dereferenceable(24) bitcast (<{ i8*, [16 x i8] }>* @alloc95 to %"std::panic::Location"*)), !dbg !2059
  unreachable, !dbg !2059
}

; alloc::raw_vec::RawVec<T,A>::new_in
; Function Attrs: nounwind
define { i8*, i64 } @"_ZN5alloc7raw_vec19RawVec$LT$T$C$A$GT$6new_in17h80abfa0e8d858030E"() unnamed_addr #1 !dbg !2061 {
start:
  %alloc.dbg.spill = alloca %"std::alloc::Global", align 1
  %0 = alloca { i8*, i64 }, align 8
  call void @llvm.dbg.declare(metadata %"std::alloc::Global"* %alloc.dbg.spill, metadata !2065, metadata !DIExpression()), !dbg !2066
; call core::ptr::unique::Unique<T>::dangling
  %_2 = call nonnull i8* @"_ZN4core3ptr6unique15Unique$LT$T$GT$8dangling17haacaee27f297908fE"(), !dbg !2067
  br label %bb1, !dbg !2067

bb1:                                              ; preds = %start
  %1 = bitcast { i8*, i64 }* %0 to i8**, !dbg !2068
  store i8* %_2, i8** %1, align 8, !dbg !2068
  %2 = getelementptr inbounds { i8*, i64 }, { i8*, i64 }* %0, i32 0, i32 1, !dbg !2068
  store i64 0, i64* %2, align 8, !dbg !2068
  %3 = bitcast { i8*, i64 }* %0 to %"std::alloc::Global"*, !dbg !2068
  %4 = getelementptr inbounds { i8*, i64 }, { i8*, i64 }* %0, i32 0, i32 0, !dbg !2069
  %5 = load i8*, i8** %4, align 8, !dbg !2069, !nonnull !4
  %6 = getelementptr inbounds { i8*, i64 }, { i8*, i64 }* %0, i32 0, i32 1, !dbg !2069
  %7 = load i64, i64* %6, align 8, !dbg !2069
  %8 = insertvalue { i8*, i64 } undef, i8* %5, 0, !dbg !2069
  %9 = insertvalue { i8*, i64 } %8, i64 %7, 1, !dbg !2069
  ret { i8*, i64 } %9, !dbg !2069
}

; alloc::raw_vec::RawVec<T,A>::shrink
; Function Attrs: nounwind
define void @"_ZN5alloc7raw_vec19RawVec$LT$T$C$A$GT$6shrink17h4e542c40c0ec3ec5E"(%"std::result::Result<(), std::collections::TryReserveError>"* noalias nocapture sret(%"std::result::Result<(), std::collections::TryReserveError>") dereferenceable(24) %0, { i8*, i64 }* align 8 dereferenceable(16) %self, i64 %amount) unnamed_addr #1 !dbg !2070 {
start:
  %self.dbg.spill.i = alloca { i8*, i64 }*, align 8
  %1 = alloca i64, align 8
  %ptr.dbg.spill1 = alloca { i8*, i64 }, align 8
  %val.dbg.spill = alloca { i8*, i64 }, align 8
  %residual.dbg.spill = alloca { i64, i64 }, align 8
  %new_size.dbg.spill = alloca i64, align 8
  %ptr.dbg.spill = alloca i8*, align 8
  %amount.dbg.spill = alloca i64, align 8
  %self.dbg.spill = alloca { i8*, i64 }*, align 8
  %_30 = alloca i64*, align 8
  %_24 = alloca %"std::result::Result<std::ptr::NonNull<[u8]>, std::collections::TryReserveErrorKind>", align 8
  %_23 = alloca %"std::ops::ControlFlow<std::result::Result<std::convert::Infallible, std::collections::TryReserveErrorKind>, std::ptr::NonNull<[u8]>>", align 8
  %new_layout = alloca { i64, i64 }, align 8
  %mem = alloca { i8*, { i64, i64 } }, align 8
  %_11 = alloca %"std::option::Option<(std::ptr::NonNull<u8>, std::alloc::Layout)>", align 8
  %_10 = alloca { i8*, { i64, i64 } }, align 8
  %layout = alloca { i64, i64 }, align 8
  store { i8*, i64 }* %self, { i8*, i64 }** %self.dbg.spill, align 8
  call void @llvm.dbg.declare(metadata { i8*, i64 }** %self.dbg.spill, metadata !2074, metadata !DIExpression()), !dbg !2091
  store i64 %amount, i64* %amount.dbg.spill, align 8
  call void @llvm.dbg.declare(metadata i64* %amount.dbg.spill, metadata !2075, metadata !DIExpression()), !dbg !2092
  call void @llvm.dbg.declare(metadata { i64, i64 }* %layout, metadata !2078, metadata !DIExpression()), !dbg !2093
  call void @llvm.dbg.declare(metadata { i8*, { i64, i64 } }* %mem, metadata !2079, metadata !DIExpression()), !dbg !2094
  call void @llvm.dbg.declare(metadata { i64, i64 }* %new_layout, metadata !2085, metadata !DIExpression()), !dbg !2095
  store { i8*, i64 }* %self, { i8*, i64 }** %self.dbg.spill.i, align 8
  call void @llvm.dbg.declare(metadata { i8*, i64 }** %self.dbg.spill.i, metadata !1524, metadata !DIExpression()), !dbg !2096
  %2 = getelementptr inbounds { i8*, i64 }, { i8*, i64 }* %self, i32 0, i32 1, !dbg !2098
  %3 = load i64, i64* %2, align 8, !dbg !2098
  store i64 %3, i64* %1, align 8, !dbg !2098
  %4 = load i64, i64* %1, align 8, !dbg !2099
  br label %bb1, !dbg !2100

bb1:                                              ; preds = %start
  %_4 = icmp ule i64 %amount, %4, !dbg !2101
  %_3 = xor i1 %_4, true, !dbg !2102
  br i1 %_3, label %bb2, label %bb3, !dbg !2102

bb3:                                              ; preds = %bb1
; call alloc::raw_vec::RawVec<T,A>::current_memory
  call void @"_ZN5alloc7raw_vec19RawVec$LT$T$C$A$GT$14current_memory17ha5c0b8e6801840ccE"(%"std::option::Option<(std::ptr::NonNull<u8>, std::alloc::Layout)>"* noalias nocapture sret(%"std::option::Option<(std::ptr::NonNull<u8>, std::alloc::Layout)>") dereferenceable(24) %_11, { i8*, i64 }* align 8 dereferenceable(16) %self), !dbg !2103
  br label %bb4, !dbg !2103

bb2:                                              ; preds = %bb1
; call core::panicking::panic
  call void @_ZN4core9panicking5panic17h560e3e4b7752857aE([0 x i8]* nonnull align 1 bitcast (<{ [36 x i8] }>* @alloc96 to [0 x i8]*), i64 36, %"std::panic::Location"* align 8 dereferenceable(24) bitcast (<{ i8*, [16 x i8] }>* @alloc98 to %"std::panic::Location"*)), !dbg !2102
  unreachable, !dbg !2102

bb4:                                              ; preds = %bb3
  %5 = bitcast %"std::option::Option<(std::ptr::NonNull<u8>, std::alloc::Layout)>"* %_11 to {}**, !dbg !2104
  %6 = load {}*, {}** %5, align 8, !dbg !2104
  %7 = icmp eq {}* %6, null, !dbg !2104
  %_13 = select i1 %7, i64 0, i64 1, !dbg !2104
  %8 = icmp eq i64 %_13, 1, !dbg !2104
  br i1 %8, label %bb5, label %bb6, !dbg !2104

bb5:                                              ; preds = %bb4
  %9 = bitcast %"std::option::Option<(std::ptr::NonNull<u8>, std::alloc::Layout)>"* %_11 to %"std::option::Option<(std::ptr::NonNull<u8>, std::alloc::Layout)>::Some"*, !dbg !2105
  %10 = bitcast %"std::option::Option<(std::ptr::NonNull<u8>, std::alloc::Layout)>::Some"* %9 to { i8*, { i64, i64 } }*, !dbg !2105
  %11 = bitcast { i8*, { i64, i64 } }* %mem to i8*, !dbg !2105
  %12 = bitcast { i8*, { i64, i64 } }* %10 to i8*, !dbg !2105
  call void @llvm.memcpy.p0i8.p0i8.i64(i8* align 8 %11, i8* align 8 %12, i64 24, i1 false), !dbg !2105
  %13 = bitcast { i8*, { i64, i64 } }* %_10 to i8*, !dbg !2106
  %14 = bitcast { i8*, { i64, i64 } }* %mem to i8*, !dbg !2106
  call void @llvm.memcpy.p0i8.p0i8.i64(i8* align 8 %13, i8* align 8 %14, i64 24, i1 false), !dbg !2106
  %15 = bitcast { i8*, { i64, i64 } }* %_10 to i8**, !dbg !2107
  %ptr = load i8*, i8** %15, align 8, !dbg !2107, !nonnull !4
  store i8* %ptr, i8** %ptr.dbg.spill, align 8, !dbg !2107
  call void @llvm.dbg.declare(metadata i8** %ptr.dbg.spill, metadata !2076, metadata !DIExpression()), !dbg !2108
  %16 = getelementptr inbounds { i8*, { i64, i64 } }, { i8*, { i64, i64 } }* %_10, i32 0, i32 1, !dbg !2109
  %17 = getelementptr inbounds { i64, i64 }, { i64, i64 }* %16, i32 0, i32 0, !dbg !2109
  %18 = load i64, i64* %17, align 8, !dbg !2109
  %19 = getelementptr inbounds { i64, i64 }, { i64, i64 }* %16, i32 0, i32 1, !dbg !2109
  %20 = load i64, i64* %19, align 8, !dbg !2109, !range !324
  %21 = getelementptr inbounds { i64, i64 }, { i64, i64 }* %layout, i32 0, i32 0, !dbg !2109
  store i64 %18, i64* %21, align 8, !dbg !2109
  %22 = getelementptr inbounds { i64, i64 }, { i64, i64 }* %layout, i32 0, i32 1, !dbg !2109
  store i64 %20, i64* %22, align 8, !dbg !2109
  br label %bb7, !dbg !2110

bb6:                                              ; preds = %bb4
  %23 = bitcast %"std::result::Result<(), std::collections::TryReserveError>"* %0 to i64*, !dbg !2111
  store i64 0, i64* %23, align 8, !dbg !2111
  br label %bb18, !dbg !2112

bb18:                                             ; preds = %bb17, %bb16, %bb6
  ret void, !dbg !2114

bb7:                                              ; preds = %bb5
  %new_size = mul i64 %amount, 1, !dbg !2115
  store i64 %new_size, i64* %new_size.dbg.spill, align 8, !dbg !2115
  call void @llvm.dbg.declare(metadata i64* %new_size.dbg.spill, metadata !2081, metadata !DIExpression()), !dbg !2116
; call core::alloc::layout::Layout::align
  %_21 = call i64 @_ZN4core5alloc6layout6Layout5align17h276944d621282157E({ i64, i64 }* align 8 dereferenceable(16) %layout), !dbg !2117
  br label %bb8, !dbg !2117

bb8:                                              ; preds = %bb7
; call core::alloc::layout::Layout::from_size_align_unchecked
  %24 = call { i64, i64 } @_ZN4core5alloc6layout6Layout25from_size_align_unchecked17h3c89da80eff8ac97E(i64 %new_size, i64 %_21), !dbg !2118
  store { i64, i64 } %24, { i64, i64 }* %new_layout, align 8, !dbg !2118
  br label %bb9, !dbg !2118

bb9:                                              ; preds = %bb8
  %_26 = bitcast { i8*, i64 }* %self to %"std::alloc::Global"*, !dbg !2119
  %25 = getelementptr inbounds { i64, i64 }, { i64, i64 }* %layout, i32 0, i32 0, !dbg !2120
  %_28.0 = load i64, i64* %25, align 8, !dbg !2120
  %26 = getelementptr inbounds { i64, i64 }, { i64, i64 }* %layout, i32 0, i32 1, !dbg !2120
  %_28.1 = load i64, i64* %26, align 8, !dbg !2120, !range !324
  %27 = getelementptr inbounds { i64, i64 }, { i64, i64 }* %new_layout, i32 0, i32 0, !dbg !2121
  %_29.0 = load i64, i64* %27, align 8, !dbg !2121
  %28 = getelementptr inbounds { i64, i64 }, { i64, i64 }* %new_layout, i32 0, i32 1, !dbg !2121
  %_29.1 = load i64, i64* %28, align 8, !dbg !2121, !range !324
; call <alloc::alloc::Global as core::alloc::Allocator>::shrink
  %29 = call { i8*, i64 } @"_ZN63_$LT$alloc..alloc..Global$u20$as$u20$core..alloc..Allocator$GT$6shrink17hcbdeba5a2cab95cdE"(%"std::alloc::Global"* nonnull align 1 %_26, i8* nonnull %ptr, i64 %_28.0, i64 %_28.1, i64 %_29.0, i64 %_29.1), !dbg !2119
  %_25.0 = extractvalue { i8*, i64 } %29, 0, !dbg !2119
  %_25.1 = extractvalue { i8*, i64 } %29, 1, !dbg !2119
  br label %bb10, !dbg !2119

bb10:                                             ; preds = %bb9
  %30 = bitcast i64** %_30 to { i64, i64 }**, !dbg !2122
  store { i64, i64 }* %new_layout, { i64, i64 }** %30, align 8, !dbg !2122
  %31 = load i64*, i64** %_30, align 8, !dbg !2119, !nonnull !4
; call core::result::Result<T,E>::map_err
  call void @"_ZN4core6result19Result$LT$T$C$E$GT$7map_err17h2f35bf70ba7cd143E"(%"std::result::Result<std::ptr::NonNull<[u8]>, std::collections::TryReserveErrorKind>"* noalias nocapture sret(%"std::result::Result<std::ptr::NonNull<[u8]>, std::collections::TryReserveErrorKind>") dereferenceable(24) %_24, i8* %_25.0, i64 %_25.1, i64* align 8 dereferenceable(16) %31), !dbg !2119
  br label %bb11, !dbg !2119

bb11:                                             ; preds = %bb10
; call <core::result::Result<T,E> as core::ops::try_trait::Try>::branch
  call void @"_ZN79_$LT$core..result..Result$LT$T$C$E$GT$$u20$as$u20$core..ops..try_trait..Try$GT$6branch17haf6818737c4af644E"(%"std::ops::ControlFlow<std::result::Result<std::convert::Infallible, std::collections::TryReserveErrorKind>, std::ptr::NonNull<[u8]>>"* noalias nocapture sret(%"std::ops::ControlFlow<std::result::Result<std::convert::Infallible, std::collections::TryReserveErrorKind>, std::ptr::NonNull<[u8]>>") dereferenceable(24) %_23, %"std::result::Result<std::ptr::NonNull<[u8]>, std::collections::TryReserveErrorKind>"* noalias nocapture dereferenceable(24) %_24), !dbg !2119
  br label %bb12, !dbg !2119

bb12:                                             ; preds = %bb11
  %32 = bitcast %"std::ops::ControlFlow<std::result::Result<std::convert::Infallible, std::collections::TryReserveErrorKind>, std::ptr::NonNull<[u8]>>"* %_23 to i64*, !dbg !2119
  %_32 = load i64, i64* %32, align 8, !dbg !2119, !range !314
  switch i64 %_32, label %bb14 [
    i64 0, label %bb13
    i64 1, label %bb15
  ], !dbg !2119

bb14:                                             ; preds = %bb12
  unreachable, !dbg !2119

bb13:                                             ; preds = %bb12
  %33 = bitcast %"std::ops::ControlFlow<std::result::Result<std::convert::Infallible, std::collections::TryReserveErrorKind>, std::ptr::NonNull<[u8]>>"* %_23 to %"std::ops::ControlFlow<std::result::Result<std::convert::Infallible, std::collections::TryReserveErrorKind>, std::ptr::NonNull<[u8]>>::Continue"*, !dbg !2119
  %34 = getelementptr inbounds %"std::ops::ControlFlow<std::result::Result<std::convert::Infallible, std::collections::TryReserveErrorKind>, std::ptr::NonNull<[u8]>>::Continue", %"std::ops::ControlFlow<std::result::Result<std::convert::Infallible, std::collections::TryReserveErrorKind>, std::ptr::NonNull<[u8]>>::Continue"* %33, i32 0, i32 1, !dbg !2119
  %35 = getelementptr inbounds { i8*, i64 }, { i8*, i64 }* %34, i32 0, i32 0, !dbg !2119
  %val.0 = load i8*, i8** %35, align 8, !dbg !2119, !nonnull !4
  %36 = getelementptr inbounds { i8*, i64 }, { i8*, i64 }* %34, i32 0, i32 1, !dbg !2119
  %val.1 = load i64, i64* %36, align 8, !dbg !2119
  %37 = getelementptr inbounds { i8*, i64 }, { i8*, i64 }* %val.dbg.spill, i32 0, i32 0, !dbg !2119
  store i8* %val.0, i8** %37, align 8, !dbg !2119
  %38 = getelementptr inbounds { i8*, i64 }, { i8*, i64 }* %val.dbg.spill, i32 0, i32 1, !dbg !2119
  store i64 %val.1, i64* %38, align 8, !dbg !2119
  call void @llvm.dbg.declare(metadata { i8*, i64 }* %val.dbg.spill, metadata !2089, metadata !DIExpression()), !dbg !2123
  %39 = getelementptr inbounds { i8*, i64 }, { i8*, i64 }* %ptr.dbg.spill1, i32 0, i32 0, !dbg !2123
  store i8* %val.0, i8** %39, align 8, !dbg !2123
  %40 = getelementptr inbounds { i8*, i64 }, { i8*, i64 }* %ptr.dbg.spill1, i32 0, i32 1, !dbg !2123
  store i64 %val.1, i64* %40, align 8, !dbg !2123
  call void @llvm.dbg.declare(metadata { i8*, i64 }* %ptr.dbg.spill1, metadata !2083, metadata !DIExpression()), !dbg !2124
; call alloc::raw_vec::RawVec<T,A>::set_ptr
  call void @"_ZN5alloc7raw_vec19RawVec$LT$T$C$A$GT$7set_ptr17h4e2f7375e8b7b32eE"({ i8*, i64 }* align 8 dereferenceable(16) %self, i8* nonnull %val.0, i64 %val.1), !dbg !2125
  br label %bb17, !dbg !2125

bb15:                                             ; preds = %bb12
  %41 = bitcast %"std::ops::ControlFlow<std::result::Result<std::convert::Infallible, std::collections::TryReserveErrorKind>, std::ptr::NonNull<[u8]>>"* %_23 to %"std::ops::ControlFlow<std::result::Result<std::convert::Infallible, std::collections::TryReserveErrorKind>, std::ptr::NonNull<[u8]>>::Break"*, !dbg !2126
  %42 = getelementptr inbounds %"std::ops::ControlFlow<std::result::Result<std::convert::Infallible, std::collections::TryReserveErrorKind>, std::ptr::NonNull<[u8]>>::Break", %"std::ops::ControlFlow<std::result::Result<std::convert::Infallible, std::collections::TryReserveErrorKind>, std::ptr::NonNull<[u8]>>::Break"* %41, i32 0, i32 1, !dbg !2126
  %43 = getelementptr inbounds { i64, i64 }, { i64, i64 }* %42, i32 0, i32 0, !dbg !2126
  %residual.0 = load i64, i64* %43, align 8, !dbg !2126
  %44 = getelementptr inbounds { i64, i64 }, { i64, i64 }* %42, i32 0, i32 1, !dbg !2126
  %residual.1 = load i64, i64* %44, align 8, !dbg !2126
  %45 = getelementptr inbounds { i64, i64 }, { i64, i64 }* %residual.dbg.spill, i32 0, i32 0, !dbg !2126
  store i64 %residual.0, i64* %45, align 8, !dbg !2126
  %46 = getelementptr inbounds { i64, i64 }, { i64, i64 }* %residual.dbg.spill, i32 0, i32 1, !dbg !2126
  store i64 %residual.1, i64* %46, align 8, !dbg !2126
  call void @llvm.dbg.declare(metadata { i64, i64 }* %residual.dbg.spill, metadata !2087, metadata !DIExpression()), !dbg !2127
; call <core::result::Result<T,F> as core::ops::try_trait::FromResidual<core::result::Result<core::convert::Infallible,E>>>::from_residual
  call void @"_ZN153_$LT$core..result..Result$LT$T$C$F$GT$$u20$as$u20$core..ops..try_trait..FromResidual$LT$core..result..Result$LT$core..convert..Infallible$C$E$GT$$GT$$GT$13from_residual17hdd0ca9412f1b24ccE"(%"std::result::Result<(), std::collections::TryReserveError>"* noalias nocapture sret(%"std::result::Result<(), std::collections::TryReserveError>") dereferenceable(24) %0, i64 %residual.0, i64 %residual.1), !dbg !2128
  br label %bb16, !dbg !2128

bb16:                                             ; preds = %bb15
  br label %bb18, !dbg !2112

bb17:                                             ; preds = %bb13
  %47 = bitcast %"std::result::Result<(), std::collections::TryReserveError>"* %0 to i64*, !dbg !2129
  store i64 0, i64* %47, align 8, !dbg !2129
  br label %bb18, !dbg !2114
}

; alloc::raw_vec::RawVec<T,A>::shrink::{{closure}}
; Function Attrs: inlinehint nounwind
define { i64, i64 } @"_ZN5alloc7raw_vec19RawVec$LT$T$C$A$GT$6shrink28_$u7b$$u7b$closure$u7d$$u7d$17hfd81c9a46083ca1cE"(i64* align 8 dereferenceable(16) %_1) unnamed_addr #0 !dbg !2130 {
start:
  %_2.dbg.spill = alloca %"std::alloc::AllocError", align 1
  %_1.dbg.spill = alloca i64*, align 8
  %0 = alloca { i64, i64 }, align 8
  store i64* %_1, i64** %_1.dbg.spill, align 8
  %1 = bitcast i64** %_1.dbg.spill to { i64, i64 }**
  %2 = load { i64, i64 }*, { i64, i64 }** %1, align 8, !nonnull !4
  call void @llvm.dbg.declare(metadata i64** %_1.dbg.spill, metadata !2134, metadata !DIExpression(DW_OP_deref)), !dbg !2136
  call void @llvm.dbg.declare(metadata %"std::alloc::AllocError"* %_2.dbg.spill, metadata !2135, metadata !DIExpression()), !dbg !2137
  %3 = bitcast i64* %_1 to { i64, i64 }*, !dbg !2138
  %4 = bitcast i64* %_1 to { i64, i64 }*, !dbg !2138
  %5 = getelementptr inbounds { i64, i64 }, { i64, i64 }* %4, i32 0, i32 0, !dbg !2138
  %_3.0 = load i64, i64* %5, align 8, !dbg !2138
  %6 = getelementptr inbounds { i64, i64 }, { i64, i64 }* %4, i32 0, i32 1, !dbg !2138
  %_3.1 = load i64, i64* %6, align 8, !dbg !2138, !range !324
  %7 = getelementptr inbounds { i64, i64 }, { i64, i64 }* %0, i32 0, i32 0, !dbg !2139
  store i64 %_3.0, i64* %7, align 8, !dbg !2139
  %8 = getelementptr inbounds { i64, i64 }, { i64, i64 }* %0, i32 0, i32 1, !dbg !2139
  store i64 %_3.1, i64* %8, align 8, !dbg !2139
  %9 = getelementptr inbounds { i64, i64 }, { i64, i64 }* %0, i32 0, i32 0, !dbg !2140
  %10 = load i64, i64* %9, align 8, !dbg !2140
  %11 = getelementptr inbounds { i64, i64 }, { i64, i64 }* %0, i32 0, i32 1, !dbg !2140
  %12 = load i64, i64* %11, align 8, !dbg !2140
  %13 = insertvalue { i64, i64 } undef, i64 %10, 0, !dbg !2140
  %14 = insertvalue { i64, i64 } %13, i64 %12, 1, !dbg !2140
  ret { i64, i64 } %14, !dbg !2140
}

; alloc::raw_vec::RawVec<T,A>::set_ptr
; Function Attrs: nounwind
define void @"_ZN5alloc7raw_vec19RawVec$LT$T$C$A$GT$7set_ptr17h4e2f7375e8b7b32eE"({ i8*, i64 }* align 8 dereferenceable(16) %self, i8* nonnull %ptr.0, i64 %ptr.1) unnamed_addr #1 !dbg !2141 {
start:
  %ptr.dbg.spill = alloca { i8*, i64 }, align 8
  %self.dbg.spill = alloca { i8*, i64 }*, align 8
  store { i8*, i64 }* %self, { i8*, i64 }** %self.dbg.spill, align 8
  call void @llvm.dbg.declare(metadata { i8*, i64 }** %self.dbg.spill, metadata !2145, metadata !DIExpression()), !dbg !2147
  %0 = getelementptr inbounds { i8*, i64 }, { i8*, i64 }* %ptr.dbg.spill, i32 0, i32 0
  store i8* %ptr.0, i8** %0, align 8
  %1 = getelementptr inbounds { i8*, i64 }, { i8*, i64 }* %ptr.dbg.spill, i32 0, i32 1
  store i64 %ptr.1, i64* %1, align 8
  call void @llvm.dbg.declare(metadata { i8*, i64 }* %ptr.dbg.spill, metadata !2146, metadata !DIExpression()), !dbg !2148
; call core::ptr::non_null::NonNull<T>::cast
  %_5 = call nonnull i8* @"_ZN4core3ptr8non_null16NonNull$LT$T$GT$4cast17h1db3bf6300e1c822E"(i8* nonnull %ptr.0, i64 %ptr.1), !dbg !2149
  br label %bb1, !dbg !2149

bb1:                                              ; preds = %start
; call core::ptr::non_null::NonNull<T>::as_ptr
  %_4 = call i8* @"_ZN4core3ptr8non_null16NonNull$LT$T$GT$6as_ptr17hbde849f63aae2924E"(i8* nonnull %_5), !dbg !2149
  br label %bb2, !dbg !2149

bb2:                                              ; preds = %bb1
; call core::ptr::unique::Unique<T>::new_unchecked
  %_3 = call nonnull i8* @"_ZN4core3ptr6unique15Unique$LT$T$GT$13new_unchecked17ha3783e483e1f9c55E"(i8* %_4), !dbg !2150
  br label %bb3, !dbg !2150

bb3:                                              ; preds = %bb2
  %2 = bitcast { i8*, i64 }* %self to i8**, !dbg !2151
  store i8* %_3, i8** %2, align 8, !dbg !2151
; call core::ptr::non_null::NonNull<[T]>::len
  %_8 = call i64 @"_ZN4core3ptr8non_null26NonNull$LT$$u5b$T$u5d$$GT$3len17h96da3ea39ecd65c2E"(i8* nonnull %ptr.0, i64 %ptr.1), !dbg !2152
  br label %bb4, !dbg !2152

bb4:                                              ; preds = %bb3
; call alloc::raw_vec::RawVec<T,A>::capacity_from_bytes
  %_7 = call i64 @"_ZN5alloc7raw_vec19RawVec$LT$T$C$A$GT$19capacity_from_bytes17h5e392f63da8fc2acE"(i64 %_8), !dbg !2153
  br label %bb5, !dbg !2153

bb5:                                              ; preds = %bb4
  %3 = getelementptr inbounds { i8*, i64 }, { i8*, i64 }* %self, i32 0, i32 1, !dbg !2154
  store i64 %_7, i64* %3, align 8, !dbg !2154
  ret void, !dbg !2155
}

; alloc::raw_vec::RawVec<T,A>::into_box
; Function Attrs: nounwind
define { [0 x i8]*, i64 } @"_ZN5alloc7raw_vec19RawVec$LT$T$C$A$GT$8into_box17h3d34a5a1ec21e0edE"(i8* nonnull %self.0, i64 %self.1, i64 %len) unnamed_addr #1 !dbg !2156 {
start:
  %self.dbg.spill.i1 = alloca { i8*, i64 }*, align 8
  %self.dbg.spill.i = alloca { i8*, i64 }*, align 8
  %value.dbg.spill.i = alloca { i8*, i64 }, align 8
  %0 = alloca { i8*, i64 }, align 8
  %slice.dbg.spill = alloca { [0 x i8]*, i64 }, align 8
  %len.dbg.spill = alloca i64, align 8
  %self.dbg.spill = alloca { i8*, i64 }, align 8
  %me = alloca { i8*, i64 }, align 8
  %1 = getelementptr inbounds { i8*, i64 }, { i8*, i64 }* %self.dbg.spill, i32 0, i32 0
  store i8* %self.0, i8** %1, align 8
  %2 = getelementptr inbounds { i8*, i64 }, { i8*, i64 }* %self.dbg.spill, i32 0, i32 1
  store i64 %self.1, i64* %2, align 8
  call void @llvm.dbg.declare(metadata { i8*, i64 }* %self.dbg.spill, metadata !2160, metadata !DIExpression()), !dbg !2166
  store i64 %len, i64* %len.dbg.spill, align 8
  call void @llvm.dbg.declare(metadata i64* %len.dbg.spill, metadata !2161, metadata !DIExpression()), !dbg !2167
  call void @llvm.dbg.declare(metadata { i8*, i64 }* %me, metadata !2162, metadata !DIExpression()), !dbg !2168
  %3 = getelementptr inbounds { i8*, i64 }, { i8*, i64 }* %value.dbg.spill.i, i32 0, i32 0
  store i8* %self.0, i8** %3, align 8
  %4 = getelementptr inbounds { i8*, i64 }, { i8*, i64 }* %value.dbg.spill.i, i32 0, i32 1
  store i64 %self.1, i64* %4, align 8
  call void @llvm.dbg.declare(metadata { i8*, i64 }* %value.dbg.spill.i, metadata !2169, metadata !DIExpression()), !dbg !2174
  %5 = getelementptr inbounds { i8*, i64 }, { i8*, i64 }* %0, i32 0, i32 0, !dbg !2176
  store i8* %self.0, i8** %5, align 8, !dbg !2176
  %6 = getelementptr inbounds { i8*, i64 }, { i8*, i64 }* %0, i32 0, i32 1, !dbg !2176
  store i64 %self.1, i64* %6, align 8, !dbg !2176
  %7 = getelementptr inbounds { i8*, i64 }, { i8*, i64 }* %0, i32 0, i32 0, !dbg !2177
  %8 = load i8*, i8** %7, align 8, !dbg !2177, !nonnull !4
  %9 = getelementptr inbounds { i8*, i64 }, { i8*, i64 }* %0, i32 0, i32 1, !dbg !2177
  %10 = load i64, i64* %9, align 8, !dbg !2177
  %11 = insertvalue { i8*, i64 } undef, i8* %8, 0, !dbg !2177
