; ModuleID = 'sha2.938dfc0a-cgu.0'
source_filename = "sha2.938dfc0a-cgu.0"
target datalayout = "e-m:e-p:64:64-i64:64-n32:64-S128"
target triple = "bpfel"

%"core::slice::ChunksExactMut<u8>" = type { { [0 x i8]*, i64 }, { [0 x i8]*, i64 }, i64 }
%"core::option::Option<usize>::Some" = type { [1 x i64], i64 }
%"core::panic::Location" = type { { [0 x i8]*, i64 }, i32, i32 }
%"core::option::Option<(&mut [u8], &u64)>" = type { {}*, [2 x i64] }
%"core::iter::Zip<core::slice::ChunksExactMut<u8>, core::slice::Iter<u64>>" = type { %"core::slice::ChunksExactMut<u8>", { i64*, i64* }, i64, i64, i64 }
%"core::option::Option<(&mut [u8], &u32)>" = type { {}*, [2 x i64] }
%"core::iter::Zip<core::slice::ChunksExactMut<u8>, core::slice::Iter<u32>>" = type { %"core::slice::ChunksExactMut<u8>", { i32*, i32* }, i64, i64, i64 }
%"core::option::Option<(&mut u64, &[u8])>" = type { {}*, [2 x i64] }
%"core::iter::Zip<core::slice::IterMut<u64>, core::slice::ChunksExact<u8>>" = type { { i64*, i64* }, %"core::slice::ChunksExact<u8>", i64, i64, i64 }
%"core::slice::ChunksExact<u8>" = type { { [0 x i8]*, i64 }, { [0 x i8]*, i64 }, i64 }
%"core::option::Option<(&mut u32, &[u8])>" = type { {}*, [2 x i64] }
%"core::iter::Zip<core::slice::IterMut<u32>, core::slice::ChunksExact<u8>>" = type { { i32*, i32* }, %"core::slice::ChunksExact<u8>", i64, i64, i64 }
%"core::iter::Enumerate<core::slice::IterMut<u8>>" = type { { i8*, i8* }, i64 }
%"[closure@<core::iter::Enumerate<I> as core::iter::Iterator>::fold::enumerate<&mut u8, (), [closure@core::iter::Iterator::for_each::call<(usize, &mut u8), [closure@<block_buffer::generic_array::GenericArray<u8, block_buffer::generic_array::typenum::UInt<block_buffer::generic_array::typenum::UInt<block_buffer::generic_array::typenum::UInt<block_buffer::generic_array::typenum::UInt<block_buffer::generic_array::typenum::UInt<block_buffer::generic_array::typenum::UInt<block_buffer::generic_array::typenum::UInt<block_buffer::generic_array::typenum::UInt<block_buffer::generic_array::typenum::UTerm, digest::consts::B1>, digest::consts::B0>, digest::consts::B0>, digest::consts::B0>, digest::consts::B0>, digest::consts::B0>, digest::consts::B0>, digest::consts::B0>> as block_buffer::generic_array::sequence::GenericSequence<u8>>::generate<[closure@block_buffer::generic_array::impls::<impl core::default::Default for block_buffer::generic_array::GenericArray<u8, block_buffer::generic_array::typenum::UInt<block_buffer::generic_array::typenum::UInt<block_buffer::generic_array::typenum::UInt<block_buffer::generic_array::typenum::UInt<block_buffer::generic_array::typenum::UInt<block_buffer::generic_array::typenum::UInt<block_buffer::generic_array::typenum::UInt<block_buffer::generic_array::typenum::UInt<block_buffer::generic_array::typenum::UTerm, digest::consts::B1>, digest::consts::B0>, digest::consts::B0>, digest::consts::B0>, digest::consts::B0>, digest::consts::B0>, digest::consts::B0>, digest::consts::B0>>>::default::{closure#0}]>::{closure#0}]>::{closure#0}]>::{closure#0}]" = type { { i8*, i64* }, i64 }
%"[closure@<core::iter::Enumerate<I> as core::iter::Iterator>::fold::enumerate<&mut u8, (), [closure@core::iter::Iterator::for_each::call<(usize, &mut u8), [closure@<block_buffer::generic_array::GenericArray<u8, block_buffer::generic_array::typenum::UInt<block_buffer::generic_array::typenum::UInt<block_buffer::generic_array::typenum::UInt<block_buffer::generic_array::typenum::UInt<block_buffer::generic_array::typenum::UInt<block_buffer::generic_array::typenum::UInt<block_buffer::generic_array::typenum::UInt<block_buffer::generic_array::typenum::UTerm, digest::consts::B1>, digest::consts::B0>, digest::consts::B0>, digest::consts::B0>, digest::consts::B0>, digest::consts::B0>, digest::consts::B0>> as block_buffer::generic_array::sequence::GenericSequence<u8>>::generate<[closure@block_buffer::generic_array::impls::<impl core::default::Default for block_buffer::generic_array::GenericArray<u8, block_buffer::generic_array::typenum::UInt<block_buffer::generic_array::typenum::UInt<block_buffer::generic_array::typenum::UInt<block_buffer::generic_array::typenum::UInt<block_buffer::generic_array::typenum::UInt<block_buffer::generic_array::typenum::UInt<block_buffer::generic_array::typenum::UInt<block_buffer::generic_array::typenum::UTerm, digest::consts::B1>, digest::consts::B0>, digest::consts::B0>, digest::consts::B0>, digest::consts::B0>, digest::consts::B0>, digest::consts::B0>>>::default::{closure#0}]>::{closure#0}]>::{closure#0}]>::{closure#0}]" = type { { i8*, i64* }, i64 }
%"block_buffer::generic_array::GenericArray<u8, block_buffer::generic_array::typenum::UInt<block_buffer::generic_array::typenum::UInt<block_buffer::generic_array::typenum::UInt<block_buffer::generic_array::typenum::UInt<block_buffer::generic_array::typenum::UInt<block_buffer::generic_array::typenum::UInt<block_buffer::generic_array::typenum::UInt<block_buffer::generic_array::typenum::UInt<block_buffer::generic_array::typenum::UTerm, digest::consts::B1>, digest::consts::B0>, digest::consts::B0>, digest::consts::B0>, digest::consts::B0>, digest::consts::B0>, digest::consts::B0>, digest::consts::B0>>" = type { %"block_buffer::generic_array::GenericArrayImplEven<u8, block_buffer::generic_array::GenericArrayImplEven<u8, block_buffer::generic_array::GenericArrayImplEven<u8, block_buffer::generic_array::GenericArrayImplEven<u8, block_buffer::generic_array::GenericArrayImplEven<u8, block_buffer::generic_array::GenericArrayImplEven<u8, block_buffer::generic_array::GenericArrayImplEven<u8, block_buffer::generic_array::GenericArrayImplOdd<u8, [u8; 0]>>>>>>>>" }
%"block_buffer::generic_array::GenericArrayImplEven<u8, block_buffer::generic_array::GenericArrayImplEven<u8, block_buffer::generic_array::GenericArrayImplEven<u8, block_buffer::generic_array::GenericArrayImplEven<u8, block_buffer::generic_array::GenericArrayImplEven<u8, block_buffer::generic_array::GenericArrayImplEven<u8, block_buffer::generic_array::GenericArrayImplEven<u8, block_buffer::generic_array::GenericArrayImplOdd<u8, [u8; 0]>>>>>>>>" = type { %"block_buffer::generic_array::GenericArrayImplEven<u8, block_buffer::generic_array::GenericArrayImplEven<u8, block_buffer::generic_array::GenericArrayImplEven<u8, block_buffer::generic_array::GenericArrayImplEven<u8, block_buffer::generic_array::GenericArrayImplEven<u8, block_buffer::generic_array::GenericArrayImplEven<u8, block_buffer::generic_array::GenericArrayImplOdd<u8, [u8; 0]>>>>>>>", %"block_buffer::generic_array::GenericArrayImplEven<u8, block_buffer::generic_array::GenericArrayImplEven<u8, block_buffer::generic_array::GenericArrayImplEven<u8, block_buffer::generic_array::GenericArrayImplEven<u8, block_buffer::generic_array::GenericArrayImplEven<u8, block_buffer::generic_array::GenericArrayImplEven<u8, block_buffer::generic_array::GenericArrayImplOdd<u8, [u8; 0]>>>>>>>", %"core::marker::PhantomData<u8>" }
%"block_buffer::generic_array::GenericArrayImplEven<u8, block_buffer::generic_array::GenericArrayImplEven<u8, block_buffer::generic_array::GenericArrayImplEven<u8, block_buffer::generic_array::GenericArrayImplEven<u8, block_buffer::generic_array::GenericArrayImplEven<u8, block_buffer::generic_array::GenericArrayImplEven<u8, block_buffer::generic_array::GenericArrayImplOdd<u8, [u8; 0]>>>>>>>" = type { %"block_buffer::generic_array::GenericArrayImplEven<u8, block_buffer::generic_array::GenericArrayImplEven<u8, block_buffer::generic_array::GenericArrayImplEven<u8, block_buffer::generic_array::GenericArrayImplEven<u8, block_buffer::generic_array::GenericArrayImplEven<u8, block_buffer::generic_array::GenericArrayImplOdd<u8, [u8; 0]>>>>>>", %"block_buffer::generic_array::GenericArrayImplEven<u8, block_buffer::generic_array::GenericArrayImplEven<u8, block_buffer::generic_array::GenericArrayImplEven<u8, block_buffer::generic_array::GenericArrayImplEven<u8, block_buffer::generic_array::GenericArrayImplEven<u8, block_buffer::generic_array::GenericArrayImplOdd<u8, [u8; 0]>>>>>>", %"core::marker::PhantomData<u8>" }
%"block_buffer::generic_array::GenericArrayImplEven<u8, block_buffer::generic_array::GenericArrayImplEven<u8, block_buffer::generic_array::GenericArrayImplEven<u8, block_buffer::generic_array::GenericArrayImplEven<u8, block_buffer::generic_array::GenericArrayImplEven<u8, block_buffer::generic_array::GenericArrayImplOdd<u8, [u8; 0]>>>>>>" = type { %"block_buffer::generic_array::GenericArrayImplEven<u8, block_buffer::generic_array::GenericArrayImplEven<u8, block_buffer::generic_array::GenericArrayImplEven<u8, block_buffer::generic_array::GenericArrayImplEven<u8, block_buffer::generic_array::GenericArrayImplOdd<u8, [u8; 0]>>>>>", %"block_buffer::generic_array::GenericArrayImplEven<u8, block_buffer::generic_array::GenericArrayImplEven<u8, block_buffer::generic_array::GenericArrayImplEven<u8, block_buffer::generic_array::GenericArrayImplEven<u8, block_buffer::generic_array::GenericArrayImplOdd<u8, [u8; 0]>>>>>", %"core::marker::PhantomData<u8>" }
%"block_buffer::generic_array::GenericArrayImplEven<u8, block_buffer::generic_array::GenericArrayImplEven<u8, block_buffer::generic_array::GenericArrayImplEven<u8, block_buffer::generic_array::GenericArrayImplEven<u8, block_buffer::generic_array::GenericArrayImplOdd<u8, [u8; 0]>>>>>" = type { %"block_buffer::generic_array::GenericArrayImplEven<u8, block_buffer::generic_array::GenericArrayImplEven<u8, block_buffer::generic_array::GenericArrayImplEven<u8, block_buffer::generic_array::GenericArrayImplOdd<u8, [u8; 0]>>>>", %"block_buffer::generic_array::GenericArrayImplEven<u8, block_buffer::generic_array::GenericArrayImplEven<u8, block_buffer::generic_array::GenericArrayImplEven<u8, block_buffer::generic_array::GenericArrayImplOdd<u8, [u8; 0]>>>>", %"core::marker::PhantomData<u8>" }
%"block_buffer::generic_array::GenericArrayImplEven<u8, block_buffer::generic_array::GenericArrayImplEven<u8, block_buffer::generic_array::GenericArrayImplEven<u8, block_buffer::generic_array::GenericArrayImplOdd<u8, [u8; 0]>>>>" = type { %"block_buffer::generic_array::GenericArrayImplEven<u8, block_buffer::generic_array::GenericArrayImplEven<u8, block_buffer::generic_array::GenericArrayImplOdd<u8, [u8; 0]>>>", %"block_buffer::generic_array::GenericArrayImplEven<u8, block_buffer::generic_array::GenericArrayImplEven<u8, block_buffer::generic_array::GenericArrayImplOdd<u8, [u8; 0]>>>", %"core::marker::PhantomData<u8>" }
%"block_buffer::generic_array::GenericArrayImplEven<u8, block_buffer::generic_array::GenericArrayImplEven<u8, block_buffer::generic_array::GenericArrayImplOdd<u8, [u8; 0]>>>" = type { %"block_buffer::generic_array::GenericArrayImplEven<u8, block_buffer::generic_array::GenericArrayImplOdd<u8, [u8; 0]>>", %"block_buffer::generic_array::GenericArrayImplEven<u8, block_buffer::generic_array::GenericArrayImplOdd<u8, [u8; 0]>>", %"core::marker::PhantomData<u8>" }
%"block_buffer::generic_array::GenericArrayImplEven<u8, block_buffer::generic_array::GenericArrayImplOdd<u8, [u8; 0]>>" = type { %"block_buffer::generic_array::GenericArrayImplOdd<u8, [u8; 0]>", %"block_buffer::generic_array::GenericArrayImplOdd<u8, [u8; 0]>", %"core::marker::PhantomData<u8>" }
%"block_buffer::generic_array::GenericArrayImplOdd<u8, [u8; 0]>" = type { [0 x i8], [0 x i8], i8 }
%"core::marker::PhantomData<u8>" = type {}
%"block_buffer::generic_array::ArrayBuilder<u8, block_buffer::generic_array::typenum::UInt<block_buffer::generic_array::typenum::UInt<block_buffer::generic_array::typenum::UInt<block_buffer::generic_array::typenum::UInt<block_buffer::generic_array::typenum::UInt<block_buffer::generic_array::typenum::UInt<block_buffer::generic_array::typenum::UInt<block_buffer::generic_array::typenum::UInt<block_buffer::generic_array::typenum::UTerm, digest::consts::B1>, digest::consts::B0>, digest::consts::B0>, digest::consts::B0>, digest::consts::B0>, digest::consts::B0>, digest::consts::B0>, digest::consts::B0>>" = type { i64, %"core::mem::MaybeUninit<block_buffer::generic_array::GenericArray<u8, block_buffer::generic_array::typenum::UInt<block_buffer::generic_array::typenum::UInt<block_buffer::generic_array::typenum::UInt<block_buffer::generic_array::typenum::UInt<block_buffer::generic_array::typenum::UInt<block_buffer::generic_array::typenum::UInt<block_buffer::generic_array::typenum::UInt<block_buffer::generic_array::typenum::UInt<block_buffer::generic_array::typenum::UTerm, digest::consts::B1>, digest::consts::B0>, digest::consts::B0>, digest::consts::B0>, digest::consts::B0>, digest::consts::B0>, digest::consts::B0>, digest::consts::B0>>>" }
%"core::mem::MaybeUninit<block_buffer::generic_array::GenericArray<u8, block_buffer::generic_array::typenum::UInt<block_buffer::generic_array::typenum::UInt<block_buffer::generic_array::typenum::UInt<block_buffer::generic_array::typenum::UInt<block_buffer::generic_array::typenum::UInt<block_buffer::generic_array::typenum::UInt<block_buffer::generic_array::typenum::UInt<block_buffer::generic_array::typenum::UInt<block_buffer::generic_array::typenum::UTerm, digest::consts::B1>, digest::consts::B0>, digest::consts::B0>, digest::consts::B0>, digest::consts::B0>, digest::consts::B0>, digest::consts::B0>, digest::consts::B0>>>" = type { [128 x i8] }
%"[closure@block_buffer::generic_array::impls::<impl core::default::Default for block_buffer::generic_array::GenericArray<u8, block_buffer::generic_array::typenum::UInt<block_buffer::generic_array::typenum::UInt<block_buffer::generic_array::typenum::UInt<block_buffer::generic_array::typenum::UInt<block_buffer::generic_array::typenum::UInt<block_buffer::generic_array::typenum::UInt<block_buffer::generic_array::typenum::UInt<block_buffer::generic_array::typenum::UInt<block_buffer::generic_array::typenum::UTerm, digest::consts::B1>, digest::consts::B0>, digest::consts::B0>, digest::consts::B0>, digest::consts::B0>, digest::consts::B0>, digest::consts::B0>, digest::consts::B0>>>::default::{closure#0}]" = type {}
%"block_buffer::generic_array::GenericArray<u8, block_buffer::generic_array::typenum::UInt<block_buffer::generic_array::typenum::UInt<block_buffer::generic_array::typenum::UInt<block_buffer::generic_array::typenum::UInt<block_buffer::generic_array::typenum::UInt<block_buffer::generic_array::typenum::UInt<block_buffer::generic_array::typenum::UInt<block_buffer::generic_array::typenum::UTerm, digest::consts::B1>, digest::consts::B0>, digest::consts::B0>, digest::consts::B0>, digest::consts::B0>, digest::consts::B0>, digest::consts::B0>>" = type { %"block_buffer::generic_array::GenericArrayImplEven<u8, block_buffer::generic_array::GenericArrayImplEven<u8, block_buffer::generic_array::GenericArrayImplEven<u8, block_buffer::generic_array::GenericArrayImplEven<u8, block_buffer::generic_array::GenericArrayImplEven<u8, block_buffer::generic_array::GenericArrayImplEven<u8, block_buffer::generic_array::GenericArrayImplOdd<u8, [u8; 0]>>>>>>>" }
%"block_buffer::generic_array::ArrayBuilder<u8, block_buffer::generic_array::typenum::UInt<block_buffer::generic_array::typenum::UInt<block_buffer::generic_array::typenum::UInt<block_buffer::generic_array::typenum::UInt<block_buffer::generic_array::typenum::UInt<block_buffer::generic_array::typenum::UInt<block_buffer::generic_array::typenum::UInt<block_buffer::generic_array::typenum::UTerm, digest::consts::B1>, digest::consts::B0>, digest::consts::B0>, digest::consts::B0>, digest::consts::B0>, digest::consts::B0>, digest::consts::B0>>" = type { i64, %"core::mem::MaybeUninit<block_buffer::generic_array::GenericArray<u8, block_buffer::generic_array::typenum::UInt<block_buffer::generic_array::typenum::UInt<block_buffer::generic_array::typenum::UInt<block_buffer::generic_array::typenum::UInt<block_buffer::generic_array::typenum::UInt<block_buffer::generic_array::typenum::UInt<block_buffer::generic_array::typenum::UInt<block_buffer::generic_array::typenum::UTerm, digest::consts::B1>, digest::consts::B0>, digest::consts::B0>, digest::consts::B0>, digest::consts::B0>, digest::consts::B0>, digest::consts::B0>>>" }
%"core::mem::MaybeUninit<block_buffer::generic_array::GenericArray<u8, block_buffer::generic_array::typenum::UInt<block_buffer::generic_array::typenum::UInt<block_buffer::generic_array::typenum::UInt<block_buffer::generic_array::typenum::UInt<block_buffer::generic_array::typenum::UInt<block_buffer::generic_array::typenum::UInt<block_buffer::generic_array::typenum::UInt<block_buffer::generic_array::typenum::UTerm, digest::consts::B1>, digest::consts::B0>, digest::consts::B0>, digest::consts::B0>, digest::consts::B0>, digest::consts::B0>, digest::consts::B0>>>" = type { [64 x i8] }
%"[closure@block_buffer::generic_array::impls::<impl core::default::Default for block_buffer::generic_array::GenericArray<u8, block_buffer::generic_array::typenum::UInt<block_buffer::generic_array::typenum::UInt<block_buffer::generic_array::typenum::UInt<block_buffer::generic_array::typenum::UInt<block_buffer::generic_array::typenum::UInt<block_buffer::generic_array::typenum::UInt<block_buffer::generic_array::typenum::UInt<block_buffer::generic_array::typenum::UTerm, digest::consts::B1>, digest::consts::B0>, digest::consts::B0>, digest::consts::B0>, digest::consts::B0>, digest::consts::B0>, digest::consts::B0>>>::default::{closure#0}]" = type {}
%"core::option::Option<(&mut u64, &[u8])>::Some" = type { { i64*, { [0 x i8]*, i64 } } }
%"core::option::Option<(&mut [u8], &u64)>::Some" = type { { { [0 x i8]*, i64 }, i64* } }
%"core::option::Option<(&mut [u8], &u32)>::Some" = type { { { [0 x i8]*, i64 }, i32* } }
%"core::option::Option<(&mut u32, &[u8])>::Some" = type { { i32*, { [0 x i8]*, i64 } } }
%"block_buffer::BlockBuffer<block_buffer::generic_array::typenum::UInt<block_buffer::generic_array::typenum::UInt<block_buffer::generic_array::typenum::UInt<block_buffer::generic_array::typenum::UInt<block_buffer::generic_array::typenum::UInt<block_buffer::generic_array::typenum::UInt<block_buffer::generic_array::typenum::UInt<block_buffer::generic_array::typenum::UTerm, digest::consts::B1>, digest::consts::B0>, digest::consts::B0>, digest::consts::B0>, digest::consts::B0>, digest::consts::B0>, digest::consts::B0>>" = type { i64, %"block_buffer::generic_array::GenericArray<u8, block_buffer::generic_array::typenum::UInt<block_buffer::generic_array::typenum::UInt<block_buffer::generic_array::typenum::UInt<block_buffer::generic_array::typenum::UInt<block_buffer::generic_array::typenum::UInt<block_buffer::generic_array::typenum::UInt<block_buffer::generic_array::typenum::UInt<block_buffer::generic_array::typenum::UTerm, digest::consts::B1>, digest::consts::B0>, digest::consts::B0>, digest::consts::B0>, digest::consts::B0>, digest::consts::B0>, digest::consts::B0>>" }
%"block_buffer::BlockBuffer<block_buffer::generic_array::typenum::UInt<block_buffer::generic_array::typenum::UInt<block_buffer::generic_array::typenum::UInt<block_buffer::generic_array::typenum::UInt<block_buffer::generic_array::typenum::UInt<block_buffer::generic_array::typenum::UInt<block_buffer::generic_array::typenum::UInt<block_buffer::generic_array::typenum::UInt<block_buffer::generic_array::typenum::UTerm, digest::consts::B1>, digest::consts::B0>, digest::consts::B0>, digest::consts::B0>, digest::consts::B0>, digest::consts::B0>, digest::consts::B0>, digest::consts::B0>>" = type { i64, %"block_buffer::generic_array::GenericArray<u8, block_buffer::generic_array::typenum::UInt<block_buffer::generic_array::typenum::UInt<block_buffer::generic_array::typenum::UInt<block_buffer::generic_array::typenum::UInt<block_buffer::generic_array::typenum::UInt<block_buffer::generic_array::typenum::UInt<block_buffer::generic_array::typenum::UInt<block_buffer::generic_array::typenum::UInt<block_buffer::generic_array::typenum::UTerm, digest::consts::B1>, digest::consts::B0>, digest::consts::B0>, digest::consts::B0>, digest::consts::B0>, digest::consts::B0>, digest::consts::B0>, digest::consts::B0>>" }
%"core::mem::ManuallyDrop<block_buffer::generic_array::GenericArray<u8, block_buffer::generic_array::typenum::UInt<block_buffer::generic_array::typenum::UInt<block_buffer::generic_array::typenum::UInt<block_buffer::generic_array::typenum::UInt<block_buffer::generic_array::typenum::UInt<block_buffer::generic_array::typenum::UInt<block_buffer::generic_array::typenum::UInt<block_buffer::generic_array::typenum::UTerm, digest::consts::B1>, digest::consts::B0>, digest::consts::B0>, digest::consts::B0>, digest::consts::B0>, digest::consts::B0>, digest::consts::B0>>>" = type { %"block_buffer::generic_array::GenericArray<u8, block_buffer::generic_array::typenum::UInt<block_buffer::generic_array::typenum::UInt<block_buffer::generic_array::typenum::UInt<block_buffer::generic_array::typenum::UInt<block_buffer::generic_array::typenum::UInt<block_buffer::generic_array::typenum::UInt<block_buffer::generic_array::typenum::UInt<block_buffer::generic_array::typenum::UTerm, digest::consts::B1>, digest::consts::B0>, digest::consts::B0>, digest::consts::B0>, digest::consts::B0>, digest::consts::B0>, digest::consts::B0>>" }
%"core::mem::ManuallyDrop<block_buffer::generic_array::GenericArray<u8, block_buffer::generic_array::typenum::UInt<block_buffer::generic_array::typenum::UInt<block_buffer::generic_array::typenum::UInt<block_buffer::generic_array::typenum::UInt<block_buffer::generic_array::typenum::UInt<block_buffer::generic_array::typenum::UInt<block_buffer::generic_array::typenum::UInt<block_buffer::generic_array::typenum::UInt<block_buffer::generic_array::typenum::UTerm, digest::consts::B1>, digest::consts::B0>, digest::consts::B0>, digest::consts::B0>, digest::consts::B0>, digest::consts::B0>, digest::consts::B0>, digest::consts::B0>>>" = type { %"block_buffer::generic_array::GenericArray<u8, block_buffer::generic_array::typenum::UInt<block_buffer::generic_array::typenum::UInt<block_buffer::generic_array::typenum::UInt<block_buffer::generic_array::typenum::UInt<block_buffer::generic_array::typenum::UInt<block_buffer::generic_array::typenum::UInt<block_buffer::generic_array::typenum::UInt<block_buffer::generic_array::typenum::UInt<block_buffer::generic_array::typenum::UTerm, digest::consts::B1>, digest::consts::B0>, digest::consts::B0>, digest::consts::B0>, digest::consts::B0>, digest::consts::B0>, digest::consts::B0>, digest::consts::B0>>" }
%"core::fmt::Formatter" = type { { i64, i64 }, { i64, i64 }, { {}*, [3 x i64]* }, i32, i32, i8, [7 x i8] }
%"core::fmt::Arguments" = type { { [0 x { [0 x i8]*, i64 }]*, i64 }, { i64*, i64 }, { [0 x { i8*, i64* }]*, i64 } }
%"core::mem::ManuallyDrop<block_buffer::generic_array::ArrayBuilder<u8, block_buffer::generic_array::typenum::UInt<block_buffer::generic_array::typenum::UInt<block_buffer::generic_array::typenum::UInt<block_buffer::generic_array::typenum::UInt<block_buffer::generic_array::typenum::UInt<block_buffer::generic_array::typenum::UInt<block_buffer::generic_array::typenum::UInt<block_buffer::generic_array::typenum::UInt<block_buffer::generic_array::typenum::UTerm, digest::consts::B1>, digest::consts::B0>, digest::consts::B0>, digest::consts::B0>, digest::consts::B0>, digest::consts::B0>, digest::consts::B0>, digest::consts::B0>>>" = type { %"block_buffer::generic_array::ArrayBuilder<u8, block_buffer::generic_array::typenum::UInt<block_buffer::generic_array::typenum::UInt<block_buffer::generic_array::typenum::UInt<block_buffer::generic_array::typenum::UInt<block_buffer::generic_array::typenum::UInt<block_buffer::generic_array::typenum::UInt<block_buffer::generic_array::typenum::UInt<block_buffer::generic_array::typenum::UInt<block_buffer::generic_array::typenum::UTerm, digest::consts::B1>, digest::consts::B0>, digest::consts::B0>, digest::consts::B0>, digest::consts::B0>, digest::consts::B0>, digest::consts::B0>, digest::consts::B0>>" }
%"core::mem::ManuallyDrop<block_buffer::generic_array::ArrayBuilder<u8, block_buffer::generic_array::typenum::UInt<block_buffer::generic_array::typenum::UInt<block_buffer::generic_array::typenum::UInt<block_buffer::generic_array::typenum::UInt<block_buffer::generic_array::typenum::UInt<block_buffer::generic_array::typenum::UInt<block_buffer::generic_array::typenum::UInt<block_buffer::generic_array::typenum::UTerm, digest::consts::B1>, digest::consts::B0>, digest::consts::B0>, digest::consts::B0>, digest::consts::B0>, digest::consts::B0>, digest::consts::B0>>>" = type { %"block_buffer::generic_array::ArrayBuilder<u8, block_buffer::generic_array::typenum::UInt<block_buffer::generic_array::typenum::UInt<block_buffer::generic_array::typenum::UInt<block_buffer::generic_array::typenum::UInt<block_buffer::generic_array::typenum::UInt<block_buffer::generic_array::typenum::UInt<block_buffer::generic_array::typenum::UInt<block_buffer::generic_array::typenum::UTerm, digest::consts::B1>, digest::consts::B0>, digest::consts::B0>, digest::consts::B0>, digest::consts::B0>, digest::consts::B0>, digest::consts::B0>>" }
%"core::mem::MaybeUninit<core::mem::MaybeUninit<block_buffer::generic_array::GenericArray<u8, block_buffer::generic_array::typenum::UInt<block_buffer::generic_array::typenum::UInt<block_buffer::generic_array::typenum::UInt<block_buffer::generic_array::typenum::UInt<block_buffer::generic_array::typenum::UInt<block_buffer::generic_array::typenum::UInt<block_buffer::generic_array::typenum::UInt<block_buffer::generic_array::typenum::UTerm, digest::consts::B1>, digest::consts::B0>, digest::consts::B0>, digest::consts::B0>, digest::consts::B0>, digest::consts::B0>, digest::consts::B0>>>>" = type { [64 x i8] }
%"core::mem::ManuallyDrop<core::mem::MaybeUninit<block_buffer::generic_array::GenericArray<u8, block_buffer::generic_array::typenum::UInt<block_buffer::generic_array::typenum::UInt<block_buffer::generic_array::typenum::UInt<block_buffer::generic_array::typenum::UInt<block_buffer::generic_array::typenum::UInt<block_buffer::generic_array::typenum::UInt<block_buffer::generic_array::typenum::UInt<block_buffer::generic_array::typenum::UTerm, digest::consts::B1>, digest::consts::B0>, digest::consts::B0>, digest::consts::B0>, digest::consts::B0>, digest::consts::B0>, digest::consts::B0>>>>" = type { %"core::mem::MaybeUninit<block_buffer::generic_array::GenericArray<u8, block_buffer::generic_array::typenum::UInt<block_buffer::generic_array::typenum::UInt<block_buffer::generic_array::typenum::UInt<block_buffer::generic_array::typenum::UInt<block_buffer::generic_array::typenum::UInt<block_buffer::generic_array::typenum::UInt<block_buffer::generic_array::typenum::UInt<block_buffer::generic_array::typenum::UTerm, digest::consts::B1>, digest::consts::B0>, digest::consts::B0>, digest::consts::B0>, digest::consts::B0>, digest::consts::B0>, digest::consts::B0>>>" }
%"core::mem::MaybeUninit<core::mem::MaybeUninit<block_buffer::generic_array::GenericArray<u8, block_buffer::generic_array::typenum::UInt<block_buffer::generic_array::typenum::UInt<block_buffer::generic_array::typenum::UInt<block_buffer::generic_array::typenum::UInt<block_buffer::generic_array::typenum::UInt<block_buffer::generic_array::typenum::UInt<block_buffer::generic_array::typenum::UInt<block_buffer::generic_array::typenum::UInt<block_buffer::generic_array::typenum::UTerm, digest::consts::B1>, digest::consts::B0>, digest::consts::B0>, digest::consts::B0>, digest::consts::B0>, digest::consts::B0>, digest::consts::B0>, digest::consts::B0>>>>" = type { [128 x i8] }
%"core::mem::ManuallyDrop<core::mem::MaybeUninit<block_buffer::generic_array::GenericArray<u8, block_buffer::generic_array::typenum::UInt<block_buffer::generic_array::typenum::UInt<block_buffer::generic_array::typenum::UInt<block_buffer::generic_array::typenum::UInt<block_buffer::generic_array::typenum::UInt<block_buffer::generic_array::typenum::UInt<block_buffer::generic_array::typenum::UInt<block_buffer::generic_array::typenum::UInt<block_buffer::generic_array::typenum::UTerm, digest::consts::B1>, digest::consts::B0>, digest::consts::B0>, digest::consts::B0>, digest::consts::B0>, digest::consts::B0>, digest::consts::B0>, digest::consts::B0>>>>" = type { %"core::mem::MaybeUninit<block_buffer::generic_array::GenericArray<u8, block_buffer::generic_array::typenum::UInt<block_buffer::generic_array::typenum::UInt<block_buffer::generic_array::typenum::UInt<block_buffer::generic_array::typenum::UInt<block_buffer::generic_array::typenum::UInt<block_buffer::generic_array::typenum::UInt<block_buffer::generic_array::typenum::UInt<block_buffer::generic_array::typenum::UInt<block_buffer::generic_array::typenum::UTerm, digest::consts::B1>, digest::consts::B0>, digest::consts::B0>, digest::consts::B0>, digest::consts::B0>, digest::consts::B0>, digest::consts::B0>, digest::consts::B0>>>" }
%"core::array::TryFromSliceError" = type { {} }
%"core::ptr::metadata::PtrRepr<[block_buffer::generic_array::GenericArray<u8, block_buffer::generic_array::typenum::UInt<block_buffer::generic_array::typenum::UInt<block_buffer::generic_array::typenum::UInt<block_buffer::generic_array::typenum::UInt<block_buffer::generic_array::typenum::UInt<block_buffer::generic_array::typenum::UInt<block_buffer::generic_array::typenum::UInt<block_buffer::generic_array::typenum::UInt<block_buffer::generic_array::typenum::UTerm, digest::consts::B1>, digest::consts::B0>, digest::consts::B0>, digest::consts::B0>, digest::consts::B0>, digest::consts::B0>, digest::consts::B0>, digest::consts::B0>>]>" = type { [2 x i64] }
%"core::ptr::metadata::PtrRepr<[u32]>" = type { [2 x i64] }
%"core::ptr::metadata::PtrRepr<[block_buffer::generic_array::GenericArray<u8, block_buffer::generic_array::typenum::UInt<block_buffer::generic_array::typenum::UInt<block_buffer::generic_array::typenum::UInt<block_buffer::generic_array::typenum::UInt<block_buffer::generic_array::typenum::UInt<block_buffer::generic_array::typenum::UInt<block_buffer::generic_array::typenum::UInt<block_buffer::generic_array::typenum::UTerm, digest::consts::B1>, digest::consts::B0>, digest::consts::B0>, digest::consts::B0>, digest::consts::B0>, digest::consts::B0>, digest::consts::B0>>]>" = type { [2 x i64] }
%"core::ptr::metadata::PtrRepr<[u64]>" = type { [2 x i64] }
%"core::result::Result<[u8; 4], core::array::TryFromSliceError>" = type { i8, [4 x i8] }
%"core::result::Result<[u8; 8], core::array::TryFromSliceError>" = type { i8, [8 x i8] }
%"[closure@core::array::<impl core::convert::TryFrom<&[u8]> for [u8; 8]>::try_from::{closure#0}]" = type {}
%"[closure@core::array::<impl core::convert::TryFrom<&[u8]> for [u8; 4]>::try_from::{closure#0}]" = type {}
%"core::option::Option<core::fmt::Arguments>" = type { {}*, [5 x i64] }
%"core::result::Result<[u8; 8], core::array::TryFromSliceError>::Err" = type { [1 x i8], %"core::array::TryFromSliceError" }
%"core::result::Result<[u8; 8], core::array::TryFromSliceError>::Ok" = type { [1 x i8], [8 x i8] }
%"core::result::Result<[u8; 4], core::array::TryFromSliceError>::Err" = type { [1 x i8], %"core::array::TryFromSliceError" }
%"core::result::Result<[u8; 4], core::array::TryFromSliceError>::Ok" = type { [1 x i8], [4 x i8] }
%"sha256::Engine256" = type { i64, %"block_buffer::BlockBuffer<block_buffer::generic_array::typenum::UInt<block_buffer::generic_array::typenum::UInt<block_buffer::generic_array::typenum::UInt<block_buffer::generic_array::typenum::UInt<block_buffer::generic_array::typenum::UInt<block_buffer::generic_array::typenum::UInt<block_buffer::generic_array::typenum::UInt<block_buffer::generic_array::typenum::UTerm, digest::consts::B1>, digest::consts::B0>, digest::consts::B0>, digest::consts::B0>, digest::consts::B0>, digest::consts::B0>, digest::consts::B0>>", [8 x i32] }
%"sha256::Sha256" = type { %"sha256::Engine256" }
%"block_buffer::generic_array::GenericArray<u8, block_buffer::generic_array::typenum::UInt<block_buffer::generic_array::typenum::UInt<block_buffer::generic_array::typenum::UInt<block_buffer::generic_array::typenum::UInt<block_buffer::generic_array::typenum::UInt<block_buffer::generic_array::typenum::UInt<block_buffer::generic_array::typenum::UTerm, digest::consts::B1>, digest::consts::B0>, digest::consts::B0>, digest::consts::B0>, digest::consts::B0>, digest::consts::B0>>" = type { %"block_buffer::generic_array::GenericArrayImplEven<u8, block_buffer::generic_array::GenericArrayImplEven<u8, block_buffer::generic_array::GenericArrayImplEven<u8, block_buffer::generic_array::GenericArrayImplEven<u8, block_buffer::generic_array::GenericArrayImplEven<u8, block_buffer::generic_array::GenericArrayImplOdd<u8, [u8; 0]>>>>>>" }
%"sha256::Sha224" = type { %"sha256::Engine256" }
%"block_buffer::generic_array::GenericArray<u8, block_buffer::generic_array::typenum::UInt<block_buffer::generic_array::typenum::UInt<block_buffer::generic_array::typenum::UInt<block_buffer::generic_array::typenum::UInt<block_buffer::generic_array::typenum::UInt<block_buffer::generic_array::typenum::UTerm, digest::consts::B1>, digest::consts::B1>, digest::consts::B1>, digest::consts::B0>, digest::consts::B0>>" = type { %"block_buffer::generic_array::GenericArrayImplEven<u8, block_buffer::generic_array::GenericArrayImplEven<u8, block_buffer::generic_array::GenericArrayImplOdd<u8, block_buffer::generic_array::GenericArrayImplOdd<u8, block_buffer::generic_array::GenericArrayImplOdd<u8, [u8; 0]>>>>>" }
%"block_buffer::generic_array::GenericArrayImplEven<u8, block_buffer::generic_array::GenericArrayImplEven<u8, block_buffer::generic_array::GenericArrayImplOdd<u8, block_buffer::generic_array::GenericArrayImplOdd<u8, block_buffer::generic_array::GenericArrayImplOdd<u8, [u8; 0]>>>>>" = type { %"block_buffer::generic_array::GenericArrayImplEven<u8, block_buffer::generic_array::GenericArrayImplOdd<u8, block_buffer::generic_array::GenericArrayImplOdd<u8, block_buffer::generic_array::GenericArrayImplOdd<u8, [u8; 0]>>>>", %"block_buffer::generic_array::GenericArrayImplEven<u8, block_buffer::generic_array::GenericArrayImplOdd<u8, block_buffer::generic_array::GenericArrayImplOdd<u8, block_buffer::generic_array::GenericArrayImplOdd<u8, [u8; 0]>>>>", %"core::marker::PhantomData<u8>" }
%"block_buffer::generic_array::GenericArrayImplEven<u8, block_buffer::generic_array::GenericArrayImplOdd<u8, block_buffer::generic_array::GenericArrayImplOdd<u8, block_buffer::generic_array::GenericArrayImplOdd<u8, [u8; 0]>>>>" = type { %"block_buffer::generic_array::GenericArrayImplOdd<u8, block_buffer::generic_array::GenericArrayImplOdd<u8, block_buffer::generic_array::GenericArrayImplOdd<u8, [u8; 0]>>>", %"block_buffer::generic_array::GenericArrayImplOdd<u8, block_buffer::generic_array::GenericArrayImplOdd<u8, block_buffer::generic_array::GenericArrayImplOdd<u8, [u8; 0]>>>", %"core::marker::PhantomData<u8>" }
%"block_buffer::generic_array::GenericArrayImplOdd<u8, block_buffer::generic_array::GenericArrayImplOdd<u8, block_buffer::generic_array::GenericArrayImplOdd<u8, [u8; 0]>>>" = type { %"block_buffer::generic_array::GenericArrayImplOdd<u8, block_buffer::generic_array::GenericArrayImplOdd<u8, [u8; 0]>>", %"block_buffer::generic_array::GenericArrayImplOdd<u8, block_buffer::generic_array::GenericArrayImplOdd<u8, [u8; 0]>>", i8 }
%"block_buffer::generic_array::GenericArrayImplOdd<u8, block_buffer::generic_array::GenericArrayImplOdd<u8, [u8; 0]>>" = type { %"block_buffer::generic_array::GenericArrayImplOdd<u8, [u8; 0]>", %"block_buffer::generic_array::GenericArrayImplOdd<u8, [u8; 0]>", i8 }
%"sha512::Engine512" = type { i128, %"block_buffer::BlockBuffer<block_buffer::generic_array::typenum::UInt<block_buffer::generic_array::typenum::UInt<block_buffer::generic_array::typenum::UInt<block_buffer::generic_array::typenum::UInt<block_buffer::generic_array::typenum::UInt<block_buffer::generic_array::typenum::UInt<block_buffer::generic_array::typenum::UInt<block_buffer::generic_array::typenum::UInt<block_buffer::generic_array::typenum::UTerm, digest::consts::B1>, digest::consts::B0>, digest::consts::B0>, digest::consts::B0>, digest::consts::B0>, digest::consts::B0>, digest::consts::B0>, digest::consts::B0>>", [8 x i64] }
%"sha512::Sha512" = type { %"sha512::Engine512" }
%"sha512::Sha384" = type { %"sha512::Engine512" }
%"block_buffer::generic_array::GenericArray<u8, block_buffer::generic_array::typenum::UInt<block_buffer::generic_array::typenum::UInt<block_buffer::generic_array::typenum::UInt<block_buffer::generic_array::typenum::UInt<block_buffer::generic_array::typenum::UInt<block_buffer::generic_array::typenum::UInt<block_buffer::generic_array::typenum::UTerm, digest::consts::B1>, digest::consts::B1>, digest::consts::B0>, digest::consts::B0>, digest::consts::B0>, digest::consts::B0>>" = type { %"block_buffer::generic_array::GenericArrayImplEven<u8, block_buffer::generic_array::GenericArrayImplEven<u8, block_buffer::generic_array::GenericArrayImplEven<u8, block_buffer::generic_array::GenericArrayImplEven<u8, block_buffer::generic_array::GenericArrayImplOdd<u8, block_buffer::generic_array::GenericArrayImplOdd<u8, [u8; 0]>>>>>>" }
%"block_buffer::generic_array::GenericArrayImplEven<u8, block_buffer::generic_array::GenericArrayImplEven<u8, block_buffer::generic_array::GenericArrayImplEven<u8, block_buffer::generic_array::GenericArrayImplEven<u8, block_buffer::generic_array::GenericArrayImplOdd<u8, block_buffer::generic_array::GenericArrayImplOdd<u8, [u8; 0]>>>>>>" = type { %"block_buffer::generic_array::GenericArrayImplEven<u8, block_buffer::generic_array::GenericArrayImplEven<u8, block_buffer::generic_array::GenericArrayImplEven<u8, block_buffer::generic_array::GenericArrayImplOdd<u8, block_buffer::generic_array::GenericArrayImplOdd<u8, [u8; 0]>>>>>", %"block_buffer::generic_array::GenericArrayImplEven<u8, block_buffer::generic_array::GenericArrayImplEven<u8, block_buffer::generic_array::GenericArrayImplEven<u8, block_buffer::generic_array::GenericArrayImplOdd<u8, block_buffer::generic_array::GenericArrayImplOdd<u8, [u8; 0]>>>>>", %"core::marker::PhantomData<u8>" }
%"block_buffer::generic_array::GenericArrayImplEven<u8, block_buffer::generic_array::GenericArrayImplEven<u8, block_buffer::generic_array::GenericArrayImplEven<u8, block_buffer::generic_array::GenericArrayImplOdd<u8, block_buffer::generic_array::GenericArrayImplOdd<u8, [u8; 0]>>>>>" = type { %"block_buffer::generic_array::GenericArrayImplEven<u8, block_buffer::generic_array::GenericArrayImplEven<u8, block_buffer::generic_array::GenericArrayImplOdd<u8, block_buffer::generic_array::GenericArrayImplOdd<u8, [u8; 0]>>>>", %"block_buffer::generic_array::GenericArrayImplEven<u8, block_buffer::generic_array::GenericArrayImplEven<u8, block_buffer::generic_array::GenericArrayImplOdd<u8, block_buffer::generic_array::GenericArrayImplOdd<u8, [u8; 0]>>>>", %"core::marker::PhantomData<u8>" }
%"block_buffer::generic_array::GenericArrayImplEven<u8, block_buffer::generic_array::GenericArrayImplEven<u8, block_buffer::generic_array::GenericArrayImplOdd<u8, block_buffer::generic_array::GenericArrayImplOdd<u8, [u8; 0]>>>>" = type { %"block_buffer::generic_array::GenericArrayImplEven<u8, block_buffer::generic_array::GenericArrayImplOdd<u8, block_buffer::generic_array::GenericArrayImplOdd<u8, [u8; 0]>>>", %"block_buffer::generic_array::GenericArrayImplEven<u8, block_buffer::generic_array::GenericArrayImplOdd<u8, block_buffer::generic_array::GenericArrayImplOdd<u8, [u8; 0]>>>", %"core::marker::PhantomData<u8>" }
%"block_buffer::generic_array::GenericArrayImplEven<u8, block_buffer::generic_array::GenericArrayImplOdd<u8, block_buffer::generic_array::GenericArrayImplOdd<u8, [u8; 0]>>>" = type { %"block_buffer::generic_array::GenericArrayImplOdd<u8, block_buffer::generic_array::GenericArrayImplOdd<u8, [u8; 0]>>", %"block_buffer::generic_array::GenericArrayImplOdd<u8, block_buffer::generic_array::GenericArrayImplOdd<u8, [u8; 0]>>", %"core::marker::PhantomData<u8>" }
%"sha512::Sha512Trunc256" = type { %"sha512::Engine512" }
%"sha512::Sha512Trunc224" = type { %"sha512::Engine512" }
%"core::result::Result<usize, std::io::Error>" = type { i64, [2 x i64] }
%"core::result::Result<usize, std::io::Error>::Ok" = type { [1 x i64], i64 }
%"core::result::Result<(), std::io::Error>" = type { i8, [15 x i8] }

@alloc850 = private unnamed_addr constant <{ [77 x i8] }> <{ [77 x i8] c"/home/runner/work/bpf-tools/bpf-tools/out/rust/library/core/src/slice/iter.rs" }>, align 1
@alloc787 = private unnamed_addr constant <{ i8*, [16 x i8] }> <{ i8* getelementptr inbounds (<{ [77 x i8] }>, <{ [77 x i8] }>* @alloc850, i32 0, i32 0, i32 0), [16 x i8] c"M\00\00\00\00\00\00\00h\07\00\00\11\00\00\00" }>, align 8
@str.0 = internal constant [25 x i8] c"attempt to divide by zero"
@alloc788 = private unnamed_addr constant <{ [90 x i8] }> <{ [90 x i8] c"/home/runner/work/bpf-tools/bpf-tools/out/rust/library/core/src/iter/adapters/enumerate.rs" }>, align 1
@alloc789 = private unnamed_addr constant <{ i8*, [16 x i8] }> <{ i8* getelementptr inbounds (<{ [90 x i8] }>, <{ [90 x i8] }>* @alloc788, i32 0, i32 0, i32 0), [16 x i8] c"Z\00\00\00\00\00\00\00k\00\00\00\11\00\00\00" }>, align 8
@str.1 = internal constant [28 x i8] c"attempt to add with overflow"
@alloc824 = private unnamed_addr constant <{ [94 x i8] }> <{ [94 x i8] c"/home/seaceved/.cargo/registry/src/github.com-1ecc6299db9ec823/generic-array-0.14.5/src/lib.rs" }>, align 1
@alloc791 = private unnamed_addr constant <{ i8*, [16 x i8] }> <{ i8* getelementptr inbounds (<{ [94 x i8] }>, <{ [94 x i8] }>* @alloc824, i32 0, i32 0, i32 0), [16 x i8] c"^\00\00\00\00\00\00\00\82\01\00\00\15\00\00\00" }>, align 8
@alloc822 = private unnamed_addr constant <{ [92 x i8] }> <{ [92 x i8] c"/home/seaceved/.cargo/registry/src/github.com-1ecc6299db9ec823/block-buffer-0.9.0/src/lib.rs" }>, align 1
@alloc793 = private unnamed_addr constant <{ i8*, [16 x i8] }> <{ i8* getelementptr inbounds (<{ [92 x i8] }>, <{ [92 x i8] }>* @alloc822, i32 0, i32 0, i32 0), [16 x i8] c"\\\00\00\00\00\00\00\00\84\00\00\00\09\00\00\00" }>, align 8
@alloc795 = private unnamed_addr constant <{ i8*, [16 x i8] }> <{ i8* getelementptr inbounds (<{ [92 x i8] }>, <{ [92 x i8] }>* @alloc822, i32 0, i32 0, i32 0), [16 x i8] c"\\\00\00\00\00\00\00\00\85\00\00\00\09\00\00\00" }>, align 8
@alloc797 = private unnamed_addr constant <{ i8*, [16 x i8] }> <{ i8* getelementptr inbounds (<{ [92 x i8] }>, <{ [92 x i8] }>* @alloc822, i32 0, i32 0, i32 0), [16 x i8] c"\\\00\00\00\00\00\00\00\87\00\00\00\17\00\00\00" }>, align 8
@alloc799 = private unnamed_addr constant <{ i8*, [16 x i8] }> <{ i8* getelementptr inbounds (<{ [92 x i8] }>, <{ [92 x i8] }>* @alloc822, i32 0, i32 0, i32 0), [16 x i8] c"\\\00\00\00\00\00\00\00\8B\00\00\00\1B\00\00\00" }>, align 8
@alloc801 = private unnamed_addr constant <{ i8*, [16 x i8] }> <{ i8* getelementptr inbounds (<{ [92 x i8] }>, <{ [92 x i8] }>* @alloc822, i32 0, i32 0, i32 0), [16 x i8] c"\\\00\00\00\00\00\00\00:\00\00\00#\00\00\00" }>, align 8
@alloc803 = private unnamed_addr constant <{ i8*, [16 x i8] }> <{ i8* getelementptr inbounds (<{ [92 x i8] }>, <{ [92 x i8] }>* @alloc822, i32 0, i32 0, i32 0), [16 x i8] c"\\\00\00\00\00\00\00\00:\00\00\00\0D\00\00\00" }>, align 8
@alloc805 = private unnamed_addr constant <{ i8*, [16 x i8] }> <{ i8* getelementptr inbounds (<{ [92 x i8] }>, <{ [92 x i8] }>* @alloc822, i32 0, i32 0, i32 0), [16 x i8] c"\\\00\00\00\00\00\00\00;\00\00\00\0D\00\00\00" }>, align 8
@alloc807 = private unnamed_addr constant <{ i8*, [16 x i8] }> <{ i8* getelementptr inbounds (<{ [92 x i8] }>, <{ [92 x i8] }>* @alloc822, i32 0, i32 0, i32 0), [16 x i8] c"\\\00\00\00\00\00\00\00A\00\00\00\0D\00\00\00" }>, align 8
@alloc809 = private unnamed_addr constant <{ i8*, [16 x i8] }> <{ i8* getelementptr inbounds (<{ [92 x i8] }>, <{ [92 x i8] }>* @alloc822, i32 0, i32 0, i32 0), [16 x i8] c"\\\00\00\00\00\00\00\00H\00\00\00\18\00\00\00" }>, align 8
@alloc811 = private unnamed_addr constant <{ i8*, [16 x i8] }> <{ i8* getelementptr inbounds (<{ [92 x i8] }>, <{ [92 x i8] }>* @alloc822, i32 0, i32 0, i32 0), [16 x i8] c"\\\00\00\00\00\00\00\00I\00\00\00,\00\00\00" }>, align 8
@str.2 = internal constant [33 x i8] c"attempt to multiply with overflow"
@alloc813 = private unnamed_addr constant <{ i8*, [16 x i8] }> <{ i8* getelementptr inbounds (<{ [92 x i8] }>, <{ [92 x i8] }>* @alloc822, i32 0, i32 0, i32 0), [16 x i8] c"\\\00\00\00\00\00\00\00U\00\00\00\09\00\00\00" }>, align 8
@alloc815 = private unnamed_addr constant <{ i8*, [16 x i8] }> <{ i8* getelementptr inbounds (<{ [92 x i8] }>, <{ [92 x i8] }>* @alloc822, i32 0, i32 0, i32 0), [16 x i8] c"\\\00\00\00\00\00\00\00\97\00\00\00\11\00\00\00" }>, align 8
@str.3 = internal constant [33 x i8] c"attempt to subtract with overflow"
@alloc817 = private unnamed_addr constant <{ i8*, [16 x i8] }> <{ i8* getelementptr inbounds (<{ [92 x i8] }>, <{ [92 x i8] }>* @alloc822, i32 0, i32 0, i32 0), [16 x i8] c"\\\00\00\00\00\00\00\00\98\00\00\00\09\00\00\00" }>, align 8
@alloc819 = private unnamed_addr constant <{ i8*, [16 x i8] }> <{ i8* getelementptr inbounds (<{ [92 x i8] }>, <{ [92 x i8] }>* @alloc822, i32 0, i32 0, i32 0), [16 x i8] c"\\\00\00\00\00\00\00\00\B3\00\00\00\11\00\00\00" }>, align 8
@alloc821 = private unnamed_addr constant <{ i8*, [16 x i8] }> <{ i8* getelementptr inbounds (<{ [92 x i8] }>, <{ [92 x i8] }>* @alloc822, i32 0, i32 0, i32 0), [16 x i8] c"\\\00\00\00\00\00\00\00\B4\00\00\00\09\00\00\00" }>, align 8
@alloc823 = private unnamed_addr constant <{ i8*, [16 x i8] }> <{ i8* getelementptr inbounds (<{ [92 x i8] }>, <{ [92 x i8] }>* @alloc822, i32 0, i32 0, i32 0), [16 x i8] c"\\\00\00\00\00\00\00\00\D6\00\00\00\09\00\00\00" }>, align 8
@alloc825 = private unnamed_addr constant <{ i8*, [16 x i8] }> <{ i8* getelementptr inbounds (<{ [94 x i8] }>, <{ [94 x i8] }>* @alloc824, i32 0, i32 0, i32 0), [16 x i8] c"^\00\00\00\00\00\00\00\F1\00\00\00\0F\00\00\00" }>, align 8
@alloc826 = private unnamed_addr constant <{ [12 x i8] }> <{ [12 x i8] c"invalid args" }>, align 1
@alloc827 = private unnamed_addr constant <{ [74 x i8] }> <{ [74 x i8] c"/home/runner/work/bpf-tools/bpf-tools/out/rust/library/core/src/fmt/mod.rs" }>, align 1
@alloc828 = private unnamed_addr constant <{ i8*, [16 x i8] }> <{ i8* getelementptr inbounds (<{ [74 x i8] }>, <{ [74 x i8] }>* @alloc827, i32 0, i32 0, i32 0), [16 x i8] c"J\00\00\00\00\00\00\00c\01\00\00\0D\00\00\00" }>, align 8
@alloc829 = private unnamed_addr constant <{ [74 x i8] }> <{ [74 x i8] c"/home/runner/work/bpf-tools/bpf-tools/out/rust/library/core/src/ptr/mod.rs" }>, align 1
@alloc830 = private unnamed_addr constant <{ i8*, [16 x i8] }> <{ i8* getelementptr inbounds (<{ [74 x i8] }>, <{ [74 x i8] }>* @alloc829, i32 0, i32 0, i32 0), [16 x i8] c"J\00\00\00\00\00\00\00\BC\02\00\00\0D\00\00\00" }>, align 8
@alloc653 = private unnamed_addr constant <{ [8 x i8] }> zeroinitializer, align 8
@alloc836 = private unnamed_addr constant <{ [76 x i8] }> <{ [76 x i8] c"/home/runner/work/bpf-tools/bpf-tools/out/rust/library/core/src/slice/mod.rs" }>, align 1
@alloc832 = private unnamed_addr constant <{ i8*, [16 x i8] }> <{ i8* getelementptr inbounds (<{ [76 x i8] }>, <{ [76 x i8] }>* @alloc836, i32 0, i32 0, i32 0), [16 x i8] c"L\00\00\00\00\00\00\00_\03\00\00\09\00\00\00" }>, align 8
@alloc834 = private unnamed_addr constant <{ i8*, [16 x i8] }> <{ i8* getelementptr inbounds (<{ [76 x i8] }>, <{ [76 x i8] }>* @alloc836, i32 0, i32 0, i32 0), [16 x i8] c"L\00\00\00\00\00\00\00\89\03\00\00\09\00\00\00" }>, align 8
@alloc835 = private unnamed_addr constant <{ [35 x i8] }> <{ [35 x i8] c"assertion failed: mid <= self.len()" }>, align 1
@alloc837 = private unnamed_addr constant <{ i8*, [16 x i8] }> <{ i8* getelementptr inbounds (<{ [76 x i8] }>, <{ [76 x i8] }>* @alloc836, i32 0, i32 0, i32 0), [16 x i8] c"L\00\00\00\00\00\00\00\E1\05\00\00\09\00\00\00" }>, align 8
@alloc839 = private unnamed_addr constant <{ i8*, [16 x i8] }> <{ i8* getelementptr inbounds (<{ [77 x i8] }>, <{ [77 x i8] }>* @alloc850, i32 0, i32 0, i32 0), [16 x i8] c"M\00\00\00\00\00\00\00\A8\06\00\00\13\00\00\00" }>, align 8
@str.4 = internal constant [57 x i8] c"attempt to calculate the remainder with a divisor of zero"
@alloc841 = private unnamed_addr constant <{ i8*, [16 x i8] }> <{ i8* getelementptr inbounds (<{ [77 x i8] }>, <{ [77 x i8] }>* @alloc850, i32 0, i32 0, i32 0), [16 x i8] c"M\00\00\00\00\00\00\00F\07\00\00\13\00\00\00" }>, align 8
@alloc846 = private unnamed_addr constant <{ [43 x i8] }> <{ [43 x i8] c"called `Result::unwrap()` on an `Err` value" }>, align 1
@vtable.5 = private unnamed_addr constant <{ i8*, [16 x i8], i8*, [0 x i8] }> <{ i8* bitcast (void (%"core::array::TryFromSliceError"*)* @"_ZN4core3ptr51drop_in_place$LT$core..array..TryFromSliceError$GT$17hcc2de3de013a6772E" to i8*), [16 x i8] c"\00\00\00\00\00\00\00\00\01\00\00\00\00\00\00\00", i8* bitcast (i1 (%"core::array::TryFromSliceError"*, %"core::fmt::Formatter"*)* @"_ZN67_$LT$core..array..TryFromSliceError$u20$as$u20$core..fmt..Debug$GT$3fmt17hf76d34ae020e321eE" to i8*), [0 x i8] zeroinitializer }>, align 8, !dbg !0
@vtable.6 = private unnamed_addr constant <{ i8*, [16 x i8], i8*, [0 x i8] }> <{ i8* bitcast (void (i64**)* @"_ZN4core3ptr30drop_in_place$LT$$RF$usize$GT$17hf78dee4a9c067b45E" to i8*), [16 x i8] c"\08\00\00\00\00\00\00\00\08\00\00\00\00\00\00\00", i8* bitcast (i1 (i64**, %"core::fmt::Formatter"*)* @"_ZN42_$LT$$RF$T$u20$as$u20$core..fmt..Debug$GT$3fmt17h6f9c940a3e0639a6E" to i8*), [0 x i8] zeroinitializer }>, align 8, !dbg !11
@alloc851 = private unnamed_addr constant <{ i8*, [16 x i8] }> <{ i8* getelementptr inbounds (<{ [77 x i8] }>, <{ [77 x i8] }>* @alloc850, i32 0, i32 0, i32 0), [16 x i8] c"M\00\00\00\00\00\00\00\D1\06\00\00\11\00\00\00" }>, align 8
@_ZN4sha26consts4H22417h5ca3aa96142d80faE = internal constant <{ [32 x i8] }> <{ [32 x i8] c"\D8\9E\05\C1\07\D5|6\17\DDp09Y\0E\F71\0B\C0\FF\11\15Xh\A7\8F\F9d\A4O\FA\BE" }>, align 4, !dbg !16
@_ZN4sha26consts4H25617h12626df96d8ebc6cE = internal constant <{ [32 x i8] }> <{ [32 x i8] c"g\E6\09j\85\AEg\BBr\F3n<:\F5O\A5\7FR\0EQ\8Ch\05\9B\AB\D9\83\1F\19\CD\E0[" }>, align 4, !dbg !25
@_ZN4sha26consts4H38417h6e0fd2bb6f11e788E = internal constant <{ [64 x i8] }> <{ [64 x i8] c"\D8\9E\05\C1]\9D\BB\CB\07\D5|6*)\9Ab\17\DDp0Z\01Y\919Y\0E\F7\D8\EC/\151\0B\C0\FFg&3g\11\15Xh\87J\B4\8E\A7\8F\F9d\0D.\0C\DB\A4O\FA\BE\1DH\B5G" }>, align 8, !dbg !27
@_ZN4sha26consts4H51217h4e67a54cad26234cE = internal constant <{ [64 x i8] }> <{ [64 x i8] c"\08\C9\BC\F3g\E6\09j;\A7\CA\84\85\AEg\BB+\F8\94\FEr\F3n<\F16\1D_:\F5O\A5\D1\82\E6\AD\7FR\0EQ\1Fl>+\8Ch\05\9Bk\BDA\FB\AB\D9\83\1Fy!~\13\19\CD\E0[" }>, align 8, !dbg !31
@_ZN4sha26consts14H512_TRUNC_22417h06175ad3b57e2998E = internal constant <{ [64 x i8] }> <{ [64 x i8] c"\A2MT\19\C87=\8C\D6\D4\DC\89f\99\E1s\82\9C\FF2\AE\B7\FA\1D\CF\9F/X\14\D5\9Dg\A8M\D4{i+m\0FB\89\C4\04so\E3w\C86\1Dj\A8\85\9D?\A1\92\D6\91\AD\E6\12\11" }>, align 8, !dbg !33
@_ZN4sha26consts14H512_TRUNC_25617hfebffb8351cfe773E = internal constant <{ [64 x i8] }> <{ [64 x i8] c",\F7+\FC\94!1\22\C2dL\C8\A3_U\9FQ\B1Sok\B8\93#\BD\EA@Y\19w8\96\E3\FF\8E\A8\E2>(\96\929\86S%\1E^\BE\AA\B8\85,\FC\99\01+\A2,\C5\81\DC-\B7\0E" }>, align 8, !dbg !35
@alloc854 = private unnamed_addr constant <{ [87 x i8] }> <{ [87 x i8] c"/home/seaceved/.cargo/registry/src/github.com-1ecc6299db9ec823/sha2-0.9.9/src/sha256.rs" }>, align 1
@alloc853 = private unnamed_addr constant <{ i8*, [16 x i8] }> <{ i8* getelementptr inbounds (<{ [87 x i8] }>, <{ [87 x i8] }>* @alloc854, i32 0, i32 0, i32 0), [16 x i8] c"W\00\00\00\00\00\00\00\1F\00\00\00\09\00\00\00" }>, align 8
@alloc855 = private unnamed_addr constant <{ i8*, [16 x i8] }> <{ i8* getelementptr inbounds (<{ [87 x i8] }>, <{ [87 x i8] }>* @alloc854, i32 0, i32 0, i32 0), [16 x i8] c"W\00\00\00\00\00\00\00z\00\00\00\12\00\00\00" }>, align 8
@alloc866 = private unnamed_addr constant <{ [87 x i8] }> <{ [87 x i8] c"/home/seaceved/.cargo/registry/src/github.com-1ecc6299db9ec823/sha2-0.9.9/src/sha512.rs" }>, align 1
@alloc857 = private unnamed_addr constant <{ i8*, [16 x i8] }> <{ i8* getelementptr inbounds (<{ [87 x i8] }>, <{ [87 x i8] }>* @alloc866, i32 0, i32 0, i32 0), [16 x i8] c"W\00\00\00\00\00\00\00\1E\00\00\00\09\00\00\00" }>, align 8
@alloc859 = private unnamed_addr constant <{ i8*, [16 x i8] }> <{ i8* getelementptr inbounds (<{ [87 x i8] }>, <{ [87 x i8] }>* @alloc866, i32 0, i32 0, i32 0), [16 x i8] c"W\00\00\00\00\00\00\00x\00\00\00\12\00\00\00" }>, align 8
@alloc861 = private unnamed_addr constant <{ i8*, [16 x i8] }> <{ i8* getelementptr inbounds (<{ [87 x i8] }>, <{ [87 x i8] }>* @alloc866, i32 0, i32 0, i32 0), [16 x i8] c"W\00\00\00\00\00\00\00\A3\00\00\00\12\00\00\00" }>, align 8
@alloc863 = private unnamed_addr constant <{ i8*, [16 x i8] }> <{ i8* getelementptr inbounds (<{ [87 x i8] }>, <{ [87 x i8] }>* @alloc866, i32 0, i32 0, i32 0), [16 x i8] c"W\00\00\00\00\00\00\00\CF\00\00\007\00\00\00" }>, align 8
@alloc865 = private unnamed_addr constant <{ i8*, [16 x i8] }> <{ i8* getelementptr inbounds (<{ [87 x i8] }>, <{ [87 x i8] }>* @alloc866, i32 0, i32 0, i32 0), [16 x i8] c"W\00\00\00\00\00\00\00\D2\00\00\00\09\00\00\00" }>, align 8
@alloc867 = private unnamed_addr constant <{ i8*, [16 x i8] }> <{ i8* getelementptr inbounds (<{ [87 x i8] }>, <{ [87 x i8] }>* @alloc866, i32 0, i32 0, i32 0), [16 x i8] c"W\00\00\00\00\00\00\00\D2\00\00\00&\00\00\00" }>, align 8
@alloc753 = private unnamed_addr constant <{ [0 x i8] }> zeroinitializer, align 8
@alloc715 = private unnamed_addr constant <{ [14 x i8] }> <{ [14 x i8] c"Sha224 { ... }" }>, align 1
@alloc716 = private unnamed_addr constant <{ i8*, [8 x i8] }> <{ i8* getelementptr inbounds (<{ [14 x i8] }>, <{ [14 x i8] }>* @alloc715, i32 0, i32 0, i32 0), [8 x i8] c"\0E\00\00\00\00\00\00\00" }>, align 8
@alloc721 = private unnamed_addr constant <{ [14 x i8] }> <{ [14 x i8] c"Sha256 { ... }" }>, align 1
@alloc722 = private unnamed_addr constant <{ i8*, [8 x i8] }> <{ i8* getelementptr inbounds (<{ [14 x i8] }>, <{ [14 x i8] }>* @alloc721, i32 0, i32 0, i32 0), [8 x i8] c"\0E\00\00\00\00\00\00\00" }>, align 8
@alloc884 = private unnamed_addr constant <{ [92 x i8] }> <{ [92 x i8] c"/home/seaceved/.cargo/registry/src/github.com-1ecc6299db9ec823/sha2-0.9.9/src/sha256/soft.rs" }>, align 1
@alloc869 = private unnamed_addr constant <{ i8*, [16 x i8] }> <{ i8* getelementptr inbounds (<{ [92 x i8] }>, <{ [92 x i8] }>* @alloc884, i32 0, i32 0, i32 0), [16 x i8] c"\\\00\00\00\00\00\00\00\07\00\00\00\06\00\00\00" }>, align 8
@str.7 = internal constant [36 x i8] c"attempt to shift right with overflow"
@alloc871 = private unnamed_addr constant <{ i8*, [16 x i8] }> <{ i8* getelementptr inbounds (<{ [92 x i8] }>, <{ [92 x i8] }>* @alloc884, i32 0, i32 0, i32 0), [16 x i8] c"\\\00\00\00\00\00\00\00\07\00\00\00\11\00\00\00" }>, align 8
@alloc873 = private unnamed_addr constant <{ i8*, [16 x i8] }> <{ i8* getelementptr inbounds (<{ [92 x i8] }>, <{ [92 x i8] }>* @alloc884, i32 0, i32 0, i32 0), [16 x i8] c"\\\00\00\00\00\00\00\00\07\00\00\00\1C\00\00\00" }>, align 8
@alloc875 = private unnamed_addr constant <{ i8*, [16 x i8] }> <{ i8* getelementptr inbounds (<{ [92 x i8] }>, <{ [92 x i8] }>* @alloc884, i32 0, i32 0, i32 0), [16 x i8] c"\\\00\00\00\00\00\00\00\07\00\00\00'\00\00\00" }>, align 8
@alloc877 = private unnamed_addr constant <{ i8*, [16 x i8] }> <{ i8* getelementptr inbounds (<{ [92 x i8] }>, <{ [92 x i8] }>* @alloc884, i32 0, i32 0, i32 0), [16 x i8] c"\\\00\00\00\00\00\00\00\0C\00\00\00\06\00\00\00" }>, align 8
@str.8 = internal constant [35 x i8] c"attempt to shift left with overflow"
@alloc879 = private unnamed_addr constant <{ i8*, [16 x i8] }> <{ i8* getelementptr inbounds (<{ [92 x i8] }>, <{ [92 x i8] }>* @alloc884, i32 0, i32 0, i32 0), [16 x i8] c"\\\00\00\00\00\00\00\00\0C\00\00\00\11\00\00\00" }>, align 8
@alloc881 = private unnamed_addr constant <{ i8*, [16 x i8] }> <{ i8* getelementptr inbounds (<{ [92 x i8] }>, <{ [92 x i8] }>* @alloc884, i32 0, i32 0, i32 0), [16 x i8] c"\\\00\00\00\00\00\00\00\0C\00\00\00\1C\00\00\00" }>, align 8
@alloc883 = private unnamed_addr constant <{ i8*, [16 x i8] }> <{ i8* getelementptr inbounds (<{ [92 x i8] }>, <{ [92 x i8] }>* @alloc884, i32 0, i32 0, i32 0), [16 x i8] c"\\\00\00\00\00\00\00\00\0C\00\00\00'\00\00\00" }>, align 8
@0 = private unnamed_addr constant <{ [256 x i8] }> <{ [256 x i8] c"\A5\DB\B5\E9\CF\FB\C0\B5\91D7q\98/\8AB\D5^\1C\AB\A4\82?\92\F1\11\F1Y[\C2V9\C3}\0CU\BE\851$\01[\83\12\98\AA\07\D8t\F1\9B\C1\A7\06\DC\9B\FE\B1\DE\80t]\BEr\CC\A1\0C$\C6\9D\C1\0F\86G\BE\EF\C1i\9B\E4\DA\88\F9v\DC\A9\B0\\\AA\84tJo,\E9-\C7\7FY\BF\C8'\03\B0m\C61\A8RQ>\98g))\14Qc\CA\06G\91\A7\D5\F3\0B\E0\C6\13\0D8S\FCm,M8!\1B.\85\0A\B7'\85,r\92.\C9\C2\81\BB\0AjvTs\0Ae\A3Ql\C7p\8BK\C2Kf\1A\A8\A1\E8\BF\A2p\A0j\10\855\0E\F4$\06\99\D6\19\E8\92\D1\B5\BC\B04LwH'\08l7\1E\16\C1\A4\19\F3o.hO\CA\9C[J\AA\D8N\B3\0C\1C9\08\02\C7\8C\14x\C8\84oc\A5x\EE\82\8Ft\F2xq\C6\F7\A3\F9\BE\EBlP\A4\FA\FF\BE\90" }>, align 4
@alloc885 = private unnamed_addr constant <{ i8*, [16 x i8] }> <{ i8* getelementptr inbounds (<{ [92 x i8] }>, <{ [92 x i8] }>* @alloc884, i32 0, i32 0, i32 0), [16 x i8] c"\\\00\00\00\00\00\00\00\D5\00\00\006\00\00\00" }>, align 8
@alloc737 = private unnamed_addr constant <{ [14 x i8] }> <{ [14 x i8] c"Sha384 { ... }" }>, align 1
@alloc738 = private unnamed_addr constant <{ i8*, [8 x i8] }> <{ i8* getelementptr inbounds (<{ [14 x i8] }>, <{ [14 x i8] }>* @alloc737, i32 0, i32 0, i32 0), [8 x i8] c"\0E\00\00\00\00\00\00\00" }>, align 8
@alloc743 = private unnamed_addr constant <{ [14 x i8] }> <{ [14 x i8] c"Sha512 { ... }" }>, align 1
@alloc744 = private unnamed_addr constant <{ i8*, [8 x i8] }> <{ i8* getelementptr inbounds (<{ [14 x i8] }>, <{ [14 x i8] }>* @alloc743, i32 0, i32 0, i32 0), [8 x i8] c"\0E\00\00\00\00\00\00\00" }>, align 8
@alloc749 = private unnamed_addr constant <{ [22 x i8] }> <{ [22 x i8] c"Sha512Trunc224 { ... }" }>, align 1
@alloc750 = private unnamed_addr constant <{ i8*, [8 x i8] }> <{ i8* getelementptr inbounds (<{ [22 x i8] }>, <{ [22 x i8] }>* @alloc749, i32 0, i32 0, i32 0), [8 x i8] c"\16\00\00\00\00\00\00\00" }>, align 8
@alloc755 = private unnamed_addr constant <{ [22 x i8] }> <{ [22 x i8] c"Sha512Trunc256 { ... }" }>, align 1
@alloc756 = private unnamed_addr constant <{ i8*, [8 x i8] }> <{ i8* getelementptr inbounds (<{ [22 x i8] }>, <{ [22 x i8] }>* @alloc755, i32 0, i32 0, i32 0), [8 x i8] c"\16\00\00\00\00\00\00\00" }>, align 8
@alloc667 = private unnamed_addr constant <{ [640 x i8] }> <{ [640 x i8] c"\CDe\EF#\91D7q\22\AE(\D7\98/\8AB\BC\DB\89\81\A5\DB\B5\E9/;M\EC\CF\FB\C0\B5\19\D0\05\B6\F1\11\F1Y8\B5H\F3[\C2V9\18\81m\DA\D5^\1C\AB\9BO\19\AF\A4\82?\92\BEopE\01[\83\12B\02\03\A3\98\AA\07\D8\E2\B4\FF\D5\C3}\0CU\8C\B2\E4N\BE\851$\B1\96\16;\FE\B1\DE\80o\89{\F2t]\BEr\94&i\CFt\F1\9B\C15\12\C7%\A7\06\DC\9B\E3%O8\86G\BE\EF\D2J\F1\9E\C1i\9B\E4e\9C\ACw\CC\A1\0C$\B5\D5\8C\8B\C6\9D\C1\0F\83\E4\A6n\AA\84tJu\02+Yo,\E9-\B5S\11\83\DA\88\F9v\D4\FBA\BD\DC\A9\B0\\\102\B4-m\C61\A8\AB\DFf\EERQ>\98\E4\0E\EF\BE\C7\7FY\BF?!\FB\98\C8'\03\B0%\A7\0A\93G\91\A7\D5\C2\8F\A8=\F3\0B\E0\C6pn\0E\0Ag))\14o\82\03\E0Qc\CA\06&\C9&\\8!\1B.\FC/\D2F\85\0A\B7'\DF\B3\95\9D\13\0D8S\ED*\C4Z\FCm,M\A8\B2w<\BB\0Ajv\DEc\AF\8BTs\0Ae;5\82\14\85,r\92\E6\AE\EDG.\C9\C2\81\010B\BCKf\1A\A8d\03\F1L\A1\E8\BF\A20\BET\06\A3Ql\C7\91\97\F8\D0p\8BK\C2\10\A9eU$\06\99\D6\18R\EF\D6\19\E8\92\D1\B8\D1\BB2p\A0j\10* qW\855\0E\F4S\ABAQ\08l7\1E\C8\D0\D2\B8\16\C1\A4\19\A8H\9B\E1\B5\BC\B04\99\EB\8E\DFLwH'\CB\8AA\E3J\AA\D8NcZ\C9\C5\B3\0C\1C9\A3\B8\B2\D6\F3o.hs\E3cwO\CA\9C[`/\17Coc\A5x\FC\B2\EF]\EE\82\8Ft\EC9d\1A\08\02\C7\8Cr\AB\F0\A1\14x\C8\84\E9\BD\82\DE\EBlP\A4(\1Ec#\FA\FF\BE\90+Sr\E3\F2xq\C6\15y\C6\B2\F7\A3\F9\BE\07\C2\C0!\C7\B8\86\D1\9Ca&\EA\CE>'\CAx\D1n\EE\7FO}\F5\1E\EB\E0\CD\D6}\DA\EA\A6\98\C8\A2\C5}c\0A\BAo\17r\AAg\F0\06\1BG\1C\135\0Bq\1B\AE\0D\F9\BE\04\98?\11\93$\C7@{\AB\CA2\84}\04#\F5w\DB(L\0D\10\9C\C4g\1DC\BC\BE\C9\15\0A\BE\9E<*~e\FC\9C)\7FY\B6B>\CB\BE\D4\C5L\17XGJ\8C\19Dl\EC\FA\D6:\ABo\CB_" }>, align 8
@alloc886 = private unnamed_addr constant <{ [92 x i8] }> <{ [92 x i8] c"/home/seaceved/.cargo/registry/src/github.com-1ecc6299db9ec823/sha2-0.9.9/src/sha512/soft.rs" }>, align 1
@alloc887 = private unnamed_addr constant <{ i8*, [16 x i8] }> <{ i8* getelementptr inbounds (<{ [92 x i8] }>, <{ [92 x i8] }>* @alloc886, i32 0, i32 0, i32 0), [16 x i8] c"\\\00\00\00\00\00\00\00\D2\00\00\006\00\00\00" }>, align 8

; <core::slice::iter::ChunksExactMut<T> as core::iter::traits::iterator::Iterator>::__iterator_get_unchecked
; Function Attrs: nounwind
define { [0 x i8]*, i64 } @"_ZN101_$LT$core..slice..iter..ChunksExactMut$LT$T$GT$$u20$as$u20$core..iter..traits..iterator..Iterator$GT$24__iterator_get_unchecked17h8051747ad29c6820E"(%"core::slice::ChunksExactMut<u8>"* align 8 dereferenceable(40) %self, i64 %idx) unnamed_addr #0 !dbg !117 {
start:
  %0 = alloca i8*, align 8
  %count.dbg.spill.i.i = alloca i64, align 8
  %self.dbg.spill.i.i = alloca i8*, align 8
  %count.dbg.spill.i = alloca i64, align 8
  %self.dbg.spill.i = alloca i8*, align 8
  %start.dbg.spill = alloca i64, align 8
  %idx.dbg.spill = alloca i64, align 8
  %self.dbg.spill = alloca %"core::slice::ChunksExactMut<u8>"*, align 8
  store %"core::slice::ChunksExactMut<u8>"* %self, %"core::slice::ChunksExactMut<u8>"** %self.dbg.spill, align 8
  call void @llvm.dbg.declare(metadata %"core::slice::ChunksExactMut<u8>"** %self.dbg.spill, metadata !138, metadata !DIExpression()), !dbg !142
  store i64 %idx, i64* %idx.dbg.spill, align 8
  call void @llvm.dbg.declare(metadata i64* %idx.dbg.spill, metadata !139, metadata !DIExpression()), !dbg !143
  %1 = getelementptr inbounds %"core::slice::ChunksExactMut<u8>", %"core::slice::ChunksExactMut<u8>"* %self, i32 0, i32 2, !dbg !144
  %_6 = load i64, i64* %1, align 8, !dbg !144
  %start1 = mul i64 %idx, %_6, !dbg !145
  store i64 %start1, i64* %start.dbg.spill, align 8, !dbg !145
  call void @llvm.dbg.declare(metadata i64* %start.dbg.spill, metadata !140, metadata !DIExpression()), !dbg !146
  %2 = bitcast %"core::slice::ChunksExactMut<u8>"* %self to { [0 x i8]*, i64 }*, !dbg !147
  %3 = getelementptr inbounds { [0 x i8]*, i64 }, { [0 x i8]*, i64 }* %2, i32 0, i32 0, !dbg !147
  %_11.0 = load [0 x i8]*, [0 x i8]** %3, align 8, !dbg !147, !nonnull !4
  %4 = getelementptr inbounds { [0 x i8]*, i64 }, { [0 x i8]*, i64 }* %2, i32 0, i32 1, !dbg !147
  %_11.1 = load i64, i64* %4, align 8, !dbg !147
; call core::slice::<impl [T]>::as_mut_ptr
  %_10 = call i8* @"_ZN4core5slice29_$LT$impl$u20$$u5b$T$u5d$$GT$10as_mut_ptr17h19992e92d85108bcE"([0 x i8]* nonnull align 1 %_11.0, i64 %_11.1), !dbg !147
  br label %bb1, !dbg !147

bb1:                                              ; preds = %start
  store i8* %_10, i8** %self.dbg.spill.i, align 8
  call void @llvm.dbg.declare(metadata i8** %self.dbg.spill.i, metadata !148, metadata !DIExpression()), !dbg !159
  store i64 %start1, i64* %count.dbg.spill.i, align 8
  call void @llvm.dbg.declare(metadata i64* %count.dbg.spill.i, metadata !158, metadata !DIExpression()), !dbg !161
  store i8* %_10, i8** %self.dbg.spill.i.i, align 8
  call void @llvm.dbg.declare(metadata i8** %self.dbg.spill.i.i, metadata !162, metadata !DIExpression()), !dbg !169
  store i64 %start1, i64* %count.dbg.spill.i.i, align 8
  call void @llvm.dbg.declare(metadata i64* %count.dbg.spill.i.i, metadata !168, metadata !DIExpression()), !dbg !171
  %5 = getelementptr inbounds i8, i8* %_10, i64 %start1, !dbg !172
  store i8* %5, i8** %0, align 8, !dbg !172
  %_3.i.i = load i8*, i8** %0, align 8, !dbg !172
  br label %bb2, !dbg !147

bb2:                                              ; preds = %bb1
  %6 = getelementptr inbounds %"core::slice::ChunksExactMut<u8>", %"core::slice::ChunksExactMut<u8>"* %self, i32 0, i32 2, !dbg !173
  %_13 = load i64, i64* %6, align 8, !dbg !173
; call core::slice::raw::from_raw_parts_mut
  %7 = call { [0 x i8]*, i64 } @_ZN4core5slice3raw18from_raw_parts_mut17h067154b95b2046f0E(i8* %_3.i.i, i64 %_13), !dbg !174
  %_8.0 = extractvalue { [0 x i8]*, i64 } %7, 0, !dbg !174
  %_8.1 = extractvalue { [0 x i8]*, i64 } %7, 1, !dbg !174
  br label %bb3, !dbg !174

bb3:                                              ; preds = %bb2
  %8 = insertvalue { [0 x i8]*, i64 } undef, [0 x i8]* %_8.0, 0, !dbg !175
  %9 = insertvalue { [0 x i8]*, i64 } %8, i64 %_8.1, 1, !dbg !175
  ret { [0 x i8]*, i64 } %9, !dbg !175
}

; <core::slice::iter::ChunksExactMut<T> as core::iter::traits::iterator::Iterator>::size_hint
; Function Attrs: inlinehint nounwind
define void @"_ZN101_$LT$core..slice..iter..ChunksExactMut$LT$T$GT$$u20$as$u20$core..iter..traits..iterator..Iterator$GT$9size_hint17h52404d32cfedf695E"({ i64, { i64, i64 } }* noalias nocapture sret({ i64, { i64, i64 } }) dereferenceable(24) %0, %"core::slice::ChunksExactMut<u8>"* align 8 dereferenceable(40) %self) unnamed_addr #1 !dbg !176 {
start:
  %n.dbg.spill = alloca i64, align 8
  %self.dbg.spill = alloca %"core::slice::ChunksExactMut<u8>"*, align 8
  %_8 = alloca { i64, i64 }, align 8
  store %"core::slice::ChunksExactMut<u8>"* %self, %"core::slice::ChunksExactMut<u8>"** %self.dbg.spill, align 8
  call void @llvm.dbg.declare(metadata %"core::slice::ChunksExactMut<u8>"** %self.dbg.spill, metadata !199, metadata !DIExpression()), !dbg !202
  %1 = bitcast %"core::slice::ChunksExactMut<u8>"* %self to { [0 x i8]*, i64 }*, !dbg !203
  %2 = getelementptr inbounds { [0 x i8]*, i64 }, { [0 x i8]*, i64 }* %1, i32 0, i32 0, !dbg !203
  %_4.0 = load [0 x i8]*, [0 x i8]** %2, align 8, !dbg !203, !nonnull !4
  %3 = getelementptr inbounds { [0 x i8]*, i64 }, { [0 x i8]*, i64 }* %1, i32 0, i32 1, !dbg !203
  %_4.1 = load i64, i64* %3, align 8, !dbg !203
  %4 = getelementptr inbounds %"core::slice::ChunksExactMut<u8>", %"core::slice::ChunksExactMut<u8>"* %self, i32 0, i32 2, !dbg !204
  %_5 = load i64, i64* %4, align 8, !dbg !204
  %_6 = icmp eq i64 %_5, 0, !dbg !203
  %5 = call i1 @llvm.expect.i1(i1 %_6, i1 false), !dbg !203
  br i1 %5, label %panic, label %bb1, !dbg !203

bb1:                                              ; preds = %start
  %n = udiv i64 %_4.1, %_5, !dbg !203
  store i64 %n, i64* %n.dbg.spill, align 8, !dbg !203
  call void @llvm.dbg.declare(metadata i64* %n.dbg.spill, metadata !200, metadata !DIExpression()), !dbg !205
  %6 = bitcast { i64, i64 }* %_8 to %"core::option::Option<usize>::Some"*, !dbg !206
  %7 = getelementptr inbounds %"core::option::Option<usize>::Some", %"core::option::Option<usize>::Some"* %6, i32 0, i32 1, !dbg !206
  store i64 %n, i64* %7, align 8, !dbg !206
  %8 = bitcast { i64, i64 }* %_8 to i64*, !dbg !206
  store i64 1, i64* %8, align 8, !dbg !206
  %9 = bitcast { i64, { i64, i64 } }* %0 to i64*, !dbg !207
  store i64 %n, i64* %9, align 8, !dbg !207
  %10 = getelementptr inbounds { i64, { i64, i64 } }, { i64, { i64, i64 } }* %0, i32 0, i32 1, !dbg !207
  %11 = getelementptr inbounds { i64, i64 }, { i64, i64 }* %_8, i32 0, i32 0, !dbg !207
  %12 = load i64, i64* %11, align 8, !dbg !207, !range !208
  %13 = getelementptr inbounds { i64, i64 }, { i64, i64 }* %_8, i32 0, i32 1, !dbg !207
  %14 = load i64, i64* %13, align 8, !dbg !207
  %15 = getelementptr inbounds { i64, i64 }, { i64, i64 }* %10, i32 0, i32 0, !dbg !207
  store i64 %12, i64* %15, align 8, !dbg !207
  %16 = getelementptr inbounds { i64, i64 }, { i64, i64 }* %10, i32 0, i32 1, !dbg !207
  store i64 %14, i64* %16, align 8, !dbg !207
  ret void, !dbg !209

panic:                                            ; preds = %start
; call core::panicking::panic
  call void @_ZN4core9panicking5panic17h560e3e4b7752857aE([0 x i8]* nonnull align 1 bitcast ([25 x i8]* @str.0 to [0 x i8]*), i64 25, %"core::panic::Location"* align 8 dereferenceable(24) bitcast (<{ i8*, [16 x i8] }>* @alloc787 to %"core::panic::Location"*)), !dbg !203
  unreachable, !dbg !203
}

; <core::iter::adapters::zip::Zip<A,B> as core::iter::traits::iterator::Iterator>::next
; Function Attrs: inlinehint nounwind
define void @"_ZN102_$LT$core..iter..adapters..zip..Zip$LT$A$C$B$GT$$u20$as$u20$core..iter..traits..iterator..Iterator$GT$4next17h0468485180f7f273E"(%"core::option::Option<(&mut [u8], &u64)>"* noalias nocapture sret(%"core::option::Option<(&mut [u8], &u64)>") dereferenceable(24) %0, %"core::iter::Zip<core::slice::ChunksExactMut<u8>, core::slice::Iter<u64>>"* align 8 dereferenceable(80) %self) unnamed_addr #1 !dbg !210 {
start:
  %self.dbg.spill = alloca %"core::iter::Zip<core::slice::ChunksExactMut<u8>, core::slice::Iter<u64>>"*, align 8
  store %"core::iter::Zip<core::slice::ChunksExactMut<u8>, core::slice::Iter<u64>>"* %self, %"core::iter::Zip<core::slice::ChunksExactMut<u8>, core::slice::Iter<u64>>"** %self.dbg.spill, align 8
  call void @llvm.dbg.declare(metadata %"core::iter::Zip<core::slice::ChunksExactMut<u8>, core::slice::Iter<u64>>"** %self.dbg.spill, metadata !263, metadata !DIExpression()), !dbg !264
; call <core::iter::adapters::zip::Zip<A,B> as core::iter::adapters::zip::ZipImpl<A,B>>::next
  call void @"_ZN111_$LT$core..iter..adapters..zip..Zip$LT$A$C$B$GT$$u20$as$u20$core..iter..adapters..zip..ZipImpl$LT$A$C$B$GT$$GT$4next17hed5c8b48b2580747E"(%"core::option::Option<(&mut [u8], &u64)>"* noalias nocapture sret(%"core::option::Option<(&mut [u8], &u64)>") dereferenceable(24) %0, %"core::iter::Zip<core::slice::ChunksExactMut<u8>, core::slice::Iter<u64>>"* align 8 dereferenceable(80) %self), !dbg !265
  br label %bb1, !dbg !265

bb1:                                              ; preds = %start
  ret void, !dbg !266
}

; <core::iter::adapters::zip::Zip<A,B> as core::iter::traits::iterator::Iterator>::next
; Function Attrs: inlinehint nounwind
define void @"_ZN102_$LT$core..iter..adapters..zip..Zip$LT$A$C$B$GT$$u20$as$u20$core..iter..traits..iterator..Iterator$GT$4next17h5fc6bb85339f27f3E"(%"core::option::Option<(&mut [u8], &u32)>"* noalias nocapture sret(%"core::option::Option<(&mut [u8], &u32)>") dereferenceable(24) %0, %"core::iter::Zip<core::slice::ChunksExactMut<u8>, core::slice::Iter<u32>>"* align 8 dereferenceable(80) %self) unnamed_addr #1 !dbg !267 {
start:
  %self.dbg.spill = alloca %"core::iter::Zip<core::slice::ChunksExactMut<u8>, core::slice::Iter<u32>>"*, align 8
  store %"core::iter::Zip<core::slice::ChunksExactMut<u8>, core::slice::Iter<u32>>"* %self, %"core::iter::Zip<core::slice::ChunksExactMut<u8>, core::slice::Iter<u32>>"** %self.dbg.spill, align 8
  call void @llvm.dbg.declare(metadata %"core::iter::Zip<core::slice::ChunksExactMut<u8>, core::slice::Iter<u32>>"** %self.dbg.spill, metadata !312, metadata !DIExpression()), !dbg !313
; call <core::iter::adapters::zip::Zip<A,B> as core::iter::adapters::zip::ZipImpl<A,B>>::next
  call void @"_ZN111_$LT$core..iter..adapters..zip..Zip$LT$A$C$B$GT$$u20$as$u20$core..iter..adapters..zip..ZipImpl$LT$A$C$B$GT$$GT$4next17hf516ee31399a024fE"(%"core::option::Option<(&mut [u8], &u32)>"* noalias nocapture sret(%"core::option::Option<(&mut [u8], &u32)>") dereferenceable(24) %0, %"core::iter::Zip<core::slice::ChunksExactMut<u8>, core::slice::Iter<u32>>"* align 8 dereferenceable(80) %self), !dbg !314
  br label %bb1, !dbg !314

bb1:                                              ; preds = %start
  ret void, !dbg !315
}

; <core::iter::adapters::zip::Zip<A,B> as core::iter::traits::iterator::Iterator>::next
; Function Attrs: inlinehint nounwind
define void @"_ZN102_$LT$core..iter..adapters..zip..Zip$LT$A$C$B$GT$$u20$as$u20$core..iter..traits..iterator..Iterator$GT$4next17h61ef1f7405a72ffcE"(%"core::option::Option<(&mut u64, &[u8])>"* noalias nocapture sret(%"core::option::Option<(&mut u64, &[u8])>") dereferenceable(24) %0, %"core::iter::Zip<core::slice::IterMut<u64>, core::slice::ChunksExact<u8>>"* align 8 dereferenceable(80) %self) unnamed_addr #1 !dbg !316 {
start:
  %self.dbg.spill = alloca %"core::iter::Zip<core::slice::IterMut<u64>, core::slice::ChunksExact<u8>>"*, align 8
  store %"core::iter::Zip<core::slice::IterMut<u64>, core::slice::ChunksExact<u8>>"* %self, %"core::iter::Zip<core::slice::IterMut<u64>, core::slice::ChunksExact<u8>>"** %self.dbg.spill, align 8
  call void @llvm.dbg.declare(metadata %"core::iter::Zip<core::slice::IterMut<u64>, core::slice::ChunksExact<u8>>"** %self.dbg.spill, metadata !366, metadata !DIExpression()), !dbg !367
; call <core::iter::adapters::zip::Zip<A,B> as core::iter::adapters::zip::ZipImpl<A,B>>::next
  call void @"_ZN111_$LT$core..iter..adapters..zip..Zip$LT$A$C$B$GT$$u20$as$u20$core..iter..adapters..zip..ZipImpl$LT$A$C$B$GT$$GT$4next17h66b5bffa28f1de3cE"(%"core::option::Option<(&mut u64, &[u8])>"* noalias nocapture sret(%"core::option::Option<(&mut u64, &[u8])>") dereferenceable(24) %0, %"core::iter::Zip<core::slice::IterMut<u64>, core::slice::ChunksExact<u8>>"* align 8 dereferenceable(80) %self), !dbg !368
  br label %bb1, !dbg !368

bb1:                                              ; preds = %start
  ret void, !dbg !369
}

; <core::iter::adapters::zip::Zip<A,B> as core::iter::traits::iterator::Iterator>::next
; Function Attrs: inlinehint nounwind
define void @"_ZN102_$LT$core..iter..adapters..zip..Zip$LT$A$C$B$GT$$u20$as$u20$core..iter..traits..iterator..Iterator$GT$4next17h69f0a242f2ac39a1E"(%"core::option::Option<(&mut u32, &[u8])>"* noalias nocapture sret(%"core::option::Option<(&mut u32, &[u8])>") dereferenceable(24) %0, %"core::iter::Zip<core::slice::IterMut<u32>, core::slice::ChunksExact<u8>>"* align 8 dereferenceable(80) %self) unnamed_addr #1 !dbg !370 {
start:
  %self.dbg.spill = alloca %"core::iter::Zip<core::slice::IterMut<u32>, core::slice::ChunksExact<u8>>"*, align 8
  store %"core::iter::Zip<core::slice::IterMut<u32>, core::slice::ChunksExact<u8>>"* %self, %"core::iter::Zip<core::slice::IterMut<u32>, core::slice::ChunksExact<u8>>"** %self.dbg.spill, align 8
  call void @llvm.dbg.declare(metadata %"core::iter::Zip<core::slice::IterMut<u32>, core::slice::ChunksExact<u8>>"** %self.dbg.spill, metadata !410, metadata !DIExpression()), !dbg !411
; call <core::iter::adapters::zip::Zip<A,B> as core::iter::adapters::zip::ZipImpl<A,B>>::next
  call void @"_ZN111_$LT$core..iter..adapters..zip..Zip$LT$A$C$B$GT$$u20$as$u20$core..iter..adapters..zip..ZipImpl$LT$A$C$B$GT$$GT$4next17hf6c2054f5b2cf316E"(%"core::option::Option<(&mut u32, &[u8])>"* noalias nocapture sret(%"core::option::Option<(&mut u32, &[u8])>") dereferenceable(24) %0, %"core::iter::Zip<core::slice::IterMut<u32>, core::slice::ChunksExact<u8>>"* align 8 dereferenceable(80) %self), !dbg !412
  br label %bb1, !dbg !412

bb1:                                              ; preds = %start
  ret void, !dbg !413
}

; <core::ops::range::Range<usize> as core::slice::index::SliceIndex<[T]>>::get_unchecked
; Function Attrs: inlinehint nounwind
define { [0 x i64]*, i64 } @"_ZN106_$LT$core..ops..range..Range$LT$usize$GT$$u20$as$u20$core..slice..index..SliceIndex$LT$$u5b$T$u5d$$GT$$GT$13get_unchecked17h490c1d687a3a8f43E"(i64 %self.0, i64 %self.1, [0 x i64]* %slice.0, i64 %slice.1) unnamed_addr #1 !dbg !414 {
start:
  %0 = alloca i64*, align 8
  %count.dbg.spill.i.i = alloca i64, align 8
  %self.dbg.spill.i.i = alloca i64*, align 8
  %count.dbg.spill.i = alloca i64, align 8
  %self.dbg.spill.i = alloca i64*, align 8
  %slice.dbg.spill = alloca { [0 x i64]*, i64 }, align 8
  %self.dbg.spill = alloca { i64, i64 }, align 8
  %1 = getelementptr inbounds { i64, i64 }, { i64, i64 }* %self.dbg.spill, i32 0, i32 0
  store i64 %self.0, i64* %1, align 8
  %2 = getelementptr inbounds { i64, i64 }, { i64, i64 }* %self.dbg.spill, i32 0, i32 1
  store i64 %self.1, i64* %2, align 8
  call void @llvm.dbg.declare(metadata { i64, i64 }* %self.dbg.spill, metadata !433, metadata !DIExpression()), !dbg !435
  %3 = getelementptr inbounds { [0 x i64]*, i64 }, { [0 x i64]*, i64 }* %slice.dbg.spill, i32 0, i32 0
  store [0 x i64]* %slice.0, [0 x i64]** %3, align 8
  %4 = getelementptr inbounds { [0 x i64]*, i64 }, { [0 x i64]*, i64 }* %slice.dbg.spill, i32 0, i32 1
  store i64 %slice.1, i64* %4, align 8
  call void @llvm.dbg.declare(metadata { [0 x i64]*, i64 }* %slice.dbg.spill, metadata !434, metadata !DIExpression()), !dbg !436
; call core::ptr::const_ptr::<impl *const [T]>::as_ptr
  %_4 = call i64* @"_ZN4core3ptr9const_ptr43_$LT$impl$u20$$BP$const$u20$$u5b$T$u5d$$GT$6as_ptr17h3dfdd9481977dd1cE"([0 x i64]* %slice.0, i64 %slice.1), !dbg !437
  br label %bb1, !dbg !437

bb1:                                              ; preds = %start
  store i64* %_4, i64** %self.dbg.spill.i, align 8
  call void @llvm.dbg.declare(metadata i64** %self.dbg.spill.i, metadata !438, metadata !DIExpression()), !dbg !447
  store i64 %self.0, i64* %count.dbg.spill.i, align 8
  call void @llvm.dbg.declare(metadata i64* %count.dbg.spill.i, metadata !446, metadata !DIExpression()), !dbg !449
  store i64* %_4, i64** %self.dbg.spill.i.i, align 8
  call void @llvm.dbg.declare(metadata i64** %self.dbg.spill.i.i, metadata !450, metadata !DIExpression()), !dbg !456
  store i64 %self.0, i64* %count.dbg.spill.i.i, align 8
  call void @llvm.dbg.declare(metadata i64* %count.dbg.spill.i.i, metadata !455, metadata !DIExpression()), !dbg !458
  %5 = getelementptr inbounds i64, i64* %_4, i64 %self.0, !dbg !459
  store i64* %5, i64** %0, align 8, !dbg !459
  %6 = load i64*, i64** %0, align 8, !dbg !459
  br label %bb2, !dbg !437

bb2:                                              ; preds = %bb1
  %_7 = sub i64 %self.1, %self.0, !dbg !460
; call core::ptr::slice_from_raw_parts
  %7 = call { [0 x i64]*, i64 } @_ZN4core3ptr20slice_from_raw_parts17h57cde7c8fdcb854eE(i64* %6, i64 %_7), !dbg !461
  %8 = extractvalue { [0 x i64]*, i64 } %7, 0, !dbg !461
  %9 = extractvalue { [0 x i64]*, i64 } %7, 1, !dbg !461
  br label %bb3, !dbg !461

bb3:                                              ; preds = %bb2
  %10 = insertvalue { [0 x i64]*, i64 } undef, [0 x i64]* %8, 0, !dbg !462
  %11 = insertvalue { [0 x i64]*, i64 } %10, i64 %9, 1, !dbg !462
  ret { [0 x i64]*, i64 } %11, !dbg !462
}

; <core::ops::range::Range<usize> as core::slice::index::SliceIndex<[T]>>::get_unchecked
; Function Attrs: inlinehint nounwind
define { [0 x i32]*, i64 } @"_ZN106_$LT$core..ops..range..Range$LT$usize$GT$$u20$as$u20$core..slice..index..SliceIndex$LT$$u5b$T$u5d$$GT$$GT$13get_unchecked17ha33751ae72906c7cE"(i64 %self.0, i64 %self.1, [0 x i32]* %slice.0, i64 %slice.1) unnamed_addr #1 !dbg !463 {
start:
  %0 = alloca i32*, align 8
  %count.dbg.spill.i.i = alloca i64, align 8
  %self.dbg.spill.i.i = alloca i32*, align 8
  %count.dbg.spill.i = alloca i64, align 8
  %self.dbg.spill.i = alloca i32*, align 8
  %slice.dbg.spill = alloca { [0 x i32]*, i64 }, align 8
  %self.dbg.spill = alloca { i64, i64 }, align 8
  %1 = getelementptr inbounds { i64, i64 }, { i64, i64 }* %self.dbg.spill, i32 0, i32 0
  store i64 %self.0, i64* %1, align 8
  %2 = getelementptr inbounds { i64, i64 }, { i64, i64 }* %self.dbg.spill, i32 0, i32 1
  store i64 %self.1, i64* %2, align 8
  call void @llvm.dbg.declare(metadata { i64, i64 }* %self.dbg.spill, metadata !471, metadata !DIExpression()), !dbg !473
  %3 = getelementptr inbounds { [0 x i32]*, i64 }, { [0 x i32]*, i64 }* %slice.dbg.spill, i32 0, i32 0
  store [0 x i32]* %slice.0, [0 x i32]** %3, align 8
  %4 = getelementptr inbounds { [0 x i32]*, i64 }, { [0 x i32]*, i64 }* %slice.dbg.spill, i32 0, i32 1
  store i64 %slice.1, i64* %4, align 8
  call void @llvm.dbg.declare(metadata { [0 x i32]*, i64 }* %slice.dbg.spill, metadata !472, metadata !DIExpression()), !dbg !474
; call core::ptr::const_ptr::<impl *const [T]>::as_ptr
  %_4 = call i32* @"_ZN4core3ptr9const_ptr43_$LT$impl$u20$$BP$const$u20$$u5b$T$u5d$$GT$6as_ptr17haed4225b1588e7c1E"([0 x i32]* %slice.0, i64 %slice.1), !dbg !475
  br label %bb1, !dbg !475

bb1:                                              ; preds = %start
  store i32* %_4, i32** %self.dbg.spill.i, align 8
  call void @llvm.dbg.declare(metadata i32** %self.dbg.spill.i, metadata !476, metadata !DIExpression()), !dbg !482
  store i64 %self.0, i64* %count.dbg.spill.i, align 8
  call void @llvm.dbg.declare(metadata i64* %count.dbg.spill.i, metadata !481, metadata !DIExpression()), !dbg !484
  store i32* %_4, i32** %self.dbg.spill.i.i, align 8
  call void @llvm.dbg.declare(metadata i32** %self.dbg.spill.i.i, metadata !485, metadata !DIExpression()), !dbg !491
  store i64 %self.0, i64* %count.dbg.spill.i.i, align 8
  call void @llvm.dbg.declare(metadata i64* %count.dbg.spill.i.i, metadata !490, metadata !DIExpression()), !dbg !493
  %5 = getelementptr inbounds i32, i32* %_4, i64 %self.0, !dbg !494
  store i32* %5, i32** %0, align 8, !dbg !494
  %6 = load i32*, i32** %0, align 8, !dbg !494
  br label %bb2, !dbg !475

bb2:                                              ; preds = %bb1
  %_7 = sub i64 %self.1, %self.0, !dbg !495
; call core::ptr::slice_from_raw_parts
  %7 = call { [0 x i32]*, i64 } @_ZN4core3ptr20slice_from_raw_parts17h7af7046b837f7349E(i32* %6, i64 %_7), !dbg !496
  %8 = extractvalue { [0 x i32]*, i64 } %7, 0, !dbg !496
  %9 = extractvalue { [0 x i32]*, i64 } %7, 1, !dbg !496
  br label %bb3, !dbg !496

bb3:                                              ; preds = %bb2
  %10 = insertvalue { [0 x i32]*, i64 } undef, [0 x i32]* %8, 0, !dbg !497
  %11 = insertvalue { [0 x i32]*, i64 } %10, i64 %9, 1, !dbg !497
  ret { [0 x i32]*, i64 } %11, !dbg !497
}

; <core::ops::range::Range<usize> as core::slice::index::SliceIndex<[T]>>::index
; Function Attrs: inlinehint nounwind
define { [0 x i32]*, i64 } @"_ZN106_$LT$core..ops..range..Range$LT$usize$GT$$u20$as$u20$core..slice..index..SliceIndex$LT$$u5b$T$u5d$$GT$$GT$5index17h5d4aef289c663bd7E"(i64 %self.0, i64 %self.1, [0 x i32]* nonnull align 4 %slice.0, i64 %slice.1, %"core::panic::Location"* align 8 dereferenceable(24) %0) unnamed_addr #1 !dbg !498 {
start:
  %slice.dbg.spill = alloca { [0 x i32]*, i64 }, align 8
  %self.dbg.spill = alloca { i64, i64 }, align 8
  %1 = getelementptr inbounds { i64, i64 }, { i64, i64 }* %self.dbg.spill, i32 0, i32 0
  store i64 %self.0, i64* %1, align 8
  %2 = getelementptr inbounds { i64, i64 }, { i64, i64 }* %self.dbg.spill, i32 0, i32 1
  store i64 %self.1, i64* %2, align 8
  call void @llvm.dbg.declare(metadata { i64, i64 }* %self.dbg.spill, metadata !518, metadata !DIExpression()), !dbg !520
  %3 = getelementptr inbounds { [0 x i32]*, i64 }, { [0 x i32]*, i64 }* %slice.dbg.spill, i32 0, i32 0
  store [0 x i32]* %slice.0, [0 x i32]** %3, align 8
  %4 = getelementptr inbounds { [0 x i32]*, i64 }, { [0 x i32]*, i64 }* %slice.dbg.spill, i32 0, i32 1
  store i64 %slice.1, i64* %4, align 8
  call void @llvm.dbg.declare(metadata { [0 x i32]*, i64 }* %slice.dbg.spill, metadata !519, metadata !DIExpression()), !dbg !521
  %_3 = icmp ugt i64 %self.0, %self.1, !dbg !522
  br i1 %_3, label %bb1, label %bb2, !dbg !522

bb2:                                              ; preds = %start
  %_8 = icmp ugt i64 %self.1, %slice.1, !dbg !523
  br i1 %_8, label %bb3, label %bb4, !dbg !523

bb1:                                              ; preds = %start
; call core::slice::index::slice_index_order_fail
  call void @_ZN4core5slice5index22slice_index_order_fail17h0a02db5c3145b3dbE(i64 %self.0, i64 %self.1, %"core::panic::Location"* align 8 dereferenceable(24) %0), !dbg !524
  unreachable, !dbg !524

bb4:                                              ; preds = %bb2
; call <core::ops::range::Range<usize> as core::slice::index::SliceIndex<[T]>>::get_unchecked
  %5 = call { [0 x i32]*, i64 } @"_ZN106_$LT$core..ops..range..Range$LT$usize$GT$$u20$as$u20$core..slice..index..SliceIndex$LT$$u5b$T$u5d$$GT$$GT$13get_unchecked17ha33751ae72906c7cE"(i64 %self.0, i64 %self.1, [0 x i32]* %slice.0, i64 %slice.1), !dbg !525
  %_15.0 = extractvalue { [0 x i32]*, i64 } %5, 0, !dbg !525
  %_15.1 = extractvalue { [0 x i32]*, i64 } %5, 1, !dbg !525
  br label %bb5, !dbg !525

bb3:                                              ; preds = %bb2
; call core::slice::index::slice_end_index_len_fail
  call void @_ZN4core5slice5index24slice_end_index_len_fail17hc9093b080894820aE(i64 %self.1, i64 %slice.1, %"core::panic::Location"* align 8 dereferenceable(24) %0), !dbg !526
  unreachable, !dbg !526

bb5:                                              ; preds = %bb4
  %6 = insertvalue { [0 x i32]*, i64 } undef, [0 x i32]* %_15.0, 0, !dbg !527
  %7 = insertvalue { [0 x i32]*, i64 } %6, i64 %_15.1, 1, !dbg !527
  ret { [0 x i32]*, i64 } %7, !dbg !527
}

; <core::ops::range::Range<usize> as core::slice::index::SliceIndex<[T]>>::index
; Function Attrs: inlinehint nounwind
define { [0 x i64]*, i64 } @"_ZN106_$LT$core..ops..range..Range$LT$usize$GT$$u20$as$u20$core..slice..index..SliceIndex$LT$$u5b$T$u5d$$GT$$GT$5index17hc0761153c76a7952E"(i64 %self.0, i64 %self.1, [0 x i64]* nonnull align 8 %slice.0, i64 %slice.1, %"core::panic::Location"* align 8 dereferenceable(24) %0) unnamed_addr #1 !dbg !528 {
start:
  %slice.dbg.spill = alloca { [0 x i64]*, i64 }, align 8
  %self.dbg.spill = alloca { i64, i64 }, align 8
  %1 = getelementptr inbounds { i64, i64 }, { i64, i64 }* %self.dbg.spill, i32 0, i32 0
  store i64 %self.0, i64* %1, align 8
  %2 = getelementptr inbounds { i64, i64 }, { i64, i64 }* %self.dbg.spill, i32 0, i32 1
  store i64 %self.1, i64* %2, align 8
  call void @llvm.dbg.declare(metadata { i64, i64 }* %self.dbg.spill, metadata !536, metadata !DIExpression()), !dbg !538
  %3 = getelementptr inbounds { [0 x i64]*, i64 }, { [0 x i64]*, i64 }* %slice.dbg.spill, i32 0, i32 0
  store [0 x i64]* %slice.0, [0 x i64]** %3, align 8
  %4 = getelementptr inbounds { [0 x i64]*, i64 }, { [0 x i64]*, i64 }* %slice.dbg.spill, i32 0, i32 1
  store i64 %slice.1, i64* %4, align 8
  call void @llvm.dbg.declare(metadata { [0 x i64]*, i64 }* %slice.dbg.spill, metadata !537, metadata !DIExpression()), !dbg !539
  %_3 = icmp ugt i64 %self.0, %self.1, !dbg !540
  br i1 %_3, label %bb1, label %bb2, !dbg !540

bb2:                                              ; preds = %start
  %_8 = icmp ugt i64 %self.1, %slice.1, !dbg !541
  br i1 %_8, label %bb3, label %bb4, !dbg !541

bb1:                                              ; preds = %start
; call core::slice::index::slice_index_order_fail
  call void @_ZN4core5slice5index22slice_index_order_fail17h0a02db5c3145b3dbE(i64 %self.0, i64 %self.1, %"core::panic::Location"* align 8 dereferenceable(24) %0), !dbg !542
  unreachable, !dbg !542

bb4:                                              ; preds = %bb2
; call <core::ops::range::Range<usize> as core::slice::index::SliceIndex<[T]>>::get_unchecked
  %5 = call { [0 x i64]*, i64 } @"_ZN106_$LT$core..ops..range..Range$LT$usize$GT$$u20$as$u20$core..slice..index..SliceIndex$LT$$u5b$T$u5d$$GT$$GT$13get_unchecked17h490c1d687a3a8f43E"(i64 %self.0, i64 %self.1, [0 x i64]* %slice.0, i64 %slice.1), !dbg !543
  %_15.0 = extractvalue { [0 x i64]*, i64 } %5, 0, !dbg !543
  %_15.1 = extractvalue { [0 x i64]*, i64 } %5, 1, !dbg !543
  br label %bb5, !dbg !543

bb3:                                              ; preds = %bb2
; call core::slice::index::slice_end_index_len_fail
  call void @_ZN4core5slice5index24slice_end_index_len_fail17hc9093b080894820aE(i64 %self.1, i64 %slice.1, %"core::panic::Location"* align 8 dereferenceable(24) %0), !dbg !544
  unreachable, !dbg !544

bb5:                                              ; preds = %bb4
  %6 = insertvalue { [0 x i64]*, i64 } undef, [0 x i64]* %_15.0, 0, !dbg !545
  %7 = insertvalue { [0 x i64]*, i64 } %6, i64 %_15.1, 1, !dbg !545
  ret { [0 x i64]*, i64 } %7, !dbg !545
}

; <core::ops::range::RangeTo<usize> as core::slice::index::SliceIndex<[T]>>::get_unchecked
; Function Attrs: inlinehint nounwind
define { [0 x i8]*, i64 } @"_ZN108_$LT$core..ops..range..RangeTo$LT$usize$GT$$u20$as$u20$core..slice..index..SliceIndex$LT$$u5b$T$u5d$$GT$$GT$13get_unchecked17hbd143c7bb6171c58E"(i64 %self, [0 x i8]* %slice.0, i64 %slice.1) unnamed_addr #1 !dbg !546 {
start:
  %slice.dbg.spill = alloca { [0 x i8]*, i64 }, align 8
  %self.dbg.spill = alloca i64, align 8
  %_3 = alloca { i64, i64 }, align 8
  store i64 %self, i64* %self.dbg.spill, align 8
  call void @llvm.dbg.declare(metadata i64* %self.dbg.spill, metadata !558, metadata !DIExpression()), !dbg !560
  %0 = getelementptr inbounds { [0 x i8]*, i64 }, { [0 x i8]*, i64 }* %slice.dbg.spill, i32 0, i32 0
  store [0 x i8]* %slice.0, [0 x i8]** %0, align 8
  %1 = getelementptr inbounds { [0 x i8]*, i64 }, { [0 x i8]*, i64 }* %slice.dbg.spill, i32 0, i32 1
  store i64 %slice.1, i64* %1, align 8
  call void @llvm.dbg.declare(metadata { [0 x i8]*, i64 }* %slice.dbg.spill, metadata !559, metadata !DIExpression()), !dbg !561
  %2 = bitcast { i64, i64 }* %_3 to i64*, !dbg !562
  store i64 0, i64* %2, align 8, !dbg !562
  %3 = getelementptr inbounds { i64, i64 }, { i64, i64 }* %_3, i32 0, i32 1, !dbg !562
  store i64 %self, i64* %3, align 8, !dbg !562
  %4 = getelementptr inbounds { i64, i64 }, { i64, i64 }* %_3, i32 0, i32 0, !dbg !562
  %5 = load i64, i64* %4, align 8, !dbg !562
  %6 = getelementptr inbounds { i64, i64 }, { i64, i64 }* %_3, i32 0, i32 1, !dbg !562
  %7 = load i64, i64* %6, align 8, !dbg !562
; call <core::ops::range::Range<usize> as core::slice::index::SliceIndex<[T]>>::get_unchecked
  %8 = call { [0 x i8]*, i64 } @"_ZN106_$LT$core..ops..range..Range$LT$usize$GT$$u20$as$u20$core..slice..index..SliceIndex$LT$$u5b$T$u5d$$GT$$GT$13get_unchecked17hf8871638d38376bdE"(i64 %5, i64 %7, [0 x i8]* %slice.0, i64 %slice.1), !dbg !562
  %9 = extractvalue { [0 x i8]*, i64 } %8, 0, !dbg !562
  %10 = extractvalue { [0 x i8]*, i64 } %8, 1, !dbg !562
  br label %bb1, !dbg !562

bb1:                                              ; preds = %start
  %11 = insertvalue { [0 x i8]*, i64 } undef, [0 x i8]* %9, 0, !dbg !563
  %12 = insertvalue { [0 x i8]*, i64 } %11, i64 %10, 1, !dbg !563
  ret { [0 x i8]*, i64 } %12, !dbg !563
}

; <core::ops::range::RangeTo<usize> as core::slice::index::SliceIndex<[T]>>::index
; Function Attrs: inlinehint nounwind
define { [0 x i32]*, i64 } @"_ZN108_$LT$core..ops..range..RangeTo$LT$usize$GT$$u20$as$u20$core..slice..index..SliceIndex$LT$$u5b$T$u5d$$GT$$GT$5index17h20555ca1543e4cfcE"(i64 %self, [0 x i32]* nonnull align 4 %slice.0, i64 %slice.1, %"core::panic::Location"* align 8 dereferenceable(24) %0) unnamed_addr #1 !dbg !564 {
start:
  %slice.dbg.spill = alloca { [0 x i32]*, i64 }, align 8
  %self.dbg.spill = alloca i64, align 8
  %_3 = alloca { i64, i64 }, align 8
  store i64 %self, i64* %self.dbg.spill, align 8
  call void @llvm.dbg.declare(metadata i64* %self.dbg.spill, metadata !568, metadata !DIExpression()), !dbg !570
  %1 = getelementptr inbounds { [0 x i32]*, i64 }, { [0 x i32]*, i64 }* %slice.dbg.spill, i32 0, i32 0
  store [0 x i32]* %slice.0, [0 x i32]** %1, align 8
  %2 = getelementptr inbounds { [0 x i32]*, i64 }, { [0 x i32]*, i64 }* %slice.dbg.spill, i32 0, i32 1
  store i64 %slice.1, i64* %2, align 8
  call void @llvm.dbg.declare(metadata { [0 x i32]*, i64 }* %slice.dbg.spill, metadata !569, metadata !DIExpression()), !dbg !571
  %3 = bitcast { i64, i64 }* %_3 to i64*, !dbg !572
  store i64 0, i64* %3, align 8, !dbg !572
  %4 = getelementptr inbounds { i64, i64 }, { i64, i64 }* %_3, i32 0, i32 1, !dbg !572
  store i64 %self, i64* %4, align 8, !dbg !572
  %5 = getelementptr inbounds { i64, i64 }, { i64, i64 }* %_3, i32 0, i32 0, !dbg !572
  %6 = load i64, i64* %5, align 8, !dbg !572
  %7 = getelementptr inbounds { i64, i64 }, { i64, i64 }* %_3, i32 0, i32 1, !dbg !572
  %8 = load i64, i64* %7, align 8, !dbg !572
; call <core::ops::range::Range<usize> as core::slice::index::SliceIndex<[T]>>::index
  %9 = call { [0 x i32]*, i64 } @"_ZN106_$LT$core..ops..range..Range$LT$usize$GT$$u20$as$u20$core..slice..index..SliceIndex$LT$$u5b$T$u5d$$GT$$GT$5index17h5d4aef289c663bd7E"(i64 %6, i64 %8, [0 x i32]* nonnull align 4 %slice.0, i64 %slice.1, %"core::panic::Location"* align 8 dereferenceable(24) %0), !dbg !572
  %10 = extractvalue { [0 x i32]*, i64 } %9, 0, !dbg !572
  %11 = extractvalue { [0 x i32]*, i64 } %9, 1, !dbg !572
  br label %bb1, !dbg !572

bb1:                                              ; preds = %start
  %12 = insertvalue { [0 x i32]*, i64 } undef, [0 x i32]* %10, 0, !dbg !573
  %13 = insertvalue { [0 x i32]*, i64 } %12, i64 %11, 1, !dbg !573
  ret { [0 x i32]*, i64 } %13, !dbg !573
}

; <core::ops::range::RangeTo<usize> as core::slice::index::SliceIndex<[T]>>::index
; Function Attrs: inlinehint nounwind
define { [0 x i64]*, i64 } @"_ZN108_$LT$core..ops..range..RangeTo$LT$usize$GT$$u20$as$u20$core..slice..index..SliceIndex$LT$$u5b$T$u5d$$GT$$GT$5index17h885fe4b7f54bfd19E"(i64 %self, [0 x i64]* nonnull align 8 %slice.0, i64 %slice.1, %"core::panic::Location"* align 8 dereferenceable(24) %0) unnamed_addr #1 !dbg !574 {
start:
  %slice.dbg.spill = alloca { [0 x i64]*, i64 }, align 8
  %self.dbg.spill = alloca i64, align 8
  %_3 = alloca { i64, i64 }, align 8
  store i64 %self, i64* %self.dbg.spill, align 8
  call void @llvm.dbg.declare(metadata i64* %self.dbg.spill, metadata !578, metadata !DIExpression()), !dbg !580
  %1 = getelementptr inbounds { [0 x i64]*, i64 }, { [0 x i64]*, i64 }* %slice.dbg.spill, i32 0, i32 0
  store [0 x i64]* %slice.0, [0 x i64]** %1, align 8
  %2 = getelementptr inbounds { [0 x i64]*, i64 }, { [0 x i64]*, i64 }* %slice.dbg.spill, i32 0, i32 1
  store i64 %slice.1, i64* %2, align 8
  call void @llvm.dbg.declare(metadata { [0 x i64]*, i64 }* %slice.dbg.spill, metadata !579, metadata !DIExpression()), !dbg !581
  %3 = bitcast { i64, i64 }* %_3 to i64*, !dbg !582
  store i64 0, i64* %3, align 8, !dbg !582
  %4 = getelementptr inbounds { i64, i64 }, { i64, i64 }* %_3, i32 0, i32 1, !dbg !582
  store i64 %self, i64* %4, align 8, !dbg !582
  %5 = getelementptr inbounds { i64, i64 }, { i64, i64 }* %_3, i32 0, i32 0, !dbg !582
  %6 = load i64, i64* %5, align 8, !dbg !582
  %7 = getelementptr inbounds { i64, i64 }, { i64, i64 }* %_3, i32 0, i32 1, !dbg !582
  %8 = load i64, i64* %7, align 8, !dbg !582
; call <core::ops::range::Range<usize> as core::slice::index::SliceIndex<[T]>>::index
  %9 = call { [0 x i64]*, i64 } @"_ZN106_$LT$core..ops..range..Range$LT$usize$GT$$u20$as$u20$core..slice..index..SliceIndex$LT$$u5b$T$u5d$$GT$$GT$5index17hc0761153c76a7952E"(i64 %6, i64 %8, [0 x i64]* nonnull align 8 %slice.0, i64 %slice.1, %"core::panic::Location"* align 8 dereferenceable(24) %0), !dbg !582
  %10 = extractvalue { [0 x i64]*, i64 } %9, 0, !dbg !582
  %11 = extractvalue { [0 x i64]*, i64 } %9, 1, !dbg !582
  br label %bb1, !dbg !582

bb1:                                              ; preds = %start
  %12 = insertvalue { [0 x i64]*, i64 } undef, [0 x i64]* %10, 0, !dbg !583
  %13 = insertvalue { [0 x i64]*, i64 } %12, i64 %11, 1, !dbg !583
  ret { [0 x i64]*, i64 } %13, !dbg !583
}

; <core::iter::adapters::enumerate::Enumerate<I> as core::iter::traits::iterator::Iterator>::fold
; Function Attrs: inlinehint nounwind
define void @"_ZN110_$LT$core..iter..adapters..enumerate..Enumerate$LT$I$GT$$u20$as$u20$core..iter..traits..iterator..Iterator$GT$4fold17h089a5fc4abf7c0d8E"(%"core::iter::Enumerate<core::slice::IterMut<u8>>"* noalias nocapture dereferenceable(24) %self, i8* nonnull align 1 %fold.0, i64* align 8 dereferenceable(8) %fold.1) unnamed_addr #1 !dbg !584 {
start:
  %fold.dbg.spill = alloca { i8*, i64* }, align 8
  %init.dbg.spill = alloca {}, align 1
  %_6 = alloca %"[closure@<core::iter::Enumerate<I> as core::iter::Iterator>::fold::enumerate<&mut u8, (), [closure@core::iter::Iterator::for_each::call<(usize, &mut u8), [closure@<block_buffer::generic_array::GenericArray<u8, block_buffer::generic_array::typenum::UInt<block_buffer::generic_array::typenum::UInt<block_buffer::generic_array::typenum::UInt<block_buffer::generic_array::typenum::UInt<block_buffer::generic_array::typenum::UInt<block_buffer::generic_array::typenum::UInt<block_buffer::generic_array::typenum::UInt<block_buffer::generic_array::typenum::UInt<block_buffer::generic_array::typenum::UTerm, digest::consts::B1>, digest::consts::B0>, digest::consts::B0>, digest::consts::B0>, digest::consts::B0>, digest::consts::B0>, digest::consts::B0>, digest::consts::B0>> as block_buffer::generic_array::sequence::GenericSequence<u8>>::generate<[closure@block_buffer::generic_array::impls::<impl core::default::Default for block_buffer::generic_array::GenericArray<u8, block_buffer::generic_array::typenum::UInt<block_buffer::generic_array::typenum::UInt<block_buffer::generic_array::typenum::UInt<block_buffer::generic_array::typenum::UInt<block_buffer::generic_array::typenum::UInt<block_buffer::generic_array::typenum::UInt<block_buffer::generic_array::typenum::UInt<block_buffer::generic_array::typenum::UInt<block_buffer::generic_array::typenum::UTerm, digest::consts::B1>, digest::consts::B0>, digest::consts::B0>, digest::consts::B0>, digest::consts::B0>, digest::consts::B0>, digest::consts::B0>, digest::consts::B0>>>::default::{closure#0}]>::{closure#0}]>::{closure#0}]>::{closure#0}]", align 8
  call void @llvm.dbg.declare(metadata %"core::iter::Enumerate<core::slice::IterMut<u8>>"* %self, metadata !631, metadata !DIExpression()), !dbg !637
  call void @llvm.dbg.declare(metadata {}* %init.dbg.spill, metadata !632, metadata !DIExpression()), !dbg !638
  %0 = getelementptr inbounds { i8*, i64* }, { i8*, i64* }* %fold.dbg.spill, i32 0, i32 0
  store i8* %fold.0, i8** %0, align 8
  %1 = getelementptr inbounds { i8*, i64* }, { i8*, i64* }* %fold.dbg.spill, i32 0, i32 1
  store i64* %fold.1, i64** %1, align 8
  call void @llvm.dbg.declare(metadata { i8*, i64* }* %fold.dbg.spill, metadata !633, metadata !DIExpression()), !dbg !639
  %2 = bitcast %"core::iter::Enumerate<core::slice::IterMut<u8>>"* %self to { i8*, i8* }*, !dbg !640
  %3 = getelementptr inbounds { i8*, i8* }, { i8*, i8* }* %2, i32 0, i32 0, !dbg !640
  %_4.0 = load i8*, i8** %3, align 8, !dbg !640, !nonnull !4
  %4 = getelementptr inbounds { i8*, i8* }, { i8*, i8* }* %2, i32 0, i32 1, !dbg !640
  %_4.1 = load i8*, i8** %4, align 8, !dbg !640
  %5 = getelementptr inbounds %"core::iter::Enumerate<core::slice::IterMut<u8>>", %"core::iter::Enumerate<core::slice::IterMut<u8>>"* %self, i32 0, i32 1, !dbg !641
  %_7 = load i64, i64* %5, align 8, !dbg !641
; call <core::iter::adapters::enumerate::Enumerate<I> as core::iter::traits::iterator::Iterator>::fold::enumerate
  call void @"_ZN110_$LT$core..iter..adapters..enumerate..Enumerate$LT$I$GT$$u20$as$u20$core..iter..traits..iterator..Iterator$GT$4fold9enumerate17hc6c8319c0adaa39fE"(%"[closure@<core::iter::Enumerate<I> as core::iter::Iterator>::fold::enumerate<&mut u8, (), [closure@core::iter::Iterator::for_each::call<(usize, &mut u8), [closure@<block_buffer::generic_array::GenericArray<u8, block_buffer::generic_array::typenum::UInt<block_buffer::generic_array::typenum::UInt<block_buffer::generic_array::typenum::UInt<block_buffer::generic_array::typenum::UInt<block_buffer::generic_array::typenum::UInt<block_buffer::generic_array::typenum::UInt<block_buffer::generic_array::typenum::UInt<block_buffer::generic_array::typenum::UInt<block_buffer::generic_array::typenum::UTerm, digest::consts::B1>, digest::consts::B0>, digest::consts::B0>, digest::consts::B0>, digest::consts::B0>, digest::consts::B0>, digest::consts::B0>, digest::consts::B0>> as block_buffer::generic_array::sequence::GenericSequence<u8>>::generate<[closure@block_buffer::generic_array::impls::<impl core::default::Default for block_buffer::generic_array::GenericArray<u8, block_buffer::generic_array::typenum::UInt<block_buffer::generic_array::typenum::UInt<block_buffer::generic_array::typenum::UInt<block_buffer::generic_array::typenum::UInt<block_buffer::generic_array::typenum::UInt<block_buffer::generic_array::typenum::UInt<block_buffer::generic_array::typenum::UInt<block_buffer::generic_array::typenum::UInt<block_buffer::generic_array::typenum::UTerm, digest::consts::B1>, digest::consts::B0>, digest::consts::B0>, digest::consts::B0>, digest::consts::B0>, digest::consts::B0>, digest::consts::B0>, digest::consts::B0>>>::default::{closure#0}]>::{closure#0}]>::{closure#0}]>::{closure#0}]"* noalias nocapture sret(%"[closure@<core::iter::Enumerate<I> as core::iter::Iterator>::fold::enumerate<&mut u8, (), [closure@core::iter::Iterator::for_each::call<(usize, &mut u8), [closure@<block_buffer::generic_array::GenericArray<u8, block_buffer::generic_array::typenum::UInt<block_buffer::generic_array::typenum::UInt<block_buffer::generic_array::typenum::UInt<block_buffer::generic_array::typenum::UInt<block_buffer::generic_array::typenum::UInt<block_buffer::generic_array::typenum::UInt<block_buffer::generic_array::typenum::UInt<block_buffer::generic_array::typenum::UInt<block_buffer::generic_array::typenum::UTerm, digest::consts::B1>, digest::consts::B0>, digest::consts::B0>, digest::consts::B0>, digest::consts::B0>, digest::consts::B0>, digest::consts::B0>, digest::consts::B0>> as block_buffer::generic_array::sequence::GenericSequence<u8>>::generate<[closure@block_buffer::generic_array::impls::<impl core::default::Default for block_buffer::generic_array::GenericArray<u8, block_buffer::generic_array::typenum::UInt<block_buffer::generic_array::typenum::UInt<block_buffer::generic_array::typenum::UInt<block_buffer::generic_array::typenum::UInt<block_buffer::generic_array::typenum::UInt<block_buffer::generic_array::typenum::UInt<block_buffer::generic_array::typenum::UInt<block_buffer::generic_array::typenum::UInt<block_buffer::generic_array::typenum::UTerm, digest::consts::B1>, digest::consts::B0>, digest::consts::B0>, digest::consts::B0>, digest::consts::B0>, digest::consts::B0>, digest::consts::B0>, digest::consts::B0>>>::default::{closure#0}]>::{closure#0}]>::{closure#0}]>::{closure#0}]") dereferenceable(24) %_6, i64 %_7, i8* nonnull align 1 %fold.0, i64* align 8 dereferenceable(8) %fold.1), !dbg !642
  br label %bb1, !dbg !642

bb1:                                              ; preds = %start
; call core::iter::traits::iterator::Iterator::fold
  call void @_ZN4core4iter6traits8iterator8Iterator4fold17h87fed2db02f38ecdE(i8* nonnull %_4.0, i8* %_4.1, %"[closure@<core::iter::Enumerate<I> as core::iter::Iterator>::fold::enumerate<&mut u8, (), [closure@core::iter::Iterator::for_each::call<(usize, &mut u8), [closure@<block_buffer::generic_array::GenericArray<u8, block_buffer::generic_array::typenum::UInt<block_buffer::generic_array::typenum::UInt<block_buffer::generic_array::typenum::UInt<block_buffer::generic_array::typenum::UInt<block_buffer::generic_array::typenum::UInt<block_buffer::generic_array::typenum::UInt<block_buffer::generic_array::typenum::UInt<block_buffer::generic_array::typenum::UInt<block_buffer::generic_array::typenum::UTerm, digest::consts::B1>, digest::consts::B0>, digest::consts::B0>, digest::consts::B0>, digest::consts::B0>, digest::consts::B0>, digest::consts::B0>, digest::consts::B0>> as block_buffer::generic_array::sequence::GenericSequence<u8>>::generate<[closure@block_buffer::generic_array::impls::<impl core::default::Default for block_buffer::generic_array::GenericArray<u8, block_buffer::generic_array::typenum::UInt<block_buffer::generic_array::typenum::UInt<block_buffer::generic_array::typenum::UInt<block_buffer::generic_array::typenum::UInt<block_buffer::generic_array::typenum::UInt<block_buffer::generic_array::typenum::UInt<block_buffer::generic_array::typenum::UInt<block_buffer::generic_array::typenum::UInt<block_buffer::generic_array::typenum::UTerm, digest::consts::B1>, digest::consts::B0>, digest::consts::B0>, digest::consts::B0>, digest::consts::B0>, digest::consts::B0>, digest::consts::B0>, digest::consts::B0>>>::default::{closure#0}]>::{closure#0}]>::{closure#0}]>::{closure#0}]"* noalias nocapture dereferenceable(24) %_6), !dbg !640
  br label %bb2, !dbg !640

bb2:                                              ; preds = %bb1
  ret void, !dbg !643
}

; <core::iter::adapters::enumerate::Enumerate<I> as core::iter::traits::iterator::Iterator>::fold
; Function Attrs: inlinehint nounwind
define void @"_ZN110_$LT$core..iter..adapters..enumerate..Enumerate$LT$I$GT$$u20$as$u20$core..iter..traits..iterator..Iterator$GT$4fold17h2bc20fd1b73bc343E"(%"core::iter::Enumerate<core::slice::IterMut<u8>>"* noalias nocapture dereferenceable(24) %self, i8* nonnull align 1 %fold.0, i64* align 8 dereferenceable(8) %fold.1) unnamed_addr #1 !dbg !644 {
start:
  %fold.dbg.spill = alloca { i8*, i64* }, align 8
  %init.dbg.spill = alloca {}, align 1
  %_6 = alloca %"[closure@<core::iter::Enumerate<I> as core::iter::Iterator>::fold::enumerate<&mut u8, (), [closure@core::iter::Iterator::for_each::call<(usize, &mut u8), [closure@<block_buffer::generic_array::GenericArray<u8, block_buffer::generic_array::typenum::UInt<block_buffer::generic_array::typenum::UInt<block_buffer::generic_array::typenum::UInt<block_buffer::generic_array::typenum::UInt<block_buffer::generic_array::typenum::UInt<block_buffer::generic_array::typenum::UInt<block_buffer::generic_array::typenum::UInt<block_buffer::generic_array::typenum::UTerm, digest::consts::B1>, digest::consts::B0>, digest::consts::B0>, digest::consts::B0>, digest::consts::B0>, digest::consts::B0>, digest::consts::B0>> as block_buffer::generic_array::sequence::GenericSequence<u8>>::generate<[closure@block_buffer::generic_array::impls::<impl core::default::Default for block_buffer::generic_array::GenericArray<u8, block_buffer::generic_array::typenum::UInt<block_buffer::generic_array::typenum::UInt<block_buffer::generic_array::typenum::UInt<block_buffer::generic_array::typenum::UInt<block_buffer::generic_array::typenum::UInt<block_buffer::generic_array::typenum::UInt<block_buffer::generic_array::typenum::UInt<block_buffer::generic_array::typenum::UTerm, digest::consts::B1>, digest::consts::B0>, digest::consts::B0>, digest::consts::B0>, digest::consts::B0>, digest::consts::B0>, digest::consts::B0>>>::default::{closure#0}]>::{closure#0}]>::{closure#0}]>::{closure#0}]", align 8
  call void @llvm.dbg.declare(metadata %"core::iter::Enumerate<core::slice::IterMut<u8>>"* %self, metadata !657, metadata !DIExpression()), !dbg !662
  call void @llvm.dbg.declare(metadata {}* %init.dbg.spill, metadata !658, metadata !DIExpression()), !dbg !663
  %0 = getelementptr inbounds { i8*, i64* }, { i8*, i64* }* %fold.dbg.spill, i32 0, i32 0
  store i8* %fold.0, i8** %0, align 8
  %1 = getelementptr inbounds { i8*, i64* }, { i8*, i64* }* %fold.dbg.spill, i32 0, i32 1
  store i64* %fold.1, i64** %1, align 8
  call void @llvm.dbg.declare(metadata { i8*, i64* }* %fold.dbg.spill, metadata !659, metadata !DIExpression()), !dbg !664
  %2 = bitcast %"core::iter::Enumerate<core::slice::IterMut<u8>>"* %self to { i8*, i8* }*, !dbg !665
  %3 = getelementptr inbounds { i8*, i8* }, { i8*, i8* }* %2, i32 0, i32 0, !dbg !665
  %_4.0 = load i8*, i8** %3, align 8, !dbg !665, !nonnull !4
  %4 = getelementptr inbounds { i8*, i8* }, { i8*, i8* }* %2, i32 0, i32 1, !dbg !665
  %_4.1 = load i8*, i8** %4, align 8, !dbg !665
  %5 = getelementptr inbounds %"core::iter::Enumerate<core::slice::IterMut<u8>>", %"core::iter::Enumerate<core::slice::IterMut<u8>>"* %self, i32 0, i32 1, !dbg !666
  %_7 = load i64, i64* %5, align 8, !dbg !666
; call <core::iter::adapters::enumerate::Enumerate<I> as core::iter::traits::iterator::Iterator>::fold::enumerate
  call void @"_ZN110_$LT$core..iter..adapters..enumerate..Enumerate$LT$I$GT$$u20$as$u20$core..iter..traits..iterator..Iterator$GT$4fold9enumerate17hd721a1b21c7126c5E"(%"[closure@<core::iter::Enumerate<I> as core::iter::Iterator>::fold::enumerate<&mut u8, (), [closure@core::iter::Iterator::for_each::call<(usize, &mut u8), [closure@<block_buffer::generic_array::GenericArray<u8, block_buffer::generic_array::typenum::UInt<block_buffer::generic_array::typenum::UInt<block_buffer::generic_array::typenum::UInt<block_buffer::generic_array::typenum::UInt<block_buffer::generic_array::typenum::UInt<block_buffer::generic_array::typenum::UInt<block_buffer::generic_array::typenum::UInt<block_buffer::generic_array::typenum::UTerm, digest::consts::B1>, digest::consts::B0>, digest::consts::B0>, digest::consts::B0>, digest::consts::B0>, digest::consts::B0>, digest::consts::B0>> as block_buffer::generic_array::sequence::GenericSequence<u8>>::generate<[closure@block_buffer::generic_array::impls::<impl core::default::Default for block_buffer::generic_array::GenericArray<u8, block_buffer::generic_array::typenum::UInt<block_buffer::generic_array::typenum::UInt<block_buffer::generic_array::typenum::UInt<block_buffer::generic_array::typenum::UInt<block_buffer::generic_array::typenum::UInt<block_buffer::generic_array::typenum::UInt<block_buffer::generic_array::typenum::UInt<block_buffer::generic_array::typenum::UTerm, digest::consts::B1>, digest::consts::B0>, digest::consts::B0>, digest::consts::B0>, digest::consts::B0>, digest::consts::B0>, digest::consts::B0>>>::default::{closure#0}]>::{closure#0}]>::{closure#0}]>::{closure#0}]"* noalias nocapture sret(%"[closure@<core::iter::Enumerate<I> as core::iter::Iterator>::fold::enumerate<&mut u8, (), [closure@core::iter::Iterator::for_each::call<(usize, &mut u8), [closure@<block_buffer::generic_array::GenericArray<u8, block_buffer::generic_array::typenum::UInt<block_buffer::generic_array::typenum::UInt<block_buffer::generic_array::typenum::UInt<block_buffer::generic_array::typenum::UInt<block_buffer::generic_array::typenum::UInt<block_buffer::generic_array::typenum::UInt<block_buffer::generic_array::typenum::UInt<block_buffer::generic_array::typenum::UTerm, digest::consts::B1>, digest::consts::B0>, digest::consts::B0>, digest::consts::B0>, digest::consts::B0>, digest::consts::B0>, digest::consts::B0>> as block_buffer::generic_array::sequence::GenericSequence<u8>>::generate<[closure@block_buffer::generic_array::impls::<impl core::default::Default for block_buffer::generic_array::GenericArray<u8, block_buffer::generic_array::typenum::UInt<block_buffer::generic_array::typenum::UInt<block_buffer::generic_array::typenum::UInt<block_buffer::generic_array::typenum::UInt<block_buffer::generic_array::typenum::UInt<block_buffer::generic_array::typenum::UInt<block_buffer::generic_array::typenum::UInt<block_buffer::generic_array::typenum::UTerm, digest::consts::B1>, digest::consts::B0>, digest::consts::B0>, digest::consts::B0>, digest::consts::B0>, digest::consts::B0>, digest::consts::B0>>>::default::{closure#0}]>::{closure#0}]>::{closure#0}]>::{closure#0}]") dereferenceable(24) %_6, i64 %_7, i8* nonnull align 1 %fold.0, i64* align 8 dereferenceable(8) %fold.1), !dbg !667
  br label %bb1, !dbg !667

bb1:                                              ; preds = %start
; call core::iter::traits::iterator::Iterator::fold
  call void @_ZN4core4iter6traits8iterator8Iterator4fold17h30198b290e60b01dE(i8* nonnull %_4.0, i8* %_4.1, %"[closure@<core::iter::Enumerate<I> as core::iter::Iterator>::fold::enumerate<&mut u8, (), [closure@core::iter::Iterator::for_each::call<(usize, &mut u8), [closure@<block_buffer::generic_array::GenericArray<u8, block_buffer::generic_array::typenum::UInt<block_buffer::generic_array::typenum::UInt<block_buffer::generic_array::typenum::UInt<block_buffer::generic_array::typenum::UInt<block_buffer::generic_array::typenum::UInt<block_buffer::generic_array::typenum::UInt<block_buffer::generic_array::typenum::UInt<block_buffer::generic_array::typenum::UTerm, digest::consts::B1>, digest::consts::B0>, digest::consts::B0>, digest::consts::B0>, digest::consts::B0>, digest::consts::B0>, digest::consts::B0>> as block_buffer::generic_array::sequence::GenericSequence<u8>>::generate<[closure@block_buffer::generic_array::impls::<impl core::default::Default for block_buffer::generic_array::GenericArray<u8, block_buffer::generic_array::typenum::UInt<block_buffer::generic_array::typenum::UInt<block_buffer::generic_array::typenum::UInt<block_buffer::generic_array::typenum::UInt<block_buffer::generic_array::typenum::UInt<block_buffer::generic_array::typenum::UInt<block_buffer::generic_array::typenum::UInt<block_buffer::generic_array::typenum::UTerm, digest::consts::B1>, digest::consts::B0>, digest::consts::B0>, digest::consts::B0>, digest::consts::B0>, digest::consts::B0>, digest::consts::B0>>>::default::{closure#0}]>::{closure#0}]>::{closure#0}]>::{closure#0}]"* noalias nocapture dereferenceable(24) %_6), !dbg !665
  br label %bb2, !dbg !665

bb2:                                              ; preds = %bb1
  ret void, !dbg !668
}

; <core::iter::adapters::enumerate::Enumerate<I> as core::iter::traits::iterator::Iterator>::fold::enumerate
; Function Attrs: inlinehint nounwind
define void @"_ZN110_$LT$core..iter..adapters..enumerate..Enumerate$LT$I$GT$$u20$as$u20$core..iter..traits..iterator..Iterator$GT$4fold9enumerate17hc6c8319c0adaa39fE"(%"[closure@<core::iter::Enumerate<I> as core::iter::Iterator>::fold::enumerate<&mut u8, (), [closure@core::iter::Iterator::for_each::call<(usize, &mut u8), [closure@<block_buffer::generic_array::GenericArray<u8, block_buffer::generic_array::typenum::UInt<block_buffer::generic_array::typenum::UInt<block_buffer::generic_array::typenum::UInt<block_buffer::generic_array::typenum::UInt<block_buffer::generic_array::typenum::UInt<block_buffer::generic_array::typenum::UInt<block_buffer::generic_array::typenum::UInt<block_buffer::generic_array::typenum::UInt<block_buffer::generic_array::typenum::UTerm, digest::consts::B1>, digest::consts::B0>, digest::consts::B0>, digest::consts::B0>, digest::consts::B0>, digest::consts::B0>, digest::consts::B0>, digest::consts::B0>> as block_buffer::generic_array::sequence::GenericSequence<u8>>::generate<[closure@block_buffer::generic_array::impls::<impl core::default::Default for block_buffer::generic_array::GenericArray<u8, block_buffer::generic_array::typenum::UInt<block_buffer::generic_array::typenum::UInt<block_buffer::generic_array::typenum::UInt<block_buffer::generic_array::typenum::UInt<block_buffer::generic_array::typenum::UInt<block_buffer::generic_array::typenum::UInt<block_buffer::generic_array::typenum::UInt<block_buffer::generic_array::typenum::UInt<block_buffer::generic_array::typenum::UTerm, digest::consts::B1>, digest::consts::B0>, digest::consts::B0>, digest::consts::B0>, digest::consts::B0>, digest::consts::B0>, digest::consts::B0>, digest::consts::B0>>>::default::{closure#0}]>::{closure#0}]>::{closure#0}]>::{closure#0}]"* noalias nocapture sret(%"[closure@<core::iter::Enumerate<I> as core::iter::Iterator>::fold::enumerate<&mut u8, (), [closure@core::iter::Iterator::for_each::call<(usize, &mut u8), [closure@<block_buffer::generic_array::GenericArray<u8, block_buffer::generic_array::typenum::UInt<block_buffer::generic_array::typenum::UInt<block_buffer::generic_array::typenum::UInt<block_buffer::generic_array::typenum::UInt<block_buffer::generic_array::typenum::UInt<block_buffer::generic_array::typenum::UInt<block_buffer::generic_array::typenum::UInt<block_buffer::generic_array::typenum::UInt<block_buffer::generic_array::typenum::UTerm, digest::consts::B1>, digest::consts::B0>, digest::consts::B0>, digest::consts::B0>, digest::consts::B0>, digest::consts::B0>, digest::consts::B0>, digest::consts::B0>> as block_buffer::generic_array::sequence::GenericSequence<u8>>::generate<[closure@block_buffer::generic_array::impls::<impl core::default::Default for block_buffer::generic_array::GenericArray<u8, block_buffer::generic_array::typenum::UInt<block_buffer::generic_array::typenum::UInt<block_buffer::generic_array::typenum::UInt<block_buffer::generic_array::typenum::UInt<block_buffer::generic_array::typenum::UInt<block_buffer::generic_array::typenum::UInt<block_buffer::generic_array::typenum::UInt<block_buffer::generic_array::typenum::UInt<block_buffer::generic_array::typenum::UTerm, digest::consts::B1>, digest::consts::B0>, digest::consts::B0>, digest::consts::B0>, digest::consts::B0>, digest::consts::B0>, digest::consts::B0>, digest::consts::B0>>>::default::{closure#0}]>::{closure#0}]>::{closure#0}]>::{closure#0}]") dereferenceable(24) %0, i64 %count, i8* nonnull align 1 %fold.0, i64* align 8 dereferenceable(8) %fold.1) unnamed_addr #1 !dbg !669 {
start:
  %fold.dbg.spill = alloca { i8*, i64* }, align 8
  %count.dbg.spill = alloca i64, align 8
  store i64 %count, i64* %count.dbg.spill, align 8
  call void @llvm.dbg.declare(metadata i64* %count.dbg.spill, metadata !679, metadata !DIExpression()), !dbg !683
  %1 = getelementptr inbounds { i8*, i64* }, { i8*, i64* }* %fold.dbg.spill, i32 0, i32 0
  store i8* %fold.0, i8** %1, align 8
  %2 = getelementptr inbounds { i8*, i64* }, { i8*, i64* }* %fold.dbg.spill, i32 0, i32 1
  store i64* %fold.1, i64** %2, align 8
  call void @llvm.dbg.declare(metadata { i8*, i64* }* %fold.dbg.spill, metadata !680, metadata !DIExpression()), !dbg !684
  %3 = bitcast %"[closure@<core::iter::Enumerate<I> as core::iter::Iterator>::fold::enumerate<&mut u8, (), [closure@core::iter::Iterator::for_each::call<(usize, &mut u8), [closure@<block_buffer::generic_array::GenericArray<u8, block_buffer::generic_array::typenum::UInt<block_buffer::generic_array::typenum::UInt<block_buffer::generic_array::typenum::UInt<block_buffer::generic_array::typenum::UInt<block_buffer::generic_array::typenum::UInt<block_buffer::generic_array::typenum::UInt<block_buffer::generic_array::typenum::UInt<block_buffer::generic_array::typenum::UInt<block_buffer::generic_array::typenum::UTerm, digest::consts::B1>, digest::consts::B0>, digest::consts::B0>, digest::consts::B0>, digest::consts::B0>, digest::consts::B0>, digest::consts::B0>, digest::consts::B0>> as block_buffer::generic_array::sequence::GenericSequence<u8>>::generate<[closure@block_buffer::generic_array::impls::<impl core::default::Default for block_buffer::generic_array::GenericArray<u8, block_buffer::generic_array::typenum::UInt<block_buffer::generic_array::typenum::UInt<block_buffer::generic_array::typenum::UInt<block_buffer::generic_array::typenum::UInt<block_buffer::generic_array::typenum::UInt<block_buffer::generic_array::typenum::UInt<block_buffer::generic_array::typenum::UInt<block_buffer::generic_array::typenum::UInt<block_buffer::generic_array::typenum::UTerm, digest::consts::B1>, digest::consts::B0>, digest::consts::B0>, digest::consts::B0>, digest::consts::B0>, digest::consts::B0>, digest::consts::B0>, digest::consts::B0>>>::default::{closure#0}]>::{closure#0}]>::{closure#0}]>::{closure#0}]"* %0 to { i8*, i64* }*, !dbg !685
  %4 = getelementptr inbounds { i8*, i64* }, { i8*, i64* }* %3, i32 0, i32 0, !dbg !685
  store i8* %fold.0, i8** %4, align 8, !dbg !685
  %5 = getelementptr inbounds { i8*, i64* }, { i8*, i64* }* %3, i32 0, i32 1, !dbg !685
  store i64* %fold.1, i64** %5, align 8, !dbg !685
  %6 = getelementptr inbounds %"[closure@<core::iter::Enumerate<I> as core::iter::Iterator>::fold::enumerate<&mut u8, (), [closure@core::iter::Iterator::for_each::call<(usize, &mut u8), [closure@<block_buffer::generic_array::GenericArray<u8, block_buffer::generic_array::typenum::UInt<block_buffer::generic_array::typenum::UInt<block_buffer::generic_array::typenum::UInt<block_buffer::generic_array::typenum::UInt<block_buffer::generic_array::typenum::UInt<block_buffer::generic_array::typenum::UInt<block_buffer::generic_array::typenum::UInt<block_buffer::generic_array::typenum::UInt<block_buffer::generic_array::typenum::UTerm, digest::consts::B1>, digest::consts::B0>, digest::consts::B0>, digest::consts::B0>, digest::consts::B0>, digest::consts::B0>, digest::consts::B0>, digest::consts::B0>> as block_buffer::generic_array::sequence::GenericSequence<u8>>::generate<[closure@block_buffer::generic_array::impls::<impl core::default::Default for block_buffer::generic_array::GenericArray<u8, block_buffer::generic_array::typenum::UInt<block_buffer::generic_array::typenum::UInt<block_buffer::generic_array::typenum::UInt<block_buffer::generic_array::typenum::UInt<block_buffer::generic_array::typenum::UInt<block_buffer::generic_array::typenum::UInt<block_buffer::generic_array::typenum::UInt<block_buffer::generic_array::typenum::UInt<block_buffer::generic_array::typenum::UTerm, digest::consts::B1>, digest::consts::B0>, digest::consts::B0>, digest::consts::B0>, digest::consts::B0>, digest::consts::B0>, digest::consts::B0>, digest::consts::B0>>>::default::{closure#0}]>::{closure#0}]>::{closure#0}]>::{closure#0}]", %"[closure@<core::iter::Enumerate<I> as core::iter::Iterator>::fold::enumerate<&mut u8, (), [closure@core::iter::Iterator::for_each::call<(usize, &mut u8), [closure@<block_buffer::generic_array::GenericArray<u8, block_buffer::generic_array::typenum::UInt<block_buffer::generic_array::typenum::UInt<block_buffer::generic_array::typenum::UInt<block_buffer::generic_array::typenum::UInt<block_buffer::generic_array::typenum::UInt<block_buffer::generic_array::typenum::UInt<block_buffer::generic_array::typenum::UInt<block_buffer::generic_array::typenum::UInt<block_buffer::generic_array::typenum::UTerm, digest::consts::B1>, digest::consts::B0>, digest::consts::B0>, digest::consts::B0>, digest::consts::B0>, digest::consts::B0>, digest::consts::B0>, digest::consts::B0>> as block_buffer::generic_array::sequence::GenericSequence<u8>>::generate<[closure@block_buffer::generic_array::impls::<impl core::default::Default for block_buffer::generic_array::GenericArray<u8, block_buffer::generic_array::typenum::UInt<block_buffer::generic_array::typenum::UInt<block_buffer::generic_array::typenum::UInt<block_buffer::generic_array::typenum::UInt<block_buffer::generic_array::typenum::UInt<block_buffer::generic_array::typenum::UInt<block_buffer::generic_array::typenum::UInt<block_buffer::generic_array::typenum::UInt<block_buffer::generic_array::typenum::UTerm, digest::consts::B1>, digest::consts::B0>, digest::consts::B0>, digest::consts::B0>, digest::consts::B0>, digest::consts::B0>, digest::consts::B0>, digest::consts::B0>>>::default::{closure#0}]>::{closure#0}]>::{closure#0}]>::{closure#0}]"* %0, i32 0, i32 1, !dbg !685
  store i64 %count, i64* %6, align 8, !dbg !685
  ret void, !dbg !686
}

; <core::iter::adapters::enumerate::Enumerate<I> as core::iter::traits::iterator::Iterator>::fold::enumerate
; Function Attrs: inlinehint nounwind
define void @"_ZN110_$LT$core..iter..adapters..enumerate..Enumerate$LT$I$GT$$u20$as$u20$core..iter..traits..iterator..Iterator$GT$4fold9enumerate17hd721a1b21c7126c5E"(%"[closure@<core::iter::Enumerate<I> as core::iter::Iterator>::fold::enumerate<&mut u8, (), [closure@core::iter::Iterator::for_each::call<(usize, &mut u8), [closure@<block_buffer::generic_array::GenericArray<u8, block_buffer::generic_array::typenum::UInt<block_buffer::generic_array::typenum::UInt<block_buffer::generic_array::typenum::UInt<block_buffer::generic_array::typenum::UInt<block_buffer::generic_array::typenum::UInt<block_buffer::generic_array::typenum::UInt<block_buffer::generic_array::typenum::UInt<block_buffer::generic_array::typenum::UTerm, digest::consts::B1>, digest::consts::B0>, digest::consts::B0>, digest::consts::B0>, digest::consts::B0>, digest::consts::B0>, digest::consts::B0>> as block_buffer::generic_array::sequence::GenericSequence<u8>>::generate<[closure@block_buffer::generic_array::impls::<impl core::default::Default for block_buffer::generic_array::GenericArray<u8, block_buffer::generic_array::typenum::UInt<block_buffer::generic_array::typenum::UInt<block_buffer::generic_array::typenum::UInt<block_buffer::generic_array::typenum::UInt<block_buffer::generic_array::typenum::UInt<block_buffer::generic_array::typenum::UInt<block_buffer::generic_array::typenum::UInt<block_buffer::generic_array::typenum::UTerm, digest::consts::B1>, digest::consts::B0>, digest::consts::B0>, digest::consts::B0>, digest::consts::B0>, digest::consts::B0>, digest::consts::B0>>>::default::{closure#0}]>::{closure#0}]>::{closure#0}]>::{closure#0}]"* noalias nocapture sret(%"[closure@<core::iter::Enumerate<I> as core::iter::Iterator>::fold::enumerate<&mut u8, (), [closure@core::iter::Iterator::for_each::call<(usize, &mut u8), [closure@<block_buffer::generic_array::GenericArray<u8, block_buffer::generic_array::typenum::UInt<block_buffer::generic_array::typenum::UInt<block_buffer::generic_array::typenum::UInt<block_buffer::generic_array::typenum::UInt<block_buffer::generic_array::typenum::UInt<block_buffer::generic_array::typenum::UInt<block_buffer::generic_array::typenum::UInt<block_buffer::generic_array::typenum::UTerm, digest::consts::B1>, digest::consts::B0>, digest::consts::B0>, digest::consts::B0>, digest::consts::B0>, digest::consts::B0>, digest::consts::B0>> as block_buffer::generic_array::sequence::GenericSequence<u8>>::generate<[closure@block_buffer::generic_array::impls::<impl core::default::Default for block_buffer::generic_array::GenericArray<u8, block_buffer::generic_array::typenum::UInt<block_buffer::generic_array::typenum::UInt<block_buffer::generic_array::typenum::UInt<block_buffer::generic_array::typenum::UInt<block_buffer::generic_array::typenum::UInt<block_buffer::generic_array::typenum::UInt<block_buffer::generic_array::typenum::UInt<block_buffer::generic_array::typenum::UTerm, digest::consts::B1>, digest::consts::B0>, digest::consts::B0>, digest::consts::B0>, digest::consts::B0>, digest::consts::B0>, digest::consts::B0>>>::default::{closure#0}]>::{closure#0}]>::{closure#0}]>::{closure#0}]") dereferenceable(24) %0, i64 %count, i8* nonnull align 1 %fold.0, i64* align 8 dereferenceable(8) %fold.1) unnamed_addr #1 !dbg !687 {
start:
  %fold.dbg.spill = alloca { i8*, i64* }, align 8
  %count.dbg.spill = alloca i64, align 8
  store i64 %count, i64* %count.dbg.spill, align 8
  call void @llvm.dbg.declare(metadata i64* %count.dbg.spill, metadata !695, metadata !DIExpression()), !dbg !699
  %1 = getelementptr inbounds { i8*, i64* }, { i8*, i64* }* %fold.dbg.spill, i32 0, i32 0
  store i8* %fold.0, i8** %1, align 8
  %2 = getelementptr inbounds { i8*, i64* }, { i8*, i64* }* %fold.dbg.spill, i32 0, i32 1
  store i64* %fold.1, i64** %2, align 8
  call void @llvm.dbg.declare(metadata { i8*, i64* }* %fold.dbg.spill, metadata !696, metadata !DIExpression()), !dbg !700
  %3 = bitcast %"[closure@<core::iter::Enumerate<I> as core::iter::Iterator>::fold::enumerate<&mut u8, (), [closure@core::iter::Iterator::for_each::call<(usize, &mut u8), [closure@<block_buffer::generic_array::GenericArray<u8, block_buffer::generic_array::typenum::UInt<block_buffer::generic_array::typenum::UInt<block_buffer::generic_array::typenum::UInt<block_buffer::generic_array::typenum::UInt<block_buffer::generic_array::typenum::UInt<block_buffer::generic_array::typenum::UInt<block_buffer::generic_array::typenum::UInt<block_buffer::generic_array::typenum::UTerm, digest::consts::B1>, digest::consts::B0>, digest::consts::B0>, digest::consts::B0>, digest::consts::B0>, digest::consts::B0>, digest::consts::B0>> as block_buffer::generic_array::sequence::GenericSequence<u8>>::generate<[closure@block_buffer::generic_array::impls::<impl core::default::Default for block_buffer::generic_array::GenericArray<u8, block_buffer::generic_array::typenum::UInt<block_buffer::generic_array::typenum::UInt<block_buffer::generic_array::typenum::UInt<block_buffer::generic_array::typenum::UInt<block_buffer::generic_array::typenum::UInt<block_buffer::generic_array::typenum::UInt<block_buffer::generic_array::typenum::UInt<block_buffer::generic_array::typenum::UTerm, digest::consts::B1>, digest::consts::B0>, digest::consts::B0>, digest::consts::B0>, digest::consts::B0>, digest::consts::B0>, digest::consts::B0>>>::default::{closure#0}]>::{closure#0}]>::{closure#0}]>::{closure#0}]"* %0 to { i8*, i64* }*, !dbg !701
  %4 = getelementptr inbounds { i8*, i64* }, { i8*, i64* }* %3, i32 0, i32 0, !dbg !701
  store i8* %fold.0, i8** %4, align 8, !dbg !701
  %5 = getelementptr inbounds { i8*, i64* }, { i8*, i64* }* %3, i32 0, i32 1, !dbg !701
  store i64* %fold.1, i64** %5, align 8, !dbg !701
  %6 = getelementptr inbounds %"[closure@<core::iter::Enumerate<I> as core::iter::Iterator>::fold::enumerate<&mut u8, (), [closure@core::iter::Iterator::for_each::call<(usize, &mut u8), [closure@<block_buffer::generic_array::GenericArray<u8, block_buffer::generic_array::typenum::UInt<block_buffer::generic_array::typenum::UInt<block_buffer::generic_array::typenum::UInt<block_buffer::generic_array::typenum::UInt<block_buffer::generic_array::typenum::UInt<block_buffer::generic_array::typenum::UInt<block_buffer::generic_array::typenum::UInt<block_buffer::generic_array::typenum::UTerm, digest::consts::B1>, digest::consts::B0>, digest::consts::B0>, digest::consts::B0>, digest::consts::B0>, digest::consts::B0>, digest::consts::B0>> as block_buffer::generic_array::sequence::GenericSequence<u8>>::generate<[closure@block_buffer::generic_array::impls::<impl core::default::Default for block_buffer::generic_array::GenericArray<u8, block_buffer::generic_array::typenum::UInt<block_buffer::generic_array::typenum::UInt<block_buffer::generic_array::typenum::UInt<block_buffer::generic_array::typenum::UInt<block_buffer::generic_array::typenum::UInt<block_buffer::generic_array::typenum::UInt<block_buffer::generic_array::typenum::UInt<block_buffer::generic_array::typenum::UTerm, digest::consts::B1>, digest::consts::B0>, digest::consts::B0>, digest::consts::B0>, digest::consts::B0>, digest::consts::B0>, digest::consts::B0>>>::default::{closure#0}]>::{closure#0}]>::{closure#0}]>::{closure#0}]", %"[closure@<core::iter::Enumerate<I> as core::iter::Iterator>::fold::enumerate<&mut u8, (), [closure@core::iter::Iterator::for_each::call<(usize, &mut u8), [closure@<block_buffer::generic_array::GenericArray<u8, block_buffer::generic_array::typenum::UInt<block_buffer::generic_array::typenum::UInt<block_buffer::generic_array::typenum::UInt<block_buffer::generic_array::typenum::UInt<block_buffer::generic_array::typenum::UInt<block_buffer::generic_array::typenum::UInt<block_buffer::generic_array::typenum::UInt<block_buffer::generic_array::typenum::UTerm, digest::consts::B1>, digest::consts::B0>, digest::consts::B0>, digest::consts::B0>, digest::consts::B0>, digest::consts::B0>, digest::consts::B0>> as block_buffer::generic_array::sequence::GenericSequence<u8>>::generate<[closure@block_buffer::generic_array::impls::<impl core::default::Default for block_buffer::generic_array::GenericArray<u8, block_buffer::generic_array::typenum::UInt<block_buffer::generic_array::typenum::UInt<block_buffer::generic_array::typenum::UInt<block_buffer::generic_array::typenum::UInt<block_buffer::generic_array::typenum::UInt<block_buffer::generic_array::typenum::UInt<block_buffer::generic_array::typenum::UInt<block_buffer::generic_array::typenum::UTerm, digest::consts::B1>, digest::consts::B0>, digest::consts::B0>, digest::consts::B0>, digest::consts::B0>, digest::consts::B0>, digest::consts::B0>>>::default::{closure#0}]>::{closure#0}]>::{closure#0}]>::{closure#0}]"* %0, i32 0, i32 1, !dbg !701
  store i64 %count, i64* %6, align 8, !dbg !701
  ret void, !dbg !702
}

; <core::iter::adapters::enumerate::Enumerate<I> as core::iter::traits::iterator::Iterator>::fold::enumerate::{{closure}}
; Function Attrs: inlinehint nounwind
define void @"_ZN110_$LT$core..iter..adapters..enumerate..Enumerate$LT$I$GT$$u20$as$u20$core..iter..traits..iterator..Iterator$GT$4fold9enumerate28_$u7b$$u7b$closure$u7d$$u7d$17h0c8de962cb969189E"(%"[closure@<core::iter::Enumerate<I> as core::iter::Iterator>::fold::enumerate<&mut u8, (), [closure@core::iter::Iterator::for_each::call<(usize, &mut u8), [closure@<block_buffer::generic_array::GenericArray<u8, block_buffer::generic_array::typenum::UInt<block_buffer::generic_array::typenum::UInt<block_buffer::generic_array::typenum::UInt<block_buffer::generic_array::typenum::UInt<block_buffer::generic_array::typenum::UInt<block_buffer::generic_array::typenum::UInt<block_buffer::generic_array::typenum::UInt<block_buffer::generic_array::typenum::UTerm, digest::consts::B1>, digest::consts::B0>, digest::consts::B0>, digest::consts::B0>, digest::consts::B0>, digest::consts::B0>, digest::consts::B0>> as block_buffer::generic_array::sequence::GenericSequence<u8>>::generate<[closure@block_buffer::generic_array::impls::<impl core::default::Default for block_buffer::generic_array::GenericArray<u8, block_buffer::generic_array::typenum::UInt<block_buffer::generic_array::typenum::UInt<block_buffer::generic_array::typenum::UInt<block_buffer::generic_array::typenum::UInt<block_buffer::generic_array::typenum::UInt<block_buffer::generic_array::typenum::UInt<block_buffer::generic_array::typenum::UInt<block_buffer::generic_array::typenum::UTerm, digest::consts::B1>, digest::consts::B0>, digest::consts::B0>, digest::consts::B0>, digest::consts::B0>, digest::consts::B0>, digest::consts::B0>>>::default::{closure#0}]>::{closure#0}]>::{closure#0}]>::{closure#0}]"* align 8 dereferenceable(24) %_1, i8* align 1 dereferenceable(1) %item) unnamed_addr #1 !dbg !703 {
start:
  %item.dbg.spill = alloca i8*, align 8
  %acc.dbg.spill1 = alloca {}, align 1
  %_1.dbg.spill = alloca %"[closure@<core::iter::Enumerate<I> as core::iter::Iterator>::fold::enumerate<&mut u8, (), [closure@core::iter::Iterator::for_each::call<(usize, &mut u8), [closure@<block_buffer::generic_array::GenericArray<u8, block_buffer::generic_array::typenum::UInt<block_buffer::generic_array::typenum::UInt<block_buffer::generic_array::typenum::UInt<block_buffer::generic_array::typenum::UInt<block_buffer::generic_array::typenum::UInt<block_buffer::generic_array::typenum::UInt<block_buffer::generic_array::typenum::UInt<block_buffer::generic_array::typenum::UTerm, digest::consts::B1>, digest::consts::B0>, digest::consts::B0>, digest::consts::B0>, digest::consts::B0>, digest::consts::B0>, digest::consts::B0>> as block_buffer::generic_array::sequence::GenericSequence<u8>>::generate<[closure@block_buffer::generic_array::impls::<impl core::default::Default for block_buffer::generic_array::GenericArray<u8, block_buffer::generic_array::typenum::UInt<block_buffer::generic_array::typenum::UInt<block_buffer::generic_array::typenum::UInt<block_buffer::generic_array::typenum::UInt<block_buffer::generic_array::typenum::UInt<block_buffer::generic_array::typenum::UInt<block_buffer::generic_array::typenum::UInt<block_buffer::generic_array::typenum::UTerm, digest::consts::B1>, digest::consts::B0>, digest::consts::B0>, digest::consts::B0>, digest::consts::B0>, digest::consts::B0>, digest::consts::B0>>>::default::{closure#0}]>::{closure#0}]>::{closure#0}]>::{closure#0}]"*, align 8
  %acc.dbg.spill = alloca {}, align 1
  %_7 = alloca { i64, i8* }, align 8
  %_5 = alloca { i64, i8* }, align 8
  call void @llvm.dbg.declare(metadata {}* %acc.dbg.spill, metadata !712, metadata !DIExpression()), !dbg !714
  store %"[closure@<core::iter::Enumerate<I> as core::iter::Iterator>::fold::enumerate<&mut u8, (), [closure@core::iter::Iterator::for_each::call<(usize, &mut u8), [closure@<block_buffer::generic_array::GenericArray<u8, block_buffer::generic_array::typenum::UInt<block_buffer::generic_array::typenum::UInt<block_buffer::generic_array::typenum::UInt<block_buffer::generic_array::typenum::UInt<block_buffer::generic_array::typenum::UInt<block_buffer::generic_array::typenum::UInt<block_buffer::generic_array::typenum::UInt<block_buffer::generic_array::typenum::UTerm, digest::consts::B1>, digest::consts::B0>, digest::consts::B0>, digest::consts::B0>, digest::consts::B0>, digest::consts::B0>, digest::consts::B0>> as block_buffer::generic_array::sequence::GenericSequence<u8>>::generate<[closure@block_buffer::generic_array::impls::<impl core::default::Default for block_buffer::generic_array::GenericArray<u8, block_buffer::generic_array::typenum::UInt<block_buffer::generic_array::typenum::UInt<block_buffer::generic_array::typenum::UInt<block_buffer::generic_array::typenum::UInt<block_buffer::generic_array::typenum::UInt<block_buffer::generic_array::typenum::UInt<block_buffer::generic_array::typenum::UInt<block_buffer::generic_array::typenum::UTerm, digest::consts::B1>, digest::consts::B0>, digest::consts::B0>, digest::consts::B0>, digest::consts::B0>, digest::consts::B0>, digest::consts::B0>>>::default::{closure#0}]>::{closure#0}]>::{closure#0}]>::{closure#0}]"* %_1, %"[closure@<core::iter::Enumerate<I> as core::iter::Iterator>::fold::enumerate<&mut u8, (), [closure@core::iter::Iterator::for_each::call<(usize, &mut u8), [closure@<block_buffer::generic_array::GenericArray<u8, block_buffer::generic_array::typenum::UInt<block_buffer::generic_array::typenum::UInt<block_buffer::generic_array::typenum::UInt<block_buffer::generic_array::typenum::UInt<block_buffer::generic_array::typenum::UInt<block_buffer::generic_array::typenum::UInt<block_buffer::generic_array::typenum::UInt<block_buffer::generic_array::typenum::UTerm, digest::consts::B1>, digest::consts::B0>, digest::consts::B0>, digest::consts::B0>, digest::consts::B0>, digest::consts::B0>, digest::consts::B0>> as block_buffer::generic_array::sequence::GenericSequence<u8>>::generate<[closure@block_buffer::generic_array::impls::<impl core::default::Default for block_buffer::generic_array::GenericArray<u8, block_buffer::generic_array::typenum::UInt<block_buffer::generic_array::typenum::UInt<block_buffer::generic_array::typenum::UInt<block_buffer::generic_array::typenum::UInt<block_buffer::generic_array::typenum::UInt<block_buffer::generic_array::typenum::UInt<block_buffer::generic_array::typenum::UInt<block_buffer::generic_array::typenum::UTerm, digest::consts::B1>, digest::consts::B0>, digest::consts::B0>, digest::consts::B0>, digest::consts::B0>, digest::consts::B0>, digest::consts::B0>>>::default::{closure#0}]>::{closure#0}]>::{closure#0}]>::{closure#0}]"** %_1.dbg.spill, align 8
  %0 = load %"[closure@<core::iter::Enumerate<I> as core::iter::Iterator>::fold::enumerate<&mut u8, (), [closure@core::iter::Iterator::for_each::call<(usize, &mut u8), [closure@<block_buffer::generic_array::GenericArray<u8, block_buffer::generic_array::typenum::UInt<block_buffer::generic_array::typenum::UInt<block_buffer::generic_array::typenum::UInt<block_buffer::generic_array::typenum::UInt<block_buffer::generic_array::typenum::UInt<block_buffer::generic_array::typenum::UInt<block_buffer::generic_array::typenum::UInt<block_buffer::generic_array::typenum::UTerm, digest::consts::B1>, digest::consts::B0>, digest::consts::B0>, digest::consts::B0>, digest::consts::B0>, digest::consts::B0>, digest::consts::B0>> as block_buffer::generic_array::sequence::GenericSequence<u8>>::generate<[closure@block_buffer::generic_array::impls::<impl core::default::Default for block_buffer::generic_array::GenericArray<u8, block_buffer::generic_array::typenum::UInt<block_buffer::generic_array::typenum::UInt<block_buffer::generic_array::typenum::UInt<block_buffer::generic_array::typenum::UInt<block_buffer::generic_array::typenum::UInt<block_buffer::generic_array::typenum::UInt<block_buffer::generic_array::typenum::UInt<block_buffer::generic_array::typenum::UTerm, digest::consts::B1>, digest::consts::B0>, digest::consts::B0>, digest::consts::B0>, digest::consts::B0>, digest::consts::B0>, digest::consts::B0>>>::default::{closure#0}]>::{closure#0}]>::{closure#0}]>::{closure#0}]"*, %"[closure@<core::iter::Enumerate<I> as core::iter::Iterator>::fold::enumerate<&mut u8, (), [closure@core::iter::Iterator::for_each::call<(usize, &mut u8), [closure@<block_buffer::generic_array::GenericArray<u8, block_buffer::generic_array::typenum::UInt<block_buffer::generic_array::typenum::UInt<block_buffer::generic_array::typenum::UInt<block_buffer::generic_array::typenum::UInt<block_buffer::generic_array::typenum::UInt<block_buffer::generic_array::typenum::UInt<block_buffer::generic_array::typenum::UInt<block_buffer::generic_array::typenum::UTerm, digest::consts::B1>, digest::consts::B0>, digest::consts::B0>, digest::consts::B0>, digest::consts::B0>, digest::consts::B0>, digest::consts::B0>> as block_buffer::generic_array::sequence::GenericSequence<u8>>::generate<[closure@block_buffer::generic_array::impls::<impl core::default::Default for block_buffer::generic_array::GenericArray<u8, block_buffer::generic_array::typenum::UInt<block_buffer::generic_array::typenum::UInt<block_buffer::generic_array::typenum::UInt<block_buffer::generic_array::typenum::UInt<block_buffer::generic_array::typenum::UInt<block_buffer::generic_array::typenum::UInt<block_buffer::generic_array::typenum::UInt<block_buffer::generic_array::typenum::UTerm, digest::consts::B1>, digest::consts::B0>, digest::consts::B0>, digest::consts::B0>, digest::consts::B0>, digest::consts::B0>, digest::consts::B0>>>::default::{closure#0}]>::{closure#0}]>::{closure#0}]>::{closure#0}]"** %_1.dbg.spill, align 8, !nonnull !4
  %1 = bitcast %"[closure@<core::iter::Enumerate<I> as core::iter::Iterator>::fold::enumerate<&mut u8, (), [closure@core::iter::Iterator::for_each::call<(usize, &mut u8), [closure@<block_buffer::generic_array::GenericArray<u8, block_buffer::generic_array::typenum::UInt<block_buffer::generic_array::typenum::UInt<block_buffer::generic_array::typenum::UInt<block_buffer::generic_array::typenum::UInt<block_buffer::generic_array::typenum::UInt<block_buffer::generic_array::typenum::UInt<block_buffer::generic_array::typenum::UInt<block_buffer::generic_array::typenum::UTerm, digest::consts::B1>, digest::consts::B0>, digest::consts::B0>, digest::consts::B0>, digest::consts::B0>, digest::consts::B0>, digest::consts::B0>> as block_buffer::generic_array::sequence::GenericSequence<u8>>::generate<[closure@block_buffer::generic_array::impls::<impl core::default::Default for block_buffer::generic_array::GenericArray<u8, block_buffer::generic_array::typenum::UInt<block_buffer::generic_array::typenum::UInt<block_buffer::generic_array::typenum::UInt<block_buffer::generic_array::typenum::UInt<block_buffer::generic_array::typenum::UInt<block_buffer::generic_array::typenum::UInt<block_buffer::generic_array::typenum::UInt<block_buffer::generic_array::typenum::UTerm, digest::consts::B1>, digest::consts::B0>, digest::consts::B0>, digest::consts::B0>, digest::consts::B0>, digest::consts::B0>, digest::consts::B0>>>::default::{closure#0}]>::{closure#0}]>::{closure#0}]>::{closure#0}]"* %0 to { i8*, i64* }*
  call void @llvm.dbg.declare(metadata %"[closure@<core::iter::Enumerate<I> as core::iter::Iterator>::fold::enumerate<&mut u8, (), [closure@core::iter::Iterator::for_each::call<(usize, &mut u8), [closure@<block_buffer::generic_array::GenericArray<u8, block_buffer::generic_array::typenum::UInt<block_buffer::generic_array::typenum::UInt<block_buffer::generic_array::typenum::UInt<block_buffer::generic_array::typenum::UInt<block_buffer::generic_array::typenum::UInt<block_buffer::generic_array::typenum::UInt<block_buffer::generic_array::typenum::UInt<block_buffer::generic_array::typenum::UTerm, digest::consts::B1>, digest::consts::B0>, digest::consts::B0>, digest::consts::B0>, digest::consts::B0>, digest::consts::B0>, digest::consts::B0>> as block_buffer::generic_array::sequence::GenericSequence<u8>>::generate<[closure@block_buffer::generic_array::impls::<impl core::default::Default for block_buffer::generic_array::GenericArray<u8, block_buffer::generic_array::typenum::UInt<block_buffer::generic_array::typenum::UInt<block_buffer::generic_array::typenum::UInt<block_buffer::generic_array::typenum::UInt<block_buffer::generic_array::typenum::UInt<block_buffer::generic_array::typenum::UInt<block_buffer::generic_array::typenum::UInt<block_buffer::generic_array::typenum::UTerm, digest::consts::B1>, digest::consts::B0>, digest::consts::B0>, digest::consts::B0>, digest::consts::B0>, digest::consts::B0>, digest::consts::B0>>>::default::{closure#0}]>::{closure#0}]>::{closure#0}]>::{closure#0}]"** %_1.dbg.spill, metadata !710, metadata !DIExpression(DW_OP_deref)), !dbg !715
  %2 = load %"[closure@<core::iter::Enumerate<I> as core::iter::Iterator>::fold::enumerate<&mut u8, (), [closure@core::iter::Iterator::for_each::call<(usize, &mut u8), [closure@<block_buffer::generic_array::GenericArray<u8, block_buffer::generic_array::typenum::UInt<block_buffer::generic_array::typenum::UInt<block_buffer::generic_array::typenum::UInt<block_buffer::generic_array::typenum::UInt<block_buffer::generic_array::typenum::UInt<block_buffer::generic_array::typenum::UInt<block_buffer::generic_array::typenum::UInt<block_buffer::generic_array::typenum::UTerm, digest::consts::B1>, digest::consts::B0>, digest::consts::B0>, digest::consts::B0>, digest::consts::B0>, digest::consts::B0>, digest::consts::B0>> as block_buffer::generic_array::sequence::GenericSequence<u8>>::generate<[closure@block_buffer::generic_array::impls::<impl core::default::Default for block_buffer::generic_array::GenericArray<u8, block_buffer::generic_array::typenum::UInt<block_buffer::generic_array::typenum::UInt<block_buffer::generic_array::typenum::UInt<block_buffer::generic_array::typenum::UInt<block_buffer::generic_array::typenum::UInt<block_buffer::generic_array::typenum::UInt<block_buffer::generic_array::typenum::UInt<block_buffer::generic_array::typenum::UTerm, digest::consts::B1>, digest::consts::B0>, digest::consts::B0>, digest::consts::B0>, digest::consts::B0>, digest::consts::B0>, digest::consts::B0>>>::default::{closure#0}]>::{closure#0}]>::{closure#0}]>::{closure#0}]"*, %"[closure@<core::iter::Enumerate<I> as core::iter::Iterator>::fold::enumerate<&mut u8, (), [closure@core::iter::Iterator::for_each::call<(usize, &mut u8), [closure@<block_buffer::generic_array::GenericArray<u8, block_buffer::generic_array::typenum::UInt<block_buffer::generic_array::typenum::UInt<block_buffer::generic_array::typenum::UInt<block_buffer::generic_array::typenum::UInt<block_buffer::generic_array::typenum::UInt<block_buffer::generic_array::typenum::UInt<block_buffer::generic_array::typenum::UInt<block_buffer::generic_array::typenum::UTerm, digest::consts::B1>, digest::consts::B0>, digest::consts::B0>, digest::consts::B0>, digest::consts::B0>, digest::consts::B0>, digest::consts::B0>> as block_buffer::generic_array::sequence::GenericSequence<u8>>::generate<[closure@block_buffer::generic_array::impls::<impl core::default::Default for block_buffer::generic_array::GenericArray<u8, block_buffer::generic_array::typenum::UInt<block_buffer::generic_array::typenum::UInt<block_buffer::generic_array::typenum::UInt<block_buffer::generic_array::typenum::UInt<block_buffer::generic_array::typenum::UInt<block_buffer::generic_array::typenum::UInt<block_buffer::generic_array::typenum::UInt<block_buffer::generic_array::typenum::UTerm, digest::consts::B1>, digest::consts::B0>, digest::consts::B0>, digest::consts::B0>, digest::consts::B0>, digest::consts::B0>, digest::consts::B0>>>::default::{closure#0}]>::{closure#0}]>::{closure#0}]>::{closure#0}]"** %_1.dbg.spill, align 8, !nonnull !4
  %3 = getelementptr inbounds %"[closure@<core::iter::Enumerate<I> as core::iter::Iterator>::fold::enumerate<&mut u8, (), [closure@core::iter::Iterator::for_each::call<(usize, &mut u8), [closure@<block_buffer::generic_array::GenericArray<u8, block_buffer::generic_array::typenum::UInt<block_buffer::generic_array::typenum::UInt<block_buffer::generic_array::typenum::UInt<block_buffer::generic_array::typenum::UInt<block_buffer::generic_array::typenum::UInt<block_buffer::generic_array::typenum::UInt<block_buffer::generic_array::typenum::UInt<block_buffer::generic_array::typenum::UTerm, digest::consts::B1>, digest::consts::B0>, digest::consts::B0>, digest::consts::B0>, digest::consts::B0>, digest::consts::B0>, digest::consts::B0>> as block_buffer::generic_array::sequence::GenericSequence<u8>>::generate<[closure@block_buffer::generic_array::impls::<impl core::default::Default for block_buffer::generic_array::GenericArray<u8, block_buffer::generic_array::typenum::UInt<block_buffer::generic_array::typenum::UInt<block_buffer::generic_array::typenum::UInt<block_buffer::generic_array::typenum::UInt<block_buffer::generic_array::typenum::UInt<block_buffer::generic_array::typenum::UInt<block_buffer::generic_array::typenum::UInt<block_buffer::generic_array::typenum::UTerm, digest::consts::B1>, digest::consts::B0>, digest::consts::B0>, digest::consts::B0>, digest::consts::B0>, digest::consts::B0>, digest::consts::B0>>>::default::{closure#0}]>::{closure#0}]>::{closure#0}]>::{closure#0}]", %"[closure@<core::iter::Enumerate<I> as core::iter::Iterator>::fold::enumerate<&mut u8, (), [closure@core::iter::Iterator::for_each::call<(usize, &mut u8), [closure@<block_buffer::generic_array::GenericArray<u8, block_buffer::generic_array::typenum::UInt<block_buffer::generic_array::typenum::UInt<block_buffer::generic_array::typenum::UInt<block_buffer::generic_array::typenum::UInt<block_buffer::generic_array::typenum::UInt<block_buffer::generic_array::typenum::UInt<block_buffer::generic_array::typenum::UInt<block_buffer::generic_array::typenum::UTerm, digest::consts::B1>, digest::consts::B0>, digest::consts::B0>, digest::consts::B0>, digest::consts::B0>, digest::consts::B0>, digest::consts::B0>> as block_buffer::generic_array::sequence::GenericSequence<u8>>::generate<[closure@block_buffer::generic_array::impls::<impl core::default::Default for block_buffer::generic_array::GenericArray<u8, block_buffer::generic_array::typenum::UInt<block_buffer::generic_array::typenum::UInt<block_buffer::generic_array::typenum::UInt<block_buffer::generic_array::typenum::UInt<block_buffer::generic_array::typenum::UInt<block_buffer::generic_array::typenum::UInt<block_buffer::generic_array::typenum::UInt<block_buffer::generic_array::typenum::UTerm, digest::consts::B1>, digest::consts::B0>, digest::consts::B0>, digest::consts::B0>, digest::consts::B0>, digest::consts::B0>, digest::consts::B0>>>::default::{closure#0}]>::{closure#0}]>::{closure#0}]>::{closure#0}]"* %2, i32 0, i32 1
  call void @llvm.dbg.declare(metadata %"[closure@<core::iter::Enumerate<I> as core::iter::Iterator>::fold::enumerate<&mut u8, (), [closure@core::iter::Iterator::for_each::call<(usize, &mut u8), [closure@<block_buffer::generic_array::GenericArray<u8, block_buffer::generic_array::typenum::UInt<block_buffer::generic_array::typenum::UInt<block_buffer::generic_array::typenum::UInt<block_buffer::generic_array::typenum::UInt<block_buffer::generic_array::typenum::UInt<block_buffer::generic_array::typenum::UInt<block_buffer::generic_array::typenum::UInt<block_buffer::generic_array::typenum::UTerm, digest::consts::B1>, digest::consts::B0>, digest::consts::B0>, digest::consts::B0>, digest::consts::B0>, digest::consts::B0>, digest::consts::B0>> as block_buffer::generic_array::sequence::GenericSequence<u8>>::generate<[closure@block_buffer::generic_array::impls::<impl core::default::Default for block_buffer::generic_array::GenericArray<u8, block_buffer::generic_array::typenum::UInt<block_buffer::generic_array::typenum::UInt<block_buffer::generic_array::typenum::UInt<block_buffer::generic_array::typenum::UInt<block_buffer::generic_array::typenum::UInt<block_buffer::generic_array::typenum::UInt<block_buffer::generic_array::typenum::UInt<block_buffer::generic_array::typenum::UTerm, digest::consts::B1>, digest::consts::B0>, digest::consts::B0>, digest::consts::B0>, digest::consts::B0>, digest::consts::B0>, digest::consts::B0>>>::default::{closure#0}]>::{closure#0}]>::{closure#0}]>::{closure#0}]"** %_1.dbg.spill, metadata !711, metadata !DIExpression(DW_OP_deref, DW_OP_plus_uconst, 16)), !dbg !716
  call void @llvm.dbg.declare(metadata {}* %acc.dbg.spill1, metadata !708, metadata !DIExpression()), !dbg !717
  store i8* %item, i8** %item.dbg.spill, align 8
  call void @llvm.dbg.declare(metadata i8** %item.dbg.spill, metadata !709, metadata !DIExpression()), !dbg !718
  %_4 = bitcast %"[closure@<core::iter::Enumerate<I> as core::iter::Iterator>::fold::enumerate<&mut u8, (), [closure@core::iter::Iterator::for_each::call<(usize, &mut u8), [closure@<block_buffer::generic_array::GenericArray<u8, block_buffer::generic_array::typenum::UInt<block_buffer::generic_array::typenum::UInt<block_buffer::generic_array::typenum::UInt<block_buffer::generic_array::typenum::UInt<block_buffer::generic_array::typenum::UInt<block_buffer::generic_array::typenum::UInt<block_buffer::generic_array::typenum::UInt<block_buffer::generic_array::typenum::UTerm, digest::consts::B1>, digest::consts::B0>, digest::consts::B0>, digest::consts::B0>, digest::consts::B0>, digest::consts::B0>, digest::consts::B0>> as block_buffer::generic_array::sequence::GenericSequence<u8>>::generate<[closure@block_buffer::generic_array::impls::<impl core::default::Default for block_buffer::generic_array::GenericArray<u8, block_buffer::generic_array::typenum::UInt<block_buffer::generic_array::typenum::UInt<block_buffer::generic_array::typenum::UInt<block_buffer::generic_array::typenum::UInt<block_buffer::generic_array::typenum::UInt<block_buffer::generic_array::typenum::UInt<block_buffer::generic_array::typenum::UInt<block_buffer::generic_array::typenum::UTerm, digest::consts::B1>, digest::consts::B0>, digest::consts::B0>, digest::consts::B0>, digest::consts::B0>, digest::consts::B0>, digest::consts::B0>>>::default::{closure#0}]>::{closure#0}]>::{closure#0}]>::{closure#0}]"* %_1 to { i8*, i64* }*, !dbg !719
  %4 = getelementptr inbounds %"[closure@<core::iter::Enumerate<I> as core::iter::Iterator>::fold::enumerate<&mut u8, (), [closure@core::iter::Iterator::for_each::call<(usize, &mut u8), [closure@<block_buffer::generic_array::GenericArray<u8, block_buffer::generic_array::typenum::UInt<block_buffer::generic_array::typenum::UInt<block_buffer::generic_array::typenum::UInt<block_buffer::generic_array::typenum::UInt<block_buffer::generic_array::typenum::UInt<block_buffer::generic_array::typenum::UInt<block_buffer::generic_array::typenum::UInt<block_buffer::generic_array::typenum::UTerm, digest::consts::B1>, digest::consts::B0>, digest::consts::B0>, digest::consts::B0>, digest::consts::B0>, digest::consts::B0>, digest::consts::B0>> as block_buffer::generic_array::sequence::GenericSequence<u8>>::generate<[closure@block_buffer::generic_array::impls::<impl core::default::Default for block_buffer::generic_array::GenericArray<u8, block_buffer::generic_array::typenum::UInt<block_buffer::generic_array::typenum::UInt<block_buffer::generic_array::typenum::UInt<block_buffer::generic_array::typenum::UInt<block_buffer::generic_array::typenum::UInt<block_buffer::generic_array::typenum::UInt<block_buffer::generic_array::typenum::UInt<block_buffer::generic_array::typenum::UTerm, digest::consts::B1>, digest::consts::B0>, digest::consts::B0>, digest::consts::B0>, digest::consts::B0>, digest::consts::B0>, digest::consts::B0>>>::default::{closure#0}]>::{closure#0}]>::{closure#0}]>::{closure#0}]", %"[closure@<core::iter::Enumerate<I> as core::iter::Iterator>::fold::enumerate<&mut u8, (), [closure@core::iter::Iterator::for_each::call<(usize, &mut u8), [closure@<block_buffer::generic_array::GenericArray<u8, block_buffer::generic_array::typenum::UInt<block_buffer::generic_array::typenum::UInt<block_buffer::generic_array::typenum::UInt<block_buffer::generic_array::typenum::UInt<block_buffer::generic_array::typenum::UInt<block_buffer::generic_array::typenum::UInt<block_buffer::generic_array::typenum::UInt<block_buffer::generic_array::typenum::UTerm, digest::consts::B1>, digest::consts::B0>, digest::consts::B0>, digest::consts::B0>, digest::consts::B0>, digest::consts::B0>, digest::consts::B0>> as block_buffer::generic_array::sequence::GenericSequence<u8>>::generate<[closure@block_buffer::generic_array::impls::<impl core::default::Default for block_buffer::generic_array::GenericArray<u8, block_buffer::generic_array::typenum::UInt<block_buffer::generic_array::typenum::UInt<block_buffer::generic_array::typenum::UInt<block_buffer::generic_array::typenum::UInt<block_buffer::generic_array::typenum::UInt<block_buffer::generic_array::typenum::UInt<block_buffer::generic_array::typenum::UInt<block_buffer::generic_array::typenum::UTerm, digest::consts::B1>, digest::consts::B0>, digest::consts::B0>, digest::consts::B0>, digest::consts::B0>, digest::consts::B0>, digest::consts::B0>>>::default::{closure#0}]>::{closure#0}]>::{closure#0}]>::{closure#0}]"* %_1, i32 0, i32 1, !dbg !720
  %_8 = load i64, i64* %4, align 8, !dbg !720
  %5 = bitcast { i64, i8* }* %_7 to i64*, !dbg !721
  store i64 %_8, i64* %5, align 8, !dbg !721
  %6 = getelementptr inbounds { i64, i8* }, { i64, i8* }* %_7, i32 0, i32 1, !dbg !721
  store i8* %item, i8** %6, align 8, !dbg !721
  %7 = bitcast { i64, i8* }* %_5 to {}*, !dbg !719
  %8 = getelementptr inbounds { i64, i8* }, { i64, i8* }* %_7, i32 0, i32 0, !dbg !719
  %9 = load i64, i64* %8, align 8, !dbg !719
  %10 = getelementptr inbounds { i64, i8* }, { i64, i8* }* %_7, i32 0, i32 1, !dbg !719
  %11 = load i8*, i8** %10, align 8, !dbg !719, !nonnull !4
  %12 = getelementptr inbounds { i64, i8* }, { i64, i8* }* %_5, i32 0, i32 0, !dbg !719
  store i64 %9, i64* %12, align 8, !dbg !719
  %13 = getelementptr inbounds { i64, i8* }, { i64, i8* }* %_5, i32 0, i32 1, !dbg !719
  store i8* %11, i8** %13, align 8, !dbg !719
  %14 = getelementptr inbounds { i64, i8* }, { i64, i8* }* %_5, i32 0, i32 0, !dbg !719
  %15 = load i64, i64* %14, align 8, !dbg !719
  %16 = getelementptr inbounds { i64, i8* }, { i64, i8* }* %_5, i32 0, i32 1, !dbg !719
  %17 = load i8*, i8** %16, align 8, !dbg !719, !nonnull !4
; call core::iter::traits::iterator::Iterator::for_each::call::{{closure}}
  call void @"_ZN4core4iter6traits8iterator8Iterator8for_each4call28_$u7b$$u7b$closure$u7d$$u7d$17h4c41daaa536e0076E"({ i8*, i64* }* align 8 dereferenceable(16) %_4, i64 %15, i8* align 1 dereferenceable(1) %17), !dbg !719
  br label %bb1, !dbg !719

bb1:                                              ; preds = %start
  %18 = getelementptr inbounds %"[closure@<core::iter::Enumerate<I> as core::iter::Iterator>::fold::enumerate<&mut u8, (), [closure@core::iter::Iterator::for_each::call<(usize, &mut u8), [closure@<block_buffer::generic_array::GenericArray<u8, block_buffer::generic_array::typenum::UInt<block_buffer::generic_array::typenum::UInt<block_buffer::generic_array::typenum::UInt<block_buffer::generic_array::typenum::UInt<block_buffer::generic_array::typenum::UInt<block_buffer::generic_array::typenum::UInt<block_buffer::generic_array::typenum::UInt<block_buffer::generic_array::typenum::UTerm, digest::consts::B1>, digest::consts::B0>, digest::consts::B0>, digest::consts::B0>, digest::consts::B0>, digest::consts::B0>, digest::consts::B0>> as block_buffer::generic_array::sequence::GenericSequence<u8>>::generate<[closure@block_buffer::generic_array::impls::<impl core::default::Default for block_buffer::generic_array::GenericArray<u8, block_buffer::generic_array::typenum::UInt<block_buffer::generic_array::typenum::UInt<block_buffer::generic_array::typenum::UInt<block_buffer::generic_array::typenum::UInt<block_buffer::generic_array::typenum::UInt<block_buffer::generic_array::typenum::UInt<block_buffer::generic_array::typenum::UInt<block_buffer::generic_array::typenum::UTerm, digest::consts::B1>, digest::consts::B0>, digest::consts::B0>, digest::consts::B0>, digest::consts::B0>, digest::consts::B0>, digest::consts::B0>>>::default::{closure#0}]>::{closure#0}]>::{closure#0}]>::{closure#0}]", %"[closure@<core::iter::Enumerate<I> as core::iter::Iterator>::fold::enumerate<&mut u8, (), [closure@core::iter::Iterator::for_each::call<(usize, &mut u8), [closure@<block_buffer::generic_array::GenericArray<u8, block_buffer::generic_array::typenum::UInt<block_buffer::generic_array::typenum::UInt<block_buffer::generic_array::typenum::UInt<block_buffer::generic_array::typenum::UInt<block_buffer::generic_array::typenum::UInt<block_buffer::generic_array::typenum::UInt<block_buffer::generic_array::typenum::UInt<block_buffer::generic_array::typenum::UTerm, digest::consts::B1>, digest::consts::B0>, digest::consts::B0>, digest::consts::B0>, digest::consts::B0>, digest::consts::B0>, digest::consts::B0>> as block_buffer::generic_array::sequence::GenericSequence<u8>>::generate<[closure@block_buffer::generic_array::impls::<impl core::default::Default for block_buffer::generic_array::GenericArray<u8, block_buffer::generic_array::typenum::UInt<block_buffer::generic_array::typenum::UInt<block_buffer::generic_array::typenum::UInt<block_buffer::generic_array::typenum::UInt<block_buffer::generic_array::typenum::UInt<block_buffer::generic_array::typenum::UInt<block_buffer::generic_array::typenum::UInt<block_buffer::generic_array::typenum::UTerm, digest::consts::B1>, digest::consts::B0>, digest::consts::B0>, digest::consts::B0>, digest::consts::B0>, digest::consts::B0>, digest::consts::B0>>>::default::{closure#0}]>::{closure#0}]>::{closure#0}]>::{closure#0}]"* %_1, i32 0, i32 1, !dbg !722
  %19 = load i64, i64* %18, align 8, !dbg !722
  %20 = call { i64, i1 } @llvm.uadd.with.overflow.i64(i64 %19, i64 1), !dbg !722
  %_10.0 = extractvalue { i64, i1 } %20, 0, !dbg !722
  %_10.1 = extractvalue { i64, i1 } %20, 1, !dbg !722
  %21 = call i1 @llvm.expect.i1(i1 %_10.1, i1 false), !dbg !722
  br i1 %21, label %panic, label %bb2, !dbg !722

bb2:                                              ; preds = %bb1
  %22 = getelementptr inbounds %"[closure@<core::iter::Enumerate<I> as core::iter::Iterator>::fold::enumerate<&mut u8, (), [closure@core::iter::Iterator::for_each::call<(usize, &mut u8), [closure@<block_buffer::generic_array::GenericArray<u8, block_buffer::generic_array::typenum::UInt<block_buffer::generic_array::typenum::UInt<block_buffer::generic_array::typenum::UInt<block_buffer::generic_array::typenum::UInt<block_buffer::generic_array::typenum::UInt<block_buffer::generic_array::typenum::UInt<block_buffer::generic_array::typenum::UInt<block_buffer::generic_array::typenum::UTerm, digest::consts::B1>, digest::consts::B0>, digest::consts::B0>, digest::consts::B0>, digest::consts::B0>, digest::consts::B0>, digest::consts::B0>> as block_buffer::generic_array::sequence::GenericSequence<u8>>::generate<[closure@block_buffer::generic_array::impls::<impl core::default::Default for block_buffer::generic_array::GenericArray<u8, block_buffer::generic_array::typenum::UInt<block_buffer::generic_array::typenum::UInt<block_buffer::generic_array::typenum::UInt<block_buffer::generic_array::typenum::UInt<block_buffer::generic_array::typenum::UInt<block_buffer::generic_array::typenum::UInt<block_buffer::generic_array::typenum::UInt<block_buffer::generic_array::typenum::UTerm, digest::consts::B1>, digest::consts::B0>, digest::consts::B0>, digest::consts::B0>, digest::consts::B0>, digest::consts::B0>, digest::consts::B0>>>::default::{closure#0}]>::{closure#0}]>::{closure#0}]>::{closure#0}]", %"[closure@<core::iter::Enumerate<I> as core::iter::Iterator>::fold::enumerate<&mut u8, (), [closure@core::iter::Iterator::for_each::call<(usize, &mut u8), [closure@<block_buffer::generic_array::GenericArray<u8, block_buffer::generic_array::typenum::UInt<block_buffer::generic_array::typenum::UInt<block_buffer::generic_array::typenum::UInt<block_buffer::generic_array::typenum::UInt<block_buffer::generic_array::typenum::UInt<block_buffer::generic_array::typenum::UInt<block_buffer::generic_array::typenum::UInt<block_buffer::generic_array::typenum::UTerm, digest::consts::B1>, digest::consts::B0>, digest::consts::B0>, digest::consts::B0>, digest::consts::B0>, digest::consts::B0>, digest::consts::B0>> as block_buffer::generic_array::sequence::GenericSequence<u8>>::generate<[closure@block_buffer::generic_array::impls::<impl core::default::Default for block_buffer::generic_array::GenericArray<u8, block_buffer::generic_array::typenum::UInt<block_buffer::generic_array::typenum::UInt<block_buffer::generic_array::typenum::UInt<block_buffer::generic_array::typenum::UInt<block_buffer::generic_array::typenum::UInt<block_buffer::generic_array::typenum::UInt<block_buffer::generic_array::typenum::UInt<block_buffer::generic_array::typenum::UTerm, digest::consts::B1>, digest::consts::B0>, digest::consts::B0>, digest::consts::B0>, digest::consts::B0>, digest::consts::B0>, digest::consts::B0>>>::default::{closure#0}]>::{closure#0}]>::{closure#0}]>::{closure#0}]"* %_1, i32 0, i32 1, !dbg !722
  store i64 %_10.0, i64* %22, align 8, !dbg !722
  ret void, !dbg !723

panic:                                            ; preds = %bb1
; call core::panicking::panic
  call void @_ZN4core9panicking5panic17h560e3e4b7752857aE([0 x i8]* nonnull align 1 bitcast ([28 x i8]* @str.1 to [0 x i8]*), i64 28, %"core::panic::Location"* align 8 dereferenceable(24) bitcast (<{ i8*, [16 x i8] }>* @alloc789 to %"core::panic::Location"*)), !dbg !722
  unreachable, !dbg !722
}

; <core::iter::adapters::enumerate::Enumerate<I> as core::iter::traits::iterator::Iterator>::fold::enumerate::{{closure}}
; Function Attrs: inlinehint nounwind
define void @"_ZN110_$LT$core..iter..adapters..enumerate..Enumerate$LT$I$GT$$u20$as$u20$core..iter..traits..iterator..Iterator$GT$4fold9enumerate28_$u7b$$u7b$closure$u7d$$u7d$17hd9e2223740e37465E"(%"[closure@<core::iter::Enumerate<I> as core::iter::Iterator>::fold::enumerate<&mut u8, (), [closure@core::iter::Iterator::for_each::call<(usize, &mut u8), [closure@<block_buffer::generic_array::GenericArray<u8, block_buffer::generic_array::typenum::UInt<block_buffer::generic_array::typenum::UInt<block_buffer::generic_array::typenum::UInt<block_buffer::generic_array::typenum::UInt<block_buffer::generic_array::typenum::UInt<block_buffer::generic_array::typenum::UInt<block_buffer::generic_array::typenum::UInt<block_buffer::generic_array::typenum::UInt<block_buffer::generic_array::typenum::UTerm, digest::consts::B1>, digest::consts::B0>, digest::consts::B0>, digest::consts::B0>, digest::consts::B0>, digest::consts::B0>, digest::consts::B0>, digest::consts::B0>> as block_buffer::generic_array::sequence::GenericSequence<u8>>::generate<[closure@block_buffer::generic_array::impls::<impl core::default::Default for block_buffer::generic_array::GenericArray<u8, block_buffer::generic_array::typenum::UInt<block_buffer::generic_array::typenum::UInt<block_buffer::generic_array::typenum::UInt<block_buffer::generic_array::typenum::UInt<block_buffer::generic_array::typenum::UInt<block_buffer::generic_array::typenum::UInt<block_buffer::generic_array::typenum::UInt<block_buffer::generic_array::typenum::UInt<block_buffer::generic_array::typenum::UTerm, digest::consts::B1>, digest::consts::B0>, digest::consts::B0>, digest::consts::B0>, digest::consts::B0>, digest::consts::B0>, digest::consts::B0>, digest::consts::B0>>>::default::{closure#0}]>::{closure#0}]>::{closure#0}]>::{closure#0}]"* align 8 dereferenceable(24) %_1, i8* align 1 dereferenceable(1) %item) unnamed_addr #1 !dbg !724 {
start:
  %item.dbg.spill = alloca i8*, align 8
  %acc.dbg.spill1 = alloca {}, align 1
  %_1.dbg.spill = alloca %"[closure@<core::iter::Enumerate<I> as core::iter::Iterator>::fold::enumerate<&mut u8, (), [closure@core::iter::Iterator::for_each::call<(usize, &mut u8), [closure@<block_buffer::generic_array::GenericArray<u8, block_buffer::generic_array::typenum::UInt<block_buffer::generic_array::typenum::UInt<block_buffer::generic_array::typenum::UInt<block_buffer::generic_array::typenum::UInt<block_buffer::generic_array::typenum::UInt<block_buffer::generic_array::typenum::UInt<block_buffer::generic_array::typenum::UInt<block_buffer::generic_array::typenum::UInt<block_buffer::generic_array::typenum::UTerm, digest::consts::B1>, digest::consts::B0>, digest::consts::B0>, digest::consts::B0>, digest::consts::B0>, digest::consts::B0>, digest::consts::B0>, digest::consts::B0>> as block_buffer::generic_array::sequence::GenericSequence<u8>>::generate<[closure@block_buffer::generic_array::impls::<impl core::default::Default for block_buffer::generic_array::GenericArray<u8, block_buffer::generic_array::typenum::UInt<block_buffer::generic_array::typenum::UInt<block_buffer::generic_array::typenum::UInt<block_buffer::generic_array::typenum::UInt<block_buffer::generic_array::typenum::UInt<block_buffer::generic_array::typenum::UInt<block_buffer::generic_array::typenum::UInt<block_buffer::generic_array::typenum::UInt<block_buffer::generic_array::typenum::UTerm, digest::consts::B1>, digest::consts::B0>, digest::consts::B0>, digest::consts::B0>, digest::consts::B0>, digest::consts::B0>, digest::consts::B0>, digest::consts::B0>>>::default::{closure#0}]>::{closure#0}]>::{closure#0}]>::{closure#0}]"*, align 8
  %acc.dbg.spill = alloca {}, align 1
  %_7 = alloca { i64, i8* }, align 8
  %_5 = alloca { i64, i8* }, align 8
  call void @llvm.dbg.declare(metadata {}* %acc.dbg.spill, metadata !733, metadata !DIExpression()), !dbg !735
  store %"[closure@<core::iter::Enumerate<I> as core::iter::Iterator>::fold::enumerate<&mut u8, (), [closure@core::iter::Iterator::for_each::call<(usize, &mut u8), [closure@<block_buffer::generic_array::GenericArray<u8, block_buffer::generic_array::typenum::UInt<block_buffer::generic_array::typenum::UInt<block_buffer::generic_array::typenum::UInt<block_buffer::generic_array::typenum::UInt<block_buffer::generic_array::typenum::UInt<block_buffer::generic_array::typenum::UInt<block_buffer::generic_array::typenum::UInt<block_buffer::generic_array::typenum::UInt<block_buffer::generic_array::typenum::UTerm, digest::consts::B1>, digest::consts::B0>, digest::consts::B0>, digest::consts::B0>, digest::consts::B0>, digest::consts::B0>, digest::consts::B0>, digest::consts::B0>> as block_buffer::generic_array::sequence::GenericSequence<u8>>::generate<[closure@block_buffer::generic_array::impls::<impl core::default::Default for block_buffer::generic_array::GenericArray<u8, block_buffer::generic_array::typenum::UInt<block_buffer::generic_array::typenum::UInt<block_buffer::generic_array::typenum::UInt<block_buffer::generic_array::typenum::UInt<block_buffer::generic_array::typenum::UInt<block_buffer::generic_array::typenum::UInt<block_buffer::generic_array::typenum::UInt<block_buffer::generic_array::typenum::UInt<block_buffer::generic_array::typenum::UTerm, digest::consts::B1>, digest::consts::B0>, digest::consts::B0>, digest::consts::B0>, digest::consts::B0>, digest::consts::B0>, digest::consts::B0>, digest::consts::B0>>>::default::{closure#0}]>::{closure#0}]>::{closure#0}]>::{closure#0}]"* %_1, %"[closure@<core::iter::Enumerate<I> as core::iter::Iterator>::fold::enumerate<&mut u8, (), [closure@core::iter::Iterator::for_each::call<(usize, &mut u8), [closure@<block_buffer::generic_array::GenericArray<u8, block_buffer::generic_array::typenum::UInt<block_buffer::generic_array::typenum::UInt<block_buffer::generic_array::typenum::UInt<block_buffer::generic_array::typenum::UInt<block_buffer::generic_array::typenum::UInt<block_buffer::generic_array::typenum::UInt<block_buffer::generic_array::typenum::UInt<block_buffer::generic_array::typenum::UInt<block_buffer::generic_array::typenum::UTerm, digest::consts::B1>, digest::consts::B0>, digest::consts::B0>, digest::consts::B0>, digest::consts::B0>, digest::consts::B0>, digest::consts::B0>, digest::consts::B0>> as block_buffer::generic_array::sequence::GenericSequence<u8>>::generate<[closure@block_buffer::generic_array::impls::<impl core::default::Default for block_buffer::generic_array::GenericArray<u8, block_buffer::generic_array::typenum::UInt<block_buffer::generic_array::typenum::UInt<block_buffer::generic_array::typenum::UInt<block_buffer::generic_array::typenum::UInt<block_buffer::generic_array::typenum::UInt<block_buffer::generic_array::typenum::UInt<block_buffer::generic_array::typenum::UInt<block_buffer::generic_array::typenum::UInt<block_buffer::generic_array::typenum::UTerm, digest::consts::B1>, digest::consts::B0>, digest::consts::B0>, digest::consts::B0>, digest::consts::B0>, digest::consts::B0>, digest::consts::B0>, digest::consts::B0>>>::default::{closure#0}]>::{closure#0}]>::{closure#0}]>::{closure#0}]"** %_1.dbg.spill, align 8
  %0 = load %"[closure@<core::iter::Enumerate<I> as core::iter::Iterator>::fold::enumerate<&mut u8, (), [closure@core::iter::Iterator::for_each::call<(usize, &mut u8), [closure@<block_buffer::generic_array::GenericArray<u8, block_buffer::generic_array::typenum::UInt<block_buffer::generic_array::typenum::UInt<block_buffer::generic_array::typenum::UInt<block_buffer::generic_array::typenum::UInt<block_buffer::generic_array::typenum::UInt<block_buffer::generic_array::typenum::UInt<block_buffer::generic_array::typenum::UInt<block_buffer::generic_array::typenum::UInt<block_buffer::generic_array::typenum::UTerm, digest::consts::B1>, digest::consts::B0>, digest::consts::B0>, digest::consts::B0>, digest::consts::B0>, digest::consts::B0>, digest::consts::B0>, digest::consts::B0>> as block_buffer::generic_array::sequence::GenericSequence<u8>>::generate<[closure@block_buffer::generic_array::impls::<impl core::default::Default for block_buffer::generic_array::GenericArray<u8, block_buffer::generic_array::typenum::UInt<block_buffer::generic_array::typenum::UInt<block_buffer::generic_array::typenum::UInt<block_buffer::generic_array::typenum::UInt<block_buffer::generic_array::typenum::UInt<block_buffer::generic_array::typenum::UInt<block_buffer::generic_array::typenum::UInt<block_buffer::generic_array::typenum::UInt<block_buffer::generic_array::typenum::UTerm, digest::consts::B1>, digest::consts::B0>, digest::consts::B0>, digest::consts::B0>, digest::consts::B0>, digest::consts::B0>, digest::consts::B0>, digest::consts::B0>>>::default::{closure#0}]>::{closure#0}]>::{closure#0}]>::{closure#0}]"*, %"[closure@<core::iter::Enumerate<I> as core::iter::Iterator>::fold::enumerate<&mut u8, (), [closure@core::iter::Iterator::for_each::call<(usize, &mut u8), [closure@<block_buffer::generic_array::GenericArray<u8, block_buffer::generic_array::typenum::UInt<block_buffer::generic_array::typenum::UInt<block_buffer::generic_array::typenum::UInt<block_buffer::generic_array::typenum::UInt<block_buffer::generic_array::typenum::UInt<block_buffer::generic_array::typenum::UInt<block_buffer::generic_array::typenum::UInt<block_buffer::generic_array::typenum::UInt<block_buffer::generic_array::typenum::UTerm, digest::consts::B1>, digest::consts::B0>, digest::consts::B0>, digest::consts::B0>, digest::consts::B0>, digest::consts::B0>, digest::consts::B0>, digest::consts::B0>> as block_buffer::generic_array::sequence::GenericSequence<u8>>::generate<[closure@block_buffer::generic_array::impls::<impl core::default::Default for block_buffer::generic_array::GenericArray<u8, block_buffer::generic_array::typenum::UInt<block_buffer::generic_array::typenum::UInt<block_buffer::generic_array::typenum::UInt<block_buffer::generic_array::typenum::UInt<block_buffer::generic_array::typenum::UInt<block_buffer::generic_array::typenum::UInt<block_buffer::generic_array::typenum::UInt<block_buffer::generic_array::typenum::UInt<block_buffer::generic_array::typenum::UTerm, digest::consts::B1>, digest::consts::B0>, digest::consts::B0>, digest::consts::B0>, digest::consts::B0>, digest::consts::B0>, digest::consts::B0>, digest::consts::B0>>>::default::{closure#0}]>::{closure#0}]>::{closure#0}]>::{closure#0}]"** %_1.dbg.spill, align 8, !nonnull !4
  %1 = bitcast %"[closure@<core::iter::Enumerate<I> as core::iter::Iterator>::fold::enumerate<&mut u8, (), [closure@core::iter::Iterator::for_each::call<(usize, &mut u8), [closure@<block_buffer::generic_array::GenericArray<u8, block_buffer::generic_array::typenum::UInt<block_buffer::generic_array::typenum::UInt<block_buffer::generic_array::typenum::UInt<block_buffer::generic_array::typenum::UInt<block_buffer::generic_array::typenum::UInt<block_buffer::generic_array::typenum::UInt<block_buffer::generic_array::typenum::UInt<block_buffer::generic_array::typenum::UInt<block_buffer::generic_array::typenum::UTerm, digest::consts::B1>, digest::consts::B0>, digest::consts::B0>, digest::consts::B0>, digest::consts::B0>, digest::consts::B0>, digest::consts::B0>, digest::consts::B0>> as block_buffer::generic_array::sequence::GenericSequence<u8>>::generate<[closure@block_buffer::generic_array::impls::<impl core::default::Default for block_buffer::generic_array::GenericArray<u8, block_buffer::generic_array::typenum::UInt<block_buffer::generic_array::typenum::UInt<block_buffer::generic_array::typenum::UInt<block_buffer::generic_array::typenum::UInt<block_buffer::generic_array::typenum::UInt<block_buffer::generic_array::typenum::UInt<block_buffer::generic_array::typenum::UInt<block_buffer::generic_array::typenum::UInt<block_buffer::generic_array::typenum::UTerm, digest::consts::B1>, digest::consts::B0>, digest::consts::B0>, digest::consts::B0>, digest::consts::B0>, digest::consts::B0>, digest::consts::B0>, digest::consts::B0>>>::default::{closure#0}]>::{closure#0}]>::{closure#0}]>::{closure#0}]"* %0 to { i8*, i64* }*
  call void @llvm.dbg.declare(metadata %"[closure@<core::iter::Enumerate<I> as core::iter::Iterator>::fold::enumerate<&mut u8, (), [closure@core::iter::Iterator::for_each::call<(usize, &mut u8), [closure@<block_buffer::generic_array::GenericArray<u8, block_buffer::generic_array::typenum::UInt<block_buffer::generic_array::typenum::UInt<block_buffer::generic_array::typenum::UInt<block_buffer::generic_array::typenum::UInt<block_buffer::generic_array::typenum::UInt<block_buffer::generic_array::typenum::UInt<block_buffer::generic_array::typenum::UInt<block_buffer::generic_array::typenum::UInt<block_buffer::generic_array::typenum::UTerm, digest::consts::B1>, digest::consts::B0>, digest::consts::B0>, digest::consts::B0>, digest::consts::B0>, digest::consts::B0>, digest::consts::B0>, digest::consts::B0>> as block_buffer::generic_array::sequence::GenericSequence<u8>>::generate<[closure@block_buffer::generic_array::impls::<impl core::default::Default for block_buffer::generic_array::GenericArray<u8, block_buffer::generic_array::typenum::UInt<block_buffer::generic_array::typenum::UInt<block_buffer::generic_array::typenum::UInt<block_buffer::generic_array::typenum::UInt<block_buffer::generic_array::typenum::UInt<block_buffer::generic_array::typenum::UInt<block_buffer::generic_array::typenum::UInt<block_buffer::generic_array::typenum::UInt<block_buffer::generic_array::typenum::UTerm, digest::consts::B1>, digest::consts::B0>, digest::consts::B0>, digest::consts::B0>, digest::consts::B0>, digest::consts::B0>, digest::consts::B0>, digest::consts::B0>>>::default::{closure#0}]>::{closure#0}]>::{closure#0}]>::{closure#0}]"** %_1.dbg.spill, metadata !731, metadata !DIExpression(DW_OP_deref)), !dbg !736
  %2 = load %"[closure@<core::iter::Enumerate<I> as core::iter::Iterator>::fold::enumerate<&mut u8, (), [closure@core::iter::Iterator::for_each::call<(usize, &mut u8), [closure@<block_buffer::generic_array::GenericArray<u8, block_buffer::generic_array::typenum::UInt<block_buffer::generic_array::typenum::UInt<block_buffer::generic_array::typenum::UInt<block_buffer::generic_array::typenum::UInt<block_buffer::generic_array::typenum::UInt<block_buffer::generic_array::typenum::UInt<block_buffer::generic_array::typenum::UInt<block_buffer::generic_array::typenum::UInt<block_buffer::generic_array::typenum::UTerm, digest::consts::B1>, digest::consts::B0>, digest::consts::B0>, digest::consts::B0>, digest::consts::B0>, digest::consts::B0>, digest::consts::B0>, digest::consts::B0>> as block_buffer::generic_array::sequence::GenericSequence<u8>>::generate<[closure@block_buffer::generic_array::impls::<impl core::default::Default for block_buffer::generic_array::GenericArray<u8, block_buffer::generic_array::typenum::UInt<block_buffer::generic_array::typenum::UInt<block_buffer::generic_array::typenum::UInt<block_buffer::generic_array::typenum::UInt<block_buffer::generic_array::typenum::UInt<block_buffer::generic_array::typenum::UInt<block_buffer::generic_array::typenum::UInt<block_buffer::generic_array::typenum::UInt<block_buffer::generic_array::typenum::UTerm, digest::consts::B1>, digest::consts::B0>, digest::consts::B0>, digest::consts::B0>, digest::consts::B0>, digest::consts::B0>, digest::consts::B0>, digest::consts::B0>>>::default::{closure#0}]>::{closure#0}]>::{closure#0}]>::{closure#0}]"*, %"[closure@<core::iter::Enumerate<I> as core::iter::Iterator>::fold::enumerate<&mut u8, (), [closure@core::iter::Iterator::for_each::call<(usize, &mut u8), [closure@<block_buffer::generic_array::GenericArray<u8, block_buffer::generic_array::typenum::UInt<block_buffer::generic_array::typenum::UInt<block_buffer::generic_array::typenum::UInt<block_buffer::generic_array::typenum::UInt<block_buffer::generic_array::typenum::UInt<block_buffer::generic_array::typenum::UInt<block_buffer::generic_array::typenum::UInt<block_buffer::generic_array::typenum::UInt<block_buffer::generic_array::typenum::UTerm, digest::consts::B1>, digest::consts::B0>, digest::consts::B0>, digest::consts::B0>, digest::consts::B0>, digest::consts::B0>, digest::consts::B0>, digest::consts::B0>> as block_buffer::generic_array::sequence::GenericSequence<u8>>::generate<[closure@block_buffer::generic_array::impls::<impl core::default::Default for block_buffer::generic_array::GenericArray<u8, block_buffer::generic_array::typenum::UInt<block_buffer::generic_array::typenum::UInt<block_buffer::generic_array::typenum::UInt<block_buffer::generic_array::typenum::UInt<block_buffer::generic_array::typenum::UInt<block_buffer::generic_array::typenum::UInt<block_buffer::generic_array::typenum::UInt<block_buffer::generic_array::typenum::UInt<block_buffer::generic_array::typenum::UTerm, digest::consts::B1>, digest::consts::B0>, digest::consts::B0>, digest::consts::B0>, digest::consts::B0>, digest::consts::B0>, digest::consts::B0>, digest::consts::B0>>>::default::{closure#0}]>::{closure#0}]>::{closure#0}]>::{closure#0}]"** %_1.dbg.spill, align 8, !nonnull !4
  %3 = getelementptr inbounds %"[closure@<core::iter::Enumerate<I> as core::iter::Iterator>::fold::enumerate<&mut u8, (), [closure@core::iter::Iterator::for_each::call<(usize, &mut u8), [closure@<block_buffer::generic_array::GenericArray<u8, block_buffer::generic_array::typenum::UInt<block_buffer::generic_array::typenum::UInt<block_buffer::generic_array::typenum::UInt<block_buffer::generic_array::typenum::UInt<block_buffer::generic_array::typenum::UInt<block_buffer::generic_array::typenum::UInt<block_buffer::generic_array::typenum::UInt<block_buffer::generic_array::typenum::UInt<block_buffer::generic_array::typenum::UTerm, digest::consts::B1>, digest::consts::B0>, digest::consts::B0>, digest::consts::B0>, digest::consts::B0>, digest::consts::B0>, digest::consts::B0>, digest::consts::B0>> as block_buffer::generic_array::sequence::GenericSequence<u8>>::generate<[closure@block_buffer::generic_array::impls::<impl core::default::Default for block_buffer::generic_array::GenericArray<u8, block_buffer::generic_array::typenum::UInt<block_buffer::generic_array::typenum::UInt<block_buffer::generic_array::typenum::UInt<block_buffer::generic_array::typenum::UInt<block_buffer::generic_array::typenum::UInt<block_buffer::generic_array::typenum::UInt<block_buffer::generic_array::typenum::UInt<block_buffer::generic_array::typenum::UInt<block_buffer::generic_array::typenum::UTerm, digest::consts::B1>, digest::consts::B0>, digest::consts::B0>, digest::consts::B0>, digest::consts::B0>, digest::consts::B0>, digest::consts::B0>, digest::consts::B0>>>::default::{closure#0}]>::{closure#0}]>::{closure#0}]>::{closure#0}]", %"[closure@<core::iter::Enumerate<I> as core::iter::Iterator>::fold::enumerate<&mut u8, (), [closure@core::iter::Iterator::for_each::call<(usize, &mut u8), [closure@<block_buffer::generic_array::GenericArray<u8, block_buffer::generic_array::typenum::UInt<block_buffer::generic_array::typenum::UInt<block_buffer::generic_array::typenum::UInt<block_buffer::generic_array::typenum::UInt<block_buffer::generic_array::typenum::UInt<block_buffer::generic_array::typenum::UInt<block_buffer::generic_array::typenum::UInt<block_buffer::generic_array::typenum::UInt<block_buffer::generic_array::typenum::UTerm, digest::consts::B1>, digest::consts::B0>, digest::consts::B0>, digest::consts::B0>, digest::consts::B0>, digest::consts::B0>, digest::consts::B0>, digest::consts::B0>> as block_buffer::generic_array::sequence::GenericSequence<u8>>::generate<[closure@block_buffer::generic_array::impls::<impl core::default::Default for block_buffer::generic_array::GenericArray<u8, block_buffer::generic_array::typenum::UInt<block_buffer::generic_array::typenum::UInt<block_buffer::generic_array::typenum::UInt<block_buffer::generic_array::typenum::UInt<block_buffer::generic_array::typenum::UInt<block_buffer::generic_array::typenum::UInt<block_buffer::generic_array::typenum::UInt<block_buffer::generic_array::typenum::UInt<block_buffer::generic_array::typenum::UTerm, digest::consts::B1>, digest::consts::B0>, digest::consts::B0>, digest::consts::B0>, digest::consts::B0>, digest::consts::B0>, digest::consts::B0>, digest::consts::B0>>>::default::{closure#0}]>::{closure#0}]>::{closure#0}]>::{closure#0}]"* %2, i32 0, i32 1
  call void @llvm.dbg.declare(metadata %"[closure@<core::iter::Enumerate<I> as core::iter::Iterator>::fold::enumerate<&mut u8, (), [closure@core::iter::Iterator::for_each::call<(usize, &mut u8), [closure@<block_buffer::generic_array::GenericArray<u8, block_buffer::generic_array::typenum::UInt<block_buffer::generic_array::typenum::UInt<block_buffer::generic_array::typenum::UInt<block_buffer::generic_array::typenum::UInt<block_buffer::generic_array::typenum::UInt<block_buffer::generic_array::typenum::UInt<block_buffer::generic_array::typenum::UInt<block_buffer::generic_array::typenum::UInt<block_buffer::generic_array::typenum::UTerm, digest::consts::B1>, digest::consts::B0>, digest::consts::B0>, digest::consts::B0>, digest::consts::B0>, digest::consts::B0>, digest::consts::B0>, digest::consts::B0>> as block_buffer::generic_array::sequence::GenericSequence<u8>>::generate<[closure@block_buffer::generic_array::impls::<impl core::default::Default for block_buffer::generic_array::GenericArray<u8, block_buffer::generic_array::typenum::UInt<block_buffer::generic_array::typenum::UInt<block_buffer::generic_array::typenum::UInt<block_buffer::generic_array::typenum::UInt<block_buffer::generic_array::typenum::UInt<block_buffer::generic_array::typenum::UInt<block_buffer::generic_array::typenum::UInt<block_buffer::generic_array::typenum::UInt<block_buffer::generic_array::typenum::UTerm, digest::consts::B1>, digest::consts::B0>, digest::consts::B0>, digest::consts::B0>, digest::consts::B0>, digest::consts::B0>, digest::consts::B0>, digest::consts::B0>>>::default::{closure#0}]>::{closure#0}]>::{closure#0}]>::{closure#0}]"** %_1.dbg.spill, metadata !732, metadata !DIExpression(DW_OP_deref, DW_OP_plus_uconst, 16)), !dbg !737
  call void @llvm.dbg.declare(metadata {}* %acc.dbg.spill1, metadata !729, metadata !DIExpression()), !dbg !738
  store i8* %item, i8** %item.dbg.spill, align 8
  call void @llvm.dbg.declare(metadata i8** %item.dbg.spill, metadata !730, metadata !DIExpression()), !dbg !739
  %_4 = bitcast %"[closure@<core::iter::Enumerate<I> as core::iter::Iterator>::fold::enumerate<&mut u8, (), [closure@core::iter::Iterator::for_each::call<(usize, &mut u8), [closure@<block_buffer::generic_array::GenericArray<u8, block_buffer::generic_array::typenum::UInt<block_buffer::generic_array::typenum::UInt<block_buffer::generic_array::typenum::UInt<block_buffer::generic_array::typenum::UInt<block_buffer::generic_array::typenum::UInt<block_buffer::generic_array::typenum::UInt<block_buffer::generic_array::typenum::UInt<block_buffer::generic_array::typenum::UInt<block_buffer::generic_array::typenum::UTerm, digest::consts::B1>, digest::consts::B0>, digest::consts::B0>, digest::consts::B0>, digest::consts::B0>, digest::consts::B0>, digest::consts::B0>, digest::consts::B0>> as block_buffer::generic_array::sequence::GenericSequence<u8>>::generate<[closure@block_buffer::generic_array::impls::<impl core::default::Default for block_buffer::generic_array::GenericArray<u8, block_buffer::generic_array::typenum::UInt<block_buffer::generic_array::typenum::UInt<block_buffer::generic_array::typenum::UInt<block_buffer::generic_array::typenum::UInt<block_buffer::generic_array::typenum::UInt<block_buffer::generic_array::typenum::UInt<block_buffer::generic_array::typenum::UInt<block_buffer::generic_array::typenum::UInt<block_buffer::generic_array::typenum::UTerm, digest::consts::B1>, digest::consts::B0>, digest::consts::B0>, digest::consts::B0>, digest::consts::B0>, digest::consts::B0>, digest::consts::B0>, digest::consts::B0>>>::default::{closure#0}]>::{closure#0}]>::{closure#0}]>::{closure#0}]"* %_1 to { i8*, i64* }*, !dbg !740
  %4 = getelementptr inbounds %"[closure@<core::iter::Enumerate<I> as core::iter::Iterator>::fold::enumerate<&mut u8, (), [closure@core::iter::Iterator::for_each::call<(usize, &mut u8), [closure@<block_buffer::generic_array::GenericArray<u8, block_buffer::generic_array::typenum::UInt<block_buffer::generic_array::typenum::UInt<block_buffer::generic_array::typenum::UInt<block_buffer::generic_array::typenum::UInt<block_buffer::generic_array::typenum::UInt<block_buffer::generic_array::typenum::UInt<block_buffer::generic_array::typenum::UInt<block_buffer::generic_array::typenum::UInt<block_buffer::generic_array::typenum::UTerm, digest::consts::B1>, digest::consts::B0>, digest::consts::B0>, digest::consts::B0>, digest::consts::B0>, digest::consts::B0>, digest::consts::B0>, digest::consts::B0>> as block_buffer::generic_array::sequence::GenericSequence<u8>>::generate<[closure@block_buffer::generic_array::impls::<impl core::default::Default for block_buffer::generic_array::GenericArray<u8, block_buffer::generic_array::typenum::UInt<block_buffer::generic_array::typenum::UInt<block_buffer::generic_array::typenum::UInt<block_buffer::generic_array::typenum::UInt<block_buffer::generic_array::typenum::UInt<block_buffer::generic_array::typenum::UInt<block_buffer::generic_array::typenum::UInt<block_buffer::generic_array::typenum::UInt<block_buffer::generic_array::typenum::UTerm, digest::consts::B1>, digest::consts::B0>, digest::consts::B0>, digest::consts::B0>, digest::consts::B0>, digest::consts::B0>, digest::consts::B0>, digest::consts::B0>>>::default::{closure#0}]>::{closure#0}]>::{closure#0}]>::{closure#0}]", %"[closure@<core::iter::Enumerate<I> as core::iter::Iterator>::fold::enumerate<&mut u8, (), [closure@core::iter::Iterator::for_each::call<(usize, &mut u8), [closure@<block_buffer::generic_array::GenericArray<u8, block_buffer::generic_array::typenum::UInt<block_buffer::generic_array::typenum::UInt<block_buffer::generic_array::typenum::UInt<block_buffer::generic_array::typenum::UInt<block_buffer::generic_array::typenum::UInt<block_buffer::generic_array::typenum::UInt<block_buffer::generic_array::typenum::UInt<block_buffer::generic_array::typenum::UInt<block_buffer::generic_array::typenum::UTerm, digest::consts::B1>, digest::consts::B0>, digest::consts::B0>, digest::consts::B0>, digest::consts::B0>, digest::consts::B0>, digest::consts::B0>, digest::consts::B0>> as block_buffer::generic_array::sequence::GenericSequence<u8>>::generate<[closure@block_buffer::generic_array::impls::<impl core::default::Default for block_buffer::generic_array::GenericArray<u8, block_buffer::generic_array::typenum::UInt<block_buffer::generic_array::typenum::UInt<block_buffer::generic_array::typenum::UInt<block_buffer::generic_array::typenum::UInt<block_buffer::generic_array::typenum::UInt<block_buffer::generic_array::typenum::UInt<block_buffer::generic_array::typenum::UInt<block_buffer::generic_array::typenum::UInt<block_buffer::generic_array::typenum::UTerm, digest::consts::B1>, digest::consts::B0>, digest::consts::B0>, digest::consts::B0>, digest::consts::B0>, digest::consts::B0>, digest::consts::B0>, digest::consts::B0>>>::default::{closure#0}]>::{closure#0}]>::{closure#0}]>::{closure#0}]"* %_1, i32 0, i32 1, !dbg !741
  %_8 = load i64, i64* %4, align 8, !dbg !741
  %5 = bitcast { i64, i8* }* %_7 to i64*, !dbg !742
  store i64 %_8, i64* %5, align 8, !dbg !742
  %6 = getelementptr inbounds { i64, i8* }, { i64, i8* }* %_7, i32 0, i32 1, !dbg !742
  store i8* %item, i8** %6, align 8, !dbg !742
  %7 = bitcast { i64, i8* }* %_5 to {}*, !dbg !740
  %8 = getelementptr inbounds { i64, i8* }, { i64, i8* }* %_7, i32 0, i32 0, !dbg !740
  %9 = load i64, i64* %8, align 8, !dbg !740
  %10 = getelementptr inbounds { i64, i8* }, { i64, i8* }* %_7, i32 0, i32 1, !dbg !740
  %11 = load i8*, i8** %10, align 8, !dbg !740, !nonnull !4
  %12 = getelementptr inbounds { i64, i8* }, { i64, i8* }* %_5, i32 0, i32 0, !dbg !740
  store i64 %9, i64* %12, align 8, !dbg !740
  %13 = getelementptr inbounds { i64, i8* }, { i64, i8* }* %_5, i32 0, i32 1, !dbg !740
  store i8* %11, i8** %13, align 8, !dbg !740
  %14 = getelementptr inbounds { i64, i8* }, { i64, i8* }* %_5, i32 0, i32 0, !dbg !740
  %15 = load i64, i64* %14, align 8, !dbg !740
  %16 = getelementptr inbounds { i64, i8* }, { i64, i8* }* %_5, i32 0, i32 1, !dbg !740
  %17 = load i8*, i8** %16, align 8, !dbg !740, !nonnull !4
; call core::iter::traits::iterator::Iterator::for_each::call::{{closure}}
  call void @"_ZN4core4iter6traits8iterator8Iterator8for_each4call28_$u7b$$u7b$closure$u7d$$u7d$17h6c99d50f68dafe4bE"({ i8*, i64* }* align 8 dereferenceable(16) %_4, i64 %15, i8* align 1 dereferenceable(1) %17), !dbg !740
  br label %bb1, !dbg !740

bb1:                                              ; preds = %start
  %18 = getelementptr inbounds %"[closure@<core::iter::Enumerate<I> as core::iter::Iterator>::fold::enumerate<&mut u8, (), [closure@core::iter::Iterator::for_each::call<(usize, &mut u8), [closure@<block_buffer::generic_array::GenericArray<u8, block_buffer::generic_array::typenum::UInt<block_buffer::generic_array::typenum::UInt<block_buffer::generic_array::typenum::UInt<block_buffer::generic_array::typenum::UInt<block_buffer::generic_array::typenum::UInt<block_buffer::generic_array::typenum::UInt<block_buffer::generic_array::typenum::UInt<block_buffer::generic_array::typenum::UInt<block_buffer::generic_array::typenum::UTerm, digest::consts::B1>, digest::consts::B0>, digest::consts::B0>, digest::consts::B0>, digest::consts::B0>, digest::consts::B0>, digest::consts::B0>, digest::consts::B0>> as block_buffer::generic_array::sequence::GenericSequence<u8>>::generate<[closure@block_buffer::generic_array::impls::<impl core::default::Default for block_buffer::generic_array::GenericArray<u8, block_buffer::generic_array::typenum::UInt<block_buffer::generic_array::typenum::UInt<block_buffer::generic_array::typenum::UInt<block_buffer::generic_array::typenum::UInt<block_buffer::generic_array::typenum::UInt<block_buffer::generic_array::typenum::UInt<block_buffer::generic_array::typenum::UInt<block_buffer::generic_array::typenum::UInt<block_buffer::generic_array::typenum::UTerm, digest::consts::B1>, digest::consts::B0>, digest::consts::B0>, digest::consts::B0>, digest::consts::B0>, digest::consts::B0>, digest::consts::B0>, digest::consts::B0>>>::default::{closure#0}]>::{closure#0}]>::{closure#0}]>::{closure#0}]", %"[closure@<core::iter::Enumerate<I> as core::iter::Iterator>::fold::enumerate<&mut u8, (), [closure@core::iter::Iterator::for_each::call<(usize, &mut u8), [closure@<block_buffer::generic_array::GenericArray<u8, block_buffer::generic_array::typenum::UInt<block_buffer::generic_array::typenum::UInt<block_buffer::generic_array::typenum::UInt<block_buffer::generic_array::typenum::UInt<block_buffer::generic_array::typenum::UInt<block_buffer::generic_array::typenum::UInt<block_buffer::generic_array::typenum::UInt<block_buffer::generic_array::typenum::UInt<block_buffer::generic_array::typenum::UTerm, digest::consts::B1>, digest::consts::B0>, digest::consts::B0>, digest::consts::B0>, digest::consts::B0>, digest::consts::B0>, digest::consts::B0>, digest::consts::B0>> as block_buffer::generic_array::sequence::GenericSequence<u8>>::generate<[closure@block_buffer::generic_array::impls::<impl core::default::Default for block_buffer::generic_array::GenericArray<u8, block_buffer::generic_array::typenum::UInt<block_buffer::generic_array::typenum::UInt<block_buffer::generic_array::typenum::UInt<block_buffer::generic_array::typenum::UInt<block_buffer::generic_array::typenum::UInt<block_buffer::generic_array::typenum::UInt<block_buffer::generic_array::typenum::UInt<block_buffer::generic_array::typenum::UInt<block_buffer::generic_array::typenum::UTerm, digest::consts::B1>, digest::consts::B0>, digest::consts::B0>, digest::consts::B0>, digest::consts::B0>, digest::consts::B0>, digest::consts::B0>, digest::consts::B0>>>::default::{closure#0}]>::{closure#0}]>::{closure#0}]>::{closure#0}]"* %_1, i32 0, i32 1, !dbg !743
  %19 = load i64, i64* %18, align 8, !dbg !743
  %20 = call { i64, i1 } @llvm.uadd.with.overflow.i64(i64 %19, i64 1), !dbg !743
  %_10.0 = extractvalue { i64, i1 } %20, 0, !dbg !743
  %_10.1 = extractvalue { i64, i1 } %20, 1, !dbg !743
  %21 = call i1 @llvm.expect.i1(i1 %_10.1, i1 false), !dbg !743
  br i1 %21, label %panic, label %bb2, !dbg !743

bb2:                                              ; preds = %bb1
  %22 = getelementptr inbounds %"[closure@<core::iter::Enumerate<I> as core::iter::Iterator>::fold::enumerate<&mut u8, (), [closure@core::iter::Iterator::for_each::call<(usize, &mut u8), [closure@<block_buffer::generic_array::GenericArray<u8, block_buffer::generic_array::typenum::UInt<block_buffer::generic_array::typenum::UInt<block_buffer::generic_array::typenum::UInt<block_buffer::generic_array::typenum::UInt<block_buffer::generic_array::typenum::UInt<block_buffer::generic_array::typenum::UInt<block_buffer::generic_array::typenum::UInt<block_buffer::generic_array::typenum::UInt<block_buffer::generic_array::typenum::UTerm, digest::consts::B1>, digest::consts::B0>, digest::consts::B0>, digest::consts::B0>, digest::consts::B0>, digest::consts::B0>, digest::consts::B0>, digest::consts::B0>> as block_buffer::generic_array::sequence::GenericSequence<u8>>::generate<[closure@block_buffer::generic_array::impls::<impl core::default::Default for block_buffer::generic_array::GenericArray<u8, block_buffer::generic_array::typenum::UInt<block_buffer::generic_array::typenum::UInt<block_buffer::generic_array::typenum::UInt<block_buffer::generic_array::typenum::UInt<block_buffer::generic_array::typenum::UInt<block_buffer::generic_array::typenum::UInt<block_buffer::generic_array::typenum::UInt<block_buffer::generic_array::typenum::UInt<block_buffer::generic_array::typenum::UTerm, digest::consts::B1>, digest::consts::B0>, digest::consts::B0>, digest::consts::B0>, digest::consts::B0>, digest::consts::B0>, digest::consts::B0>, digest::consts::B0>>>::default::{closure#0}]>::{closure#0}]>::{closure#0}]>::{closure#0}]", %"[closure@<core::iter::Enumerate<I> as core::iter::Iterator>::fold::enumerate<&mut u8, (), [closure@core::iter::Iterator::for_each::call<(usize, &mut u8), [closure@<block_buffer::generic_array::GenericArray<u8, block_buffer::generic_array::typenum::UInt<block_buffer::generic_array::typenum::UInt<block_buffer::generic_array::typenum::UInt<block_buffer::generic_array::typenum::UInt<block_buffer::generic_array::typenum::UInt<block_buffer::generic_array::typenum::UInt<block_buffer::generic_array::typenum::UInt<block_buffer::generic_array::typenum::UInt<block_buffer::generic_array::typenum::UTerm, digest::consts::B1>, digest::consts::B0>, digest::consts::B0>, digest::consts::B0>, digest::consts::B0>, digest::consts::B0>, digest::consts::B0>, digest::consts::B0>> as block_buffer::generic_array::sequence::GenericSequence<u8>>::generate<[closure@block_buffer::generic_array::impls::<impl core::default::Default for block_buffer::generic_array::GenericArray<u8, block_buffer::generic_array::typenum::UInt<block_buffer::generic_array::typenum::UInt<block_buffer::generic_array::typenum::UInt<block_buffer::generic_array::typenum::UInt<block_buffer::generic_array::typenum::UInt<block_buffer::generic_array::typenum::UInt<block_buffer::generic_array::typenum::UInt<block_buffer::generic_array::typenum::UInt<block_buffer::generic_array::typenum::UTerm, digest::consts::B1>, digest::consts::B0>, digest::consts::B0>, digest::consts::B0>, digest::consts::B0>, digest::consts::B0>, digest::consts::B0>, digest::consts::B0>>>::default::{closure#0}]>::{closure#0}]>::{closure#0}]>::{closure#0}]"* %_1, i32 0, i32 1, !dbg !743
  store i64 %_10.0, i64* %22, align 8, !dbg !743
  ret void, !dbg !744

panic:                                            ; preds = %bb1
; call core::panicking::panic
  call void @_ZN4core9panicking5panic17h560e3e4b7752857aE([0 x i8]* nonnull align 1 bitcast ([28 x i8]* @str.1 to [0 x i8]*), i64 28, %"core::panic::Location"* align 8 dereferenceable(24) bitcast (<{ i8*, [16 x i8] }>* @alloc789 to %"core::panic::Location"*)), !dbg !743
  unreachable, !dbg !743
}

; <generic_array::GenericArray<T,N> as generic_array::sequence::GenericSequence<T>>::generate
; Function Attrs: nounwind
define void @"_ZN110_$LT$generic_array..GenericArray$LT$T$C$N$GT$$u20$as$u20$generic_array..sequence..GenericSequence$LT$T$GT$$GT$8generate17h1c406f295c6ecea3E"(%"block_buffer::generic_array::GenericArray<u8, block_buffer::generic_array::typenum::UInt<block_buffer::generic_array::typenum::UInt<block_buffer::generic_array::typenum::UInt<block_buffer::generic_array::typenum::UInt<block_buffer::generic_array::typenum::UInt<block_buffer::generic_array::typenum::UInt<block_buffer::generic_array::typenum::UInt<block_buffer::generic_array::typenum::UInt<block_buffer::generic_array::typenum::UTerm, digest::consts::B1>, digest::consts::B0>, digest::consts::B0>, digest::consts::B0>, digest::consts::B0>, digest::consts::B0>, digest::consts::B0>, digest::consts::B0>>"* noalias nocapture sret(%"block_buffer::generic_array::GenericArray<u8, block_buffer::generic_array::typenum::UInt<block_buffer::generic_array::typenum::UInt<block_buffer::generic_array::typenum::UInt<block_buffer::generic_array::typenum::UInt<block_buffer::generic_array::typenum::UInt<block_buffer::generic_array::typenum::UInt<block_buffer::generic_array::typenum::UInt<block_buffer::generic_array::typenum::UInt<block_buffer::generic_array::typenum::UTerm, digest::consts::B1>, digest::consts::B0>, digest::consts::B0>, digest::consts::B0>, digest::consts::B0>, digest::consts::B0>, digest::consts::B0>, digest::consts::B0>>") dereferenceable(128) %0) unnamed_addr #0 !dbg !745 {
start:
  %destination_iter.dbg.spill = alloca { i8*, i8* }, align 8
  %_13 = alloca %"block_buffer::generic_array::ArrayBuilder<u8, block_buffer::generic_array::typenum::UInt<block_buffer::generic_array::typenum::UInt<block_buffer::generic_array::typenum::UInt<block_buffer::generic_array::typenum::UInt<block_buffer::generic_array::typenum::UInt<block_buffer::generic_array::typenum::UInt<block_buffer::generic_array::typenum::UInt<block_buffer::generic_array::typenum::UInt<block_buffer::generic_array::typenum::UTerm, digest::consts::B1>, digest::consts::B0>, digest::consts::B0>, digest::consts::B0>, digest::consts::B0>, digest::consts::B0>, digest::consts::B0>, digest::consts::B0>>", align 8
  %_10 = alloca { i8*, i64* }, align 8
  %_8 = alloca %"core::iter::Enumerate<core::slice::IterMut<u8>>", align 8
  %_5 = alloca { { i8*, i8* }, i64* }, align 8
  %position = alloca i64*, align 8
  %destination = alloca %"block_buffer::generic_array::ArrayBuilder<u8, block_buffer::generic_array::typenum::UInt<block_buffer::generic_array::typenum::UInt<block_buffer::generic_array::typenum::UInt<block_buffer::generic_array::typenum::UInt<block_buffer::generic_array::typenum::UInt<block_buffer::generic_array::typenum::UInt<block_buffer::generic_array::typenum::UInt<block_buffer::generic_array::typenum::UInt<block_buffer::generic_array::typenum::UTerm, digest::consts::B1>, digest::consts::B0>, digest::consts::B0>, digest::consts::B0>, digest::consts::B0>, digest::consts::B0>, digest::consts::B0>, digest::consts::B0>>", align 8
  %f = alloca %"[closure@block_buffer::generic_array::impls::<impl core::default::Default for block_buffer::generic_array::GenericArray<u8, block_buffer::generic_array::typenum::UInt<block_buffer::generic_array::typenum::UInt<block_buffer::generic_array::typenum::UInt<block_buffer::generic_array::typenum::UInt<block_buffer::generic_array::typenum::UInt<block_buffer::generic_array::typenum::UInt<block_buffer::generic_array::typenum::UInt<block_buffer::generic_array::typenum::UInt<block_buffer::generic_array::typenum::UTerm, digest::consts::B1>, digest::consts::B0>, digest::consts::B0>, digest::consts::B0>, digest::consts::B0>, digest::consts::B0>, digest::consts::B0>, digest::consts::B0>>>::default::{closure#0}]", align 1
  call void @llvm.dbg.declare(metadata %"[closure@block_buffer::generic_array::impls::<impl core::default::Default for block_buffer::generic_array::GenericArray<u8, block_buffer::generic_array::typenum::UInt<block_buffer::generic_array::typenum::UInt<block_buffer::generic_array::typenum::UInt<block_buffer::generic_array::typenum::UInt<block_buffer::generic_array::typenum::UInt<block_buffer::generic_array::typenum::UInt<block_buffer::generic_array::typenum::UInt<block_buffer::generic_array::typenum::UInt<block_buffer::generic_array::typenum::UTerm, digest::consts::B1>, digest::consts::B0>, digest::consts::B0>, digest::consts::B0>, digest::consts::B0>, digest::consts::B0>, digest::consts::B0>, digest::consts::B0>>>::default::{closure#0}]"* %f, metadata !871, metadata !DIExpression()), !dbg !897
  call void @llvm.dbg.declare(metadata %"block_buffer::generic_array::ArrayBuilder<u8, block_buffer::generic_array::typenum::UInt<block_buffer::generic_array::typenum::UInt<block_buffer::generic_array::typenum::UInt<block_buffer::generic_array::typenum::UInt<block_buffer::generic_array::typenum::UInt<block_buffer::generic_array::typenum::UInt<block_buffer::generic_array::typenum::UInt<block_buffer::generic_array::typenum::UInt<block_buffer::generic_array::typenum::UTerm, digest::consts::B1>, digest::consts::B0>, digest::consts::B0>, digest::consts::B0>, digest::consts::B0>, digest::consts::B0>, digest::consts::B0>, digest::consts::B0>>"* %destination, metadata !872, metadata !DIExpression()), !dbg !898
  call void @llvm.dbg.declare(metadata i64** %position, metadata !894, metadata !DIExpression()), !dbg !899
; call generic_array::ArrayBuilder<T,N>::new
  call void @"_ZN13generic_array25ArrayBuilder$LT$T$C$N$GT$3new17h84a88c73cb43b0caE"(%"block_buffer::generic_array::ArrayBuilder<u8, block_buffer::generic_array::typenum::UInt<block_buffer::generic_array::typenum::UInt<block_buffer::generic_array::typenum::UInt<block_buffer::generic_array::typenum::UInt<block_buffer::generic_array::typenum::UInt<block_buffer::generic_array::typenum::UInt<block_buffer::generic_array::typenum::UInt<block_buffer::generic_array::typenum::UInt<block_buffer::generic_array::typenum::UTerm, digest::consts::B1>, digest::consts::B0>, digest::consts::B0>, digest::consts::B0>, digest::consts::B0>, digest::consts::B0>, digest::consts::B0>, digest::consts::B0>>"* noalias nocapture sret(%"block_buffer::generic_array::ArrayBuilder<u8, block_buffer::generic_array::typenum::UInt<block_buffer::generic_array::typenum::UInt<block_buffer::generic_array::typenum::UInt<block_buffer::generic_array::typenum::UInt<block_buffer::generic_array::typenum::UInt<block_buffer::generic_array::typenum::UInt<block_buffer::generic_array::typenum::UInt<block_buffer::generic_array::typenum::UInt<block_buffer::generic_array::typenum::UTerm, digest::consts::B1>, digest::consts::B0>, digest::consts::B0>, digest::consts::B0>, digest::consts::B0>, digest::consts::B0>, digest::consts::B0>, digest::consts::B0>>") dereferenceable(136) %destination), !dbg !900
  br label %bb1, !dbg !900

bb1:                                              ; preds = %start
; call generic_array::ArrayBuilder<T,N>::iter_position
  call void @"_ZN13generic_array25ArrayBuilder$LT$T$C$N$GT$13iter_position17h69572ea3b98953a8E"({ { i8*, i8* }, i64* }* noalias nocapture sret({ { i8*, i8* }, i64* }) dereferenceable(24) %_5, %"block_buffer::generic_array::ArrayBuilder<u8, block_buffer::generic_array::typenum::UInt<block_buffer::generic_array::typenum::UInt<block_buffer::generic_array::typenum::UInt<block_buffer::generic_array::typenum::UInt<block_buffer::generic_array::typenum::UInt<block_buffer::generic_array::typenum::UInt<block_buffer::generic_array::typenum::UInt<block_buffer::generic_array::typenum::UInt<block_buffer::generic_array::typenum::UTerm, digest::consts::B1>, digest::consts::B0>, digest::consts::B0>, digest::consts::B0>, digest::consts::B0>, digest::consts::B0>, digest::consts::B0>, digest::consts::B0>>"* align 8 dereferenceable(136) %destination), !dbg !901
  br label %bb2, !dbg !901

bb2:                                              ; preds = %bb1
  %1 = bitcast { { i8*, i8* }, i64* }* %_5 to { i8*, i8* }*, !dbg !902
  %2 = getelementptr inbounds { i8*, i8* }, { i8*, i8* }* %1, i32 0, i32 0, !dbg !902
  %destination_iter.0 = load i8*, i8** %2, align 8, !dbg !902, !nonnull !4
  %3 = getelementptr inbounds { i8*, i8* }, { i8*, i8* }* %1, i32 0, i32 1, !dbg !902
  %destination_iter.1 = load i8*, i8** %3, align 8, !dbg !902
  %4 = getelementptr inbounds { i8*, i8* }, { i8*, i8* }* %destination_iter.dbg.spill, i32 0, i32 0, !dbg !902
  store i8* %destination_iter.0, i8** %4, align 8, !dbg !902
  %5 = getelementptr inbounds { i8*, i8* }, { i8*, i8* }* %destination_iter.dbg.spill, i32 0, i32 1, !dbg !902
  store i8* %destination_iter.1, i8** %5, align 8, !dbg !902
  call void @llvm.dbg.declare(metadata { i8*, i8* }* %destination_iter.dbg.spill, metadata !892, metadata !DIExpression()), !dbg !903
  %6 = getelementptr inbounds { { i8*, i8* }, i64* }, { { i8*, i8* }, i64* }* %_5, i32 0, i32 1, !dbg !904
  %7 = load i64*, i64** %6, align 8, !dbg !904, !nonnull !4
  store i64* %7, i64** %position, align 8, !dbg !904
; call core::iter::traits::iterator::Iterator::enumerate
  call void @_ZN4core4iter6traits8iterator8Iterator9enumerate17hdafc22ae5ded0caaE(%"core::iter::Enumerate<core::slice::IterMut<u8>>"* noalias nocapture sret(%"core::iter::Enumerate<core::slice::IterMut<u8>>") dereferenceable(24) %_8, i8* nonnull %destination_iter.0, i8* %destination_iter.1), !dbg !905
  br label %bb3, !dbg !905

bb3:                                              ; preds = %bb2
  %8 = bitcast { i8*, i64* }* %_10 to %"[closure@block_buffer::generic_array::impls::<impl core::default::Default for block_buffer::generic_array::GenericArray<u8, block_buffer::generic_array::typenum::UInt<block_buffer::generic_array::typenum::UInt<block_buffer::generic_array::typenum::UInt<block_buffer::generic_array::typenum::UInt<block_buffer::generic_array::typenum::UInt<block_buffer::generic_array::typenum::UInt<block_buffer::generic_array::typenum::UInt<block_buffer::generic_array::typenum::UInt<block_buffer::generic_array::typenum::UTerm, digest::consts::B1>, digest::consts::B0>, digest::consts::B0>, digest::consts::B0>, digest::consts::B0>, digest::consts::B0>, digest::consts::B0>, digest::consts::B0>>>::default::{closure#0}]"**, !dbg !906
  store %"[closure@block_buffer::generic_array::impls::<impl core::default::Default for block_buffer::generic_array::GenericArray<u8, block_buffer::generic_array::typenum::UInt<block_buffer::generic_array::typenum::UInt<block_buffer::generic_array::typenum::UInt<block_buffer::generic_array::typenum::UInt<block_buffer::generic_array::typenum::UInt<block_buffer::generic_array::typenum::UInt<block_buffer::generic_array::typenum::UInt<block_buffer::generic_array::typenum::UInt<block_buffer::generic_array::typenum::UTerm, digest::consts::B1>, digest::consts::B0>, digest::consts::B0>, digest::consts::B0>, digest::consts::B0>, digest::consts::B0>, digest::consts::B0>, digest::consts::B0>>>::default::{closure#0}]"* %f, %"[closure@block_buffer::generic_array::impls::<impl core::default::Default for block_buffer::generic_array::GenericArray<u8, block_buffer::generic_array::typenum::UInt<block_buffer::generic_array::typenum::UInt<block_buffer::generic_array::typenum::UInt<block_buffer::generic_array::typenum::UInt<block_buffer::generic_array::typenum::UInt<block_buffer::generic_array::typenum::UInt<block_buffer::generic_array::typenum::UInt<block_buffer::generic_array::typenum::UInt<block_buffer::generic_array::typenum::UTerm, digest::consts::B1>, digest::consts::B0>, digest::consts::B0>, digest::consts::B0>, digest::consts::B0>, digest::consts::B0>, digest::consts::B0>, digest::consts::B0>>>::default::{closure#0}]"** %8, align 8, !dbg !906
  %9 = getelementptr inbounds { i8*, i64* }, { i8*, i64* }* %_10, i32 0, i32 1, !dbg !906
  %10 = bitcast i64** %9 to i64***, !dbg !906
  store i64** %position, i64*** %10, align 8, !dbg !906
  %11 = getelementptr inbounds { i8*, i64* }, { i8*, i64* }* %_10, i32 0, i32 0, !dbg !905
  %12 = load i8*, i8** %11, align 8, !dbg !905, !nonnull !4
  %13 = getelementptr inbounds { i8*, i64* }, { i8*, i64* }* %_10, i32 0, i32 1, !dbg !905
  %14 = load i64*, i64** %13, align 8, !dbg !905, !nonnull !4
; call core::iter::traits::iterator::Iterator::for_each
  call void @_ZN4core4iter6traits8iterator8Iterator8for_each17he0ff2cf13f9f7038E(%"core::iter::Enumerate<core::slice::IterMut<u8>>"* noalias nocapture dereferenceable(24) %_8, i8* nonnull align 1 %12, i64* align 8 dereferenceable(8) %14), !dbg !905
  br label %bb4, !dbg !905

bb4:                                              ; preds = %bb3
  %15 = bitcast %"block_buffer::generic_array::ArrayBuilder<u8, block_buffer::generic_array::typenum::UInt<block_buffer::generic_array::typenum::UInt<block_buffer::generic_array::typenum::UInt<block_buffer::generic_array::typenum::UInt<block_buffer::generic_array::typenum::UInt<block_buffer::generic_array::typenum::UInt<block_buffer::generic_array::typenum::UInt<block_buffer::generic_array::typenum::UInt<block_buffer::generic_array::typenum::UTerm, digest::consts::B1>, digest::consts::B0>, digest::consts::B0>, digest::consts::B0>, digest::consts::B0>, digest::consts::B0>, digest::consts::B0>, digest::consts::B0>>"* %_13 to i8*, !dbg !907
  %16 = bitcast %"block_buffer::generic_array::ArrayBuilder<u8, block_buffer::generic_array::typenum::UInt<block_buffer::generic_array::typenum::UInt<block_buffer::generic_array::typenum::UInt<block_buffer::generic_array::typenum::UInt<block_buffer::generic_array::typenum::UInt<block_buffer::generic_array::typenum::UInt<block_buffer::generic_array::typenum::UInt<block_buffer::generic_array::typenum::UInt<block_buffer::generic_array::typenum::UTerm, digest::consts::B1>, digest::consts::B0>, digest::consts::B0>, digest::consts::B0>, digest::consts::B0>, digest::consts::B0>, digest::consts::B0>, digest::consts::B0>>"* %destination to i8*, !dbg !907
  call void @llvm.memcpy.p0i8.p0i8.i64(i8* align 8 %15, i8* align 8 %16, i64 136, i1 false), !dbg !907
; call generic_array::ArrayBuilder<T,N>::into_inner
  call void @"_ZN13generic_array25ArrayBuilder$LT$T$C$N$GT$10into_inner17hfb6b570e9dc23a7bE"(%"block_buffer::generic_array::GenericArray<u8, block_buffer::generic_array::typenum::UInt<block_buffer::generic_array::typenum::UInt<block_buffer::generic_array::typenum::UInt<block_buffer::generic_array::typenum::UInt<block_buffer::generic_array::typenum::UInt<block_buffer::generic_array::typenum::UInt<block_buffer::generic_array::typenum::UInt<block_buffer::generic_array::typenum::UInt<block_buffer::generic_array::typenum::UTerm, digest::consts::B1>, digest::consts::B0>, digest::consts::B0>, digest::consts::B0>, digest::consts::B0>, digest::consts::B0>, digest::consts::B0>, digest::consts::B0>>"* noalias nocapture sret(%"block_buffer::generic_array::GenericArray<u8, block_buffer::generic_array::typenum::UInt<block_buffer::generic_array::typenum::UInt<block_buffer::generic_array::typenum::UInt<block_buffer::generic_array::typenum::UInt<block_buffer::generic_array::typenum::UInt<block_buffer::generic_array::typenum::UInt<block_buffer::generic_array::typenum::UInt<block_buffer::generic_array::typenum::UInt<block_buffer::generic_array::typenum::UTerm, digest::consts::B1>, digest::consts::B0>, digest::consts::B0>, digest::consts::B0>, digest::consts::B0>, digest::consts::B0>, digest::consts::B0>, digest::consts::B0>>") dereferenceable(128) %0, %"block_buffer::generic_array::ArrayBuilder<u8, block_buffer::generic_array::typenum::UInt<block_buffer::generic_array::typenum::UInt<block_buffer::generic_array::typenum::UInt<block_buffer::generic_array::typenum::UInt<block_buffer::generic_array::typenum::UInt<block_buffer::generic_array::typenum::UInt<block_buffer::generic_array::typenum::UInt<block_buffer::generic_array::typenum::UInt<block_buffer::generic_array::typenum::UTerm, digest::consts::B1>, digest::consts::B0>, digest::consts::B0>, digest::consts::B0>, digest::consts::B0>, digest::consts::B0>, digest::consts::B0>, digest::consts::B0>>"* noalias nocapture dereferenceable(136) %_13), !dbg !907
  br label %bb5, !dbg !907

bb5:                                              ; preds = %bb4
  br label %bb6, !dbg !908

bb6:                                              ; preds = %bb5
  ret void, !dbg !909
}

; <generic_array::GenericArray<T,N> as generic_array::sequence::GenericSequence<T>>::generate
; Function Attrs: nounwind
define void @"_ZN110_$LT$generic_array..GenericArray$LT$T$C$N$GT$$u20$as$u20$generic_array..sequence..GenericSequence$LT$T$GT$$GT$8generate17h33a59da5aee824deE"(%"block_buffer::generic_array::GenericArray<u8, block_buffer::generic_array::typenum::UInt<block_buffer::generic_array::typenum::UInt<block_buffer::generic_array::typenum::UInt<block_buffer::generic_array::typenum::UInt<block_buffer::generic_array::typenum::UInt<block_buffer::generic_array::typenum::UInt<block_buffer::generic_array::typenum::UInt<block_buffer::generic_array::typenum::UTerm, digest::consts::B1>, digest::consts::B0>, digest::consts::B0>, digest::consts::B0>, digest::consts::B0>, digest::consts::B0>, digest::consts::B0>>"* noalias nocapture sret(%"block_buffer::generic_array::GenericArray<u8, block_buffer::generic_array::typenum::UInt<block_buffer::generic_array::typenum::UInt<block_buffer::generic_array::typenum::UInt<block_buffer::generic_array::typenum::UInt<block_buffer::generic_array::typenum::UInt<block_buffer::generic_array::typenum::UInt<block_buffer::generic_array::typenum::UInt<block_buffer::generic_array::typenum::UTerm, digest::consts::B1>, digest::consts::B0>, digest::consts::B0>, digest::consts::B0>, digest::consts::B0>, digest::consts::B0>, digest::consts::B0>>") dereferenceable(64) %0) unnamed_addr #0 !dbg !910 {
start:
  %destination_iter.dbg.spill = alloca { i8*, i8* }, align 8
  %_13 = alloca %"block_buffer::generic_array::ArrayBuilder<u8, block_buffer::generic_array::typenum::UInt<block_buffer::generic_array::typenum::UInt<block_buffer::generic_array::typenum::UInt<block_buffer::generic_array::typenum::UInt<block_buffer::generic_array::typenum::UInt<block_buffer::generic_array::typenum::UInt<block_buffer::generic_array::typenum::UInt<block_buffer::generic_array::typenum::UTerm, digest::consts::B1>, digest::consts::B0>, digest::consts::B0>, digest::consts::B0>, digest::consts::B0>, digest::consts::B0>, digest::consts::B0>>", align 8
  %_10 = alloca { i8*, i64* }, align 8
  %_8 = alloca %"core::iter::Enumerate<core::slice::IterMut<u8>>", align 8
  %_5 = alloca { { i8*, i8* }, i64* }, align 8
  %position = alloca i64*, align 8
  %destination = alloca %"block_buffer::generic_array::ArrayBuilder<u8, block_buffer::generic_array::typenum::UInt<block_buffer::generic_array::typenum::UInt<block_buffer::generic_array::typenum::UInt<block_buffer::generic_array::typenum::UInt<block_buffer::generic_array::typenum::UInt<block_buffer::generic_array::typenum::UInt<block_buffer::generic_array::typenum::UInt<block_buffer::generic_array::typenum::UTerm, digest::consts::B1>, digest::consts::B0>, digest::consts::B0>, digest::consts::B0>, digest::consts::B0>, digest::consts::B0>, digest::consts::B0>>", align 8
  %f = alloca %"[closure@block_buffer::generic_array::impls::<impl core::default::Default for block_buffer::generic_array::GenericArray<u8, block_buffer::generic_array::typenum::UInt<block_buffer::generic_array::typenum::UInt<block_buffer::generic_array::typenum::UInt<block_buffer::generic_array::typenum::UInt<block_buffer::generic_array::typenum::UInt<block_buffer::generic_array::typenum::UInt<block_buffer::generic_array::typenum::UInt<block_buffer::generic_array::typenum::UTerm, digest::consts::B1>, digest::consts::B0>, digest::consts::B0>, digest::consts::B0>, digest::consts::B0>, digest::consts::B0>, digest::consts::B0>>>::default::{closure#0}]", align 1
  call void @llvm.dbg.declare(metadata %"[closure@block_buffer::generic_array::impls::<impl core::default::Default for block_buffer::generic_array::GenericArray<u8, block_buffer::generic_array::typenum::UInt<block_buffer::generic_array::typenum::UInt<block_buffer::generic_array::typenum::UInt<block_buffer::generic_array::typenum::UInt<block_buffer::generic_array::typenum::UInt<block_buffer::generic_array::typenum::UInt<block_buffer::generic_array::typenum::UInt<block_buffer::generic_array::typenum::UTerm, digest::consts::B1>, digest::consts::B0>, digest::consts::B0>, digest::consts::B0>, digest::consts::B0>, digest::consts::B0>, digest::consts::B0>>>::default::{closure#0}]"* %f, metadata !918, metadata !DIExpression()), !dbg !941
  call void @llvm.dbg.declare(metadata %"block_buffer::generic_array::ArrayBuilder<u8, block_buffer::generic_array::typenum::UInt<block_buffer::generic_array::typenum::UInt<block_buffer::generic_array::typenum::UInt<block_buffer::generic_array::typenum::UInt<block_buffer::generic_array::typenum::UInt<block_buffer::generic_array::typenum::UInt<block_buffer::generic_array::typenum::UInt<block_buffer::generic_array::typenum::UTerm, digest::consts::B1>, digest::consts::B0>, digest::consts::B0>, digest::consts::B0>, digest::consts::B0>, digest::consts::B0>, digest::consts::B0>>"* %destination, metadata !919, metadata !DIExpression()), !dbg !942
  call void @llvm.dbg.declare(metadata i64** %position, metadata !938, metadata !DIExpression()), !dbg !943
; call generic_array::ArrayBuilder<T,N>::new
  call void @"_ZN13generic_array25ArrayBuilder$LT$T$C$N$GT$3new17h1d906414c08535f5E"(%"block_buffer::generic_array::ArrayBuilder<u8, block_buffer::generic_array::typenum::UInt<block_buffer::generic_array::typenum::UInt<block_buffer::generic_array::typenum::UInt<block_buffer::generic_array::typenum::UInt<block_buffer::generic_array::typenum::UInt<block_buffer::generic_array::typenum::UInt<block_buffer::generic_array::typenum::UInt<block_buffer::generic_array::typenum::UTerm, digest::consts::B1>, digest::consts::B0>, digest::consts::B0>, digest::consts::B0>, digest::consts::B0>, digest::consts::B0>, digest::consts::B0>>"* noalias nocapture sret(%"block_buffer::generic_array::ArrayBuilder<u8, block_buffer::generic_array::typenum::UInt<block_buffer::generic_array::typenum::UInt<block_buffer::generic_array::typenum::UInt<block_buffer::generic_array::typenum::UInt<block_buffer::generic_array::typenum::UInt<block_buffer::generic_array::typenum::UInt<block_buffer::generic_array::typenum::UInt<block_buffer::generic_array::typenum::UTerm, digest::consts::B1>, digest::consts::B0>, digest::consts::B0>, digest::consts::B0>, digest::consts::B0>, digest::consts::B0>, digest::consts::B0>>") dereferenceable(72) %destination), !dbg !944
  br label %bb1, !dbg !944

bb1:                                              ; preds = %start
; call generic_array::ArrayBuilder<T,N>::iter_position
  call void @"_ZN13generic_array25ArrayBuilder$LT$T$C$N$GT$13iter_position17hccc699a4cbdd2279E"({ { i8*, i8* }, i64* }* noalias nocapture sret({ { i8*, i8* }, i64* }) dereferenceable(24) %_5, %"block_buffer::generic_array::ArrayBuilder<u8, block_buffer::generic_array::typenum::UInt<block_buffer::generic_array::typenum::UInt<block_buffer::generic_array::typenum::UInt<block_buffer::generic_array::typenum::UInt<block_buffer::generic_array::typenum::UInt<block_buffer::generic_array::typenum::UInt<block_buffer::generic_array::typenum::UInt<block_buffer::generic_array::typenum::UTerm, digest::consts::B1>, digest::consts::B0>, digest::consts::B0>, digest::consts::B0>, digest::consts::B0>, digest::consts::B0>, digest::consts::B0>>"* align 8 dereferenceable(72) %destination), !dbg !945
  br label %bb2, !dbg !945

bb2:                                              ; preds = %bb1
  %1 = bitcast { { i8*, i8* }, i64* }* %_5 to { i8*, i8* }*, !dbg !946
  %2 = getelementptr inbounds { i8*, i8* }, { i8*, i8* }* %1, i32 0, i32 0, !dbg !946
  %destination_iter.0 = load i8*, i8** %2, align 8, !dbg !946, !nonnull !4
  %3 = getelementptr inbounds { i8*, i8* }, { i8*, i8* }* %1, i32 0, i32 1, !dbg !946
  %destination_iter.1 = load i8*, i8** %3, align 8, !dbg !946
  %4 = getelementptr inbounds { i8*, i8* }, { i8*, i8* }* %destination_iter.dbg.spill, i32 0, i32 0, !dbg !946
  store i8* %destination_iter.0, i8** %4, align 8, !dbg !946
  %5 = getelementptr inbounds { i8*, i8* }, { i8*, i8* }* %destination_iter.dbg.spill, i32 0, i32 1, !dbg !946
  store i8* %destination_iter.1, i8** %5, align 8, !dbg !946
  call void @llvm.dbg.declare(metadata { i8*, i8* }* %destination_iter.dbg.spill, metadata !936, metadata !DIExpression()), !dbg !947
  %6 = getelementptr inbounds { { i8*, i8* }, i64* }, { { i8*, i8* }, i64* }* %_5, i32 0, i32 1, !dbg !948
  %7 = load i64*, i64** %6, align 8, !dbg !948, !nonnull !4
  store i64* %7, i64** %position, align 8, !dbg !948
; call core::iter::traits::iterator::Iterator::enumerate
  call void @_ZN4core4iter6traits8iterator8Iterator9enumerate17hdafc22ae5ded0caaE(%"core::iter::Enumerate<core::slice::IterMut<u8>>"* noalias nocapture sret(%"core::iter::Enumerate<core::slice::IterMut<u8>>") dereferenceable(24) %_8, i8* nonnull %destination_iter.0, i8* %destination_iter.1), !dbg !949
  br label %bb3, !dbg !949

bb3:                                              ; preds = %bb2
  %8 = bitcast { i8*, i64* }* %_10 to %"[closure@block_buffer::generic_array::impls::<impl core::default::Default for block_buffer::generic_array::GenericArray<u8, block_buffer::generic_array::typenum::UInt<block_buffer::generic_array::typenum::UInt<block_buffer::generic_array::typenum::UInt<block_buffer::generic_array::typenum::UInt<block_buffer::generic_array::typenum::UInt<block_buffer::generic_array::typenum::UInt<block_buffer::generic_array::typenum::UInt<block_buffer::generic_array::typenum::UTerm, digest::consts::B1>, digest::consts::B0>, digest::consts::B0>, digest::consts::B0>, digest::consts::B0>, digest::consts::B0>, digest::consts::B0>>>::default::{closure#0}]"**, !dbg !950
  store %"[closure@block_buffer::generic_array::impls::<impl core::default::Default for block_buffer::generic_array::GenericArray<u8, block_buffer::generic_array::typenum::UInt<block_buffer::generic_array::typenum::UInt<block_buffer::generic_array::typenum::UInt<block_buffer::generic_array::typenum::UInt<block_buffer::generic_array::typenum::UInt<block_buffer::generic_array::typenum::UInt<block_buffer::generic_array::typenum::UInt<block_buffer::generic_array::typenum::UTerm, digest::consts::B1>, digest::consts::B0>, digest::consts::B0>, digest::consts::B0>, digest::consts::B0>, digest::consts::B0>, digest::consts::B0>>>::default::{closure#0}]"* %f, %"[closure@block_buffer::generic_array::impls::<impl core::default::Default for block_buffer::generic_array::GenericArray<u8, block_buffer::generic_array::typenum::UInt<block_buffer::generic_array::typenum::UInt<block_buffer::generic_array::typenum::UInt<block_buffer::generic_array::typenum::UInt<block_buffer::generic_array::typenum::UInt<block_buffer::generic_array::typenum::UInt<block_buffer::generic_array::typenum::UInt<block_buffer::generic_array::typenum::UTerm, digest::consts::B1>, digest::consts::B0>, digest::consts::B0>, digest::consts::B0>, digest::consts::B0>, digest::consts::B0>, digest::consts::B0>>>::default::{closure#0}]"** %8, align 8, !dbg !950
  %9 = getelementptr inbounds { i8*, i64* }, { i8*, i64* }* %_10, i32 0, i32 1, !dbg !950
  %10 = bitcast i64** %9 to i64***, !dbg !950
  store i64** %position, i64*** %10, align 8, !dbg !950
  %11 = getelementptr inbounds { i8*, i64* }, { i8*, i64* }* %_10, i32 0, i32 0, !dbg !949
  %12 = load i8*, i8** %11, align 8, !dbg !949, !nonnull !4
  %13 = getelementptr inbounds { i8*, i64* }, { i8*, i64* }* %_10, i32 0, i32 1, !dbg !949
  %14 = load i64*, i64** %13, align 8, !dbg !949, !nonnull !4
; call core::iter::traits::iterator::Iterator::for_each
  call void @_ZN4core4iter6traits8iterator8Iterator8for_each17h3dffdb50e0cb52f0E(%"core::iter::Enumerate<core::slice::IterMut<u8>>"* noalias nocapture dereferenceable(24) %_8, i8* nonnull align 1 %12, i64* align 8 dereferenceable(8) %14), !dbg !949
  br label %bb4, !dbg !949

bb4:                                              ; preds = %bb3
  %15 = bitcast %"block_buffer::generic_array::ArrayBuilder<u8, block_buffer::generic_array::typenum::UInt<block_buffer::generic_array::typenum::UInt<block_buffer::generic_array::typenum::UInt<block_buffer::generic_array::typenum::UInt<block_buffer::generic_array::typenum::UInt<block_buffer::generic_array::typenum::UInt<block_buffer::generic_array::typenum::UInt<block_buffer::generic_array::typenum::UTerm, digest::consts::B1>, digest::consts::B0>, digest::consts::B0>, digest::consts::B0>, digest::consts::B0>, digest::consts::B0>, digest::consts::B0>>"* %_13 to i8*, !dbg !951
  %16 = bitcast %"block_buffer::generic_array::ArrayBuilder<u8, block_buffer::generic_array::typenum::UInt<block_buffer::generic_array::typenum::UInt<block_buffer::generic_array::typenum::UInt<block_buffer::generic_array::typenum::UInt<block_buffer::generic_array::typenum::UInt<block_buffer::generic_array::typenum::UInt<block_buffer::generic_array::typenum::UInt<block_buffer::generic_array::typenum::UTerm, digest::consts::B1>, digest::consts::B0>, digest::consts::B0>, digest::consts::B0>, digest::consts::B0>, digest::consts::B0>, digest::consts::B0>>"* %destination to i8*, !dbg !951
  call void @llvm.memcpy.p0i8.p0i8.i64(i8* align 8 %15, i8* align 8 %16, i64 72, i1 false), !dbg !951
; call generic_array::ArrayBuilder<T,N>::into_inner
  call void @"_ZN13generic_array25ArrayBuilder$LT$T$C$N$GT$10into_inner17h12bf9f4014d334baE"(%"block_buffer::generic_array::GenericArray<u8, block_buffer::generic_array::typenum::UInt<block_buffer::generic_array::typenum::UInt<block_buffer::generic_array::typenum::UInt<block_buffer::generic_array::typenum::UInt<block_buffer::generic_array::typenum::UInt<block_buffer::generic_array::typenum::UInt<block_buffer::generic_array::typenum::UInt<block_buffer::generic_array::typenum::UTerm, digest::consts::B1>, digest::consts::B0>, digest::consts::B0>, digest::consts::B0>, digest::consts::B0>, digest::consts::B0>, digest::consts::B0>>"* noalias nocapture sret(%"block_buffer::generic_array::GenericArray<u8, block_buffer::generic_array::typenum::UInt<block_buffer::generic_array::typenum::UInt<block_buffer::generic_array::typenum::UInt<block_buffer::generic_array::typenum::UInt<block_buffer::generic_array::typenum::UInt<block_buffer::generic_array::typenum::UInt<block_buffer::generic_array::typenum::UInt<block_buffer::generic_array::typenum::UTerm, digest::consts::B1>, digest::consts::B0>, digest::consts::B0>, digest::consts::B0>, digest::consts::B0>, digest::consts::B0>, digest::consts::B0>>") dereferenceable(64) %0, %"block_buffer::generic_array::ArrayBuilder<u8, block_buffer::generic_array::typenum::UInt<block_buffer::generic_array::typenum::UInt<block_buffer::generic_array::typenum::UInt<block_buffer::generic_array::typenum::UInt<block_buffer::generic_array::typenum::UInt<block_buffer::generic_array::typenum::UInt<block_buffer::generic_array::typenum::UInt<block_buffer::generic_array::typenum::UTerm, digest::consts::B1>, digest::consts::B0>, digest::consts::B0>, digest::consts::B0>, digest::consts::B0>, digest::consts::B0>, digest::consts::B0>>"* noalias nocapture dereferenceable(72) %_13), !dbg !951
  br label %bb5, !dbg !951

bb5:                                              ; preds = %bb4
  br label %bb6, !dbg !952

bb6:                                              ; preds = %bb5
  ret void, !dbg !953
}

; <generic_array::GenericArray<T,N> as generic_array::sequence::GenericSequence<T>>::generate::{{closure}}
; Function Attrs: inlinehint nounwind
define void @"_ZN110_$LT$generic_array..GenericArray$LT$T$C$N$GT$$u20$as$u20$generic_array..sequence..GenericSequence$LT$T$GT$$GT$8generate28_$u7b$$u7b$closure$u7d$$u7d$17h443461c92bc57d8bE"({ i8*, i64* }* align 8 dereferenceable(16) %_1, i64 %_2.0, i8* align 1 dereferenceable(1) %_2.1) unnamed_addr #1 !dbg !954 {
start:
  %dst.dbg.spill = alloca i8*, align 8
  %i.dbg.spill = alloca i64, align 8
  %_2.dbg.spill = alloca { i64, i8* }, align 8
  %_1.dbg.spill = alloca { i8*, i64* }*, align 8
  %_9 = alloca i64, align 8
  store { i8*, i64* }* %_1, { i8*, i64* }** %_1.dbg.spill, align 8
  %0 = load { i8*, i64* }*, { i8*, i64* }** %_1.dbg.spill, align 8, !nonnull !4
  %1 = bitcast { i8*, i64* }* %0 to %"[closure@block_buffer::generic_array::impls::<impl core::default::Default for block_buffer::generic_array::GenericArray<u8, block_buffer::generic_array::typenum::UInt<block_buffer::generic_array::typenum::UInt<block_buffer::generic_array::typenum::UInt<block_buffer::generic_array::typenum::UInt<block_buffer::generic_array::typenum::UInt<block_buffer::generic_array::typenum::UInt<block_buffer::generic_array::typenum::UInt<block_buffer::generic_array::typenum::UTerm, digest::consts::B1>, digest::consts::B0>, digest::consts::B0>, digest::consts::B0>, digest::consts::B0>, digest::consts::B0>, digest::consts::B0>>>::default::{closure#0}]"**
  %2 = load %"[closure@block_buffer::generic_array::impls::<impl core::default::Default for block_buffer::generic_array::GenericArray<u8, block_buffer::generic_array::typenum::UInt<block_buffer::generic_array::typenum::UInt<block_buffer::generic_array::typenum::UInt<block_buffer::generic_array::typenum::UInt<block_buffer::generic_array::typenum::UInt<block_buffer::generic_array::typenum::UInt<block_buffer::generic_array::typenum::UInt<block_buffer::generic_array::typenum::UTerm, digest::consts::B1>, digest::consts::B0>, digest::consts::B0>, digest::consts::B0>, digest::consts::B0>, digest::consts::B0>, digest::consts::B0>>>::default::{closure#0}]"*, %"[closure@block_buffer::generic_array::impls::<impl core::default::Default for block_buffer::generic_array::GenericArray<u8, block_buffer::generic_array::typenum::UInt<block_buffer::generic_array::typenum::UInt<block_buffer::generic_array::typenum::UInt<block_buffer::generic_array::typenum::UInt<block_buffer::generic_array::typenum::UInt<block_buffer::generic_array::typenum::UInt<block_buffer::generic_array::typenum::UInt<block_buffer::generic_array::typenum::UTerm, digest::consts::B1>, digest::consts::B0>, digest::consts::B0>, digest::consts::B0>, digest::consts::B0>, digest::consts::B0>, digest::consts::B0>>>::default::{closure#0}]"** %1, align 8, !nonnull !4
  call void @llvm.dbg.declare(metadata { i8*, i64* }** %_1.dbg.spill, metadata !963, metadata !DIExpression(DW_OP_deref, DW_OP_deref)), !dbg !969
  %3 = load { i8*, i64* }*, { i8*, i64* }** %_1.dbg.spill, align 8, !nonnull !4
  %4 = getelementptr inbounds { i8*, i64* }, { i8*, i64* }* %3, i32 0, i32 1
  %5 = bitcast i64** %4 to i64***
  %6 = load i64**, i64*** %5, align 8, !nonnull !4
  call void @llvm.dbg.declare(metadata { i8*, i64* }** %_1.dbg.spill, metadata !964, metadata !DIExpression(DW_OP_deref, DW_OP_plus_uconst, 8, DW_OP_deref)), !dbg !970
  %7 = getelementptr inbounds { i64, i8* }, { i64, i8* }* %_2.dbg.spill, i32 0, i32 0
  store i64 %_2.0, i64* %7, align 8
  %8 = getelementptr inbounds { i64, i8* }, { i64, i8* }* %_2.dbg.spill, i32 0, i32 1
  store i8* %_2.1, i8** %8, align 8
  call void @llvm.dbg.declare(metadata { i64, i8* }* %_2.dbg.spill, metadata !968, metadata !DIExpression()), !dbg !971
  store i64 %_2.0, i64* %i.dbg.spill, align 8, !dbg !972
  call void @llvm.dbg.declare(metadata i64* %i.dbg.spill, metadata !965, metadata !DIExpression()), !dbg !973
  store i8* %_2.1, i8** %dst.dbg.spill, align 8, !dbg !974
  call void @llvm.dbg.declare(metadata i8** %dst.dbg.spill, metadata !967, metadata !DIExpression()), !dbg !975
  %9 = bitcast { i8*, i64* }* %_1 to %"[closure@block_buffer::generic_array::impls::<impl core::default::Default for block_buffer::generic_array::GenericArray<u8, block_buffer::generic_array::typenum::UInt<block_buffer::generic_array::typenum::UInt<block_buffer::generic_array::typenum::UInt<block_buffer::generic_array::typenum::UInt<block_buffer::generic_array::typenum::UInt<block_buffer::generic_array::typenum::UInt<block_buffer::generic_array::typenum::UInt<block_buffer::generic_array::typenum::UTerm, digest::consts::B1>, digest::consts::B0>, digest::consts::B0>, digest::consts::B0>, digest::consts::B0>, digest::consts::B0>, digest::consts::B0>>>::default::{closure#0}]"**, !dbg !976
  %_8 = load %"[closure@block_buffer::generic_array::impls::<impl core::default::Default for block_buffer::generic_array::GenericArray<u8, block_buffer::generic_array::typenum::UInt<block_buffer::generic_array::typenum::UInt<block_buffer::generic_array::typenum::UInt<block_buffer::generic_array::typenum::UInt<block_buffer::generic_array::typenum::UInt<block_buffer::generic_array::typenum::UInt<block_buffer::generic_array::typenum::UInt<block_buffer::generic_array::typenum::UTerm, digest::consts::B1>, digest::consts::B0>, digest::consts::B0>, digest::consts::B0>, digest::consts::B0>, digest::consts::B0>, digest::consts::B0>>>::default::{closure#0}]"*, %"[closure@block_buffer::generic_array::impls::<impl core::default::Default for block_buffer::generic_array::GenericArray<u8, block_buffer::generic_array::typenum::UInt<block_buffer::generic_array::typenum::UInt<block_buffer::generic_array::typenum::UInt<block_buffer::generic_array::typenum::UInt<block_buffer::generic_array::typenum::UInt<block_buffer::generic_array::typenum::UInt<block_buffer::generic_array::typenum::UInt<block_buffer::generic_array::typenum::UTerm, digest::consts::B1>, digest::consts::B0>, digest::consts::B0>, digest::consts::B0>, digest::consts::B0>, digest::consts::B0>, digest::consts::B0>>>::default::{closure#0}]"** %9, align 8, !dbg !976, !nonnull !4
  store i64 %_2.0, i64* %_9, align 8, !dbg !976
  %10 = load i64, i64* %_9, align 8, !dbg !976
; call generic_array::impls::<impl core::default::Default for generic_array::GenericArray<T,N>>::default::{{closure}}
  %_7 = call i8 @"_ZN13generic_array5impls93_$LT$impl$u20$core..default..Default$u20$for$u20$generic_array..GenericArray$LT$T$C$N$GT$$GT$7default28_$u7b$$u7b$closure$u7d$$u7d$17h69a3dc99da00e89cE"(%"[closure@block_buffer::generic_array::impls::<impl core::default::Default for block_buffer::generic_array::GenericArray<u8, block_buffer::generic_array::typenum::UInt<block_buffer::generic_array::typenum::UInt<block_buffer::generic_array::typenum::UInt<block_buffer::generic_array::typenum::UInt<block_buffer::generic_array::typenum::UInt<block_buffer::generic_array::typenum::UInt<block_buffer::generic_array::typenum::UInt<block_buffer::generic_array::typenum::UTerm, digest::consts::B1>, digest::consts::B0>, digest::consts::B0>, digest::consts::B0>, digest::consts::B0>, digest::consts::B0>, digest::consts::B0>>>::default::{closure#0}]"* nonnull align 1 %_8, i64 %10), !dbg !976
  br label %bb1, !dbg !976

bb1:                                              ; preds = %start
; call core::ptr::write
  call void @_ZN4core3ptr5write17h6b21c4fb4186ca32E(i8* %_2.1, i8 %_7), !dbg !977
  br label %bb2, !dbg !977

bb2:                                              ; preds = %bb1
  %11 = getelementptr inbounds { i8*, i64* }, { i8*, i64* }* %_1, i32 0, i32 1, !dbg !978
  %12 = bitcast i64** %11 to i64***, !dbg !978
  %13 = load i64**, i64*** %12, align 8, !dbg !978, !nonnull !4
  %14 = load i64*, i64** %13, align 8, !dbg !978, !nonnull !4
  %15 = load i64, i64* %14, align 8, !dbg !978
  %16 = call { i64, i1 } @llvm.uadd.with.overflow.i64(i64 %15, i64 1), !dbg !978
  %_11.0 = extractvalue { i64, i1 } %16, 0, !dbg !978
  %_11.1 = extractvalue { i64, i1 } %16, 1, !dbg !978
  %17 = call i1 @llvm.expect.i1(i1 %_11.1, i1 false), !dbg !978
  br i1 %17, label %panic, label %bb3, !dbg !978

bb3:                                              ; preds = %bb2
  %18 = getelementptr inbounds { i8*, i64* }, { i8*, i64* }* %_1, i32 0, i32 1, !dbg !978
  %19 = bitcast i64** %18 to i64***, !dbg !978
  %20 = load i64**, i64*** %19, align 8, !dbg !978, !nonnull !4
  %21 = load i64*, i64** %20, align 8, !dbg !978, !nonnull !4
  store i64 %_11.0, i64* %21, align 8, !dbg !978
  ret void, !dbg !979

panic:                                            ; preds = %bb2
; call core::panicking::panic
  call void @_ZN4core9panicking5panic17h560e3e4b7752857aE([0 x i8]* nonnull align 1 bitcast ([28 x i8]* @str.1 to [0 x i8]*), i64 28, %"core::panic::Location"* align 8 dereferenceable(24) bitcast (<{ i8*, [16 x i8] }>* @alloc791 to %"core::panic::Location"*)), !dbg !978
  unreachable, !dbg !978
}

; <generic_array::GenericArray<T,N> as generic_array::sequence::GenericSequence<T>>::generate::{{closure}}
; Function Attrs: inlinehint nounwind
define void @"_ZN110_$LT$generic_array..GenericArray$LT$T$C$N$GT$$u20$as$u20$generic_array..sequence..GenericSequence$LT$T$GT$$GT$8generate28_$u7b$$u7b$closure$u7d$$u7d$17hb1335c13c1e8d967E"({ i8*, i64* }* align 8 dereferenceable(16) %_1, i64 %_2.0, i8* align 1 dereferenceable(1) %_2.1) unnamed_addr #1 !dbg !980 {
start:
  %dst.dbg.spill = alloca i8*, align 8
  %i.dbg.spill = alloca i64, align 8
  %_2.dbg.spill = alloca { i64, i8* }, align 8
  %_1.dbg.spill = alloca { i8*, i64* }*, align 8
  %_9 = alloca i64, align 8
  store { i8*, i64* }* %_1, { i8*, i64* }** %_1.dbg.spill, align 8
  %0 = load { i8*, i64* }*, { i8*, i64* }** %_1.dbg.spill, align 8, !nonnull !4
  %1 = bitcast { i8*, i64* }* %0 to %"[closure@block_buffer::generic_array::impls::<impl core::default::Default for block_buffer::generic_array::GenericArray<u8, block_buffer::generic_array::typenum::UInt<block_buffer::generic_array::typenum::UInt<block_buffer::generic_array::typenum::UInt<block_buffer::generic_array::typenum::UInt<block_buffer::generic_array::typenum::UInt<block_buffer::generic_array::typenum::UInt<block_buffer::generic_array::typenum::UInt<block_buffer::generic_array::typenum::UInt<block_buffer::generic_array::typenum::UTerm, digest::consts::B1>, digest::consts::B0>, digest::consts::B0>, digest::consts::B0>, digest::consts::B0>, digest::consts::B0>, digest::consts::B0>, digest::consts::B0>>>::default::{closure#0}]"**
  %2 = load %"[closure@block_buffer::generic_array::impls::<impl core::default::Default for block_buffer::generic_array::GenericArray<u8, block_buffer::generic_array::typenum::UInt<block_buffer::generic_array::typenum::UInt<block_buffer::generic_array::typenum::UInt<block_buffer::generic_array::typenum::UInt<block_buffer::generic_array::typenum::UInt<block_buffer::generic_array::typenum::UInt<block_buffer::generic_array::typenum::UInt<block_buffer::generic_array::typenum::UInt<block_buffer::generic_array::typenum::UTerm, digest::consts::B1>, digest::consts::B0>, digest::consts::B0>, digest::consts::B0>, digest::consts::B0>, digest::consts::B0>, digest::consts::B0>, digest::consts::B0>>>::default::{closure#0}]"*, %"[closure@block_buffer::generic_array::impls::<impl core::default::Default for block_buffer::generic_array::GenericArray<u8, block_buffer::generic_array::typenum::UInt<block_buffer::generic_array::typenum::UInt<block_buffer::generic_array::typenum::UInt<block_buffer::generic_array::typenum::UInt<block_buffer::generic_array::typenum::UInt<block_buffer::generic_array::typenum::UInt<block_buffer::generic_array::typenum::UInt<block_buffer::generic_array::typenum::UInt<block_buffer::generic_array::typenum::UTerm, digest::consts::B1>, digest::consts::B0>, digest::consts::B0>, digest::consts::B0>, digest::consts::B0>, digest::consts::B0>, digest::consts::B0>, digest::consts::B0>>>::default::{closure#0}]"** %1, align 8, !nonnull !4
  call void @llvm.dbg.declare(metadata { i8*, i64* }** %_1.dbg.spill, metadata !985, metadata !DIExpression(DW_OP_deref, DW_OP_deref)), !dbg !991
  %3 = load { i8*, i64* }*, { i8*, i64* }** %_1.dbg.spill, align 8, !nonnull !4
  %4 = getelementptr inbounds { i8*, i64* }, { i8*, i64* }* %3, i32 0, i32 1
  %5 = bitcast i64** %4 to i64***
  %6 = load i64**, i64*** %5, align 8, !nonnull !4
  call void @llvm.dbg.declare(metadata { i8*, i64* }** %_1.dbg.spill, metadata !986, metadata !DIExpression(DW_OP_deref, DW_OP_plus_uconst, 8, DW_OP_deref)), !dbg !992
  %7 = getelementptr inbounds { i64, i8* }, { i64, i8* }* %_2.dbg.spill, i32 0, i32 0
  store i64 %_2.0, i64* %7, align 8
  %8 = getelementptr inbounds { i64, i8* }, { i64, i8* }* %_2.dbg.spill, i32 0, i32 1
  store i8* %_2.1, i8** %8, align 8
  call void @llvm.dbg.declare(metadata { i64, i8* }* %_2.dbg.spill, metadata !990, metadata !DIExpression()), !dbg !993
  store i64 %_2.0, i64* %i.dbg.spill, align 8, !dbg !994
  call void @llvm.dbg.declare(metadata i64* %i.dbg.spill, metadata !987, metadata !DIExpression()), !dbg !995
  store i8* %_2.1, i8** %dst.dbg.spill, align 8, !dbg !996
  call void @llvm.dbg.declare(metadata i8** %dst.dbg.spill, metadata !989, metadata !DIExpression()), !dbg !997
  %9 = bitcast { i8*, i64* }* %_1 to %"[closure@block_buffer::generic_array::impls::<impl core::default::Default for block_buffer::generic_array::GenericArray<u8, block_buffer::generic_array::typenum::UInt<block_buffer::generic_array::typenum::UInt<block_buffer::generic_array::typenum::UInt<block_buffer::generic_array::typenum::UInt<block_buffer::generic_array::typenum::UInt<block_buffer::generic_array::typenum::UInt<block_buffer::generic_array::typenum::UInt<block_buffer::generic_array::typenum::UInt<block_buffer::generic_array::typenum::UTerm, digest::consts::B1>, digest::consts::B0>, digest::consts::B0>, digest::consts::B0>, digest::consts::B0>, digest::consts::B0>, digest::consts::B0>, digest::consts::B0>>>::default::{closure#0}]"**, !dbg !998
  %_8 = load %"[closure@block_buffer::generic_array::impls::<impl core::default::Default for block_buffer::generic_array::GenericArray<u8, block_buffer::generic_array::typenum::UInt<block_buffer::generic_array::typenum::UInt<block_buffer::generic_array::typenum::UInt<block_buffer::generic_array::typenum::UInt<block_buffer::generic_array::typenum::UInt<block_buffer::generic_array::typenum::UInt<block_buffer::generic_array::typenum::UInt<block_buffer::generic_array::typenum::UInt<block_buffer::generic_array::typenum::UTerm, digest::consts::B1>, digest::consts::B0>, digest::consts::B0>, digest::consts::B0>, digest::consts::B0>, digest::consts::B0>, digest::consts::B0>, digest::consts::B0>>>::default::{closure#0}]"*, %"[closure@block_buffer::generic_array::impls::<impl core::default::Default for block_buffer::generic_array::GenericArray<u8, block_buffer::generic_array::typenum::UInt<block_buffer::generic_array::typenum::UInt<block_buffer::generic_array::typenum::UInt<block_buffer::generic_array::typenum::UInt<block_buffer::generic_array::typenum::UInt<block_buffer::generic_array::typenum::UInt<block_buffer::generic_array::typenum::UInt<block_buffer::generic_array::typenum::UInt<block_buffer::generic_array::typenum::UTerm, digest::consts::B1>, digest::consts::B0>, digest::consts::B0>, digest::consts::B0>, digest::consts::B0>, digest::consts::B0>, digest::consts::B0>, digest::consts::B0>>>::default::{closure#0}]"** %9, align 8, !dbg !998, !nonnull !4
  store i64 %_2.0, i64* %_9, align 8, !dbg !998
  %10 = load i64, i64* %_9, align 8, !dbg !998
; call generic_array::impls::<impl core::default::Default for generic_array::GenericArray<T,N>>::default::{{closure}}
  %_7 = call i8 @"_ZN13generic_array5impls93_$LT$impl$u20$core..default..Default$u20$for$u20$generic_array..GenericArray$LT$T$C$N$GT$$GT$7default28_$u7b$$u7b$closure$u7d$$u7d$17h55fb79ace886712dE"(%"[closure@block_buffer::generic_array::impls::<impl core::default::Default for block_buffer::generic_array::GenericArray<u8, block_buffer::generic_array::typenum::UInt<block_buffer::generic_array::typenum::UInt<block_buffer::generic_array::typenum::UInt<block_buffer::generic_array::typenum::UInt<block_buffer::generic_array::typenum::UInt<block_buffer::generic_array::typenum::UInt<block_buffer::generic_array::typenum::UInt<block_buffer::generic_array::typenum::UInt<block_buffer::generic_array::typenum::UTerm, digest::consts::B1>, digest::consts::B0>, digest::consts::B0>, digest::consts::B0>, digest::consts::B0>, digest::consts::B0>, digest::consts::B0>, digest::consts::B0>>>::default::{closure#0}]"* nonnull align 1 %_8, i64 %10), !dbg !998
  br label %bb1, !dbg !998

bb1:                                              ; preds = %start
; call core::ptr::write
  call void @_ZN4core3ptr5write17h6b21c4fb4186ca32E(i8* %_2.1, i8 %_7), !dbg !999
  br label %bb2, !dbg !999

bb2:                                              ; preds = %bb1
  %11 = getelementptr inbounds { i8*, i64* }, { i8*, i64* }* %_1, i32 0, i32 1, !dbg !1000
  %12 = bitcast i64** %11 to i64***, !dbg !1000
  %13 = load i64**, i64*** %12, align 8, !dbg !1000, !nonnull !4
  %14 = load i64*, i64** %13, align 8, !dbg !1000, !nonnull !4
  %15 = load i64, i64* %14, align 8, !dbg !1000
  %16 = call { i64, i1 } @llvm.uadd.with.overflow.i64(i64 %15, i64 1), !dbg !1000
  %_11.0 = extractvalue { i64, i1 } %16, 0, !dbg !1000
  %_11.1 = extractvalue { i64, i1 } %16, 1, !dbg !1000
  %17 = call i1 @llvm.expect.i1(i1 %_11.1, i1 false), !dbg !1000
  br i1 %17, label %panic, label %bb3, !dbg !1000

bb3:                                              ; preds = %bb2
  %18 = getelementptr inbounds { i8*, i64* }, { i8*, i64* }* %_1, i32 0, i32 1, !dbg !1000
  %19 = bitcast i64** %18 to i64***, !dbg !1000
  %20 = load i64**, i64*** %19, align 8, !dbg !1000, !nonnull !4
  %21 = load i64*, i64** %20, align 8, !dbg !1000, !nonnull !4
  store i64 %_11.0, i64* %21, align 8, !dbg !1000
  ret void, !dbg !1001

panic:                                            ; preds = %bb2
; call core::panicking::panic
  call void @_ZN4core9panicking5panic17h560e3e4b7752857aE([0 x i8]* nonnull align 1 bitcast ([28 x i8]* @str.1 to [0 x i8]*), i64 28, %"core::panic::Location"* align 8 dereferenceable(24) bitcast (<{ i8*, [16 x i8] }>* @alloc791 to %"core::panic::Location"*)), !dbg !1000
  unreachable, !dbg !1000
}

; <core::iter::adapters::zip::Zip<A,B> as core::iter::adapters::zip::ZipImpl<A,B>>::new
; Function Attrs: nounwind
