; ModuleID = 'sha3.30c85557-cgu.0'
source_filename = "sha3.30c85557-cgu.0"
target datalayout = "e-m:e-p:64:64-i64:64-n32:64-S128"
target triple = "bpfel"

%"core::iter::Zip<core::slice::IterMut<u8>, core::slice::Iter<u8>>" = type { { i8*, i8* }, { i8*, i8* }, i64, i64, i64 }
%"digest::generic_array::GenericArray<u8, digest::generic_array::typenum::UInt<digest::generic_array::typenum::UInt<digest::generic_array::typenum::UInt<digest::generic_array::typenum::UInt<digest::generic_array::typenum::UInt<digest::generic_array::typenum::UInt<digest::generic_array::typenum::UInt<digest::generic_array::typenum::UInt<digest::generic_array::typenum::UTerm, digest::consts::B1>, digest::consts::B0>, digest::consts::B0>, digest::consts::B1>, digest::consts::B0>, digest::consts::B0>, digest::consts::B0>, digest::consts::B0>>" = type { %"digest::generic_array::GenericArrayImplEven<u8, digest::generic_array::GenericArrayImplEven<u8, digest::generic_array::GenericArrayImplEven<u8, digest::generic_array::GenericArrayImplEven<u8, digest::generic_array::GenericArrayImplOdd<u8, digest::generic_array::GenericArrayImplEven<u8, digest::generic_array::GenericArrayImplEven<u8, digest::generic_array::GenericArrayImplOdd<u8, [u8; 0]>>>>>>>>" }
%"digest::generic_array::GenericArrayImplEven<u8, digest::generic_array::GenericArrayImplEven<u8, digest::generic_array::GenericArrayImplEven<u8, digest::generic_array::GenericArrayImplEven<u8, digest::generic_array::GenericArrayImplOdd<u8, digest::generic_array::GenericArrayImplEven<u8, digest::generic_array::GenericArrayImplEven<u8, digest::generic_array::GenericArrayImplOdd<u8, [u8; 0]>>>>>>>>" = type { %"digest::generic_array::GenericArrayImplEven<u8, digest::generic_array::GenericArrayImplEven<u8, digest::generic_array::GenericArrayImplEven<u8, digest::generic_array::GenericArrayImplOdd<u8, digest::generic_array::GenericArrayImplEven<u8, digest::generic_array::GenericArrayImplEven<u8, digest::generic_array::GenericArrayImplOdd<u8, [u8; 0]>>>>>>>", %"digest::generic_array::GenericArrayImplEven<u8, digest::generic_array::GenericArrayImplEven<u8, digest::generic_array::GenericArrayImplEven<u8, digest::generic_array::GenericArrayImplOdd<u8, digest::generic_array::GenericArrayImplEven<u8, digest::generic_array::GenericArrayImplEven<u8, digest::generic_array::GenericArrayImplOdd<u8, [u8; 0]>>>>>>>", %"core::marker::PhantomData<u8>" }
%"digest::generic_array::GenericArrayImplEven<u8, digest::generic_array::GenericArrayImplEven<u8, digest::generic_array::GenericArrayImplEven<u8, digest::generic_array::GenericArrayImplOdd<u8, digest::generic_array::GenericArrayImplEven<u8, digest::generic_array::GenericArrayImplEven<u8, digest::generic_array::GenericArrayImplOdd<u8, [u8; 0]>>>>>>>" = type { %"digest::generic_array::GenericArrayImplEven<u8, digest::generic_array::GenericArrayImplEven<u8, digest::generic_array::GenericArrayImplOdd<u8, digest::generic_array::GenericArrayImplEven<u8, digest::generic_array::GenericArrayImplEven<u8, digest::generic_array::GenericArrayImplOdd<u8, [u8; 0]>>>>>>", %"digest::generic_array::GenericArrayImplEven<u8, digest::generic_array::GenericArrayImplEven<u8, digest::generic_array::GenericArrayImplOdd<u8, digest::generic_array::GenericArrayImplEven<u8, digest::generic_array::GenericArrayImplEven<u8, digest::generic_array::GenericArrayImplOdd<u8, [u8; 0]>>>>>>", %"core::marker::PhantomData<u8>" }
%"digest::generic_array::GenericArrayImplEven<u8, digest::generic_array::GenericArrayImplEven<u8, digest::generic_array::GenericArrayImplOdd<u8, digest::generic_array::GenericArrayImplEven<u8, digest::generic_array::GenericArrayImplEven<u8, digest::generic_array::GenericArrayImplOdd<u8, [u8; 0]>>>>>>" = type { %"digest::generic_array::GenericArrayImplEven<u8, digest::generic_array::GenericArrayImplOdd<u8, digest::generic_array::GenericArrayImplEven<u8, digest::generic_array::GenericArrayImplEven<u8, digest::generic_array::GenericArrayImplOdd<u8, [u8; 0]>>>>>", %"digest::generic_array::GenericArrayImplEven<u8, digest::generic_array::GenericArrayImplOdd<u8, digest::generic_array::GenericArrayImplEven<u8, digest::generic_array::GenericArrayImplEven<u8, digest::generic_array::GenericArrayImplOdd<u8, [u8; 0]>>>>>", %"core::marker::PhantomData<u8>" }
%"digest::generic_array::GenericArrayImplEven<u8, digest::generic_array::GenericArrayImplOdd<u8, digest::generic_array::GenericArrayImplEven<u8, digest::generic_array::GenericArrayImplEven<u8, digest::generic_array::GenericArrayImplOdd<u8, [u8; 0]>>>>>" = type { %"digest::generic_array::GenericArrayImplOdd<u8, digest::generic_array::GenericArrayImplEven<u8, digest::generic_array::GenericArrayImplEven<u8, digest::generic_array::GenericArrayImplOdd<u8, [u8; 0]>>>>", %"digest::generic_array::GenericArrayImplOdd<u8, digest::generic_array::GenericArrayImplEven<u8, digest::generic_array::GenericArrayImplEven<u8, digest::generic_array::GenericArrayImplOdd<u8, [u8; 0]>>>>", %"core::marker::PhantomData<u8>" }
%"digest::generic_array::GenericArrayImplOdd<u8, digest::generic_array::GenericArrayImplEven<u8, digest::generic_array::GenericArrayImplEven<u8, digest::generic_array::GenericArrayImplOdd<u8, [u8; 0]>>>>" = type { %"digest::generic_array::GenericArrayImplEven<u8, digest::generic_array::GenericArrayImplEven<u8, digest::generic_array::GenericArrayImplOdd<u8, [u8; 0]>>>", %"digest::generic_array::GenericArrayImplEven<u8, digest::generic_array::GenericArrayImplEven<u8, digest::generic_array::GenericArrayImplOdd<u8, [u8; 0]>>>", i8 }
%"digest::generic_array::GenericArrayImplEven<u8, digest::generic_array::GenericArrayImplEven<u8, digest::generic_array::GenericArrayImplOdd<u8, [u8; 0]>>>" = type { %"digest::generic_array::GenericArrayImplEven<u8, digest::generic_array::GenericArrayImplOdd<u8, [u8; 0]>>", %"digest::generic_array::GenericArrayImplEven<u8, digest::generic_array::GenericArrayImplOdd<u8, [u8; 0]>>", %"core::marker::PhantomData<u8>" }
%"digest::generic_array::GenericArrayImplEven<u8, digest::generic_array::GenericArrayImplOdd<u8, [u8; 0]>>" = type { %"digest::generic_array::GenericArrayImplOdd<u8, [u8; 0]>", %"digest::generic_array::GenericArrayImplOdd<u8, [u8; 0]>", %"core::marker::PhantomData<u8>" }
%"digest::generic_array::GenericArrayImplOdd<u8, [u8; 0]>" = type { [0 x i8], [0 x i8], i8 }
%"core::marker::PhantomData<u8>" = type {}
%"core::option::Option<core::fmt::Arguments>" = type { {}*, [5 x i64] }
%"core::panic::Location" = type { { [0 x i8]*, i64 }, i32, i32 }
%"digest::generic_array::GenericArray<u8, digest::generic_array::typenum::UInt<digest::generic_array::typenum::UInt<digest::generic_array::typenum::UInt<digest::generic_array::typenum::UInt<digest::generic_array::typenum::UInt<digest::generic_array::typenum::UInt<digest::generic_array::typenum::UInt<digest::generic_array::typenum::UTerm, digest::consts::B1>, digest::consts::B0>, digest::consts::B0>, digest::consts::B1>, digest::consts::B0>, digest::consts::B0>, digest::consts::B0>>" = type { %"digest::generic_array::GenericArrayImplEven<u8, digest::generic_array::GenericArrayImplEven<u8, digest::generic_array::GenericArrayImplEven<u8, digest::generic_array::GenericArrayImplOdd<u8, digest::generic_array::GenericArrayImplEven<u8, digest::generic_array::GenericArrayImplEven<u8, digest::generic_array::GenericArrayImplOdd<u8, [u8; 0]>>>>>>>" }
%"digest::generic_array::GenericArray<u8, digest::generic_array::typenum::UInt<digest::generic_array::typenum::UInt<digest::generic_array::typenum::UInt<digest::generic_array::typenum::UInt<digest::generic_array::typenum::UInt<digest::generic_array::typenum::UInt<digest::generic_array::typenum::UInt<digest::generic_array::typenum::UInt<digest::generic_array::typenum::UTerm, digest::consts::B1>, digest::consts::B0>, digest::consts::B1>, digest::consts::B0>, digest::consts::B1>, digest::consts::B0>, digest::consts::B0>, digest::consts::B0>>" = type { %"digest::generic_array::GenericArrayImplEven<u8, digest::generic_array::GenericArrayImplEven<u8, digest::generic_array::GenericArrayImplEven<u8, digest::generic_array::GenericArrayImplOdd<u8, digest::generic_array::GenericArrayImplEven<u8, digest::generic_array::GenericArrayImplOdd<u8, digest::generic_array::GenericArrayImplEven<u8, digest::generic_array::GenericArrayImplOdd<u8, [u8; 0]>>>>>>>>" }
%"digest::generic_array::GenericArrayImplEven<u8, digest::generic_array::GenericArrayImplEven<u8, digest::generic_array::GenericArrayImplEven<u8, digest::generic_array::GenericArrayImplOdd<u8, digest::generic_array::GenericArrayImplEven<u8, digest::generic_array::GenericArrayImplOdd<u8, digest::generic_array::GenericArrayImplEven<u8, digest::generic_array::GenericArrayImplOdd<u8, [u8; 0]>>>>>>>>" = type { %"digest::generic_array::GenericArrayImplEven<u8, digest::generic_array::GenericArrayImplEven<u8, digest::generic_array::GenericArrayImplOdd<u8, digest::generic_array::GenericArrayImplEven<u8, digest::generic_array::GenericArrayImplOdd<u8, digest::generic_array::GenericArrayImplEven<u8, digest::generic_array::GenericArrayImplOdd<u8, [u8; 0]>>>>>>>", %"digest::generic_array::GenericArrayImplEven<u8, digest::generic_array::GenericArrayImplEven<u8, digest::generic_array::GenericArrayImplOdd<u8, digest::generic_array::GenericArrayImplEven<u8, digest::generic_array::GenericArrayImplOdd<u8, digest::generic_array::GenericArrayImplEven<u8, digest::generic_array::GenericArrayImplOdd<u8, [u8; 0]>>>>>>>", %"core::marker::PhantomData<u8>" }
%"digest::generic_array::GenericArrayImplEven<u8, digest::generic_array::GenericArrayImplEven<u8, digest::generic_array::GenericArrayImplOdd<u8, digest::generic_array::GenericArrayImplEven<u8, digest::generic_array::GenericArrayImplOdd<u8, digest::generic_array::GenericArrayImplEven<u8, digest::generic_array::GenericArrayImplOdd<u8, [u8; 0]>>>>>>>" = type { %"digest::generic_array::GenericArrayImplEven<u8, digest::generic_array::GenericArrayImplOdd<u8, digest::generic_array::GenericArrayImplEven<u8, digest::generic_array::GenericArrayImplOdd<u8, digest::generic_array::GenericArrayImplEven<u8, digest::generic_array::GenericArrayImplOdd<u8, [u8; 0]>>>>>>", %"digest::generic_array::GenericArrayImplEven<u8, digest::generic_array::GenericArrayImplOdd<u8, digest::generic_array::GenericArrayImplEven<u8, digest::generic_array::GenericArrayImplOdd<u8, digest::generic_array::GenericArrayImplEven<u8, digest::generic_array::GenericArrayImplOdd<u8, [u8; 0]>>>>>>", %"core::marker::PhantomData<u8>" }
%"digest::generic_array::GenericArrayImplEven<u8, digest::generic_array::GenericArrayImplOdd<u8, digest::generic_array::GenericArrayImplEven<u8, digest::generic_array::GenericArrayImplOdd<u8, digest::generic_array::GenericArrayImplEven<u8, digest::generic_array::GenericArrayImplOdd<u8, [u8; 0]>>>>>>" = type { %"digest::generic_array::GenericArrayImplOdd<u8, digest::generic_array::GenericArrayImplEven<u8, digest::generic_array::GenericArrayImplOdd<u8, digest::generic_array::GenericArrayImplEven<u8, digest::generic_array::GenericArrayImplOdd<u8, [u8; 0]>>>>>", %"digest::generic_array::GenericArrayImplOdd<u8, digest::generic_array::GenericArrayImplEven<u8, digest::generic_array::GenericArrayImplOdd<u8, digest::generic_array::GenericArrayImplEven<u8, digest::generic_array::GenericArrayImplOdd<u8, [u8; 0]>>>>>", %"core::marker::PhantomData<u8>" }
%"digest::generic_array::GenericArrayImplOdd<u8, digest::generic_array::GenericArrayImplEven<u8, digest::generic_array::GenericArrayImplOdd<u8, digest::generic_array::GenericArrayImplEven<u8, digest::generic_array::GenericArrayImplOdd<u8, [u8; 0]>>>>>" = type { %"digest::generic_array::GenericArrayImplEven<u8, digest::generic_array::GenericArrayImplOdd<u8, digest::generic_array::GenericArrayImplEven<u8, digest::generic_array::GenericArrayImplOdd<u8, [u8; 0]>>>>", %"digest::generic_array::GenericArrayImplEven<u8, digest::generic_array::GenericArrayImplOdd<u8, digest::generic_array::GenericArrayImplEven<u8, digest::generic_array::GenericArrayImplOdd<u8, [u8; 0]>>>>", i8 }
%"digest::generic_array::GenericArrayImplEven<u8, digest::generic_array::GenericArrayImplOdd<u8, digest::generic_array::GenericArrayImplEven<u8, digest::generic_array::GenericArrayImplOdd<u8, [u8; 0]>>>>" = type { %"digest::generic_array::GenericArrayImplOdd<u8, digest::generic_array::GenericArrayImplEven<u8, digest::generic_array::GenericArrayImplOdd<u8, [u8; 0]>>>", %"digest::generic_array::GenericArrayImplOdd<u8, digest::generic_array::GenericArrayImplEven<u8, digest::generic_array::GenericArrayImplOdd<u8, [u8; 0]>>>", %"core::marker::PhantomData<u8>" }
%"digest::generic_array::GenericArrayImplOdd<u8, digest::generic_array::GenericArrayImplEven<u8, digest::generic_array::GenericArrayImplOdd<u8, [u8; 0]>>>" = type { %"digest::generic_array::GenericArrayImplEven<u8, digest::generic_array::GenericArrayImplOdd<u8, [u8; 0]>>", %"digest::generic_array::GenericArrayImplEven<u8, digest::generic_array::GenericArrayImplOdd<u8, [u8; 0]>>", i8 }
%"digest::generic_array::GenericArray<u8, digest::generic_array::typenum::UInt<digest::generic_array::typenum::UInt<digest::generic_array::typenum::UInt<digest::generic_array::typenum::UInt<digest::generic_array::typenum::UInt<digest::generic_array::typenum::UInt<digest::generic_array::typenum::UInt<digest::generic_array::typenum::UInt<digest::generic_array::typenum::UTerm, digest::consts::B1>, digest::consts::B0>, digest::consts::B0>, digest::consts::B0>, digest::consts::B1>, digest::consts::B0>, digest::consts::B0>, digest::consts::B0>>" = type { %"digest::generic_array::GenericArrayImplEven<u8, digest::generic_array::GenericArrayImplEven<u8, digest::generic_array::GenericArrayImplEven<u8, digest::generic_array::GenericArrayImplOdd<u8, digest::generic_array::GenericArrayImplEven<u8, digest::generic_array::GenericArrayImplEven<u8, digest::generic_array::GenericArrayImplEven<u8, digest::generic_array::GenericArrayImplOdd<u8, [u8; 0]>>>>>>>>" }
%"digest::generic_array::GenericArrayImplEven<u8, digest::generic_array::GenericArrayImplEven<u8, digest::generic_array::GenericArrayImplEven<u8, digest::generic_array::GenericArrayImplOdd<u8, digest::generic_array::GenericArrayImplEven<u8, digest::generic_array::GenericArrayImplEven<u8, digest::generic_array::GenericArrayImplEven<u8, digest::generic_array::GenericArrayImplOdd<u8, [u8; 0]>>>>>>>>" = type { %"digest::generic_array::GenericArrayImplEven<u8, digest::generic_array::GenericArrayImplEven<u8, digest::generic_array::GenericArrayImplOdd<u8, digest::generic_array::GenericArrayImplEven<u8, digest::generic_array::GenericArrayImplEven<u8, digest::generic_array::GenericArrayImplEven<u8, digest::generic_array::GenericArrayImplOdd<u8, [u8; 0]>>>>>>>", %"digest::generic_array::GenericArrayImplEven<u8, digest::generic_array::GenericArrayImplEven<u8, digest::generic_array::GenericArrayImplOdd<u8, digest::generic_array::GenericArrayImplEven<u8, digest::generic_array::GenericArrayImplEven<u8, digest::generic_array::GenericArrayImplEven<u8, digest::generic_array::GenericArrayImplOdd<u8, [u8; 0]>>>>>>>", %"core::marker::PhantomData<u8>" }
%"digest::generic_array::GenericArrayImplEven<u8, digest::generic_array::GenericArrayImplEven<u8, digest::generic_array::GenericArrayImplOdd<u8, digest::generic_array::GenericArrayImplEven<u8, digest::generic_array::GenericArrayImplEven<u8, digest::generic_array::GenericArrayImplEven<u8, digest::generic_array::GenericArrayImplOdd<u8, [u8; 0]>>>>>>>" = type { %"digest::generic_array::GenericArrayImplEven<u8, digest::generic_array::GenericArrayImplOdd<u8, digest::generic_array::GenericArrayImplEven<u8, digest::generic_array::GenericArrayImplEven<u8, digest::generic_array::GenericArrayImplEven<u8, digest::generic_array::GenericArrayImplOdd<u8, [u8; 0]>>>>>>", %"digest::generic_array::GenericArrayImplEven<u8, digest::generic_array::GenericArrayImplOdd<u8, digest::generic_array::GenericArrayImplEven<u8, digest::generic_array::GenericArrayImplEven<u8, digest::generic_array::GenericArrayImplEven<u8, digest::generic_array::GenericArrayImplOdd<u8, [u8; 0]>>>>>>", %"core::marker::PhantomData<u8>" }
%"digest::generic_array::GenericArrayImplEven<u8, digest::generic_array::GenericArrayImplOdd<u8, digest::generic_array::GenericArrayImplEven<u8, digest::generic_array::GenericArrayImplEven<u8, digest::generic_array::GenericArrayImplEven<u8, digest::generic_array::GenericArrayImplOdd<u8, [u8; 0]>>>>>>" = type { %"digest::generic_array::GenericArrayImplOdd<u8, digest::generic_array::GenericArrayImplEven<u8, digest::generic_array::GenericArrayImplEven<u8, digest::generic_array::GenericArrayImplEven<u8, digest::generic_array::GenericArrayImplOdd<u8, [u8; 0]>>>>>", %"digest::generic_array::GenericArrayImplOdd<u8, digest::generic_array::GenericArrayImplEven<u8, digest::generic_array::GenericArrayImplEven<u8, digest::generic_array::GenericArrayImplEven<u8, digest::generic_array::GenericArrayImplOdd<u8, [u8; 0]>>>>>", %"core::marker::PhantomData<u8>" }
%"digest::generic_array::GenericArrayImplOdd<u8, digest::generic_array::GenericArrayImplEven<u8, digest::generic_array::GenericArrayImplEven<u8, digest::generic_array::GenericArrayImplEven<u8, digest::generic_array::GenericArrayImplOdd<u8, [u8; 0]>>>>>" = type { %"digest::generic_array::GenericArrayImplEven<u8, digest::generic_array::GenericArrayImplEven<u8, digest::generic_array::GenericArrayImplEven<u8, digest::generic_array::GenericArrayImplOdd<u8, [u8; 0]>>>>", %"digest::generic_array::GenericArrayImplEven<u8, digest::generic_array::GenericArrayImplEven<u8, digest::generic_array::GenericArrayImplEven<u8, digest::generic_array::GenericArrayImplOdd<u8, [u8; 0]>>>>", i8 }
%"digest::generic_array::GenericArrayImplEven<u8, digest::generic_array::GenericArrayImplEven<u8, digest::generic_array::GenericArrayImplEven<u8, digest::generic_array::GenericArrayImplOdd<u8, [u8; 0]>>>>" = type { %"digest::generic_array::GenericArrayImplEven<u8, digest::generic_array::GenericArrayImplEven<u8, digest::generic_array::GenericArrayImplOdd<u8, [u8; 0]>>>", %"digest::generic_array::GenericArrayImplEven<u8, digest::generic_array::GenericArrayImplEven<u8, digest::generic_array::GenericArrayImplOdd<u8, [u8; 0]>>>", %"core::marker::PhantomData<u8>" }
%"digest::generic_array::GenericArray<u8, digest::generic_array::typenum::UInt<digest::generic_array::typenum::UInt<digest::generic_array::typenum::UInt<digest::generic_array::typenum::UInt<digest::generic_array::typenum::UInt<digest::generic_array::typenum::UInt<digest::generic_array::typenum::UInt<digest::generic_array::typenum::UTerm, digest::consts::B1>, digest::consts::B1>, digest::consts::B0>, digest::consts::B1>, digest::consts::B0>, digest::consts::B0>, digest::consts::B0>>" = type { %"digest::generic_array::GenericArrayImplEven<u8, digest::generic_array::GenericArrayImplEven<u8, digest::generic_array::GenericArrayImplEven<u8, digest::generic_array::GenericArrayImplOdd<u8, digest::generic_array::GenericArrayImplEven<u8, digest::generic_array::GenericArrayImplOdd<u8, digest::generic_array::GenericArrayImplOdd<u8, [u8; 0]>>>>>>>" }
%"digest::generic_array::GenericArrayImplEven<u8, digest::generic_array::GenericArrayImplEven<u8, digest::generic_array::GenericArrayImplEven<u8, digest::generic_array::GenericArrayImplOdd<u8, digest::generic_array::GenericArrayImplEven<u8, digest::generic_array::GenericArrayImplOdd<u8, digest::generic_array::GenericArrayImplOdd<u8, [u8; 0]>>>>>>>" = type { %"digest::generic_array::GenericArrayImplEven<u8, digest::generic_array::GenericArrayImplEven<u8, digest::generic_array::GenericArrayImplOdd<u8, digest::generic_array::GenericArrayImplEven<u8, digest::generic_array::GenericArrayImplOdd<u8, digest::generic_array::GenericArrayImplOdd<u8, [u8; 0]>>>>>>", %"digest::generic_array::GenericArrayImplEven<u8, digest::generic_array::GenericArrayImplEven<u8, digest::generic_array::GenericArrayImplOdd<u8, digest::generic_array::GenericArrayImplEven<u8, digest::generic_array::GenericArrayImplOdd<u8, digest::generic_array::GenericArrayImplOdd<u8, [u8; 0]>>>>>>", %"core::marker::PhantomData<u8>" }
%"digest::generic_array::GenericArrayImplEven<u8, digest::generic_array::GenericArrayImplEven<u8, digest::generic_array::GenericArrayImplOdd<u8, digest::generic_array::GenericArrayImplEven<u8, digest::generic_array::GenericArrayImplOdd<u8, digest::generic_array::GenericArrayImplOdd<u8, [u8; 0]>>>>>>" = type { %"digest::generic_array::GenericArrayImplEven<u8, digest::generic_array::GenericArrayImplOdd<u8, digest::generic_array::GenericArrayImplEven<u8, digest::generic_array::GenericArrayImplOdd<u8, digest::generic_array::GenericArrayImplOdd<u8, [u8; 0]>>>>>", %"digest::generic_array::GenericArrayImplEven<u8, digest::generic_array::GenericArrayImplOdd<u8, digest::generic_array::GenericArrayImplEven<u8, digest::generic_array::GenericArrayImplOdd<u8, digest::generic_array::GenericArrayImplOdd<u8, [u8; 0]>>>>>", %"core::marker::PhantomData<u8>" }
%"digest::generic_array::GenericArrayImplEven<u8, digest::generic_array::GenericArrayImplOdd<u8, digest::generic_array::GenericArrayImplEven<u8, digest::generic_array::GenericArrayImplOdd<u8, digest::generic_array::GenericArrayImplOdd<u8, [u8; 0]>>>>>" = type { %"digest::generic_array::GenericArrayImplOdd<u8, digest::generic_array::GenericArrayImplEven<u8, digest::generic_array::GenericArrayImplOdd<u8, digest::generic_array::GenericArrayImplOdd<u8, [u8; 0]>>>>", %"digest::generic_array::GenericArrayImplOdd<u8, digest::generic_array::GenericArrayImplEven<u8, digest::generic_array::GenericArrayImplOdd<u8, digest::generic_array::GenericArrayImplOdd<u8, [u8; 0]>>>>", %"core::marker::PhantomData<u8>" }
%"digest::generic_array::GenericArrayImplOdd<u8, digest::generic_array::GenericArrayImplEven<u8, digest::generic_array::GenericArrayImplOdd<u8, digest::generic_array::GenericArrayImplOdd<u8, [u8; 0]>>>>" = type { %"digest::generic_array::GenericArrayImplEven<u8, digest::generic_array::GenericArrayImplOdd<u8, digest::generic_array::GenericArrayImplOdd<u8, [u8; 0]>>>", %"digest::generic_array::GenericArrayImplEven<u8, digest::generic_array::GenericArrayImplOdd<u8, digest::generic_array::GenericArrayImplOdd<u8, [u8; 0]>>>", i8 }
%"digest::generic_array::GenericArrayImplEven<u8, digest::generic_array::GenericArrayImplOdd<u8, digest::generic_array::GenericArrayImplOdd<u8, [u8; 0]>>>" = type { %"digest::generic_array::GenericArrayImplOdd<u8, digest::generic_array::GenericArrayImplOdd<u8, [u8; 0]>>", %"digest::generic_array::GenericArrayImplOdd<u8, digest::generic_array::GenericArrayImplOdd<u8, [u8; 0]>>", %"core::marker::PhantomData<u8>" }
%"digest::generic_array::GenericArrayImplOdd<u8, digest::generic_array::GenericArrayImplOdd<u8, [u8; 0]>>" = type { %"digest::generic_array::GenericArrayImplOdd<u8, [u8; 0]>", %"digest::generic_array::GenericArrayImplOdd<u8, [u8; 0]>", i8 }
%"block_buffer::BlockBuffer<digest::generic_array::typenum::UInt<digest::generic_array::typenum::UInt<digest::generic_array::typenum::UInt<digest::generic_array::typenum::UInt<digest::generic_array::typenum::UInt<digest::generic_array::typenum::UInt<digest::generic_array::typenum::UInt<digest::generic_array::typenum::UTerm, digest::consts::B1>, digest::consts::B1>, digest::consts::B0>, digest::consts::B1>, digest::consts::B0>, digest::consts::B0>, digest::consts::B0>>" = type { i64, %"digest::generic_array::GenericArray<u8, digest::generic_array::typenum::UInt<digest::generic_array::typenum::UInt<digest::generic_array::typenum::UInt<digest::generic_array::typenum::UInt<digest::generic_array::typenum::UInt<digest::generic_array::typenum::UInt<digest::generic_array::typenum::UInt<digest::generic_array::typenum::UTerm, digest::consts::B1>, digest::consts::B1>, digest::consts::B0>, digest::consts::B1>, digest::consts::B0>, digest::consts::B0>, digest::consts::B0>>" }
%"core::slice::ChunksExact<u8>" = type { { [0 x i8]*, i64 }, { [0 x i8]*, i64 }, i64 }
%"block_buffer::BlockBuffer<digest::generic_array::typenum::UInt<digest::generic_array::typenum::UInt<digest::generic_array::typenum::UInt<digest::generic_array::typenum::UInt<digest::generic_array::typenum::UInt<digest::generic_array::typenum::UInt<digest::generic_array::typenum::UInt<digest::generic_array::typenum::UInt<digest::generic_array::typenum::UTerm, digest::consts::B1>, digest::consts::B0>, digest::consts::B0>, digest::consts::B1>, digest::consts::B0>, digest::consts::B0>, digest::consts::B0>, digest::consts::B0>>" = type { i64, %"digest::generic_array::GenericArray<u8, digest::generic_array::typenum::UInt<digest::generic_array::typenum::UInt<digest::generic_array::typenum::UInt<digest::generic_array::typenum::UInt<digest::generic_array::typenum::UInt<digest::generic_array::typenum::UInt<digest::generic_array::typenum::UInt<digest::generic_array::typenum::UInt<digest::generic_array::typenum::UTerm, digest::consts::B1>, digest::consts::B0>, digest::consts::B0>, digest::consts::B1>, digest::consts::B0>, digest::consts::B0>, digest::consts::B0>, digest::consts::B0>>" }
%"block_buffer::BlockBuffer<digest::generic_array::typenum::UInt<digest::generic_array::typenum::UInt<digest::generic_array::typenum::UInt<digest::generic_array::typenum::UInt<digest::generic_array::typenum::UInt<digest::generic_array::typenum::UInt<digest::generic_array::typenum::UInt<digest::generic_array::typenum::UInt<digest::generic_array::typenum::UTerm, digest::consts::B1>, digest::consts::B0>, digest::consts::B1>, digest::consts::B0>, digest::consts::B1>, digest::consts::B0>, digest::consts::B0>, digest::consts::B0>>" = type { i64, %"digest::generic_array::GenericArray<u8, digest::generic_array::typenum::UInt<digest::generic_array::typenum::UInt<digest::generic_array::typenum::UInt<digest::generic_array::typenum::UInt<digest::generic_array::typenum::UInt<digest::generic_array::typenum::UInt<digest::generic_array::typenum::UInt<digest::generic_array::typenum::UInt<digest::generic_array::typenum::UTerm, digest::consts::B1>, digest::consts::B0>, digest::consts::B1>, digest::consts::B0>, digest::consts::B1>, digest::consts::B0>, digest::consts::B0>, digest::consts::B0>>" }
%"block_buffer::BlockBuffer<digest::generic_array::typenum::UInt<digest::generic_array::typenum::UInt<digest::generic_array::typenum::UInt<digest::generic_array::typenum::UInt<digest::generic_array::typenum::UInt<digest::generic_array::typenum::UInt<digest::generic_array::typenum::UInt<digest::generic_array::typenum::UTerm, digest::consts::B1>, digest::consts::B0>, digest::consts::B0>, digest::consts::B1>, digest::consts::B0>, digest::consts::B0>, digest::consts::B0>>" = type { i64, %"digest::generic_array::GenericArray<u8, digest::generic_array::typenum::UInt<digest::generic_array::typenum::UInt<digest::generic_array::typenum::UInt<digest::generic_array::typenum::UInt<digest::generic_array::typenum::UInt<digest::generic_array::typenum::UInt<digest::generic_array::typenum::UInt<digest::generic_array::typenum::UTerm, digest::consts::B1>, digest::consts::B0>, digest::consts::B0>, digest::consts::B1>, digest::consts::B0>, digest::consts::B0>, digest::consts::B0>>" }
%"block_buffer::BlockBuffer<digest::generic_array::typenum::UInt<digest::generic_array::typenum::UInt<digest::generic_array::typenum::UInt<digest::generic_array::typenum::UInt<digest::generic_array::typenum::UInt<digest::generic_array::typenum::UInt<digest::generic_array::typenum::UInt<digest::generic_array::typenum::UInt<digest::generic_array::typenum::UTerm, digest::consts::B1>, digest::consts::B0>, digest::consts::B0>, digest::consts::B0>, digest::consts::B1>, digest::consts::B0>, digest::consts::B0>, digest::consts::B0>>" = type { i64, %"digest::generic_array::GenericArray<u8, digest::generic_array::typenum::UInt<digest::generic_array::typenum::UInt<digest::generic_array::typenum::UInt<digest::generic_array::typenum::UInt<digest::generic_array::typenum::UInt<digest::generic_array::typenum::UInt<digest::generic_array::typenum::UInt<digest::generic_array::typenum::UInt<digest::generic_array::typenum::UTerm, digest::consts::B1>, digest::consts::B0>, digest::consts::B0>, digest::consts::B0>, digest::consts::B1>, digest::consts::B0>, digest::consts::B0>, digest::consts::B0>>" }
%"core::result::Result<core::convert::Infallible, block_buffer::block_padding::PadError>::Err" = type { %"block_buffer::block_padding::PadError" }
%"block_buffer::block_padding::PadError" = type {}
%"core::result::Result<&mut digest::generic_array::GenericArray<u8, digest::generic_array::typenum::UInt<digest::generic_array::typenum::UInt<digest::generic_array::typenum::UInt<digest::generic_array::typenum::UInt<digest::generic_array::typenum::UInt<digest::generic_array::typenum::UInt<digest::generic_array::typenum::UInt<digest::generic_array::typenum::UInt<digest::generic_array::typenum::UTerm, digest::consts::B1>, digest::consts::B0>, digest::consts::B0>, digest::consts::B0>, digest::consts::B1>, digest::consts::B0>, digest::consts::B0>, digest::consts::B0>>, block_buffer::block_padding::PadError>::Err" = type { %"block_buffer::block_padding::PadError" }
%"core::result::Result<&mut digest::generic_array::GenericArray<u8, digest::generic_array::typenum::UInt<digest::generic_array::typenum::UInt<digest::generic_array::typenum::UInt<digest::generic_array::typenum::UInt<digest::generic_array::typenum::UInt<digest::generic_array::typenum::UInt<digest::generic_array::typenum::UInt<digest::generic_array::typenum::UTerm, digest::consts::B1>, digest::consts::B1>, digest::consts::B0>, digest::consts::B1>, digest::consts::B0>, digest::consts::B0>, digest::consts::B0>>, block_buffer::block_padding::PadError>::Err" = type { %"block_buffer::block_padding::PadError" }
%"core::result::Result<&mut digest::generic_array::GenericArray<u8, digest::generic_array::typenum::UInt<digest::generic_array::typenum::UInt<digest::generic_array::typenum::UInt<digest::generic_array::typenum::UInt<digest::generic_array::typenum::UInt<digest::generic_array::typenum::UInt<digest::generic_array::typenum::UInt<digest::generic_array::typenum::UTerm, digest::consts::B1>, digest::consts::B0>, digest::consts::B0>, digest::consts::B1>, digest::consts::B0>, digest::consts::B0>, digest::consts::B0>>, block_buffer::block_padding::PadError>::Err" = type { %"block_buffer::block_padding::PadError" }
%"core::result::Result<&mut digest::generic_array::GenericArray<u8, digest::generic_array::typenum::UInt<digest::generic_array::typenum::UInt<digest::generic_array::typenum::UInt<digest::generic_array::typenum::UInt<digest::generic_array::typenum::UInt<digest::generic_array::typenum::UInt<digest::generic_array::typenum::UInt<digest::generic_array::typenum::UInt<digest::generic_array::typenum::UTerm, digest::consts::B1>, digest::consts::B0>, digest::consts::B0>, digest::consts::B1>, digest::consts::B0>, digest::consts::B0>, digest::consts::B0>, digest::consts::B0>>, block_buffer::block_padding::PadError>::Err" = type { %"block_buffer::block_padding::PadError" }
%"core::result::Result<&mut digest::generic_array::GenericArray<u8, digest::generic_array::typenum::UInt<digest::generic_array::typenum::UInt<digest::generic_array::typenum::UInt<digest::generic_array::typenum::UInt<digest::generic_array::typenum::UInt<digest::generic_array::typenum::UInt<digest::generic_array::typenum::UInt<digest::generic_array::typenum::UInt<digest::generic_array::typenum::UTerm, digest::consts::B1>, digest::consts::B0>, digest::consts::B1>, digest::consts::B0>, digest::consts::B1>, digest::consts::B0>, digest::consts::B0>, digest::consts::B0>>, block_buffer::block_padding::PadError>::Err" = type { %"block_buffer::block_padding::PadError" }
%"core::fmt::Formatter" = type { { i64, i64 }, { i64, i64 }, { {}*, [3 x i64]* }, i32, i32, i8, [7 x i8] }
%"core::fmt::Arguments" = type { { [0 x { [0 x i8]*, i64 }]*, i64 }, { i64*, i64 }, { [0 x { i8*, i64* }]*, i64 } }
%"core::convert::Infallible" = type { [0 x i8] }
%"core::ops::RangeFull" = type {}
%"core::option::Option<usize>::Some" = type { [1 x i64], i64 }
%"[closure@/home/seaceved/.cargo/registry/src/github.com-1ecc6299db9ec823/sha3-0.9.1/src/paddings.rs:17:54: 17:64].0" = type {}
%"[closure@/home/seaceved/.cargo/registry/src/github.com-1ecc6299db9ec823/sha3-0.9.1/src/paddings.rs:17:54: 17:64]" = type {}
%"[closure@/home/seaceved/.cargo/registry/src/github.com-1ecc6299db9ec823/sha3-0.9.1/src/paddings.rs:17:54: 17:64].1" = type {}
%"reader::Sha3XofReader" = type { %"state::Sha3State", i64, i64 }
%"state::Sha3State" = type { [25 x i64] }
%"[closure@/home/seaceved/.cargo/registry/src/github.com-1ecc6299db9ec823/sha3-0.9.1/src/reader.rs:35:33: 37:14]" = type { { [0 x i8]*, i64 }*, %"reader::Sha3XofReader"**, i64* }
%"core::iter::Zip<core::slice::ChunksExactMut<u8>, core::slice::Iter<u64>>" = type { %"core::slice::ChunksExactMut<u8>", { i64*, i64* }, i64, i64, i64 }
%"core::slice::ChunksExactMut<u8>" = type { { [0 x i8]*, i64 }, { [0 x i8]*, i64 }, i64 }
%"core::result::Result<usize, std::io::Error>" = type { i64, [2 x i64] }
%"core::result::Result<usize, std::io::Error>::Ok" = type { [1 x i64], i64 }
%Keccak224 = type { %"state::Sha3State", %"block_buffer::BlockBuffer<digest::generic_array::typenum::UInt<digest::generic_array::typenum::UInt<digest::generic_array::typenum::UInt<digest::generic_array::typenum::UInt<digest::generic_array::typenum::UInt<digest::generic_array::typenum::UInt<digest::generic_array::typenum::UInt<digest::generic_array::typenum::UInt<digest::generic_array::typenum::UTerm, digest::consts::B1>, digest::consts::B0>, digest::consts::B0>, digest::consts::B1>, digest::consts::B0>, digest::consts::B0>, digest::consts::B0>, digest::consts::B0>>" }
%"digest::generic_array::GenericArray<u8, digest::generic_array::typenum::UInt<digest::generic_array::typenum::UInt<digest::generic_array::typenum::UInt<digest::generic_array::typenum::UInt<digest::generic_array::typenum::UInt<digest::generic_array::typenum::UTerm, digest::consts::B1>, digest::consts::B1>, digest::consts::B1>, digest::consts::B0>, digest::consts::B0>>" = type { %"digest::generic_array::GenericArrayImplEven<u8, digest::generic_array::GenericArrayImplEven<u8, digest::generic_array::GenericArrayImplOdd<u8, digest::generic_array::GenericArrayImplOdd<u8, digest::generic_array::GenericArrayImplOdd<u8, [u8; 0]>>>>>" }
%"digest::generic_array::GenericArrayImplEven<u8, digest::generic_array::GenericArrayImplEven<u8, digest::generic_array::GenericArrayImplOdd<u8, digest::generic_array::GenericArrayImplOdd<u8, digest::generic_array::GenericArrayImplOdd<u8, [u8; 0]>>>>>" = type { %"digest::generic_array::GenericArrayImplEven<u8, digest::generic_array::GenericArrayImplOdd<u8, digest::generic_array::GenericArrayImplOdd<u8, digest::generic_array::GenericArrayImplOdd<u8, [u8; 0]>>>>", %"digest::generic_array::GenericArrayImplEven<u8, digest::generic_array::GenericArrayImplOdd<u8, digest::generic_array::GenericArrayImplOdd<u8, digest::generic_array::GenericArrayImplOdd<u8, [u8; 0]>>>>", %"core::marker::PhantomData<u8>" }
%"digest::generic_array::GenericArrayImplEven<u8, digest::generic_array::GenericArrayImplOdd<u8, digest::generic_array::GenericArrayImplOdd<u8, digest::generic_array::GenericArrayImplOdd<u8, [u8; 0]>>>>" = type { %"digest::generic_array::GenericArrayImplOdd<u8, digest::generic_array::GenericArrayImplOdd<u8, digest::generic_array::GenericArrayImplOdd<u8, [u8; 0]>>>", %"digest::generic_array::GenericArrayImplOdd<u8, digest::generic_array::GenericArrayImplOdd<u8, digest::generic_array::GenericArrayImplOdd<u8, [u8; 0]>>>", %"core::marker::PhantomData<u8>" }
%"digest::generic_array::GenericArrayImplOdd<u8, digest::generic_array::GenericArrayImplOdd<u8, digest::generic_array::GenericArrayImplOdd<u8, [u8; 0]>>>" = type { %"digest::generic_array::GenericArrayImplOdd<u8, digest::generic_array::GenericArrayImplOdd<u8, [u8; 0]>>", %"digest::generic_array::GenericArrayImplOdd<u8, digest::generic_array::GenericArrayImplOdd<u8, [u8; 0]>>", i8 }
%"core::iter::Zip<core::slice::IterMut<u64>, core::slice::ChunksExact<u8>>" = type { { i64*, i64* }, %"core::slice::ChunksExact<u8>", i64, i64, i64 }
%"core::iter::Zip<core::slice::IterMut<u64>, core::slice::IterMut<u64>>" = type { { i64*, i64* }, { i64*, i64* }, i64, i64, i64 }
%"core::result::Result<(), std::io::Error>" = type { i8, [15 x i8] }
%Keccak256 = type { %"state::Sha3State", %"block_buffer::BlockBuffer<digest::generic_array::typenum::UInt<digest::generic_array::typenum::UInt<digest::generic_array::typenum::UInt<digest::generic_array::typenum::UInt<digest::generic_array::typenum::UInt<digest::generic_array::typenum::UInt<digest::generic_array::typenum::UInt<digest::generic_array::typenum::UInt<digest::generic_array::typenum::UTerm, digest::consts::B1>, digest::consts::B0>, digest::consts::B0>, digest::consts::B0>, digest::consts::B1>, digest::consts::B0>, digest::consts::B0>, digest::consts::B0>>" }
%"digest::generic_array::GenericArray<u8, digest::generic_array::typenum::UInt<digest::generic_array::typenum::UInt<digest::generic_array::typenum::UInt<digest::generic_array::typenum::UInt<digest::generic_array::typenum::UInt<digest::generic_array::typenum::UInt<digest::generic_array::typenum::UTerm, digest::consts::B1>, digest::consts::B0>, digest::consts::B0>, digest::consts::B0>, digest::consts::B0>, digest::consts::B0>>" = type { %"digest::generic_array::GenericArrayImplEven<u8, digest::generic_array::GenericArrayImplEven<u8, digest::generic_array::GenericArrayImplEven<u8, digest::generic_array::GenericArrayImplEven<u8, digest::generic_array::GenericArrayImplEven<u8, digest::generic_array::GenericArrayImplOdd<u8, [u8; 0]>>>>>>" }
%"digest::generic_array::GenericArrayImplEven<u8, digest::generic_array::GenericArrayImplEven<u8, digest::generic_array::GenericArrayImplEven<u8, digest::generic_array::GenericArrayImplEven<u8, digest::generic_array::GenericArrayImplEven<u8, digest::generic_array::GenericArrayImplOdd<u8, [u8; 0]>>>>>>" = type { %"digest::generic_array::GenericArrayImplEven<u8, digest::generic_array::GenericArrayImplEven<u8, digest::generic_array::GenericArrayImplEven<u8, digest::generic_array::GenericArrayImplEven<u8, digest::generic_array::GenericArrayImplOdd<u8, [u8; 0]>>>>>", %"digest::generic_array::GenericArrayImplEven<u8, digest::generic_array::GenericArrayImplEven<u8, digest::generic_array::GenericArrayImplEven<u8, digest::generic_array::GenericArrayImplEven<u8, digest::generic_array::GenericArrayImplOdd<u8, [u8; 0]>>>>>", %"core::marker::PhantomData<u8>" }
%"digest::generic_array::GenericArrayImplEven<u8, digest::generic_array::GenericArrayImplEven<u8, digest::generic_array::GenericArrayImplEven<u8, digest::generic_array::GenericArrayImplEven<u8, digest::generic_array::GenericArrayImplOdd<u8, [u8; 0]>>>>>" = type { %"digest::generic_array::GenericArrayImplEven<u8, digest::generic_array::GenericArrayImplEven<u8, digest::generic_array::GenericArrayImplEven<u8, digest::generic_array::GenericArrayImplOdd<u8, [u8; 0]>>>>", %"digest::generic_array::GenericArrayImplEven<u8, digest::generic_array::GenericArrayImplEven<u8, digest::generic_array::GenericArrayImplEven<u8, digest::generic_array::GenericArrayImplOdd<u8, [u8; 0]>>>>", %"core::marker::PhantomData<u8>" }
%Keccak384 = type { %"state::Sha3State", %"block_buffer::BlockBuffer<digest::generic_array::typenum::UInt<digest::generic_array::typenum::UInt<digest::generic_array::typenum::UInt<digest::generic_array::typenum::UInt<digest::generic_array::typenum::UInt<digest::generic_array::typenum::UInt<digest::generic_array::typenum::UInt<digest::generic_array::typenum::UTerm, digest::consts::B1>, digest::consts::B1>, digest::consts::B0>, digest::consts::B1>, digest::consts::B0>, digest::consts::B0>, digest::consts::B0>>" }
%"digest::generic_array::GenericArray<u8, digest::generic_array::typenum::UInt<digest::generic_array::typenum::UInt<digest::generic_array::typenum::UInt<digest::generic_array::typenum::UInt<digest::generic_array::typenum::UInt<digest::generic_array::typenum::UInt<digest::generic_array::typenum::UTerm, digest::consts::B1>, digest::consts::B1>, digest::consts::B0>, digest::consts::B0>, digest::consts::B0>, digest::consts::B0>>" = type { %"digest::generic_array::GenericArrayImplEven<u8, digest::generic_array::GenericArrayImplEven<u8, digest::generic_array::GenericArrayImplEven<u8, digest::generic_array::GenericArrayImplEven<u8, digest::generic_array::GenericArrayImplOdd<u8, digest::generic_array::GenericArrayImplOdd<u8, [u8; 0]>>>>>>" }
%"digest::generic_array::GenericArrayImplEven<u8, digest::generic_array::GenericArrayImplEven<u8, digest::generic_array::GenericArrayImplEven<u8, digest::generic_array::GenericArrayImplEven<u8, digest::generic_array::GenericArrayImplOdd<u8, digest::generic_array::GenericArrayImplOdd<u8, [u8; 0]>>>>>>" = type { %"digest::generic_array::GenericArrayImplEven<u8, digest::generic_array::GenericArrayImplEven<u8, digest::generic_array::GenericArrayImplEven<u8, digest::generic_array::GenericArrayImplOdd<u8, digest::generic_array::GenericArrayImplOdd<u8, [u8; 0]>>>>>", %"digest::generic_array::GenericArrayImplEven<u8, digest::generic_array::GenericArrayImplEven<u8, digest::generic_array::GenericArrayImplEven<u8, digest::generic_array::GenericArrayImplOdd<u8, digest::generic_array::GenericArrayImplOdd<u8, [u8; 0]>>>>>", %"core::marker::PhantomData<u8>" }
%"digest::generic_array::GenericArrayImplEven<u8, digest::generic_array::GenericArrayImplEven<u8, digest::generic_array::GenericArrayImplEven<u8, digest::generic_array::GenericArrayImplOdd<u8, digest::generic_array::GenericArrayImplOdd<u8, [u8; 0]>>>>>" = type { %"digest::generic_array::GenericArrayImplEven<u8, digest::generic_array::GenericArrayImplEven<u8, digest::generic_array::GenericArrayImplOdd<u8, digest::generic_array::GenericArrayImplOdd<u8, [u8; 0]>>>>", %"digest::generic_array::GenericArrayImplEven<u8, digest::generic_array::GenericArrayImplEven<u8, digest::generic_array::GenericArrayImplOdd<u8, digest::generic_array::GenericArrayImplOdd<u8, [u8; 0]>>>>", %"core::marker::PhantomData<u8>" }
%"digest::generic_array::GenericArrayImplEven<u8, digest::generic_array::GenericArrayImplEven<u8, digest::generic_array::GenericArrayImplOdd<u8, digest::generic_array::GenericArrayImplOdd<u8, [u8; 0]>>>>" = type { %"digest::generic_array::GenericArrayImplEven<u8, digest::generic_array::GenericArrayImplOdd<u8, digest::generic_array::GenericArrayImplOdd<u8, [u8; 0]>>>", %"digest::generic_array::GenericArrayImplEven<u8, digest::generic_array::GenericArrayImplOdd<u8, digest::generic_array::GenericArrayImplOdd<u8, [u8; 0]>>>", %"core::marker::PhantomData<u8>" }
%Keccak512 = type { %"state::Sha3State", %"block_buffer::BlockBuffer<digest::generic_array::typenum::UInt<digest::generic_array::typenum::UInt<digest::generic_array::typenum::UInt<digest::generic_array::typenum::UInt<digest::generic_array::typenum::UInt<digest::generic_array::typenum::UInt<digest::generic_array::typenum::UInt<digest::generic_array::typenum::UTerm, digest::consts::B1>, digest::consts::B0>, digest::consts::B0>, digest::consts::B1>, digest::consts::B0>, digest::consts::B0>, digest::consts::B0>>" }
%"digest::generic_array::GenericArray<u8, digest::generic_array::typenum::UInt<digest::generic_array::typenum::UInt<digest::generic_array::typenum::UInt<digest::generic_array::typenum::UInt<digest::generic_array::typenum::UInt<digest::generic_array::typenum::UInt<digest::generic_array::typenum::UInt<digest::generic_array::typenum::UTerm, digest::consts::B1>, digest::consts::B0>, digest::consts::B0>, digest::consts::B0>, digest::consts::B0>, digest::consts::B0>, digest::consts::B0>>" = type { %"digest::generic_array::GenericArrayImplEven<u8, digest::generic_array::GenericArrayImplEven<u8, digest::generic_array::GenericArrayImplEven<u8, digest::generic_array::GenericArrayImplEven<u8, digest::generic_array::GenericArrayImplEven<u8, digest::generic_array::GenericArrayImplEven<u8, digest::generic_array::GenericArrayImplOdd<u8, [u8; 0]>>>>>>>" }
%"digest::generic_array::GenericArrayImplEven<u8, digest::generic_array::GenericArrayImplEven<u8, digest::generic_array::GenericArrayImplEven<u8, digest::generic_array::GenericArrayImplEven<u8, digest::generic_array::GenericArrayImplEven<u8, digest::generic_array::GenericArrayImplEven<u8, digest::generic_array::GenericArrayImplOdd<u8, [u8; 0]>>>>>>>" = type { %"digest::generic_array::GenericArrayImplEven<u8, digest::generic_array::GenericArrayImplEven<u8, digest::generic_array::GenericArrayImplEven<u8, digest::generic_array::GenericArrayImplEven<u8, digest::generic_array::GenericArrayImplEven<u8, digest::generic_array::GenericArrayImplOdd<u8, [u8; 0]>>>>>>", %"digest::generic_array::GenericArrayImplEven<u8, digest::generic_array::GenericArrayImplEven<u8, digest::generic_array::GenericArrayImplEven<u8, digest::generic_array::GenericArrayImplEven<u8, digest::generic_array::GenericArrayImplEven<u8, digest::generic_array::GenericArrayImplOdd<u8, [u8; 0]>>>>>>", %"core::marker::PhantomData<u8>" }
%Keccak256Full = type { %"state::Sha3State", %"block_buffer::BlockBuffer<digest::generic_array::typenum::UInt<digest::generic_array::typenum::UInt<digest::generic_array::typenum::UInt<digest::generic_array::typenum::UInt<digest::generic_array::typenum::UInt<digest::generic_array::typenum::UInt<digest::generic_array::typenum::UInt<digest::generic_array::typenum::UInt<digest::generic_array::typenum::UTerm, digest::consts::B1>, digest::consts::B0>, digest::consts::B0>, digest::consts::B0>, digest::consts::B1>, digest::consts::B0>, digest::consts::B0>, digest::consts::B0>>" }
%"digest::generic_array::GenericArray<u8, digest::generic_array::typenum::UInt<digest::generic_array::typenum::UInt<digest::generic_array::typenum::UInt<digest::generic_array::typenum::UInt<digest::generic_array::typenum::UInt<digest::generic_array::typenum::UInt<digest::generic_array::typenum::UInt<digest::generic_array::typenum::UInt<digest::generic_array::typenum::UTerm, digest::consts::B1>, digest::consts::B1>, digest::consts::B0>, digest::consts::B0>, digest::consts::B1>, digest::consts::B0>, digest::consts::B0>, digest::consts::B0>>" = type { %"digest::generic_array::GenericArrayImplEven<u8, digest::generic_array::GenericArrayImplEven<u8, digest::generic_array::GenericArrayImplEven<u8, digest::generic_array::GenericArrayImplOdd<u8, digest::generic_array::GenericArrayImplEven<u8, digest::generic_array::GenericArrayImplEven<u8, digest::generic_array::GenericArrayImplOdd<u8, digest::generic_array::GenericArrayImplOdd<u8, [u8; 0]>>>>>>>>" }
%"digest::generic_array::GenericArrayImplEven<u8, digest::generic_array::GenericArrayImplEven<u8, digest::generic_array::GenericArrayImplEven<u8, digest::generic_array::GenericArrayImplOdd<u8, digest::generic_array::GenericArrayImplEven<u8, digest::generic_array::GenericArrayImplEven<u8, digest::generic_array::GenericArrayImplOdd<u8, digest::generic_array::GenericArrayImplOdd<u8, [u8; 0]>>>>>>>>" = type { %"digest::generic_array::GenericArrayImplEven<u8, digest::generic_array::GenericArrayImplEven<u8, digest::generic_array::GenericArrayImplOdd<u8, digest::generic_array::GenericArrayImplEven<u8, digest::generic_array::GenericArrayImplEven<u8, digest::generic_array::GenericArrayImplOdd<u8, digest::generic_array::GenericArrayImplOdd<u8, [u8; 0]>>>>>>>", %"digest::generic_array::GenericArrayImplEven<u8, digest::generic_array::GenericArrayImplEven<u8, digest::generic_array::GenericArrayImplOdd<u8, digest::generic_array::GenericArrayImplEven<u8, digest::generic_array::GenericArrayImplEven<u8, digest::generic_array::GenericArrayImplOdd<u8, digest::generic_array::GenericArrayImplOdd<u8, [u8; 0]>>>>>>>", %"core::marker::PhantomData<u8>" }
%"digest::generic_array::GenericArrayImplEven<u8, digest::generic_array::GenericArrayImplEven<u8, digest::generic_array::GenericArrayImplOdd<u8, digest::generic_array::GenericArrayImplEven<u8, digest::generic_array::GenericArrayImplEven<u8, digest::generic_array::GenericArrayImplOdd<u8, digest::generic_array::GenericArrayImplOdd<u8, [u8; 0]>>>>>>>" = type { %"digest::generic_array::GenericArrayImplEven<u8, digest::generic_array::GenericArrayImplOdd<u8, digest::generic_array::GenericArrayImplEven<u8, digest::generic_array::GenericArrayImplEven<u8, digest::generic_array::GenericArrayImplOdd<u8, digest::generic_array::GenericArrayImplOdd<u8, [u8; 0]>>>>>>", %"digest::generic_array::GenericArrayImplEven<u8, digest::generic_array::GenericArrayImplOdd<u8, digest::generic_array::GenericArrayImplEven<u8, digest::generic_array::GenericArrayImplEven<u8, digest::generic_array::GenericArrayImplOdd<u8, digest::generic_array::GenericArrayImplOdd<u8, [u8; 0]>>>>>>", %"core::marker::PhantomData<u8>" }
%"digest::generic_array::GenericArrayImplEven<u8, digest::generic_array::GenericArrayImplOdd<u8, digest::generic_array::GenericArrayImplEven<u8, digest::generic_array::GenericArrayImplEven<u8, digest::generic_array::GenericArrayImplOdd<u8, digest::generic_array::GenericArrayImplOdd<u8, [u8; 0]>>>>>>" = type { %"digest::generic_array::GenericArrayImplOdd<u8, digest::generic_array::GenericArrayImplEven<u8, digest::generic_array::GenericArrayImplEven<u8, digest::generic_array::GenericArrayImplOdd<u8, digest::generic_array::GenericArrayImplOdd<u8, [u8; 0]>>>>>", %"digest::generic_array::GenericArrayImplOdd<u8, digest::generic_array::GenericArrayImplEven<u8, digest::generic_array::GenericArrayImplEven<u8, digest::generic_array::GenericArrayImplOdd<u8, digest::generic_array::GenericArrayImplOdd<u8, [u8; 0]>>>>>", %"core::marker::PhantomData<u8>" }
%"digest::generic_array::GenericArrayImplOdd<u8, digest::generic_array::GenericArrayImplEven<u8, digest::generic_array::GenericArrayImplEven<u8, digest::generic_array::GenericArrayImplOdd<u8, digest::generic_array::GenericArrayImplOdd<u8, [u8; 0]>>>>>" = type { %"digest::generic_array::GenericArrayImplEven<u8, digest::generic_array::GenericArrayImplEven<u8, digest::generic_array::GenericArrayImplOdd<u8, digest::generic_array::GenericArrayImplOdd<u8, [u8; 0]>>>>", %"digest::generic_array::GenericArrayImplEven<u8, digest::generic_array::GenericArrayImplEven<u8, digest::generic_array::GenericArrayImplOdd<u8, digest::generic_array::GenericArrayImplOdd<u8, [u8; 0]>>>>", i8 }
%Sha3_224 = type { %"state::Sha3State", %"block_buffer::BlockBuffer<digest::generic_array::typenum::UInt<digest::generic_array::typenum::UInt<digest::generic_array::typenum::UInt<digest::generic_array::typenum::UInt<digest::generic_array::typenum::UInt<digest::generic_array::typenum::UInt<digest::generic_array::typenum::UInt<digest::generic_array::typenum::UInt<digest::generic_array::typenum::UTerm, digest::consts::B1>, digest::consts::B0>, digest::consts::B0>, digest::consts::B1>, digest::consts::B0>, digest::consts::B0>, digest::consts::B0>, digest::consts::B0>>" }
%Sha3_256 = type { %"state::Sha3State", %"block_buffer::BlockBuffer<digest::generic_array::typenum::UInt<digest::generic_array::typenum::UInt<digest::generic_array::typenum::UInt<digest::generic_array::typenum::UInt<digest::generic_array::typenum::UInt<digest::generic_array::typenum::UInt<digest::generic_array::typenum::UInt<digest::generic_array::typenum::UInt<digest::generic_array::typenum::UTerm, digest::consts::B1>, digest::consts::B0>, digest::consts::B0>, digest::consts::B0>, digest::consts::B1>, digest::consts::B0>, digest::consts::B0>, digest::consts::B0>>" }
%Sha3_384 = type { %"state::Sha3State", %"block_buffer::BlockBuffer<digest::generic_array::typenum::UInt<digest::generic_array::typenum::UInt<digest::generic_array::typenum::UInt<digest::generic_array::typenum::UInt<digest::generic_array::typenum::UInt<digest::generic_array::typenum::UInt<digest::generic_array::typenum::UInt<digest::generic_array::typenum::UTerm, digest::consts::B1>, digest::consts::B1>, digest::consts::B0>, digest::consts::B1>, digest::consts::B0>, digest::consts::B0>, digest::consts::B0>>" }
%Sha3_512 = type { %"state::Sha3State", %"block_buffer::BlockBuffer<digest::generic_array::typenum::UInt<digest::generic_array::typenum::UInt<digest::generic_array::typenum::UInt<digest::generic_array::typenum::UInt<digest::generic_array::typenum::UInt<digest::generic_array::typenum::UInt<digest::generic_array::typenum::UInt<digest::generic_array::typenum::UTerm, digest::consts::B1>, digest::consts::B0>, digest::consts::B0>, digest::consts::B1>, digest::consts::B0>, digest::consts::B0>, digest::consts::B0>>" }
%Shake128 = type { %"state::Sha3State", %"block_buffer::BlockBuffer<digest::generic_array::typenum::UInt<digest::generic_array::typenum::UInt<digest::generic_array::typenum::UInt<digest::generic_array::typenum::UInt<digest::generic_array::typenum::UInt<digest::generic_array::typenum::UInt<digest::generic_array::typenum::UInt<digest::generic_array::typenum::UInt<digest::generic_array::typenum::UTerm, digest::consts::B1>, digest::consts::B0>, digest::consts::B1>, digest::consts::B0>, digest::consts::B1>, digest::consts::B0>, digest::consts::B0>, digest::consts::B0>>" }
%Shake256 = type { %"state::Sha3State", %"block_buffer::BlockBuffer<digest::generic_array::typenum::UInt<digest::generic_array::typenum::UInt<digest::generic_array::typenum::UInt<digest::generic_array::typenum::UInt<digest::generic_array::typenum::UInt<digest::generic_array::typenum::UInt<digest::generic_array::typenum::UInt<digest::generic_array::typenum::UInt<digest::generic_array::typenum::UTerm, digest::consts::B1>, digest::consts::B0>, digest::consts::B0>, digest::consts::B0>, digest::consts::B1>, digest::consts::B0>, digest::consts::B0>, digest::consts::B0>>" }

@alloc195 = private unnamed_addr constant <{ [8 x i8] }> <{ [8 x i8] c"\90\00\00\00\00\00\00\00" }>, align 8
@alloc407 = private unnamed_addr constant <{ [94 x i8] }> <{ [94 x i8] c"/home/seaceved/.cargo/registry/src/github.com-1ecc6299db9ec823/generic-array-0.14.5/src/lib.rs" }>, align 1
@alloc408 = private unnamed_addr constant <{ i8*, [16 x i8] }> <{ i8* getelementptr inbounds (<{ [94 x i8] }>, <{ [94 x i8] }>* @alloc407, i32 0, i32 0, i32 0), [16 x i8] c"^\00\00\00\00\00\00\00/\02\00\00\09\00\00\00" }>, align 8
@alloc265 = private unnamed_addr constant <{ [8 x i8] }> <{ [8 x i8] c"H\00\00\00\00\00\00\00" }>, align 8
@alloc376 = private unnamed_addr constant <{ [8 x i8] }> <{ [8 x i8] c"\A8\00\00\00\00\00\00\00" }>, align 8
@alloc220 = private unnamed_addr constant <{ [8 x i8] }> <{ [8 x i8] c"\88\00\00\00\00\00\00\00" }>, align 8
@alloc246 = private unnamed_addr constant <{ [8 x i8] }> <{ [8 x i8] c"h\00\00\00\00\00\00\00" }>, align 8
@alloc423 = private unnamed_addr constant <{ [92 x i8] }> <{ [92 x i8] c"/home/seaceved/.cargo/registry/src/github.com-1ecc6299db9ec823/block-buffer-0.9.0/src/lib.rs" }>, align 1
@alloc410 = private unnamed_addr constant <{ i8*, [16 x i8] }> <{ i8* getelementptr inbounds (<{ [92 x i8] }>, <{ [92 x i8] }>* @alloc423, i32 0, i32 0, i32 0), [16 x i8] c"\\\00\00\00\00\00\00\00\1B\00\00\00#\00\00\00" }>, align 8
@str.0 = internal constant [28 x i8] c"attempt to add with overflow"
@alloc412 = private unnamed_addr constant <{ i8*, [16 x i8] }> <{ i8* getelementptr inbounds (<{ [92 x i8] }>, <{ [92 x i8] }>* @alloc423, i32 0, i32 0, i32 0), [16 x i8] c"\\\00\00\00\00\00\00\00\1B\00\00\00\0D\00\00\00" }>, align 8
@alloc414 = private unnamed_addr constant <{ i8*, [16 x i8] }> <{ i8* getelementptr inbounds (<{ [92 x i8] }>, <{ [92 x i8] }>* @alloc423, i32 0, i32 0, i32 0), [16 x i8] c"\\\00\00\00\00\00\00\00\1C\00\00\00\0D\00\00\00" }>, align 8
@alloc416 = private unnamed_addr constant <{ i8*, [16 x i8] }> <{ i8* getelementptr inbounds (<{ [92 x i8] }>, <{ [92 x i8] }>* @alloc423, i32 0, i32 0, i32 0), [16 x i8] c"\\\00\00\00\00\00\00\00\22\00\00\00\0D\00\00\00" }>, align 8
@alloc418 = private unnamed_addr constant <{ i8*, [16 x i8] }> <{ i8* getelementptr inbounds (<{ [92 x i8] }>, <{ [92 x i8] }>* @alloc423, i32 0, i32 0, i32 0), [16 x i8] c"\\\00\00\00\00\00\00\00(\00\00\00 \00\00\00" }>, align 8
@alloc420 = private unnamed_addr constant <{ i8*, [16 x i8] }> <{ i8* getelementptr inbounds (<{ [92 x i8] }>, <{ [92 x i8] }>* @alloc423, i32 0, i32 0, i32 0), [16 x i8] c"\\\00\00\00\00\00\00\00-\00\00\00\09\00\00\00" }>, align 8
@alloc422 = private unnamed_addr constant <{ i8*, [16 x i8] }> <{ i8* getelementptr inbounds (<{ [92 x i8] }>, <{ [92 x i8] }>* @alloc423, i32 0, i32 0, i32 0), [16 x i8] c"\\\00\00\00\00\00\00\00\C2\00\00\00\1B\00\00\00" }>, align 8
@alloc424 = private unnamed_addr constant <{ i8*, [16 x i8] }> <{ i8* getelementptr inbounds (<{ [92 x i8] }>, <{ [92 x i8] }>* @alloc423, i32 0, i32 0, i32 0), [16 x i8] c"\\\00\00\00\00\00\00\00\D6\00\00\00\09\00\00\00" }>, align 8
@str.1 = internal constant [33 x i8] c"attempt to subtract with overflow"
@alloc425 = private unnamed_addr constant <{ [12 x i8] }> <{ [12 x i8] c"invalid args" }>, align 1
@alloc426 = private unnamed_addr constant <{ [74 x i8] }> <{ [74 x i8] c"/home/runner/work/bpf-tools/bpf-tools/out/rust/library/core/src/fmt/mod.rs" }>, align 1
@alloc427 = private unnamed_addr constant <{ i8*, [16 x i8] }> <{ i8* getelementptr inbounds (<{ [74 x i8] }>, <{ [74 x i8] }>* @alloc426, i32 0, i32 0, i32 0), [16 x i8] c"J\00\00\00\00\00\00\00c\01\00\00\0D\00\00\00" }>, align 8
@alloc51 = private unnamed_addr constant <{ [8 x i8] }> zeroinitializer, align 8
@alloc434 = private unnamed_addr constant <{ [76 x i8] }> <{ [76 x i8] c"/home/runner/work/bpf-tools/bpf-tools/out/rust/library/core/src/slice/mod.rs" }>, align 1
@alloc429 = private unnamed_addr constant <{ i8*, [16 x i8] }> <{ i8* getelementptr inbounds (<{ [76 x i8] }>, <{ [76 x i8] }>* @alloc434, i32 0, i32 0, i32 0), [16 x i8] c"L\00\00\00\00\00\00\00_\03\00\00\09\00\00\00" }>, align 8
@alloc433 = private unnamed_addr constant <{ [35 x i8] }> <{ [35 x i8] c"assertion failed: mid <= self.len()" }>, align 1
@alloc432 = private unnamed_addr constant <{ i8*, [16 x i8] }> <{ i8* getelementptr inbounds (<{ [76 x i8] }>, <{ [76 x i8] }>* @alloc434, i32 0, i32 0, i32 0), [16 x i8] c"L\00\00\00\00\00\00\00\FF\05\00\00\09\00\00\00" }>, align 8
@alloc435 = private unnamed_addr constant <{ i8*, [16 x i8] }> <{ i8* getelementptr inbounds (<{ [76 x i8] }>, <{ [76 x i8] }>* @alloc434, i32 0, i32 0, i32 0), [16 x i8] c"L\00\00\00\00\00\00\00\E1\05\00\00\09\00\00\00" }>, align 8
@alloc436 = private unnamed_addr constant <{ [77 x i8] }> <{ [77 x i8] c"/home/runner/work/bpf-tools/bpf-tools/out/rust/library/core/src/slice/iter.rs" }>, align 1
@alloc437 = private unnamed_addr constant <{ i8*, [16 x i8] }> <{ i8* getelementptr inbounds (<{ [77 x i8] }>, <{ [77 x i8] }>* @alloc436, i32 0, i32 0, i32 0), [16 x i8] c"M\00\00\00\00\00\00\00\A8\06\00\00\13\00\00\00" }>, align 8
@str.2 = internal constant [57 x i8] c"attempt to calculate the remainder with a divisor of zero"
@vtable.3 = private unnamed_addr constant <{ i8*, [16 x i8], i8*, [0 x i8] }> <{ i8* bitcast (void (%"block_buffer::block_padding::PadError"*)* @"_ZN4core3ptr44drop_in_place$LT$block_padding..PadError$GT$17h1623debab6536b09E" to i8*), [16 x i8] c"\00\00\00\00\00\00\00\00\01\00\00\00\00\00\00\00", i8* bitcast (i1 (%"block_buffer::block_padding::PadError"*, %"core::fmt::Formatter"*)* @"_ZN60_$LT$block_padding..PadError$u20$as$u20$core..fmt..Debug$GT$3fmt17h6d0ebbf431a694dcE" to i8*), [0 x i8] zeroinitializer }>, align 8, !dbg !0
@alloc448 = private unnamed_addr constant <{ [43 x i8] }> <{ [43 x i8] c"called `Result::unwrap()` on an `Err` value" }>, align 1
@vtable.4 = private unnamed_addr constant <{ i8*, [16 x i8], i8*, [0 x i8] }> <{ i8* bitcast (void (%"core::convert::Infallible"*)* @"_ZN4core3ptr46drop_in_place$LT$core..convert..Infallible$GT$17h34f2cc336ad0dd0aE" to i8*), [16 x i8] c"\00\00\00\00\00\00\00\00\01\00\00\00\00\00\00\00", i8* bitcast (i1 (%"core::convert::Infallible"*, %"core::fmt::Formatter"*)* @"_ZN62_$LT$core..convert..Infallible$u20$as$u20$core..fmt..Debug$GT$3fmt17h792b7658a0b17a06E" to i8*), [0 x i8] zeroinitializer }>, align 8, !dbg !7
@vtable.5 = private unnamed_addr constant <{ i8*, [16 x i8], i8*, [0 x i8] }> <{ i8* bitcast (void (i64**)* @"_ZN4core3ptr30drop_in_place$LT$$RF$usize$GT$17h20d5932f3d451b4dE" to i8*), [16 x i8] c"\08\00\00\00\00\00\00\00\08\00\00\00\00\00\00\00", i8* bitcast (i1 (i64**, %"core::fmt::Formatter"*)* @"_ZN42_$LT$$RF$T$u20$as$u20$core..fmt..Debug$GT$3fmt17h1dfdc435712068c6E" to i8*), [0 x i8] zeroinitializer }>, align 8, !dbg !15
@alloc464 = private unnamed_addr constant <{ [87 x i8] }> <{ [87 x i8] c"/home/seaceved/.cargo/registry/src/github.com-1ecc6299db9ec823/sha3-0.9.1/src/reader.rs" }>, align 1
@alloc453 = private unnamed_addr constant <{ i8*, [16 x i8] }> <{ i8* getelementptr inbounds (<{ [87 x i8] }>, <{ [87 x i8] }>* @alloc464, i32 0, i32 0, i32 0), [16 x i8] c"W\00\00\00\00\00\00\00\19\00\00\00\13\00\00\00" }>, align 8
@alloc455 = private unnamed_addr constant <{ i8*, [16 x i8] }> <{ i8* getelementptr inbounds (<{ [87 x i8] }>, <{ [87 x i8] }>* @alloc464, i32 0, i32 0, i32 0), [16 x i8] c"W\00\00\00\00\00\00\00&\00\00\00\0D\00\00\00" }>, align 8
@alloc457 = private unnamed_addr constant <{ i8*, [16 x i8] }> <{ i8* getelementptr inbounds (<{ [87 x i8] }>, <{ [87 x i8] }>* @alloc464, i32 0, i32 0, i32 0), [16 x i8] c"W\00\00\00\00\00\00\00\1F\00\00\00$\00\00\00" }>, align 8
@alloc459 = private unnamed_addr constant <{ i8*, [16 x i8] }> <{ i8* getelementptr inbounds (<{ [87 x i8] }>, <{ [87 x i8] }>* @alloc464, i32 0, i32 0, i32 0), [16 x i8] c"W\00\00\00\00\00\00\00$\00\00\009\00\00\00" }>, align 8
@alloc461 = private unnamed_addr constant <{ i8*, [16 x i8] }> <{ i8* getelementptr inbounds (<{ [87 x i8] }>, <{ [87 x i8] }>* @alloc464, i32 0, i32 0, i32 0), [16 x i8] c"W\00\00\00\00\00\00\00$\00\00\00)\00\00\00" }>, align 8
@alloc463 = private unnamed_addr constant <{ i8*, [16 x i8] }> <{ i8* getelementptr inbounds (<{ [87 x i8] }>, <{ [87 x i8] }>* @alloc464, i32 0, i32 0, i32 0), [16 x i8] c"W\00\00\00\00\00\00\00/\00\00\00$\00\00\00" }>, align 8
@alloc465 = private unnamed_addr constant <{ i8*, [16 x i8] }> <{ i8* getelementptr inbounds (<{ [87 x i8] }>, <{ [87 x i8] }>* @alloc464, i32 0, i32 0, i32 0), [16 x i8] c"W\00\00\00\00\00\00\007\00\00\00%\00\00\00" }>, align 8
@alloc466 = private unnamed_addr constant <{ [86 x i8] }> <{ [86 x i8] c"/home/seaceved/.cargo/registry/src/github.com-1ecc6299db9ec823/sha3-0.9.1/src/state.rs" }>, align 1
@alloc467 = private unnamed_addr constant <{ i8*, [16 x i8] }> <{ i8* getelementptr inbounds (<{ [86 x i8] }>, <{ [86 x i8] }>* @alloc466, i32 0, i32 0, i32 0), [16 x i8] c"V\00\00\00\00\00\00\00\0D\00\00\00\09\00\00\00" }>, align 8
@alloc472 = private unnamed_addr constant <{ [89 x i8] }> <{ [89 x i8] c"/home/seaceved/.cargo/registry/src/github.com-1ecc6299db9ec823/sha3-0.9.1/src/paddings.rs" }>, align 1
@alloc469 = private unnamed_addr constant <{ i8*, [16 x i8] }> <{ i8* getelementptr inbounds (<{ [89 x i8] }>, <{ [89 x i8] }>* @alloc472, i32 0, i32 0, i32 0), [16 x i8] c"Y\00\00\00\00\00\00\00\1F\00\00\00\01\00\00\00" }>, align 8
@alloc471 = private unnamed_addr constant <{ i8*, [16 x i8] }> <{ i8* getelementptr inbounds (<{ [89 x i8] }>, <{ [89 x i8] }>* @alloc472, i32 0, i32 0, i32 0), [16 x i8] c"Y\00\00\00\00\00\00\00 \00\00\00\01\00\00\00" }>, align 8
@alloc473 = private unnamed_addr constant <{ i8*, [16 x i8] }> <{ i8* getelementptr inbounds (<{ [89 x i8] }>, <{ [89 x i8] }>* @alloc472, i32 0, i32 0, i32 0), [16 x i8] c"Y\00\00\00\00\00\00\00!\00\00\00\01\00\00\00" }>, align 8
@alloc505 = private unnamed_addr constant <{ [84 x i8] }> <{ [84 x i8] c"/home/seaceved/.cargo/registry/src/github.com-1ecc6299db9ec823/sha3-0.9.1/src/lib.rs" }>, align 1
@alloc475 = private unnamed_addr constant <{ i8*, [16 x i8] }> <{ i8* getelementptr inbounds (<{ [84 x i8] }>, <{ [84 x i8] }>* @alloc505, i32 0, i32 0, i32 0), [16 x i8] c"T\00\00\00\00\00\00\00A\00\00\00\01\00\00\00" }>, align 8
@alloc504 = private unnamed_addr constant <{ [23 x i8] }> <{ [23 x i8] c"we never use input_lazy" }>, align 1
@alloc394 = private unnamed_addr constant <{ [0 x i8] }> zeroinitializer, align 8
@alloc200 = private unnamed_addr constant <{ [17 x i8] }> <{ [17 x i8] c"Keccak224 { ... }" }>, align 1
@alloc201 = private unnamed_addr constant <{ i8*, [8 x i8] }> <{ i8* getelementptr inbounds (<{ [17 x i8] }>, <{ [17 x i8] }>* @alloc200, i32 0, i32 0, i32 0), [8 x i8] c"\11\00\00\00\00\00\00\00" }>, align 8
@alloc478 = private unnamed_addr constant <{ i8*, [16 x i8] }> <{ i8* getelementptr inbounds (<{ [84 x i8] }>, <{ [84 x i8] }>* @alloc505, i32 0, i32 0, i32 0), [16 x i8] c"T\00\00\00\00\00\00\00H\00\00\00\01\00\00\00" }>, align 8
@alloc225 = private unnamed_addr constant <{ [17 x i8] }> <{ [17 x i8] c"Keccak256 { ... }" }>, align 1
@alloc226 = private unnamed_addr constant <{ i8*, [8 x i8] }> <{ i8* getelementptr inbounds (<{ [17 x i8] }>, <{ [17 x i8] }>* @alloc225, i32 0, i32 0, i32 0), [8 x i8] c"\11\00\00\00\00\00\00\00" }>, align 8
@alloc481 = private unnamed_addr constant <{ i8*, [16 x i8] }> <{ i8* getelementptr inbounds (<{ [84 x i8] }>, <{ [84 x i8] }>* @alloc505, i32 0, i32 0, i32 0), [16 x i8] c"T\00\00\00\00\00\00\00O\00\00\00\01\00\00\00" }>, align 8
@alloc251 = private unnamed_addr constant <{ [17 x i8] }> <{ [17 x i8] c"Keccak384 { ... }" }>, align 1
@alloc252 = private unnamed_addr constant <{ i8*, [8 x i8] }> <{ i8* getelementptr inbounds (<{ [17 x i8] }>, <{ [17 x i8] }>* @alloc251, i32 0, i32 0, i32 0), [8 x i8] c"\11\00\00\00\00\00\00\00" }>, align 8
@alloc484 = private unnamed_addr constant <{ i8*, [16 x i8] }> <{ i8* getelementptr inbounds (<{ [84 x i8] }>, <{ [84 x i8] }>* @alloc505, i32 0, i32 0, i32 0), [16 x i8] c"T\00\00\00\00\00\00\00V\00\00\00\01\00\00\00" }>, align 8
@alloc270 = private unnamed_addr constant <{ [17 x i8] }> <{ [17 x i8] c"Keccak512 { ... }" }>, align 1
@alloc271 = private unnamed_addr constant <{ i8*, [8 x i8] }> <{ i8* getelementptr inbounds (<{ [17 x i8] }>, <{ [17 x i8] }>* @alloc270, i32 0, i32 0, i32 0), [8 x i8] c"\11\00\00\00\00\00\00\00" }>, align 8
@alloc487 = private unnamed_addr constant <{ i8*, [16 x i8] }> <{ i8* getelementptr inbounds (<{ [84 x i8] }>, <{ [84 x i8] }>* @alloc505, i32 0, i32 0, i32 0), [16 x i8] c"T\00\00\00\00\00\00\00^\00\00\00\01\00\00\00" }>, align 8
@alloc290 = private unnamed_addr constant <{ [21 x i8] }> <{ [21 x i8] c"Keccak256Full { ... }" }>, align 1
@alloc291 = private unnamed_addr constant <{ i8*, [8 x i8] }> <{ i8* getelementptr inbounds (<{ [21 x i8] }>, <{ [21 x i8] }>* @alloc290, i32 0, i32 0, i32 0), [8 x i8] c"\15\00\00\00\00\00\00\00" }>, align 8
@alloc490 = private unnamed_addr constant <{ i8*, [16 x i8] }> <{ i8* getelementptr inbounds (<{ [84 x i8] }>, <{ [84 x i8] }>* @alloc505, i32 0, i32 0, i32 0), [16 x i8] c"T\00\00\00\00\00\00\00f\00\00\00\01\00\00\00" }>, align 8
@alloc306 = private unnamed_addr constant <{ [16 x i8] }> <{ [16 x i8] c"Sha3_224 { ... }" }>, align 1
@alloc307 = private unnamed_addr constant <{ i8*, [8 x i8] }> <{ i8* getelementptr inbounds (<{ [16 x i8] }>, <{ [16 x i8] }>* @alloc306, i32 0, i32 0, i32 0), [8 x i8] c"\10\00\00\00\00\00\00\00" }>, align 8
@alloc493 = private unnamed_addr constant <{ i8*, [16 x i8] }> <{ i8* getelementptr inbounds (<{ [84 x i8] }>, <{ [84 x i8] }>* @alloc505, i32 0, i32 0, i32 0), [16 x i8] c"T\00\00\00\00\00\00\00m\00\00\00\01\00\00\00" }>, align 8
@alloc322 = private unnamed_addr constant <{ [16 x i8] }> <{ [16 x i8] c"Sha3_256 { ... }" }>, align 1
@alloc323 = private unnamed_addr constant <{ i8*, [8 x i8] }> <{ i8* getelementptr inbounds (<{ [16 x i8] }>, <{ [16 x i8] }>* @alloc322, i32 0, i32 0, i32 0), [8 x i8] c"\10\00\00\00\00\00\00\00" }>, align 8
@alloc496 = private unnamed_addr constant <{ i8*, [16 x i8] }> <{ i8* getelementptr inbounds (<{ [84 x i8] }>, <{ [84 x i8] }>* @alloc505, i32 0, i32 0, i32 0), [16 x i8] c"T\00\00\00\00\00\00\00t\00\00\00\01\00\00\00" }>, align 8
@alloc338 = private unnamed_addr constant <{ [16 x i8] }> <{ [16 x i8] c"Sha3_384 { ... }" }>, align 1
@alloc339 = private unnamed_addr constant <{ i8*, [8 x i8] }> <{ i8* getelementptr inbounds (<{ [16 x i8] }>, <{ [16 x i8] }>* @alloc338, i32 0, i32 0, i32 0), [8 x i8] c"\10\00\00\00\00\00\00\00" }>, align 8
@alloc499 = private unnamed_addr constant <{ i8*, [16 x i8] }> <{ i8* getelementptr inbounds (<{ [84 x i8] }>, <{ [84 x i8] }>* @alloc505, i32 0, i32 0, i32 0), [16 x i8] c"T\00\00\00\00\00\00\00{\00\00\00\01\00\00\00" }>, align 8
@alloc354 = private unnamed_addr constant <{ [16 x i8] }> <{ [16 x i8] c"Sha3_512 { ... }" }>, align 1
@alloc355 = private unnamed_addr constant <{ i8*, [8 x i8] }> <{ i8* getelementptr inbounds (<{ [16 x i8] }>, <{ [16 x i8] }>* @alloc354, i32 0, i32 0, i32 0), [8 x i8] c"\10\00\00\00\00\00\00\00" }>, align 8
@alloc503 = private unnamed_addr constant <{ i8*, [16 x i8] }> <{ i8* getelementptr inbounds (<{ [84 x i8] }>, <{ [84 x i8] }>* @alloc505, i32 0, i32 0, i32 0), [16 x i8] c"T\00\00\00\00\00\00\00\83\00\00\00\01\00\00\00" }>, align 8
@alloc381 = private unnamed_addr constant <{ [16 x i8] }> <{ [16 x i8] c"Shake128 { ... }" }>, align 1
@alloc382 = private unnamed_addr constant <{ i8*, [8 x i8] }> <{ i8* getelementptr inbounds (<{ [16 x i8] }>, <{ [16 x i8] }>* @alloc381, i32 0, i32 0, i32 0), [8 x i8] c"\10\00\00\00\00\00\00\00" }>, align 8
@alloc506 = private unnamed_addr constant <{ i8*, [16 x i8] }> <{ i8* getelementptr inbounds (<{ [84 x i8] }>, <{ [84 x i8] }>* @alloc505, i32 0, i32 0, i32 0), [16 x i8] c"T\00\00\00\00\00\00\00\89\00\00\00\01\00\00\00" }>, align 8
@alloc396 = private unnamed_addr constant <{ [16 x i8] }> <{ [16 x i8] c"Shake256 { ... }" }>, align 1
@alloc397 = private unnamed_addr constant <{ i8*, [8 x i8] }> <{ i8* getelementptr inbounds (<{ [16 x i8] }>, <{ [16 x i8] }>* @alloc396, i32 0, i32 0, i32 0), [8 x i8] c"\10\00\00\00\00\00\00\00" }>, align 8

; <core::iter::adapters::zip::Zip<A,B> as core::iter::traits::iterator::Iterator>::next
; Function Attrs: inlinehint nounwind
define { i8*, i8* } @"_ZN102_$LT$core..iter..adapters..zip..Zip$LT$A$C$B$GT$$u20$as$u20$core..iter..traits..iterator..Iterator$GT$4next17ha1dfbc88b792332fE"(%"core::iter::Zip<core::slice::IterMut<u8>, core::slice::Iter<u8>>"* align 8 dereferenceable(56) %self) unnamed_addr #0 !dbg !100 {
start:
  %self.dbg.spill = alloca %"core::iter::Zip<core::slice::IterMut<u8>, core::slice::Iter<u8>>"*, align 8
  store %"core::iter::Zip<core::slice::IterMut<u8>, core::slice::Iter<u8>>"* %self, %"core::iter::Zip<core::slice::IterMut<u8>, core::slice::Iter<u8>>"** %self.dbg.spill, align 8
  call void @llvm.dbg.declare(metadata %"core::iter::Zip<core::slice::IterMut<u8>, core::slice::Iter<u8>>"** %self.dbg.spill, metadata !169, metadata !DIExpression()), !dbg !170
; call <core::iter::adapters::zip::Zip<A,B> as core::iter::adapters::zip::ZipImpl<A,B>>::next
  %0 = call { i8*, i8* } @"_ZN111_$LT$core..iter..adapters..zip..Zip$LT$A$C$B$GT$$u20$as$u20$core..iter..adapters..zip..ZipImpl$LT$A$C$B$GT$$GT$4next17h9f1935c13c619a29E"(%"core::iter::Zip<core::slice::IterMut<u8>, core::slice::Iter<u8>>"* align 8 dereferenceable(56) %self), !dbg !171
  %1 = extractvalue { i8*, i8* } %0, 0, !dbg !171
  %2 = extractvalue { i8*, i8* } %0, 1, !dbg !171
  br label %bb1, !dbg !171

bb1:                                              ; preds = %start
  %3 = insertvalue { i8*, i8* } undef, i8* %1, 0, !dbg !172
  %4 = insertvalue { i8*, i8* } %3, i8* %2, 1, !dbg !172
  ret { i8*, i8* } %4, !dbg !172
}

; <&generic_array::GenericArray<T,N> as core::convert::From<&[T]>>::from
; Function Attrs: inlinehint nounwind
define align 1 dereferenceable(144) %"digest::generic_array::GenericArray<u8, digest::generic_array::typenum::UInt<digest::generic_array::typenum::UInt<digest::generic_array::typenum::UInt<digest::generic_array::typenum::UInt<digest::generic_array::typenum::UInt<digest::generic_array::typenum::UInt<digest::generic_array::typenum::UInt<digest::generic_array::typenum::UInt<digest::generic_array::typenum::UTerm, digest::consts::B1>, digest::consts::B0>, digest::consts::B0>, digest::consts::B1>, digest::consts::B0>, digest::consts::B0>, digest::consts::B0>, digest::consts::B0>>"* @"_ZN107_$LT$$RF$generic_array..GenericArray$LT$T$C$N$GT$$u20$as$u20$core..convert..From$LT$$RF$$u5b$T$u5d$$GT$$GT$4from17h0434721600169006E"([0 x i8]* nonnull align 1 %slice.0, i64 %slice.1) unnamed_addr #0 !dbg !173 {
start:
  %right_val.dbg.spill = alloca i64*, align 8
  %left_val.dbg.spill = alloca i64*, align 8
  %slice.dbg.spill = alloca { [0 x i8]*, i64 }, align 8
  %_19 = alloca %"core::option::Option<core::fmt::Arguments>", align 8
  %kind = alloca i8, align 1
  %_4 = alloca i64, align 8
  %_2 = alloca { i64*, i64* }, align 8
  %0 = getelementptr inbounds { [0 x i8]*, i64 }, { [0 x i8]*, i64 }* %slice.dbg.spill, i32 0, i32 0
  store [0 x i8]* %slice.0, [0 x i8]** %0, align 8
  %1 = getelementptr inbounds { [0 x i8]*, i64 }, { [0 x i8]*, i64 }* %slice.dbg.spill, i32 0, i32 1
  store i64 %slice.1, i64* %1, align 8
  call void @llvm.dbg.declare(metadata { [0 x i8]*, i64 }* %slice.dbg.spill, metadata !306, metadata !DIExpression()), !dbg !317
  call void @llvm.dbg.declare(metadata i8* %kind, metadata !312, metadata !DIExpression()), !dbg !318
  store i64 %slice.1, i64* %_4, align 8, !dbg !319
  %2 = bitcast { i64*, i64* }* %_2 to i64**, !dbg !320
  store i64* %_4, i64** %2, align 8, !dbg !320
  %3 = getelementptr inbounds { i64*, i64* }, { i64*, i64* }* %_2, i32 0, i32 1, !dbg !320
  store i64* bitcast (<{ [8 x i8] }>* @alloc195 to i64*), i64** %3, align 8, !dbg !320
  %4 = bitcast { i64*, i64* }* %_2 to i64**, !dbg !320
  %left_val = load i64*, i64** %4, align 8, !dbg !320, !nonnull !4
  store i64* %left_val, i64** %left_val.dbg.spill, align 8, !dbg !320
  call void @llvm.dbg.declare(metadata i64** %left_val.dbg.spill, metadata !307, metadata !DIExpression()), !dbg !321
  %5 = getelementptr inbounds { i64*, i64* }, { i64*, i64* }* %_2, i32 0, i32 1, !dbg !320
  %right_val = load i64*, i64** %5, align 8, !dbg !320, !nonnull !4
  store i64* %right_val, i64** %right_val.dbg.spill, align 8, !dbg !320
  call void @llvm.dbg.declare(metadata i64** %right_val.dbg.spill, metadata !311, metadata !DIExpression()), !dbg !321
  %_11 = load i64, i64* %left_val, align 8, !dbg !321
  %_12 = load i64, i64* %right_val, align 8, !dbg !321
  %_10 = icmp eq i64 %_11, %_12, !dbg !321
  %_9 = xor i1 %_10, true, !dbg !321
  br i1 %_9, label %bb1, label %bb2, !dbg !321

bb2:                                              ; preds = %start
; call core::slice::<impl [T]>::as_ptr
  %_21 = call i8* @"_ZN4core5slice29_$LT$impl$u20$$u5b$T$u5d$$GT$6as_ptr17h6f9cf5e62f927928E"([0 x i8]* nonnull align 1 %slice.0, i64 %slice.1), !dbg !322
  br label %bb3, !dbg !322

bb1:                                              ; preds = %start
  store i8 0, i8* %kind, align 1, !dbg !321
  %6 = bitcast %"core::option::Option<core::fmt::Arguments>"* %_19 to {}**, !dbg !318
  store {}* null, {}** %6, align 8, !dbg !318
; call core::panicking::assert_failed
  call void @_ZN4core9panicking13assert_failed17h9999af30dc26e954E(i8 0, i64* align 8 dereferenceable(8) %left_val, i64* align 8 dereferenceable(8) %right_val, %"core::option::Option<core::fmt::Arguments>"* noalias nocapture dereferenceable(48) %_19, %"core::panic::Location"* align 8 dereferenceable(24) bitcast (<{ i8*, [16 x i8] }>* @alloc408 to %"core::panic::Location"*)), !dbg !318
  unreachable, !dbg !318

bb3:                                              ; preds = %bb2
  %_20 = bitcast i8* %_21 to %"digest::generic_array::GenericArray<u8, digest::generic_array::typenum::UInt<digest::generic_array::typenum::UInt<digest::generic_array::typenum::UInt<digest::generic_array::typenum::UInt<digest::generic_array::typenum::UInt<digest::generic_array::typenum::UInt<digest::generic_array::typenum::UInt<digest::generic_array::typenum::UInt<digest::generic_array::typenum::UTerm, digest::consts::B1>, digest::consts::B0>, digest::consts::B0>, digest::consts::B1>, digest::consts::B0>, digest::consts::B0>, digest::consts::B0>, digest::consts::B0>>"*, !dbg !323
  ret %"digest::generic_array::GenericArray<u8, digest::generic_array::typenum::UInt<digest::generic_array::typenum::UInt<digest::generic_array::typenum::UInt<digest::generic_array::typenum::UInt<digest::generic_array::typenum::UInt<digest::generic_array::typenum::UInt<digest::generic_array::typenum::UInt<digest::generic_array::typenum::UInt<digest::generic_array::typenum::UTerm, digest::consts::B1>, digest::consts::B0>, digest::consts::B0>, digest::consts::B1>, digest::consts::B0>, digest::consts::B0>, digest::consts::B0>, digest::consts::B0>>"* %_20, !dbg !324
}

; <&generic_array::GenericArray<T,N> as core::convert::From<&[T]>>::from
; Function Attrs: inlinehint nounwind
define align 1 dereferenceable(72) %"digest::generic_array::GenericArray<u8, digest::generic_array::typenum::UInt<digest::generic_array::typenum::UInt<digest::generic_array::typenum::UInt<digest::generic_array::typenum::UInt<digest::generic_array::typenum::UInt<digest::generic_array::typenum::UInt<digest::generic_array::typenum::UInt<digest::generic_array::typenum::UTerm, digest::consts::B1>, digest::consts::B0>, digest::consts::B0>, digest::consts::B1>, digest::consts::B0>, digest::consts::B0>, digest::consts::B0>>"* @"_ZN107_$LT$$RF$generic_array..GenericArray$LT$T$C$N$GT$$u20$as$u20$core..convert..From$LT$$RF$$u5b$T$u5d$$GT$$GT$4from17h7891aea55777b3f3E"([0 x i8]* nonnull align 1 %slice.0, i64 %slice.1) unnamed_addr #0 !dbg !325 {
start:
  %right_val.dbg.spill = alloca i64*, align 8
  %left_val.dbg.spill = alloca i64*, align 8
  %slice.dbg.spill = alloca { [0 x i8]*, i64 }, align 8
  %_19 = alloca %"core::option::Option<core::fmt::Arguments>", align 8
  %kind = alloca i8, align 1
  %_4 = alloca i64, align 8
  %_2 = alloca { i64*, i64* }, align 8
  %0 = getelementptr inbounds { [0 x i8]*, i64 }, { [0 x i8]*, i64 }* %slice.dbg.spill, i32 0, i32 0
  store [0 x i8]* %slice.0, [0 x i8]** %0, align 8
  %1 = getelementptr inbounds { [0 x i8]*, i64 }, { [0 x i8]*, i64 }* %slice.dbg.spill, i32 0, i32 1
  store i64 %slice.1, i64* %1, align 8
  call void @llvm.dbg.declare(metadata { [0 x i8]*, i64 }* %slice.dbg.spill, metadata !334, metadata !DIExpression()), !dbg !344
  call void @llvm.dbg.declare(metadata i8* %kind, metadata !339, metadata !DIExpression()), !dbg !345
  store i64 %slice.1, i64* %_4, align 8, !dbg !346
  %2 = bitcast { i64*, i64* }* %_2 to i64**, !dbg !347
  store i64* %_4, i64** %2, align 8, !dbg !347
  %3 = getelementptr inbounds { i64*, i64* }, { i64*, i64* }* %_2, i32 0, i32 1, !dbg !347
  store i64* bitcast (<{ [8 x i8] }>* @alloc265 to i64*), i64** %3, align 8, !dbg !347
  %4 = bitcast { i64*, i64* }* %_2 to i64**, !dbg !347
  %left_val = load i64*, i64** %4, align 8, !dbg !347, !nonnull !4
  store i64* %left_val, i64** %left_val.dbg.spill, align 8, !dbg !347
  call void @llvm.dbg.declare(metadata i64** %left_val.dbg.spill, metadata !335, metadata !DIExpression()), !dbg !348
  %5 = getelementptr inbounds { i64*, i64* }, { i64*, i64* }* %_2, i32 0, i32 1, !dbg !347
  %right_val = load i64*, i64** %5, align 8, !dbg !347, !nonnull !4
  store i64* %right_val, i64** %right_val.dbg.spill, align 8, !dbg !347
  call void @llvm.dbg.declare(metadata i64** %right_val.dbg.spill, metadata !338, metadata !DIExpression()), !dbg !348
  %_11 = load i64, i64* %left_val, align 8, !dbg !348
  %_12 = load i64, i64* %right_val, align 8, !dbg !348
  %_10 = icmp eq i64 %_11, %_12, !dbg !348
  %_9 = xor i1 %_10, true, !dbg !348
  br i1 %_9, label %bb1, label %bb2, !dbg !348

bb2:                                              ; preds = %start
; call core::slice::<impl [T]>::as_ptr
  %_21 = call i8* @"_ZN4core5slice29_$LT$impl$u20$$u5b$T$u5d$$GT$6as_ptr17h6f9cf5e62f927928E"([0 x i8]* nonnull align 1 %slice.0, i64 %slice.1), !dbg !349
  br label %bb3, !dbg !349

bb1:                                              ; preds = %start
  store i8 0, i8* %kind, align 1, !dbg !348
  %6 = bitcast %"core::option::Option<core::fmt::Arguments>"* %_19 to {}**, !dbg !345
  store {}* null, {}** %6, align 8, !dbg !345
; call core::panicking::assert_failed
  call void @_ZN4core9panicking13assert_failed17h9999af30dc26e954E(i8 0, i64* align 8 dereferenceable(8) %left_val, i64* align 8 dereferenceable(8) %right_val, %"core::option::Option<core::fmt::Arguments>"* noalias nocapture dereferenceable(48) %_19, %"core::panic::Location"* align 8 dereferenceable(24) bitcast (<{ i8*, [16 x i8] }>* @alloc408 to %"core::panic::Location"*)), !dbg !345
  unreachable, !dbg !345

bb3:                                              ; preds = %bb2
  %_20 = bitcast i8* %_21 to %"digest::generic_array::GenericArray<u8, digest::generic_array::typenum::UInt<digest::generic_array::typenum::UInt<digest::generic_array::typenum::UInt<digest::generic_array::typenum::UInt<digest::generic_array::typenum::UInt<digest::generic_array::typenum::UInt<digest::generic_array::typenum::UInt<digest::generic_array::typenum::UTerm, digest::consts::B1>, digest::consts::B0>, digest::consts::B0>, digest::consts::B1>, digest::consts::B0>, digest::consts::B0>, digest::consts::B0>>"*, !dbg !350
  ret %"digest::generic_array::GenericArray<u8, digest::generic_array::typenum::UInt<digest::generic_array::typenum::UInt<digest::generic_array::typenum::UInt<digest::generic_array::typenum::UInt<digest::generic_array::typenum::UInt<digest::generic_array::typenum::UInt<digest::generic_array::typenum::UInt<digest::generic_array::typenum::UTerm, digest::consts::B1>, digest::consts::B0>, digest::consts::B0>, digest::consts::B1>, digest::consts::B0>, digest::consts::B0>, digest::consts::B0>>"* %_20, !dbg !351
}

; <&generic_array::GenericArray<T,N> as core::convert::From<&[T]>>::from
; Function Attrs: inlinehint nounwind
define align 1 dereferenceable(168) %"digest::generic_array::GenericArray<u8, digest::generic_array::typenum::UInt<digest::generic_array::typenum::UInt<digest::generic_array::typenum::UInt<digest::generic_array::typenum::UInt<digest::generic_array::typenum::UInt<digest::generic_array::typenum::UInt<digest::generic_array::typenum::UInt<digest::generic_array::typenum::UInt<digest::generic_array::typenum::UTerm, digest::consts::B1>, digest::consts::B0>, digest::consts::B1>, digest::consts::B0>, digest::consts::B1>, digest::consts::B0>, digest::consts::B0>, digest::consts::B0>>"* @"_ZN107_$LT$$RF$generic_array..GenericArray$LT$T$C$N$GT$$u20$as$u20$core..convert..From$LT$$RF$$u5b$T$u5d$$GT$$GT$4from17ha32fb0f8731d6457E"([0 x i8]* nonnull align 1 %slice.0, i64 %slice.1) unnamed_addr #0 !dbg !352 {
start:
  %right_val.dbg.spill = alloca i64*, align 8
  %left_val.dbg.spill = alloca i64*, align 8
  %slice.dbg.spill = alloca { [0 x i8]*, i64 }, align 8
  %_19 = alloca %"core::option::Option<core::fmt::Arguments>", align 8
  %kind = alloca i8, align 1
  %_4 = alloca i64, align 8
  %_2 = alloca { i64*, i64* }, align 8
  %0 = getelementptr inbounds { [0 x i8]*, i64 }, { [0 x i8]*, i64 }* %slice.dbg.spill, i32 0, i32 0
  store [0 x i8]* %slice.0, [0 x i8]** %0, align 8
  %1 = getelementptr inbounds { [0 x i8]*, i64 }, { [0 x i8]*, i64 }* %slice.dbg.spill, i32 0, i32 1
  store i64 %slice.1, i64* %1, align 8
  call void @llvm.dbg.declare(metadata { [0 x i8]*, i64 }* %slice.dbg.spill, metadata !437, metadata !DIExpression()), !dbg !447
  call void @llvm.dbg.declare(metadata i8* %kind, metadata !442, metadata !DIExpression()), !dbg !448
  store i64 %slice.1, i64* %_4, align 8, !dbg !449
  %2 = bitcast { i64*, i64* }* %_2 to i64**, !dbg !450
  store i64* %_4, i64** %2, align 8, !dbg !450
  %3 = getelementptr inbounds { i64*, i64* }, { i64*, i64* }* %_2, i32 0, i32 1, !dbg !450
  store i64* bitcast (<{ [8 x i8] }>* @alloc376 to i64*), i64** %3, align 8, !dbg !450
  %4 = bitcast { i64*, i64* }* %_2 to i64**, !dbg !450
  %left_val = load i64*, i64** %4, align 8, !dbg !450, !nonnull !4
  store i64* %left_val, i64** %left_val.dbg.spill, align 8, !dbg !450
  call void @llvm.dbg.declare(metadata i64** %left_val.dbg.spill, metadata !438, metadata !DIExpression()), !dbg !451
  %5 = getelementptr inbounds { i64*, i64* }, { i64*, i64* }* %_2, i32 0, i32 1, !dbg !450
  %right_val = load i64*, i64** %5, align 8, !dbg !450, !nonnull !4
  store i64* %right_val, i64** %right_val.dbg.spill, align 8, !dbg !450
  call void @llvm.dbg.declare(metadata i64** %right_val.dbg.spill, metadata !441, metadata !DIExpression()), !dbg !451
  %_11 = load i64, i64* %left_val, align 8, !dbg !451
  %_12 = load i64, i64* %right_val, align 8, !dbg !451
  %_10 = icmp eq i64 %_11, %_12, !dbg !451
  %_9 = xor i1 %_10, true, !dbg !451
  br i1 %_9, label %bb1, label %bb2, !dbg !451

bb2:                                              ; preds = %start
; call core::slice::<impl [T]>::as_ptr
  %_21 = call i8* @"_ZN4core5slice29_$LT$impl$u20$$u5b$T$u5d$$GT$6as_ptr17h6f9cf5e62f927928E"([0 x i8]* nonnull align 1 %slice.0, i64 %slice.1), !dbg !452
  br label %bb3, !dbg !452

bb1:                                              ; preds = %start
  store i8 0, i8* %kind, align 1, !dbg !451
  %6 = bitcast %"core::option::Option<core::fmt::Arguments>"* %_19 to {}**, !dbg !448
  store {}* null, {}** %6, align 8, !dbg !448
; call core::panicking::assert_failed
  call void @_ZN4core9panicking13assert_failed17h9999af30dc26e954E(i8 0, i64* align 8 dereferenceable(8) %left_val, i64* align 8 dereferenceable(8) %right_val, %"core::option::Option<core::fmt::Arguments>"* noalias nocapture dereferenceable(48) %_19, %"core::panic::Location"* align 8 dereferenceable(24) bitcast (<{ i8*, [16 x i8] }>* @alloc408 to %"core::panic::Location"*)), !dbg !448
  unreachable, !dbg !448

bb3:                                              ; preds = %bb2
  %_20 = bitcast i8* %_21 to %"digest::generic_array::GenericArray<u8, digest::generic_array::typenum::UInt<digest::generic_array::typenum::UInt<digest::generic_array::typenum::UInt<digest::generic_array::typenum::UInt<digest::generic_array::typenum::UInt<digest::generic_array::typenum::UInt<digest::generic_array::typenum::UInt<digest::generic_array::typenum::UInt<digest::generic_array::typenum::UTerm, digest::consts::B1>, digest::consts::B0>, digest::consts::B1>, digest::consts::B0>, digest::consts::B1>, digest::consts::B0>, digest::consts::B0>, digest::consts::B0>>"*, !dbg !453
  ret %"digest::generic_array::GenericArray<u8, digest::generic_array::typenum::UInt<digest::generic_array::typenum::UInt<digest::generic_array::typenum::UInt<digest::generic_array::typenum::UInt<digest::generic_array::typenum::UInt<digest::generic_array::typenum::UInt<digest::generic_array::typenum::UInt<digest::generic_array::typenum::UInt<digest::generic_array::typenum::UTerm, digest::consts::B1>, digest::consts::B0>, digest::consts::B1>, digest::consts::B0>, digest::consts::B1>, digest::consts::B0>, digest::consts::B0>, digest::consts::B0>>"* %_20, !dbg !454
}

; <&generic_array::GenericArray<T,N> as core::convert::From<&[T]>>::from
; Function Attrs: inlinehint nounwind
define align 1 dereferenceable(136) %"digest::generic_array::GenericArray<u8, digest::generic_array::typenum::UInt<digest::generic_array::typenum::UInt<digest::generic_array::typenum::UInt<digest::generic_array::typenum::UInt<digest::generic_array::typenum::UInt<digest::generic_array::typenum::UInt<digest::generic_array::typenum::UInt<digest::generic_array::typenum::UInt<digest::generic_array::typenum::UTerm, digest::consts::B1>, digest::consts::B0>, digest::consts::B0>, digest::consts::B0>, digest::consts::B1>, digest::consts::B0>, digest::consts::B0>, digest::consts::B0>>"* @"_ZN107_$LT$$RF$generic_array..GenericArray$LT$T$C$N$GT$$u20$as$u20$core..convert..From$LT$$RF$$u5b$T$u5d$$GT$$GT$4from17hd871328518da05e4E"([0 x i8]* nonnull align 1 %slice.0, i64 %slice.1) unnamed_addr #0 !dbg !455 {
start:
  %right_val.dbg.spill = alloca i64*, align 8
  %left_val.dbg.spill = alloca i64*, align 8
  %slice.dbg.spill = alloca { [0 x i8]*, i64 }, align 8
  %_19 = alloca %"core::option::Option<core::fmt::Arguments>", align 8
  %kind = alloca i8, align 1
  %_4 = alloca i64, align 8
  %_2 = alloca { i64*, i64* }, align 8
  %0 = getelementptr inbounds { [0 x i8]*, i64 }, { [0 x i8]*, i64 }* %slice.dbg.spill, i32 0, i32 0
  store [0 x i8]* %slice.0, [0 x i8]** %0, align 8
  %1 = getelementptr inbounds { [0 x i8]*, i64 }, { [0 x i8]*, i64 }* %slice.dbg.spill, i32 0, i32 1
  store i64 %slice.1, i64* %1, align 8
  call void @llvm.dbg.declare(metadata { [0 x i8]*, i64 }* %slice.dbg.spill, metadata !527, metadata !DIExpression()), !dbg !537
  call void @llvm.dbg.declare(metadata i8* %kind, metadata !532, metadata !DIExpression()), !dbg !538
  store i64 %slice.1, i64* %_4, align 8, !dbg !539
  %2 = bitcast { i64*, i64* }* %_2 to i64**, !dbg !540
  store i64* %_4, i64** %2, align 8, !dbg !540
  %3 = getelementptr inbounds { i64*, i64* }, { i64*, i64* }* %_2, i32 0, i32 1, !dbg !540
  store i64* bitcast (<{ [8 x i8] }>* @alloc220 to i64*), i64** %3, align 8, !dbg !540
  %4 = bitcast { i64*, i64* }* %_2 to i64**, !dbg !540
  %left_val = load i64*, i64** %4, align 8, !dbg !540, !nonnull !4
  store i64* %left_val, i64** %left_val.dbg.spill, align 8, !dbg !540
  call void @llvm.dbg.declare(metadata i64** %left_val.dbg.spill, metadata !528, metadata !DIExpression()), !dbg !541
  %5 = getelementptr inbounds { i64*, i64* }, { i64*, i64* }* %_2, i32 0, i32 1, !dbg !540
  %right_val = load i64*, i64** %5, align 8, !dbg !540, !nonnull !4
  store i64* %right_val, i64** %right_val.dbg.spill, align 8, !dbg !540
  call void @llvm.dbg.declare(metadata i64** %right_val.dbg.spill, metadata !531, metadata !DIExpression()), !dbg !541
  %_11 = load i64, i64* %left_val, align 8, !dbg !541
  %_12 = load i64, i64* %right_val, align 8, !dbg !541
  %_10 = icmp eq i64 %_11, %_12, !dbg !541
  %_9 = xor i1 %_10, true, !dbg !541
  br i1 %_9, label %bb1, label %bb2, !dbg !541

bb2:                                              ; preds = %start
; call core::slice::<impl [T]>::as_ptr
  %_21 = call i8* @"_ZN4core5slice29_$LT$impl$u20$$u5b$T$u5d$$GT$6as_ptr17h6f9cf5e62f927928E"([0 x i8]* nonnull align 1 %slice.0, i64 %slice.1), !dbg !542
  br label %bb3, !dbg !542

bb1:                                              ; preds = %start
  store i8 0, i8* %kind, align 1, !dbg !541
  %6 = bitcast %"core::option::Option<core::fmt::Arguments>"* %_19 to {}**, !dbg !538
  store {}* null, {}** %6, align 8, !dbg !538
; call core::panicking::assert_failed
  call void @_ZN4core9panicking13assert_failed17h9999af30dc26e954E(i8 0, i64* align 8 dereferenceable(8) %left_val, i64* align 8 dereferenceable(8) %right_val, %"core::option::Option<core::fmt::Arguments>"* noalias nocapture dereferenceable(48) %_19, %"core::panic::Location"* align 8 dereferenceable(24) bitcast (<{ i8*, [16 x i8] }>* @alloc408 to %"core::panic::Location"*)), !dbg !538
  unreachable, !dbg !538

bb3:                                              ; preds = %bb2
  %_20 = bitcast i8* %_21 to %"digest::generic_array::GenericArray<u8, digest::generic_array::typenum::UInt<digest::generic_array::typenum::UInt<digest::generic_array::typenum::UInt<digest::generic_array::typenum::UInt<digest::generic_array::typenum::UInt<digest::generic_array::typenum::UInt<digest::generic_array::typenum::UInt<digest::generic_array::typenum::UInt<digest::generic_array::typenum::UTerm, digest::consts::B1>, digest::consts::B0>, digest::consts::B0>, digest::consts::B0>, digest::consts::B1>, digest::consts::B0>, digest::consts::B0>, digest::consts::B0>>"*, !dbg !543
  ret %"digest::generic_array::GenericArray<u8, digest::generic_array::typenum::UInt<digest::generic_array::typenum::UInt<digest::generic_array::typenum::UInt<digest::generic_array::typenum::UInt<digest::generic_array::typenum::UInt<digest::generic_array::typenum::UInt<digest::generic_array::typenum::UInt<digest::generic_array::typenum::UInt<digest::generic_array::typenum::UTerm, digest::consts::B1>, digest::consts::B0>, digest::consts::B0>, digest::consts::B0>, digest::consts::B1>, digest::consts::B0>, digest::consts::B0>, digest::consts::B0>>"* %_20, !dbg !544
}

; <&generic_array::GenericArray<T,N> as core::convert::From<&[T]>>::from
; Function Attrs: inlinehint nounwind
define align 1 dereferenceable(104) %"digest::generic_array::GenericArray<u8, digest::generic_array::typenum::UInt<digest::generic_array::typenum::UInt<digest::generic_array::typenum::UInt<digest::generic_array::typenum::UInt<digest::generic_array::typenum::UInt<digest::generic_array::typenum::UInt<digest::generic_array::typenum::UInt<digest::generic_array::typenum::UTerm, digest::consts::B1>, digest::consts::B1>, digest::consts::B0>, digest::consts::B1>, digest::consts::B0>, digest::consts::B0>, digest::consts::B0>>"* @"_ZN107_$LT$$RF$generic_array..GenericArray$LT$T$C$N$GT$$u20$as$u20$core..convert..From$LT$$RF$$u5b$T$u5d$$GT$$GT$4from17hebb762f7fa2a28faE"([0 x i8]* nonnull align 1 %slice.0, i64 %slice.1) unnamed_addr #0 !dbg !545 {
start:
  %right_val.dbg.spill = alloca i64*, align 8
  %left_val.dbg.spill = alloca i64*, align 8
  %slice.dbg.spill = alloca { [0 x i8]*, i64 }, align 8
  %_19 = alloca %"core::option::Option<core::fmt::Arguments>", align 8
  %kind = alloca i8, align 1
  %_4 = alloca i64, align 8
  %_2 = alloca { i64*, i64* }, align 8
  %0 = getelementptr inbounds { [0 x i8]*, i64 }, { [0 x i8]*, i64 }* %slice.dbg.spill, i32 0, i32 0
  store [0 x i8]* %slice.0, [0 x i8]** %0, align 8
  %1 = getelementptr inbounds { [0 x i8]*, i64 }, { [0 x i8]*, i64 }* %slice.dbg.spill, i32 0, i32 1
  store i64 %slice.1, i64* %1, align 8
  call void @llvm.dbg.declare(metadata { [0 x i8]*, i64 }* %slice.dbg.spill, metadata !630, metadata !DIExpression()), !dbg !640
  call void @llvm.dbg.declare(metadata i8* %kind, metadata !635, metadata !DIExpression()), !dbg !641
  store i64 %slice.1, i64* %_4, align 8, !dbg !642
  %2 = bitcast { i64*, i64* }* %_2 to i64**, !dbg !643
  store i64* %_4, i64** %2, align 8, !dbg !643
  %3 = getelementptr inbounds { i64*, i64* }, { i64*, i64* }* %_2, i32 0, i32 1, !dbg !643
  store i64* bitcast (<{ [8 x i8] }>* @alloc246 to i64*), i64** %3, align 8, !dbg !643
  %4 = bitcast { i64*, i64* }* %_2 to i64**, !dbg !643
  %left_val = load i64*, i64** %4, align 8, !dbg !643, !nonnull !4
  store i64* %left_val, i64** %left_val.dbg.spill, align 8, !dbg !643
  call void @llvm.dbg.declare(metadata i64** %left_val.dbg.spill, metadata !631, metadata !DIExpression()), !dbg !644
  %5 = getelementptr inbounds { i64*, i64* }, { i64*, i64* }* %_2, i32 0, i32 1, !dbg !643
  %right_val = load i64*, i64** %5, align 8, !dbg !643, !nonnull !4
  store i64* %right_val, i64** %right_val.dbg.spill, align 8, !dbg !643
  call void @llvm.dbg.declare(metadata i64** %right_val.dbg.spill, metadata !634, metadata !DIExpression()), !dbg !644
  %_11 = load i64, i64* %left_val, align 8, !dbg !644
  %_12 = load i64, i64* %right_val, align 8, !dbg !644
  %_10 = icmp eq i64 %_11, %_12, !dbg !644
  %_9 = xor i1 %_10, true, !dbg !644
  br i1 %_9, label %bb1, label %bb2, !dbg !644

bb2:                                              ; preds = %start
; call core::slice::<impl [T]>::as_ptr
  %_21 = call i8* @"_ZN4core5slice29_$LT$impl$u20$$u5b$T$u5d$$GT$6as_ptr17h6f9cf5e62f927928E"([0 x i8]* nonnull align 1 %slice.0, i64 %slice.1), !dbg !645
  br label %bb3, !dbg !645

bb1:                                              ; preds = %start
  store i8 0, i8* %kind, align 1, !dbg !644
  %6 = bitcast %"core::option::Option<core::fmt::Arguments>"* %_19 to {}**, !dbg !641
  store {}* null, {}** %6, align 8, !dbg !641
; call core::panicking::assert_failed
  call void @_ZN4core9panicking13assert_failed17h9999af30dc26e954E(i8 0, i64* align 8 dereferenceable(8) %left_val, i64* align 8 dereferenceable(8) %right_val, %"core::option::Option<core::fmt::Arguments>"* noalias nocapture dereferenceable(48) %_19, %"core::panic::Location"* align 8 dereferenceable(24) bitcast (<{ i8*, [16 x i8] }>* @alloc408 to %"core::panic::Location"*)), !dbg !641
  unreachable, !dbg !641

bb3:                                              ; preds = %bb2
  %_20 = bitcast i8* %_21 to %"digest::generic_array::GenericArray<u8, digest::generic_array::typenum::UInt<digest::generic_array::typenum::UInt<digest::generic_array::typenum::UInt<digest::generic_array::typenum::UInt<digest::generic_array::typenum::UInt<digest::generic_array::typenum::UInt<digest::generic_array::typenum::UInt<digest::generic_array::typenum::UTerm, digest::consts::B1>, digest::consts::B1>, digest::consts::B0>, digest::consts::B1>, digest::consts::B0>, digest::consts::B0>, digest::consts::B0>>"*, !dbg !646
  ret %"digest::generic_array::GenericArray<u8, digest::generic_array::typenum::UInt<digest::generic_array::typenum::UInt<digest::generic_array::typenum::UInt<digest::generic_array::typenum::UInt<digest::generic_array::typenum::UInt<digest::generic_array::typenum::UInt<digest::generic_array::typenum::UInt<digest::generic_array::typenum::UTerm, digest::consts::B1>, digest::consts::B1>, digest::consts::B0>, digest::consts::B1>, digest::consts::B0>, digest::consts::B0>, digest::consts::B0>>"* %_20, !dbg !647
}

; <core::ops::range::RangeTo<usize> as core::slice::index::SliceIndex<[T]>>::get_unchecked
; Function Attrs: inlinehint nounwind
define { [0 x i8]*, i64 } @"_ZN108_$LT$core..ops..range..RangeTo$LT$usize$GT$$u20$as$u20$core..slice..index..SliceIndex$LT$$u5b$T$u5d$$GT$$GT$13get_unchecked17ha3dfd8fe217f90adE"(i64 %self, [0 x i8]* %slice.0, i64 %slice.1) unnamed_addr #0 !dbg !648 {
start:
  %slice.dbg.spill = alloca { [0 x i8]*, i64 }, align 8
  %self.dbg.spill = alloca i64, align 8
  %_3 = alloca { i64, i64 }, align 8
  store i64 %self, i64* %self.dbg.spill, align 8
  call void @llvm.dbg.declare(metadata i64* %self.dbg.spill, metadata !666, metadata !DIExpression()), !dbg !668
  %0 = getelementptr inbounds { [0 x i8]*, i64 }, { [0 x i8]*, i64 }* %slice.dbg.spill, i32 0, i32 0
  store [0 x i8]* %slice.0, [0 x i8]** %0, align 8
  %1 = getelementptr inbounds { [0 x i8]*, i64 }, { [0 x i8]*, i64 }* %slice.dbg.spill, i32 0, i32 1
  store i64 %slice.1, i64* %1, align 8
  call void @llvm.dbg.declare(metadata { [0 x i8]*, i64 }* %slice.dbg.spill, metadata !667, metadata !DIExpression()), !dbg !669
  %2 = bitcast { i64, i64 }* %_3 to i64*, !dbg !670
  store i64 0, i64* %2, align 8, !dbg !670
  %3 = getelementptr inbounds { i64, i64 }, { i64, i64 }* %_3, i32 0, i32 1, !dbg !670
  store i64 %self, i64* %3, align 8, !dbg !670
  %4 = getelementptr inbounds { i64, i64 }, { i64, i64 }* %_3, i32 0, i32 0, !dbg !670
  %5 = load i64, i64* %4, align 8, !dbg !670
  %6 = getelementptr inbounds { i64, i64 }, { i64, i64 }* %_3, i32 0, i32 1, !dbg !670
  %7 = load i64, i64* %6, align 8, !dbg !670
; call <core::ops::range::Range<usize> as core::slice::index::SliceIndex<[T]>>::get_unchecked
  %8 = call { [0 x i8]*, i64 } @"_ZN106_$LT$core..ops..range..Range$LT$usize$GT$$u20$as$u20$core..slice..index..SliceIndex$LT$$u5b$T$u5d$$GT$$GT$13get_unchecked17hf8871638d38376bdE"(i64 %5, i64 %7, [0 x i8]* %slice.0, i64 %slice.1), !dbg !670
  %9 = extractvalue { [0 x i8]*, i64 } %8, 0, !dbg !670
  %10 = extractvalue { [0 x i8]*, i64 } %8, 1, !dbg !670
  br label %bb1, !dbg !670

bb1:                                              ; preds = %start
  %11 = insertvalue { [0 x i8]*, i64 } undef, [0 x i8]* %9, 0, !dbg !671
  %12 = insertvalue { [0 x i8]*, i64 } %11, i64 %10, 1, !dbg !671
  ret { [0 x i8]*, i64 } %12, !dbg !671
}

; <core::iter::adapters::zip::Zip<A,B> as core::iter::adapters::zip::ZipImpl<A,B>>::new
; Function Attrs: nounwind
define void @"_ZN111_$LT$core..iter..adapters..zip..Zip$LT$A$C$B$GT$$u20$as$u20$core..iter..adapters..zip..ZipImpl$LT$A$C$B$GT$$GT$3new17h06bbacebffd15d04E"(%"core::iter::Zip<core::slice::IterMut<u8>, core::slice::Iter<u8>>"* noalias nocapture sret(%"core::iter::Zip<core::slice::IterMut<u8>, core::slice::Iter<u8>>") dereferenceable(56) %0, i8* nonnull %1, i8* %2, i8* nonnull %3, i8* %4) unnamed_addr #1 !dbg !672 {
start:
  %len.dbg.spill = alloca i64, align 8
  %a_len.dbg.spill = alloca i64, align 8
  %b = alloca { i8*, i8* }, align 8
  %a = alloca { i8*, i8* }, align 8
  %5 = getelementptr inbounds { i8*, i8* }, { i8*, i8* }* %a, i32 0, i32 0
  store i8* %1, i8** %5, align 8
  %6 = getelementptr inbounds { i8*, i8* }, { i8*, i8* }* %a, i32 0, i32 1
  store i8* %2, i8** %6, align 8
  %7 = getelementptr inbounds { i8*, i8* }, { i8*, i8* }* %b, i32 0, i32 0
  store i8* %3, i8** %7, align 8
  %8 = getelementptr inbounds { i8*, i8* }, { i8*, i8* }* %b, i32 0, i32 1
  store i8* %4, i8** %8, align 8
  call void @llvm.dbg.declare(metadata { i8*, i8* }* %a, metadata !677, metadata !DIExpression()), !dbg !683
  call void @llvm.dbg.declare(metadata { i8*, i8* }* %b, metadata !678, metadata !DIExpression()), !dbg !684
; call core::iter::adapters::zip::TrustedRandomAccessNoCoerce::size
  %a_len = call i64 @_ZN4core4iter8adapters3zip27TrustedRandomAccessNoCoerce4size17h6e130bc8628f7c81E({ i8*, i8* }* align 8 dereferenceable(16) %a), !dbg !685
  store i64 %a_len, i64* %a_len.dbg.spill, align 8, !dbg !685
  call void @llvm.dbg.declare(metadata i64* %a_len.dbg.spill, metadata !679, metadata !DIExpression()), !dbg !686
  br label %bb1, !dbg !685

bb1:                                              ; preds = %start
; call core::iter::adapters::zip::TrustedRandomAccessNoCoerce::size
  %_7 = call i64 @_ZN4core4iter8adapters3zip27TrustedRandomAccessNoCoerce4size17h3671bad10a4be7bcE({ i8*, i8* }* align 8 dereferenceable(16) %b), !dbg !687
  br label %bb2, !dbg !687

bb2:                                              ; preds = %bb1
; call core::cmp::min
  %len = call i64 @_ZN4core3cmp3min17h961f780590b0219eE(i64 %a_len, i64 %_7), !dbg !688
  store i64 %len, i64* %len.dbg.spill, align 8, !dbg !688
  call void @llvm.dbg.declare(metadata i64* %len.dbg.spill, metadata !681, metadata !DIExpression()), !dbg !689
  br label %bb3, !dbg !688

bb3:                                              ; preds = %bb2
  %9 = getelementptr inbounds { i8*, i8* }, { i8*, i8* }* %a, i32 0, i32 0, !dbg !690
  %_9.0 = load i8*, i8** %9, align 8, !dbg !690, !nonnull !4
  %10 = getelementptr inbounds { i8*, i8* }, { i8*, i8* }* %a, i32 0, i32 1, !dbg !690
  %_9.1 = load i8*, i8** %10, align 8, !dbg !690
  %11 = getelementptr inbounds { i8*, i8* }, { i8*, i8* }* %b, i32 0, i32 0, !dbg !691
  %_10.0 = load i8*, i8** %11, align 8, !dbg !691, !nonnull !4
  %12 = getelementptr inbounds { i8*, i8* }, { i8*, i8* }* %b, i32 0, i32 1, !dbg !691
  %_10.1 = load i8*, i8** %12, align 8, !dbg !691
  %13 = bitcast %"core::iter::Zip<core::slice::IterMut<u8>, core::slice::Iter<u8>>"* %0 to { i8*, i8* }*, !dbg !692
  %14 = getelementptr inbounds { i8*, i8* }, { i8*, i8* }* %13, i32 0, i32 0, !dbg !692
  store i8* %_9.0, i8** %14, align 8, !dbg !692
  %15 = getelementptr inbounds { i8*, i8* }, { i8*, i8* }* %13, i32 0, i32 1, !dbg !692
  store i8* %_9.1, i8** %15, align 8, !dbg !692
  %16 = getelementptr inbounds %"core::iter::Zip<core::slice::IterMut<u8>, core::slice::Iter<u8>>", %"core::iter::Zip<core::slice::IterMut<u8>, core::slice::Iter<u8>>"* %0, i32 0, i32 1, !dbg !692
  %17 = getelementptr inbounds { i8*, i8* }, { i8*, i8* }* %16, i32 0, i32 0, !dbg !692
  store i8* %_10.0, i8** %17, align 8, !dbg !692
  %18 = getelementptr inbounds { i8*, i8* }, { i8*, i8* }* %16, i32 0, i32 1, !dbg !692
  store i8* %_10.1, i8** %18, align 8, !dbg !692
  %19 = getelementptr inbounds %"core::iter::Zip<core::slice::IterMut<u8>, core::slice::Iter<u8>>", %"core::iter::Zip<core::slice::IterMut<u8>, core::slice::Iter<u8>>"* %0, i32 0, i32 2, !dbg !692
  store i64 0, i64* %19, align 8, !dbg !692
  %20 = getelementptr inbounds %"core::iter::Zip<core::slice::IterMut<u8>, core::slice::Iter<u8>>", %"core::iter::Zip<core::slice::IterMut<u8>, core::slice::Iter<u8>>"* %0, i32 0, i32 3, !dbg !692
  store i64 %len, i64* %20, align 8, !dbg !692
  %21 = getelementptr inbounds %"core::iter::Zip<core::slice::IterMut<u8>, core::slice::Iter<u8>>", %"core::iter::Zip<core::slice::IterMut<u8>, core::slice::Iter<u8>>"* %0, i32 0, i32 4, !dbg !692
  store i64 %a_len, i64* %21, align 8, !dbg !692
  ret void, !dbg !693
}

; <core::iter::adapters::zip::Zip<A,B> as core::iter::adapters::zip::ZipImpl<A,B>>::next
; Function Attrs: inlinehint nounwind
define { i8*, i8* } @"_ZN111_$LT$core..iter..adapters..zip..Zip$LT$A$C$B$GT$$u20$as$u20$core..iter..adapters..zip..ZipImpl$LT$A$C$B$GT$$GT$4next17h9f1935c13c619a29E"(%"core::iter::Zip<core::slice::IterMut<u8>, core::slice::Iter<u8>>"* align 8 dereferenceable(56) %self) unnamed_addr #0 !dbg !694 {
start:
  %i.dbg.spill2 = alloca i64, align 8
  %i.dbg.spill = alloca i64, align 8
  %self.dbg.spill = alloca %"core::iter::Zip<core::slice::IterMut<u8>, core::slice::Iter<u8>>"*, align 8
  %_13 = alloca i8, align 1
  %_6 = alloca { i8*, i8* }, align 8
  %0 = alloca { i8*, i8* }, align 8
  store %"core::iter::Zip<core::slice::IterMut<u8>, core::slice::Iter<u8>>"* %self, %"core::iter::Zip<core::slice::IterMut<u8>, core::slice::Iter<u8>>"** %self.dbg.spill, align 8
  call void @llvm.dbg.declare(metadata %"core::iter::Zip<core::slice::IterMut<u8>, core::slice::Iter<u8>>"** %self.dbg.spill, metadata !696, metadata !DIExpression()), !dbg !701
  %1 = getelementptr inbounds %"core::iter::Zip<core::slice::IterMut<u8>, core::slice::Iter<u8>>", %"core::iter::Zip<core::slice::IterMut<u8>, core::slice::Iter<u8>>"* %self, i32 0, i32 2, !dbg !702
  %_3 = load i64, i64* %1, align 8, !dbg !702
  %2 = getelementptr inbounds %"core::iter::Zip<core::slice::IterMut<u8>, core::slice::Iter<u8>>", %"core::iter::Zip<core::slice::IterMut<u8>, core::slice::Iter<u8>>"* %self, i32 0, i32 3, !dbg !703
  %_4 = load i64, i64* %2, align 8, !dbg !703
  %_2 = icmp ult i64 %_3, %_4, !dbg !702
  br i1 %_2, label %bb1, label %bb4, !dbg !702

bb4:                                              ; preds = %start
  br i1 false, label %bb6, label %bb5, !dbg !704

bb1:                                              ; preds = %start
  %3 = getelementptr inbounds %"core::iter::Zip<core::slice::IterMut<u8>, core::slice::Iter<u8>>", %"core::iter::Zip<core::slice::IterMut<u8>, core::slice::Iter<u8>>"* %self, i32 0, i32 2, !dbg !705
  %i = load i64, i64* %3, align 8, !dbg !705
  store i64 %i, i64* %i.dbg.spill, align 8, !dbg !705
  call void @llvm.dbg.declare(metadata i64* %i.dbg.spill, metadata !697, metadata !DIExpression()), !dbg !706
  %4 = getelementptr inbounds %"core::iter::Zip<core::slice::IterMut<u8>, core::slice::Iter<u8>>", %"core::iter::Zip<core::slice::IterMut<u8>, core::slice::Iter<u8>>"* %self, i32 0, i32 2, !dbg !707
  %5 = getelementptr inbounds %"core::iter::Zip<core::slice::IterMut<u8>, core::slice::Iter<u8>>", %"core::iter::Zip<core::slice::IterMut<u8>, core::slice::Iter<u8>>"* %self, i32 0, i32 2, !dbg !707
  %6 = load i64, i64* %5, align 8, !dbg !707
  %7 = add i64 %6, 1, !dbg !707
  store i64 %7, i64* %4, align 8, !dbg !707
  %_8 = bitcast %"core::iter::Zip<core::slice::IterMut<u8>, core::slice::Iter<u8>>"* %self to { i8*, i8* }*, !dbg !708
; call <core::slice::iter::IterMut<T> as core::iter::traits::iterator::Iterator>::__iterator_get_unchecked
  %_7 = call align 1 dereferenceable(1) i8* @"_ZN94_$LT$core..slice..iter..IterMut$LT$T$GT$$u20$as$u20$core..iter..traits..iterator..Iterator$GT$24__iterator_get_unchecked17hb4b0283f0527f920E"({ i8*, i8* }* align 8 dereferenceable(16) %_8, i64 %i), !dbg !708
  br label %bb2, !dbg !708

bb2:                                              ; preds = %bb1
  %_11 = getelementptr inbounds %"core::iter::Zip<core::slice::IterMut<u8>, core::slice::Iter<u8>>", %"core::iter::Zip<core::slice::IterMut<u8>, core::slice::Iter<u8>>"* %self, i32 0, i32 1, !dbg !709
; call <core::slice::iter::Iter<T> as core::iter::traits::iterator::Iterator>::__iterator_get_unchecked
  %_10 = call align 1 dereferenceable(1) i8* @"_ZN91_$LT$core..slice..iter..Iter$LT$T$GT$$u20$as$u20$core..iter..traits..iterator..Iterator$GT$24__iterator_get_unchecked17hfff384d95f6c7707E"({ i8*, i8* }* align 8 dereferenceable(16) %_11, i64 %i), !dbg !709
  br label %bb3, !dbg !709

bb3:                                              ; preds = %bb2
  %8 = bitcast { i8*, i8* }* %_6 to i8**, !dbg !710
  store i8* %_7, i8** %8, align 8, !dbg !710
  %9 = getelementptr inbounds { i8*, i8* }, { i8*, i8* }* %_6, i32 0, i32 1, !dbg !710
  store i8* %_10, i8** %9, align 8, !dbg !710
  %10 = getelementptr inbounds { i8*, i8* }, { i8*, i8* }* %_6, i32 0, i32 0, !dbg !711
  %11 = load i8*, i8** %10, align 8, !dbg !711, !nonnull !4
  %12 = getelementptr inbounds { i8*, i8* }, { i8*, i8* }* %_6, i32 0, i32 1, !dbg !711
  %13 = load i8*, i8** %12, align 8, !dbg !711, !nonnull !4
  %14 = getelementptr inbounds { i8*, i8* }, { i8*, i8* }* %0, i32 0, i32 0, !dbg !711
  store i8* %11, i8** %14, align 8, !dbg !711
  %15 = getelementptr inbounds { i8*, i8* }, { i8*, i8* }* %0, i32 0, i32 1, !dbg !711
  store i8* %13, i8** %15, align 8, !dbg !711
  br label %bb13, !dbg !712

bb13:                                             ; preds = %bb12, %bb3
  %16 = getelementptr inbounds { i8*, i8* }, { i8*, i8* }* %0, i32 0, i32 0, !dbg !713
  %17 = load i8*, i8** %16, align 8, !dbg !713
  %18 = getelementptr inbounds { i8*, i8* }, { i8*, i8* }* %0, i32 0, i32 1, !dbg !713
  %19 = load i8*, i8** %18, align 8, !dbg !713
  %20 = insertvalue { i8*, i8* } undef, i8* %17, 0, !dbg !713
  %21 = insertvalue { i8*, i8* } %20, i8* %19, 1, !dbg !713
  ret { i8*, i8* } %21, !dbg !713

bb5:                                              ; preds = %bb4
  store i8 0, i8* %_13, align 1, !dbg !704
  br label %bb7, !dbg !704

bb6:                                              ; preds = %bb4
  %22 = getelementptr inbounds %"core::iter::Zip<core::slice::IterMut<u8>, core::slice::Iter<u8>>", %"core::iter::Zip<core::slice::IterMut<u8>, core::slice::Iter<u8>>"* %self, i32 0, i32 2, !dbg !714
  %_15 = load i64, i64* %22, align 8, !dbg !714
  %23 = getelementptr inbounds %"core::iter::Zip<core::slice::IterMut<u8>, core::slice::Iter<u8>>", %"core::iter::Zip<core::slice::IterMut<u8>, core::slice::Iter<u8>>"* %self, i32 0, i32 4, !dbg !715
  %_16 = load i64, i64* %23, align 8, !dbg !715
  %_14 = icmp ult i64 %_15, %_16, !dbg !714
  %24 = zext i1 %_14 to i8, !dbg !704
  store i8 %24, i8* %_13, align 1, !dbg !704
  br label %bb7, !dbg !704

bb7:                                              ; preds = %bb5, %bb6
  %25 = load i8, i8* %_13, align 1, !dbg !704, !range !716
  %26 = trunc i8 %25 to i1, !dbg !704
  br i1 %26, label %bb8, label %bb11, !dbg !704

bb11:                                             ; preds = %bb7
  %27 = bitcast { i8*, i8* }* %0 to {}**, !dbg !717
  store {}* null, {}** %27, align 8, !dbg !717
  br label %bb12, !dbg !718

bb8:                                              ; preds = %bb7
  %28 = getelementptr inbounds %"core::iter::Zip<core::slice::IterMut<u8>, core::slice::Iter<u8>>", %"core::iter::Zip<core::slice::IterMut<u8>, core::slice::Iter<u8>>"* %self, i32 0, i32 2, !dbg !719
  %i1 = load i64, i64* %28, align 8, !dbg !719
  store i64 %i1, i64* %i.dbg.spill2, align 8, !dbg !719
  call void @llvm.dbg.declare(metadata i64* %i.dbg.spill2, metadata !699, metadata !DIExpression()), !dbg !720
  %29 = getelementptr inbounds %"core::iter::Zip<core::slice::IterMut<u8>, core::slice::Iter<u8>>", %"core::iter::Zip<core::slice::IterMut<u8>, core::slice::Iter<u8>>"* %self, i32 0, i32 2, !dbg !721
  %30 = getelementptr inbounds %"core::iter::Zip<core::slice::IterMut<u8>, core::slice::Iter<u8>>", %"core::iter::Zip<core::slice::IterMut<u8>, core::slice::Iter<u8>>"* %self, i32 0, i32 2, !dbg !721
  %31 = load i64, i64* %30, align 8, !dbg !721
  %32 = add i64 %31, 1, !dbg !721
  store i64 %32, i64* %29, align 8, !dbg !721
  %33 = getelementptr inbounds %"core::iter::Zip<core::slice::IterMut<u8>, core::slice::Iter<u8>>", %"core::iter::Zip<core::slice::IterMut<u8>, core::slice::Iter<u8>>"* %self, i32 0, i32 3, !dbg !722
  %34 = getelementptr inbounds %"core::iter::Zip<core::slice::IterMut<u8>, core::slice::Iter<u8>>", %"core::iter::Zip<core::slice::IterMut<u8>, core::slice::Iter<u8>>"* %self, i32 0, i32 3, !dbg !722
  %35 = load i64, i64* %34, align 8, !dbg !722
  %36 = add i64 %35, 1, !dbg !722
  store i64 %36, i64* %33, align 8, !dbg !722
  %_19 = bitcast %"core::iter::Zip<core::slice::IterMut<u8>, core::slice::Iter<u8>>"* %self to { i8*, i8* }*, !dbg !723
; call <core::slice::iter::IterMut<T> as core::iter::traits::iterator::Iterator>::__iterator_get_unchecked
  %_18 = call align 1 dereferenceable(1) i8* @"_ZN94_$LT$core..slice..iter..IterMut$LT$T$GT$$u20$as$u20$core..iter..traits..iterator..Iterator$GT$24__iterator_get_unchecked17hb4b0283f0527f920E"({ i8*, i8* }* align 8 dereferenceable(16) %_19, i64 %i1), !dbg !723
  br label %bb9, !dbg !723

bb9:                                              ; preds = %bb8
  br label %bb10, !dbg !724

bb10:                                             ; preds = %bb9
  %37 = bitcast { i8*, i8* }* %0 to {}**, !dbg !725
  store {}* null, {}** %37, align 8, !dbg !725
  br label %bb12, !dbg !718

bb12:                                             ; preds = %bb11, %bb10
  br label %bb13, !dbg !712
}

; block_buffer::BlockBuffer<BlockSize>::input_block
; Function Attrs: inlinehint nounwind
define void @"_ZN12block_buffer28BlockBuffer$LT$BlockSize$GT$11input_block17h1eaa9eb52e181d4bE"(%"block_buffer::BlockBuffer<digest::generic_array::typenum::UInt<digest::generic_array::typenum::UInt<digest::generic_array::typenum::UInt<digest::generic_array::typenum::UInt<digest::generic_array::typenum::UInt<digest::generic_array::typenum::UInt<digest::generic_array::typenum::UInt<digest::generic_array::typenum::UTerm, digest::consts::B1>, digest::consts::B1>, digest::consts::B0>, digest::consts::B1>, digest::consts::B0>, digest::consts::B0>, digest::consts::B0>>"* align 8 dereferenceable(112) %self, [0 x i8]* nonnull align 1 %0, i64 %1, i64* align 8 dereferenceable(8) %2) unnamed_addr #0 !dbg !726 {
start:
  %self.dbg.spill.i7 = alloca %"digest::generic_array::GenericArray<u8, digest::generic_array::typenum::UInt<digest::generic_array::typenum::UInt<digest::generic_array::typenum::UInt<digest::generic_array::typenum::UInt<digest::generic_array::typenum::UInt<digest::generic_array::typenum::UInt<digest::generic_array::typenum::UInt<digest::generic_array::typenum::UTerm, digest::consts::B1>, digest::consts::B1>, digest::consts::B0>, digest::consts::B1>, digest::consts::B0>, digest::consts::B0>, digest::consts::B0>>"*, align 8
  %self.dbg.spill.i3 = alloca %"digest::generic_array::GenericArray<u8, digest::generic_array::typenum::UInt<digest::generic_array::typenum::UInt<digest::generic_array::typenum::UInt<digest::generic_array::typenum::UInt<digest::generic_array::typenum::UInt<digest::generic_array::typenum::UInt<digest::generic_array::typenum::UInt<digest::generic_array::typenum::UTerm, digest::consts::B1>, digest::consts::B1>, digest::consts::B0>, digest::consts::B1>, digest::consts::B0>, digest::consts::B0>, digest::consts::B0>>"*, align 8
  %self.dbg.spill.i = alloca %"digest::generic_array::GenericArray<u8, digest::generic_array::typenum::UInt<digest::generic_array::typenum::UInt<digest::generic_array::typenum::UInt<digest::generic_array::typenum::UInt<digest::generic_array::typenum::UInt<digest::generic_array::typenum::UInt<digest::generic_array::typenum::UInt<digest::generic_array::typenum::UTerm, digest::consts::B1>, digest::consts::B1>, digest::consts::B0>, digest::consts::B1>, digest::consts::B0>, digest::consts::B0>, digest::consts::B0>>"*, align 8
  %rem.dbg.spill = alloca { [0 x i8]*, i64 }, align 8
  %chunk.dbg.spill = alloca { [0 x i8]*, i64 }, align 8
  %__next.dbg.spill = alloca { [0 x i8]*, i64 }, align 8
  %val.dbg.spill = alloca { [0 x i8]*, i64 }, align 8
  %r.dbg.spill2 = alloca { [0 x i8]*, i64 }, align 8
  %l.dbg.spill = alloca { [0 x i8]*, i64 }, align 8
  %n.dbg.spill = alloca i64, align 8
  %r.dbg.spill = alloca i64, align 8
  %self.dbg.spill = alloca %"block_buffer::BlockBuffer<digest::generic_array::typenum::UInt<digest::generic_array::typenum::UInt<digest::generic_array::typenum::UInt<digest::generic_array::typenum::UInt<digest::generic_array::typenum::UInt<digest::generic_array::typenum::UInt<digest::generic_array::typenum::UInt<digest::generic_array::typenum::UTerm, digest::consts::B1>, digest::consts::B1>, digest::consts::B0>, digest::consts::B1>, digest::consts::B0>, digest::consts::B0>, digest::consts::B0>>"*, align 8
  %_82 = alloca i64, align 8
  %_70 = alloca i8*, align 8
  %_61 = alloca { i8*, i64 }, align 8
  %iter = alloca %"core::slice::ChunksExact<u8>"*, align 8
  %chunks_iter = alloca %"core::slice::ChunksExact<u8>", align 8
  %_50 = alloca i8*, align 8
  %_45 = alloca i64, align 8
  %_35 = alloca { { [0 x i8]*, i64 }, { [0 x i8]*, i64 } }, align 8
  %_27 = alloca i8, align 1
  %_18 = alloca { i64, i64 }, align 8
  %f = alloca i64*, align 8
  %input = alloca { [0 x i8]*, i64 }, align 8
  %3 = getelementptr inbounds { [0 x i8]*, i64 }, { [0 x i8]*, i64 }* %input, i32 0, i32 0
  store [0 x i8]* %0, [0 x i8]** %3, align 8
  %4 = getelementptr inbounds { [0 x i8]*, i64 }, { [0 x i8]*, i64 }* %input, i32 0, i32 1
  store i64 %1, i64* %4, align 8
  store i64* %2, i64** %f, align 8
  store %"block_buffer::BlockBuffer<digest::generic_array::typenum::UInt<digest::generic_array::typenum::UInt<digest::generic_array::typenum::UInt<digest::generic_array::typenum::UInt<digest::generic_array::typenum::UInt<digest::generic_array::typenum::UInt<digest::generic_array::typenum::UInt<digest::generic_array::typenum::UTerm, digest::consts::B1>, digest::consts::B1>, digest::consts::B0>, digest::consts::B1>, digest::consts::B0>, digest::consts::B0>, digest::consts::B0>>"* %self, %"block_buffer::BlockBuffer<digest::generic_array::typenum::UInt<digest::generic_array::typenum::UInt<digest::generic_array::typenum::UInt<digest::generic_array::typenum::UInt<digest::generic_array::typenum::UInt<digest::generic_array::typenum::UInt<digest::generic_array::typenum::UInt<digest::generic_array::typenum::UTerm, digest::consts::B1>, digest::consts::B1>, digest::consts::B0>, digest::consts::B1>, digest::consts::B0>, digest::consts::B0>, digest::consts::B0>>"** %self.dbg.spill, align 8
  call void @llvm.dbg.declare(metadata %"block_buffer::BlockBuffer<digest::generic_array::typenum::UInt<digest::generic_array::typenum::UInt<digest::generic_array::typenum::UInt<digest::generic_array::typenum::UInt<digest::generic_array::typenum::UInt<digest::generic_array::typenum::UInt<digest::generic_array::typenum::UInt<digest::generic_array::typenum::UTerm, digest::consts::B1>, digest::consts::B1>, digest::consts::B0>, digest::consts::B1>, digest::consts::B0>, digest::consts::B0>, digest::consts::B0>>"** %self.dbg.spill, metadata !754, metadata !DIExpression()), !dbg !784
  call void @llvm.dbg.declare(metadata { [0 x i8]*, i64 }* %input, metadata !755, metadata !DIExpression()), !dbg !785
  call void @llvm.dbg.declare(metadata i64** %f, metadata !756, metadata !DIExpression()), !dbg !786
  call void @llvm.dbg.declare(metadata %"core::slice::ChunksExact<u8>"* %chunks_iter, metadata !764, metadata !DIExpression()), !dbg !787
  call void @llvm.dbg.declare(metadata %"core::slice::ChunksExact<u8>"** %iter, metadata !771, metadata !DIExpression()), !dbg !788
; call block_buffer::BlockBuffer<BlockSize>::remaining
  %r = call i64 @"_ZN12block_buffer28BlockBuffer$LT$BlockSize$GT$9remaining17hdcd24272fd63a66eE"(%"block_buffer::BlockBuffer<digest::generic_array::typenum::UInt<digest::generic_array::typenum::UInt<digest::generic_array::typenum::UInt<digest::generic_array::typenum::UInt<digest::generic_array::typenum::UInt<digest::generic_array::typenum::UInt<digest::generic_array::typenum::UInt<digest::generic_array::typenum::UTerm, digest::consts::B1>, digest::consts::B1>, digest::consts::B0>, digest::consts::B1>, digest::consts::B0>, digest::consts::B0>, digest::consts::B0>>"* align 8 dereferenceable(112) %self), !dbg !789
  store i64 %r, i64* %r.dbg.spill, align 8, !dbg !789
  call void @llvm.dbg.declare(metadata i64* %r.dbg.spill, metadata !757, metadata !DIExpression()), !dbg !790
  br label %bb1, !dbg !789

bb1:                                              ; preds = %start
  %5 = getelementptr inbounds { [0 x i8]*, i64 }, { [0 x i8]*, i64 }* %input, i32 0, i32 0, !dbg !791
  %_8.0 = load [0 x i8]*, [0 x i8]** %5, align 8, !dbg !791, !nonnull !4
  %6 = getelementptr inbounds { [0 x i8]*, i64 }, { [0 x i8]*, i64 }* %input, i32 0, i32 1, !dbg !791
  %_8.1 = load i64, i64* %6, align 8, !dbg !791
  %_6 = icmp ult i64 %_8.1, %r, !dbg !791
  br i1 %_6, label %bb2, label %bb8, !dbg !791

bb8:                                              ; preds = %bb1
  %7 = bitcast %"block_buffer::BlockBuffer<digest::generic_array::typenum::UInt<digest::generic_array::typenum::UInt<digest::generic_array::typenum::UInt<digest::generic_array::typenum::UInt<digest::generic_array::typenum::UInt<digest::generic_array::typenum::UInt<digest::generic_array::typenum::UInt<digest::generic_array::typenum::UTerm, digest::consts::B1>, digest::consts::B1>, digest::consts::B0>, digest::consts::B1>, digest::consts::B0>, digest::consts::B0>, digest::consts::B0>>"* %self to i64*, !dbg !792
  %_28 = load i64, i64* %7, align 8, !dbg !792
  %8 = icmp eq i64 %_28, 0, !dbg !792
  br i1 %8, label %bb9, label %bb10, !dbg !792

bb2:                                              ; preds = %bb1
  %9 = getelementptr inbounds { [0 x i8]*, i64 }, { [0 x i8]*, i64 }* %input, i32 0, i32 0, !dbg !793
  %_11.0 = load [0 x i8]*, [0 x i8]** %9, align 8, !dbg !793, !nonnull !4
  %10 = getelementptr inbounds { [0 x i8]*, i64 }, { [0 x i8]*, i64 }* %input, i32 0, i32 1, !dbg !793
  %_11.1 = load i64, i64* %10, align 8, !dbg !793
  store i64 %_11.1, i64* %n.dbg.spill, align 8, !dbg !793
  call void @llvm.dbg.declare(metadata i64* %n.dbg.spill, metadata !759, metadata !DIExpression()), !dbg !794
  %_17 = getelementptr inbounds %"block_buffer::BlockBuffer<digest::generic_array::typenum::UInt<digest::generic_array::typenum::UInt<digest::generic_array::typenum::UInt<digest::generic_array::typenum::UInt<digest::generic_array::typenum::UInt<digest::generic_array::typenum::UInt<digest::generic_array::typenum::UInt<digest::generic_array::typenum::UTerm, digest::consts::B1>, digest::consts::B1>, digest::consts::B0>, digest::consts::B1>, digest::consts::B0>, digest::consts::B0>, digest::consts::B0>>", %"block_buffer::BlockBuffer<digest::generic_array::typenum::UInt<digest::generic_array::typenum::UInt<digest::generic_array::typenum::UInt<digest::generic_array::typenum::UInt<digest::generic_array::typenum::UInt<digest::generic_array::typenum::UInt<digest::generic_array::typenum::UInt<digest::generic_array::typenum::UTerm, digest::consts::B1>, digest::consts::B1>, digest::consts::B0>, digest::consts::B1>, digest::consts::B0>, digest::consts::B0>, digest::consts::B0>>"* %self, i32 0, i32 1, !dbg !795
  store %"digest::generic_array::GenericArray<u8, digest::generic_array::typenum::UInt<digest::generic_array::typenum::UInt<digest::generic_array::typenum::UInt<digest::generic_array::typenum::UInt<digest::generic_array::typenum::UInt<digest::generic_array::typenum::UInt<digest::generic_array::typenum::UInt<digest::generic_array::typenum::UTerm, digest::consts::B1>, digest::consts::B1>, digest::consts::B0>, digest::consts::B1>, digest::consts::B0>, digest::consts::B0>, digest::consts::B0>>"* %_17, %"digest::generic_array::GenericArray<u8, digest::generic_array::typenum::UInt<digest::generic_array::typenum::UInt<digest::generic_array::typenum::UInt<digest::generic_array::typenum::UInt<digest::generic_array::typenum::UInt<digest::generic_array::typenum::UInt<digest::generic_array::typenum::UInt<digest::generic_array::typenum::UTerm, digest::consts::B1>, digest::consts::B1>, digest::consts::B0>, digest::consts::B1>, digest::consts::B0>, digest::consts::B0>, digest::consts::B0>>"** %self.dbg.spill.i, align 8
  call void @llvm.dbg.declare(metadata %"digest::generic_array::GenericArray<u8, digest::generic_array::typenum::UInt<digest::generic_array::typenum::UInt<digest::generic_array::typenum::UInt<digest::generic_array::typenum::UInt<digest::generic_array::typenum::UInt<digest::generic_array::typenum::UInt<digest::generic_array::typenum::UInt<digest::generic_array::typenum::UTerm, digest::consts::B1>, digest::consts::B1>, digest::consts::B0>, digest::consts::B1>, digest::consts::B0>, digest::consts::B0>, digest::consts::B0>>"** %self.dbg.spill.i, metadata !796, metadata !DIExpression()) #9, !dbg !807
  %_5.i = bitcast %"digest::generic_array::GenericArray<u8, digest::generic_array::typenum::UInt<digest::generic_array::typenum::UInt<digest::generic_array::typenum::UInt<digest::generic_array::typenum::UInt<digest::generic_array::typenum::UInt<digest::generic_array::typenum::UInt<digest::generic_array::typenum::UInt<digest::generic_array::typenum::UTerm, digest::consts::B1>, digest::consts::B1>, digest::consts::B0>, digest::consts::B1>, digest::consts::B0>, digest::consts::B0>, digest::consts::B0>>"* %_17 to i8*, !dbg !809
; call core::slice::raw::from_raw_parts_mut
  %11 = call { [0 x i8]*, i64 } @_ZN4core5slice3raw18from_raw_parts_mut17h4f9993b78f2e4c1fE(i8* %_5.i, i64 104) #9, !dbg !810
  %_4.0.i = extractvalue { [0 x i8]*, i64 } %11, 0, !dbg !810
  %_4.1.i = extractvalue { [0 x i8]*, i64 } %11, 1, !dbg !810
  %_16.0 = extractvalue { [0 x i8]*, i64 } %11, 0, !dbg !795
  %_16.1 = extractvalue { [0 x i8]*, i64 } %11, 1, !dbg !795
  br label %bb3, !dbg !795

bb3:                                              ; preds = %bb2
  %12 = bitcast %"block_buffer::BlockBuffer<digest::generic_array::typenum::UInt<digest::generic_array::typenum::UInt<digest::generic_array::typenum::UInt<digest::generic_array::typenum::UInt<digest::generic_array::typenum::UInt<digest::generic_array::typenum::UInt<digest::generic_array::typenum::UInt<digest::generic_array::typenum::UTerm, digest::consts::B1>, digest::consts::B1>, digest::consts::B0>, digest::consts::B1>, digest::consts::B0>, digest::consts::B0>, digest::consts::B0>>"* %self to i64*, !dbg !811
  %_19 = load i64, i64* %12, align 8, !dbg !811
  %13 = bitcast %"block_buffer::BlockBuffer<digest::generic_array::typenum::UInt<digest::generic_array::typenum::UInt<digest::generic_array::typenum::UInt<digest::generic_array::typenum::UInt<digest::generic_array::typenum::UInt<digest::generic_array::typenum::UInt<digest::generic_array::typenum::UInt<digest::generic_array::typenum::UTerm, digest::consts::B1>, digest::consts::B1>, digest::consts::B0>, digest::consts::B1>, digest::consts::B0>, digest::consts::B0>, digest::consts::B0>>"* %self to i64*, !dbg !812
  %_21 = load i64, i64* %13, align 8, !dbg !812
  %14 = call { i64, i1 } @llvm.uadd.with.overflow.i64(i64 %_21, i64 %_11.1), !dbg !812
  %_23.0 = extractvalue { i64, i1 } %14, 0, !dbg !812
  %_23.1 = extractvalue { i64, i1 } %14, 1, !dbg !812
  %15 = call i1 @llvm.expect.i1(i1 %_23.1, i1 false), !dbg !812
  br i1 %15, label %panic, label %bb4, !dbg !812

bb4:                                              ; preds = %bb3
  %16 = bitcast { i64, i64 }* %_18 to i64*, !dbg !811
  store i64 %_19, i64* %16, align 8, !dbg !811
  %17 = getelementptr inbounds { i64, i64 }, { i64, i64 }* %_18, i32 0, i32 1, !dbg !811
  store i64 %_23.0, i64* %17, align 8, !dbg !811
  %18 = getelementptr inbounds { i64, i64 }, { i64, i64 }* %_18, i32 0, i32 0, !dbg !795
  %19 = load i64, i64* %18, align 8, !dbg !795
  %20 = getelementptr inbounds { i64, i64 }, { i64, i64 }* %_18, i32 0, i32 1, !dbg !795
  %21 = load i64, i64* %20, align 8, !dbg !795
; call core::slice::index::<impl core::ops::index::IndexMut<I> for [T]>::index_mut
  %22 = call { [0 x i8]*, i64 } @"_ZN4core5slice5index77_$LT$impl$u20$core..ops..index..IndexMut$LT$I$GT$$u20$for$u20$$u5b$T$u5d$$GT$9index_mut17hb60169623bf286d0E"([0 x i8]* nonnull align 1 %_16.0, i64 %_16.1, i64 %19, i64 %21, %"core::panic::Location"* align 8 dereferenceable(24) bitcast (<{ i8*, [16 x i8] }>* @alloc412 to %"core::panic::Location"*)), !dbg !795
  %_14.0 = extractvalue { [0 x i8]*, i64 } %22, 0, !dbg !795
  %_14.1 = extractvalue { [0 x i8]*, i64 } %22, 1, !dbg !795
  br label %bb5, !dbg !795

panic:                                            ; preds = %bb3
; call core::panicking::panic
  call void @_ZN4core9panicking5panic17h560e3e4b7752857aE([0 x i8]* nonnull align 1 bitcast ([28 x i8]* @str.0 to [0 x i8]*), i64 28, %"core::panic::Location"* align 8 dereferenceable(24) bitcast (<{ i8*, [16 x i8] }>* @alloc410 to %"core::panic::Location"*)), !dbg !812
  unreachable, !dbg !812

bb5:                                              ; preds = %bb4
  %23 = getelementptr inbounds { [0 x i8]*, i64 }, { [0 x i8]*, i64 }* %input, i32 0, i32 0, !dbg !813
  %_24.0 = load [0 x i8]*, [0 x i8]** %23, align 8, !dbg !813, !nonnull !4
  %24 = getelementptr inbounds { [0 x i8]*, i64 }, { [0 x i8]*, i64 }* %input, i32 0, i32 1, !dbg !813
  %_24.1 = load i64, i64* %24, align 8, !dbg !813
; call core::slice::<impl [T]>::copy_from_slice
  call void @"_ZN4core5slice29_$LT$impl$u20$$u5b$T$u5d$$GT$15copy_from_slice17hadd709d225153750E"([0 x i8]* nonnull align 1 %_14.0, i64 %_14.1, [0 x i8]* nonnull align 1 %_24.0, i64 %_24.1), !dbg !795
  br label %bb6, !dbg !795

bb6:                                              ; preds = %bb5
  %25 = bitcast %"block_buffer::BlockBuffer<digest::generic_array::typenum::UInt<digest::generic_array::typenum::UInt<digest::generic_array::typenum::UInt<digest::generic_array::typenum::UInt<digest::generic_array::typenum::UInt<digest::generic_array::typenum::UInt<digest::generic_array::typenum::UInt<digest::generic_array::typenum::UTerm, digest::consts::B1>, digest::consts::B1>, digest::consts::B0>, digest::consts::B1>, digest::consts::B0>, digest::consts::B0>, digest::consts::B0>>"* %self to i64*, !dbg !814
  %26 = load i64, i64* %25, align 8, !dbg !814
  %27 = call { i64, i1 } @llvm.uadd.with.overflow.i64(i64 %26, i64 %_11.1), !dbg !814
  %_26.0 = extractvalue { i64, i1 } %27, 0, !dbg !814
  %_26.1 = extractvalue { i64, i1 } %27, 1, !dbg !814
  %28 = call i1 @llvm.expect.i1(i1 %_26.1, i1 false), !dbg !814
  br i1 %28, label %panic1, label %bb7, !dbg !814

bb7:                                              ; preds = %bb6
  %29 = bitcast %"block_buffer::BlockBuffer<digest::generic_array::typenum::UInt<digest::generic_array::typenum::UInt<digest::generic_array::typenum::UInt<digest::generic_array::typenum::UInt<digest::generic_array::typenum::UInt<digest::generic_array::typenum::UInt<digest::generic_array::typenum::UInt<digest::generic_array::typenum::UTerm, digest::consts::B1>, digest::consts::B1>, digest::consts::B0>, digest::consts::B1>, digest::consts::B0>, digest::consts::B0>, digest::consts::B0>>"* %self to i64*, !dbg !814
  store i64 %_26.0, i64* %29, align 8, !dbg !814
  br label %bb32, !dbg !815

panic1:                                           ; preds = %bb6
; call core::panicking::panic
  call void @_ZN4core9panicking5panic17h560e3e4b7752857aE([0 x i8]* nonnull align 1 bitcast ([28 x i8]* @str.0 to [0 x i8]*), i64 28, %"core::panic::Location"* align 8 dereferenceable(24) bitcast (<{ i8*, [16 x i8] }>* @alloc414 to %"core::panic::Location"*)), !dbg !814
  unreachable, !dbg !814

bb32:                                             ; preds = %bb31, %bb7
  ret void, !dbg !816

bb9:                                              ; preds = %bb8
  store i8 0, i8* %_27, align 1, !dbg !792
  br label %bb11, !dbg !792

bb10:                                             ; preds = %bb8
  %30 = getelementptr inbounds { [0 x i8]*, i64 }, { [0 x i8]*, i64 }* %input, i32 0, i32 0, !dbg !817
  %_31.0 = load [0 x i8]*, [0 x i8]** %30, align 8, !dbg !817, !nonnull !4
  %31 = getelementptr inbounds { [0 x i8]*, i64 }, { [0 x i8]*, i64 }* %input, i32 0, i32 1, !dbg !817
  %_31.1 = load i64, i64* %31, align 8, !dbg !817
  %_29 = icmp uge i64 %_31.1, %r, !dbg !817
  %32 = zext i1 %_29 to i8, !dbg !792
  store i8 %32, i8* %_27, align 1, !dbg !792
  br label %bb11, !dbg !792

bb11:                                             ; preds = %bb9, %bb10
  %33 = load i8, i8* %_27, align 1, !dbg !792, !range !716
  %34 = trunc i8 %33 to i1, !dbg !792
  br i1 %34, label %bb12, label %bb17, !dbg !792

bb17:                                             ; preds = %bb16, %bb11
  %35 = getelementptr inbounds { [0 x i8]*, i64 }, { [0 x i8]*, i64 }* %input, i32 0, i32 0, !dbg !818
  %_54.0 = load [0 x i8]*, [0 x i8]** %35, align 8, !dbg !818, !nonnull !4
  %36 = getelementptr inbounds { [0 x i8]*, i64 }, { [0 x i8]*, i64 }* %input, i32 0, i32 1, !dbg !818
  %_54.1 = load i64, i64* %36, align 8, !dbg !818
; call block_buffer::BlockBuffer<BlockSize>::size
  %_55 = call i64 @"_ZN12block_buffer28BlockBuffer$LT$BlockSize$GT$4size17h61db04538517a75aE"(%"block_buffer::BlockBuffer<digest::generic_array::typenum::UInt<digest::generic_array::typenum::UInt<digest::generic_array::typenum::UInt<digest::generic_array::typenum::UInt<digest::generic_array::typenum::UInt<digest::generic_array::typenum::UInt<digest::generic_array::typenum::UInt<digest::generic_array::typenum::UTerm, digest::consts::B1>, digest::consts::B1>, digest::consts::B0>, digest::consts::B1>, digest::consts::B0>, digest::consts::B0>, digest::consts::B0>>"* align 8 dereferenceable(112) %self), !dbg !819
  br label %bb18, !dbg !819

bb12:                                             ; preds = %bb11
  %37 = getelementptr inbounds { [0 x i8]*, i64 }, { [0 x i8]*, i64 }* %input, i32 0, i32 0, !dbg !820
  %_36.0 = load [0 x i8]*, [0 x i8]** %37, align 8, !dbg !820, !nonnull !4
  %38 = getelementptr inbounds { [0 x i8]*, i64 }, { [0 x i8]*, i64 }* %input, i32 0, i32 1, !dbg !820
  %_36.1 = load i64, i64* %38, align 8, !dbg !820
; call core::slice::<impl [T]>::split_at
  call void @"_ZN4core5slice29_$LT$impl$u20$$u5b$T$u5d$$GT$8split_at17h2c16e77906b976e8E"({ { [0 x i8]*, i64 }, { [0 x i8]*, i64 } }* noalias nocapture sret({ { [0 x i8]*, i64 }, { [0 x i8]*, i64 } }) dereferenceable(32) %_35, [0 x i8]* nonnull align 1 %_36.0, i64 %_36.1, i64 %r), !dbg !820
  br label %bb13, !dbg !820

bb13:                                             ; preds = %bb12
  %39 = bitcast { { [0 x i8]*, i64 }, { [0 x i8]*, i64 } }* %_35 to { [0 x i8]*, i64 }*, !dbg !821
  %40 = getelementptr inbounds { [0 x i8]*, i64 }, { [0 x i8]*, i64 }* %39, i32 0, i32 0, !dbg !821
  %l.0 = load [0 x i8]*, [0 x i8]** %40, align 8, !dbg !821, !nonnull !4
  %41 = getelementptr inbounds { [0 x i8]*, i64 }, { [0 x i8]*, i64 }* %39, i32 0, i32 1, !dbg !821
  %l.1 = load i64, i64* %41, align 8, !dbg !821
  %42 = getelementptr inbounds { [0 x i8]*, i64 }, { [0 x i8]*, i64 }* %l.dbg.spill, i32 0, i32 0, !dbg !821
  store [0 x i8]* %l.0, [0 x i8]** %42, align 8, !dbg !821
  %43 = getelementptr inbounds { [0 x i8]*, i64 }, { [0 x i8]*, i64 }* %l.dbg.spill, i32 0, i32 1, !dbg !821
  store i64 %l.1, i64* %43, align 8, !dbg !821
  call void @llvm.dbg.declare(metadata { [0 x i8]*, i64 }* %l.dbg.spill, metadata !761, metadata !DIExpression()), !dbg !822
  %44 = getelementptr inbounds { { [0 x i8]*, i64 }, { [0 x i8]*, i64 } }, { { [0 x i8]*, i64 }, { [0 x i8]*, i64 } }* %_35, i32 0, i32 1, !dbg !823
  %45 = getelementptr inbounds { [0 x i8]*, i64 }, { [0 x i8]*, i64 }* %44, i32 0, i32 0, !dbg !823
  %r.0 = load [0 x i8]*, [0 x i8]** %45, align 8, !dbg !823, !nonnull !4
  %46 = getelementptr inbounds { [0 x i8]*, i64 }, { [0 x i8]*, i64 }* %44, i32 0, i32 1, !dbg !823
  %r.1 = load i64, i64* %46, align 8, !dbg !823
  %47 = getelementptr inbounds { [0 x i8]*, i64 }, { [0 x i8]*, i64 }* %r.dbg.spill2, i32 0, i32 0, !dbg !823
  store [0 x i8]* %r.0, [0 x i8]** %47, align 8, !dbg !823
  %48 = getelementptr inbounds { [0 x i8]*, i64 }, { [0 x i8]*, i64 }* %r.dbg.spill2, i32 0, i32 1, !dbg !823
  store i64 %r.1, i64* %48, align 8, !dbg !823
  call void @llvm.dbg.declare(metadata { [0 x i8]*, i64 }* %r.dbg.spill2, metadata !763, metadata !DIExpression()), !dbg !824
  %49 = getelementptr inbounds { [0 x i8]*, i64 }, { [0 x i8]*, i64 }* %input, i32 0, i32 0, !dbg !825
  store [0 x i8]* %r.0, [0 x i8]** %49, align 8, !dbg !825
  %50 = getelementptr inbounds { [0 x i8]*, i64 }, { [0 x i8]*, i64 }* %input, i32 0, i32 1, !dbg !825
  store i64 %r.1, i64* %50, align 8, !dbg !825
  %_44 = getelementptr inbounds %"block_buffer::BlockBuffer<digest::generic_array::typenum::UInt<digest::generic_array::typenum::UInt<digest::generic_array::typenum::UInt<digest::generic_array::typenum::UInt<digest::generic_array::typenum::UInt<digest::generic_array::typenum::UInt<digest::generic_array::typenum::UInt<digest::generic_array::typenum::UTerm, digest::consts::B1>, digest::consts::B1>, digest::consts::B0>, digest::consts::B1>, digest::consts::B0>, digest::consts::B0>, digest::consts::B0>>", %"block_buffer::BlockBuffer<digest::generic_array::typenum::UInt<digest::generic_array::typenum::UInt<digest::generic_array::typenum::UInt<digest::generic_array::typenum::UInt<digest::generic_array::typenum::UInt<digest::generic_array::typenum::UInt<digest::generic_array::typenum::UInt<digest::generic_array::typenum::UTerm, digest::consts::B1>, digest::consts::B1>, digest::consts::B0>, digest::consts::B1>, digest::consts::B0>, digest::consts::B0>, digest::consts::B0>>"* %self, i32 0, i32 1, !dbg !826
  store %"digest::generic_array::GenericArray<u8, digest::generic_array::typenum::UInt<digest::generic_array::typenum::UInt<digest::generic_array::typenum::UInt<digest::generic_array::typenum::UInt<digest::generic_array::typenum::UInt<digest::generic_array::typenum::UInt<digest::generic_array::typenum::UInt<digest::generic_array::typenum::UTerm, digest::consts::B1>, digest::consts::B1>, digest::consts::B0>, digest::consts::B1>, digest::consts::B0>, digest::consts::B0>, digest::consts::B0>>"* %_44, %"digest::generic_array::GenericArray<u8, digest::generic_array::typenum::UInt<digest::generic_array::typenum::UInt<digest::generic_array::typenum::UInt<digest::generic_array::typenum::UInt<digest::generic_array::typenum::UInt<digest::generic_array::typenum::UInt<digest::generic_array::typenum::UInt<digest::generic_array::typenum::UTerm, digest::consts::B1>, digest::consts::B1>, digest::consts::B0>, digest::consts::B1>, digest::consts::B0>, digest::consts::B0>, digest::consts::B0>>"** %self.dbg.spill.i3, align 8
  call void @llvm.dbg.declare(metadata %"digest::generic_array::GenericArray<u8, digest::generic_array::typenum::UInt<digest::generic_array::typenum::UInt<digest::generic_array::typenum::UInt<digest::generic_array::typenum::UInt<digest::generic_array::typenum::UInt<digest::generic_array::typenum::UInt<digest::generic_array::typenum::UInt<digest::generic_array::typenum::UTerm, digest::consts::B1>, digest::consts::B1>, digest::consts::B0>, digest::consts::B1>, digest::consts::B0>, digest::consts::B0>, digest::consts::B0>>"** %self.dbg.spill.i3, metadata !796, metadata !DIExpression()) #9, !dbg !827
  %_5.i4 = bitcast %"digest::generic_array::GenericArray<u8, digest::generic_array::typenum::UInt<digest::generic_array::typenum::UInt<digest::generic_array::typenum::UInt<digest::generic_array::typenum::UInt<digest::generic_array::typenum::UInt<digest::generic_array::typenum::UInt<digest::generic_array::typenum::UInt<digest::generic_array::typenum::UTerm, digest::consts::B1>, digest::consts::B1>, digest::consts::B0>, digest::consts::B1>, digest::consts::B0>, digest::consts::B0>, digest::consts::B0>>"* %_44 to i8*, !dbg !829
; call core::slice::raw::from_raw_parts_mut
  %51 = call { [0 x i8]*, i64 } @_ZN4core5slice3raw18from_raw_parts_mut17h4f9993b78f2e4c1fE(i8* %_5.i4, i64 104) #9, !dbg !830
  %_4.0.i5 = extractvalue { [0 x i8]*, i64 } %51, 0, !dbg !830
  %_4.1.i6 = extractvalue { [0 x i8]*, i64 } %51, 1, !dbg !830
  %_43.0 = extractvalue { [0 x i8]*, i64 } %51, 0, !dbg !826
  %_43.1 = extractvalue { [0 x i8]*, i64 } %51, 1, !dbg !826
  br label %bb14, !dbg !826

bb14:                                             ; preds = %bb13
  %52 = bitcast %"block_buffer::BlockBuffer<digest::generic_array::typenum::UInt<digest::generic_array::typenum::UInt<digest::generic_array::typenum::UInt<digest::generic_array::typenum::UInt<digest::generic_array::typenum::UInt<digest::generic_array::typenum::UInt<digest::generic_array::typenum::UInt<digest::generic_array::typenum::UTerm, digest::consts::B1>, digest::consts::B1>, digest::consts::B0>, digest::consts::B1>, digest::consts::B0>, digest::consts::B0>, digest::consts::B0>>"* %self to i64*, !dbg !831
  %_46 = load i64, i64* %52, align 8, !dbg !831
  store i64 %_46, i64* %_45, align 8, !dbg !831
  %53 = load i64, i64* %_45, align 8, !dbg !826
; call core::slice::index::<impl core::ops::index::IndexMut<I> for [T]>::index_mut
  %54 = call { [0 x i8]*, i64 } @"_ZN4core5slice5index77_$LT$impl$u20$core..ops..index..IndexMut$LT$I$GT$$u20$for$u20$$u5b$T$u5d$$GT$9index_mut17h35fc9b05895a83dfE"([0 x i8]* nonnull align 1 %_43.0, i64 %_43.1, i64 %53, %"core::panic::Location"* align 8 dereferenceable(24) bitcast (<{ i8*, [16 x i8] }>* @alloc416 to %"core::panic::Location"*)), !dbg !826
  %_41.0 = extractvalue { [0 x i8]*, i64 } %54, 0, !dbg !826
  %_41.1 = extractvalue { [0 x i8]*, i64 } %54, 1, !dbg !826
  br label %bb15, !dbg !826

bb15:                                             ; preds = %bb14
; call core::slice::<impl [T]>::copy_from_slice
  call void @"_ZN4core5slice29_$LT$impl$u20$$u5b$T$u5d$$GT$15copy_from_slice17hadd709d225153750E"([0 x i8]* nonnull align 1 %_41.0, i64 %_41.1, [0 x i8]* nonnull align 1 %l.0, i64 %l.1), !dbg !826
  br label %bb16, !dbg !826

bb16:                                             ; preds = %bb15
  %_52 = getelementptr inbounds %"block_buffer::BlockBuffer<digest::generic_array::typenum::UInt<digest::generic_array::typenum::UInt<digest::generic_array::typenum::UInt<digest::generic_array::typenum::UInt<digest::generic_array::typenum::UInt<digest::generic_array::typenum::UInt<digest::generic_array::typenum::UInt<digest::generic_array::typenum::UTerm, digest::consts::B1>, digest::consts::B1>, digest::consts::B0>, digest::consts::B1>, digest::consts::B0>, digest::consts::B0>, digest::consts::B0>>", %"block_buffer::BlockBuffer<digest::generic_array::typenum::UInt<digest::generic_array::typenum::UInt<digest::generic_array::typenum::UInt<digest::generic_array::typenum::UInt<digest::generic_array::typenum::UInt<digest::generic_array::typenum::UInt<digest::generic_array::typenum::UInt<digest::generic_array::typenum::UTerm, digest::consts::B1>, digest::consts::B1>, digest::consts::B0>, digest::consts::B1>, digest::consts::B0>, digest::consts::B0>, digest::consts::B0>>"* %self, i32 0, i32 1, !dbg !832
  %55 = bitcast i8** %_50 to %"digest::generic_array::GenericArray<u8, digest::generic_array::typenum::UInt<digest::generic_array::typenum::UInt<digest::generic_array::typenum::UInt<digest::generic_array::typenum::UInt<digest::generic_array::typenum::UInt<digest::generic_array::typenum::UInt<digest::generic_array::typenum::UInt<digest::generic_array::typenum::UTerm, digest::consts::B1>, digest::consts::B1>, digest::consts::B0>, digest::consts::B1>, digest::consts::B0>, digest::consts::B0>, digest::consts::B0>>"**, !dbg !833
  store %"digest::generic_array::GenericArray<u8, digest::generic_array::typenum::UInt<digest::generic_array::typenum::UInt<digest::generic_array::typenum::UInt<digest::generic_array::typenum::UInt<digest::generic_array::typenum::UInt<digest::generic_array::typenum::UInt<digest::generic_array::typenum::UInt<digest::generic_array::typenum::UTerm, digest::consts::B1>, digest::consts::B1>, digest::consts::B0>, digest::consts::B1>, digest::consts::B0>, digest::consts::B0>, digest::consts::B0>>"* %_52, %"digest::generic_array::GenericArray<u8, digest::generic_array::typenum::UInt<digest::generic_array::typenum::UInt<digest::generic_array::typenum::UInt<digest::generic_array::typenum::UInt<digest::generic_array::typenum::UInt<digest::generic_array::typenum::UInt<digest::generic_array::typenum::UInt<digest::generic_array::typenum::UTerm, digest::consts::B1>, digest::consts::B1>, digest::consts::B0>, digest::consts::B1>, digest::consts::B0>, digest::consts::B0>, digest::consts::B0>>"** %55, align 8, !dbg !833
  %56 = load i8*, i8** %_50, align 8, !dbg !833, !nonnull !4
  %57 = bitcast i8* %56 to %"digest::generic_array::GenericArray<u8, digest::generic_array::typenum::UInt<digest::generic_array::typenum::UInt<digest::generic_array::typenum::UInt<digest::generic_array::typenum::UInt<digest::generic_array::typenum::UInt<digest::generic_array::typenum::UInt<digest::generic_array::typenum::UInt<digest::generic_array::typenum::UTerm, digest::consts::B1>, digest::consts::B1>, digest::consts::B0>, digest::consts::B1>, digest::consts::B0>, digest::consts::B0>, digest::consts::B0>>"*, !dbg !833
; call sha3::Sha3_384::absorb::{{closure}}
  call void @"_ZN4sha38Sha3_3846absorb28_$u7b$$u7b$closure$u7d$$u7d$17hbdbb935b8979a899E"(i64** align 8 dereferenceable(8) %f, %"digest::generic_array::GenericArray<u8, digest::generic_array::typenum::UInt<digest::generic_array::typenum::UInt<digest::generic_array::typenum::UInt<digest::generic_array::typenum::UInt<digest::generic_array::typenum::UInt<digest::generic_array::typenum::UInt<digest::generic_array::typenum::UInt<digest::generic_array::typenum::UTerm, digest::consts::B1>, digest::consts::B1>, digest::consts::B0>, digest::consts::B1>, digest::consts::B0>, digest::consts::B0>, digest::consts::B0>>"* align 1 dereferenceable(104) %57), !dbg !833
  br label %bb17, !dbg !833

bb18:                                             ; preds = %bb17
; call core::slice::<impl [T]>::chunks_exact
  call void @"_ZN4core5slice29_$LT$impl$u20$$u5b$T$u5d$$GT$12chunks_exact17h41c9c983bd7cb9ceE"(%"core::slice::ChunksExact<u8>"* noalias nocapture sret(%"core::slice::ChunksExact<u8>") dereferenceable(40) %chunks_iter, [0 x i8]* nonnull align 1 %_54.0, i64 %_54.1, i64 %_55), !dbg !818
  br label %bb19, !dbg !818

bb19:                                             ; preds = %bb18
; call <I as core::iter::traits::collect::IntoIterator>::into_iter
  %_57 = call align 8 dereferenceable(40) %"core::slice::ChunksExact<u8>"* @"_ZN63_$LT$I$u20$as$u20$core..iter..traits..collect..IntoIterator$GT$9into_iter17h766d323de353e683E"(%"core::slice::ChunksExact<u8>"* align 8 dereferenceable(40) %chunks_iter), !dbg !834
  br label %bb20, !dbg !834

bb20:                                             ; preds = %bb19
  store %"core::slice::ChunksExact<u8>"* %_57, %"core::slice::ChunksExact<u8>"** %iter, align 8, !dbg !834
  br label %bb21, !dbg !835

bb21:                                             ; preds = %bb27, %bb20
; call <&mut I as core::iter::traits::iterator::Iterator>::next
  %58 = call { i8*, i64 } @"_ZN72_$LT$$RF$mut$u20$I$u20$as$u20$core..iter..traits..iterator..Iterator$GT$4next17h87737b78cc35db92E"(%"core::slice::ChunksExact<u8>"** align 8 dereferenceable(8) %iter), !dbg !836
  store { i8*, i64 } %58, { i8*, i64 }* %_61, align 8, !dbg !836
  br label %bb22, !dbg !836

bb22:                                             ; preds = %bb21
  %59 = bitcast { i8*, i64 }* %_61 to {}**, !dbg !836
  %60 = load {}*, {}** %59, align 8, !dbg !836
  %61 = icmp eq {}* %60, null, !dbg !836
  %_64 = select i1 %61, i64 0, i64 1, !dbg !836
  switch i64 %_64, label %bb24 [
    i64 0, label %bb23
    i64 1, label %bb25
  ], !dbg !836

bb24:                                             ; preds = %bb22
  unreachable, !dbg !836

bb23:                                             ; preds = %bb22
; call core::slice::iter::ChunksExact<T>::remainder
  %62 = call { [0 x i8]*, i64 } @"_ZN4core5slice4iter20ChunksExact$LT$T$GT$9remainder17h490ed66fe7fb2994E"(%"core::slice::ChunksExact<u8>"* align 8 dereferenceable(40) %chunks_iter), !dbg !837
  %rem.0 = extractvalue { [0 x i8]*, i64 } %62, 0, !dbg !837
  %rem.1 = extractvalue { [0 x i8]*, i64 } %62, 1, !dbg !837
  %63 = getelementptr inbounds { [0 x i8]*, i64 }, { [0 x i8]*, i64 }* %rem.dbg.spill, i32 0, i32 0, !dbg !837
  store [0 x i8]* %rem.0, [0 x i8]** %63, align 8, !dbg !837
  %64 = getelementptr inbounds { [0 x i8]*, i64 }, { [0 x i8]*, i64 }* %rem.dbg.spill, i32 0, i32 1, !dbg !837
  store i64 %rem.1, i64* %64, align 8, !dbg !837
  call void @llvm.dbg.declare(metadata { [0 x i8]*, i64 }* %rem.dbg.spill, metadata !780, metadata !DIExpression()), !dbg !838
  br label %bb28, !dbg !837

bb25:                                             ; preds = %bb22
  %65 = bitcast { i8*, i64 }* %_61 to { [0 x i8]*, i64 }*, !dbg !839
  %66 = getelementptr inbounds { [0 x i8]*, i64 }, { [0 x i8]*, i64 }* %65, i32 0, i32 0, !dbg !839
  %val.0 = load [0 x i8]*, [0 x i8]** %66, align 8, !dbg !839, !nonnull !4
  %67 = getelementptr inbounds { [0 x i8]*, i64 }, { [0 x i8]*, i64 }* %65, i32 0, i32 1, !dbg !839
  %val.1 = load i64, i64* %67, align 8, !dbg !839
  %68 = getelementptr inbounds { [0 x i8]*, i64 }, { [0 x i8]*, i64 }* %val.dbg.spill, i32 0, i32 0, !dbg !839
  store [0 x i8]* %val.0, [0 x i8]** %68, align 8, !dbg !839
  %69 = getelementptr inbounds { [0 x i8]*, i64 }, { [0 x i8]*, i64 }* %val.dbg.spill, i32 0, i32 1, !dbg !839
  store i64 %val.1, i64* %69, align 8, !dbg !839
  call void @llvm.dbg.declare(metadata { [0 x i8]*, i64 }* %val.dbg.spill, metadata !776, metadata !DIExpression()), !dbg !840
  %70 = getelementptr inbounds { [0 x i8]*, i64 }, { [0 x i8]*, i64 }* %__next.dbg.spill, i32 0, i32 0, !dbg !840
  store [0 x i8]* %val.0, [0 x i8]** %70, align 8, !dbg !840
  %71 = getelementptr inbounds { [0 x i8]*, i64 }, { [0 x i8]*, i64 }* %__next.dbg.spill, i32 0, i32 1, !dbg !840
  store i64 %val.1, i64* %71, align 8, !dbg !840
  call void @llvm.dbg.declare(metadata { [0 x i8]*, i64 }* %__next.dbg.spill, metadata !774, metadata !DIExpression()), !dbg !836
  %72 = getelementptr inbounds { [0 x i8]*, i64 }, { [0 x i8]*, i64 }* %chunk.dbg.spill, i32 0, i32 0, !dbg !836
  store [0 x i8]* %val.0, [0 x i8]** %72, align 8, !dbg !836
  %73 = getelementptr inbounds { [0 x i8]*, i64 }, { [0 x i8]*, i64 }* %chunk.dbg.spill, i32 0, i32 1, !dbg !836
  store i64 %val.1, i64* %73, align 8, !dbg !836
  call void @llvm.dbg.declare(metadata { [0 x i8]*, i64 }* %chunk.dbg.spill, metadata !778, metadata !DIExpression()), !dbg !841
; call <T as core::convert::TryInto<U>>::try_into
  %_72 = call align 1 dereferenceable(104) i8* @"_ZN53_$LT$T$u20$as$u20$core..convert..TryInto$LT$U$GT$$GT$8try_into17h829dd874d8cfb626E"([0 x i8]* nonnull align 1 %val.0, i64 %val.1), !dbg !842
  br label %bb26, !dbg !842

bb26:                                             ; preds = %bb25
; call core::result::Result<T,E>::unwrap
  %_71 = call align 1 dereferenceable(104) %"digest::generic_array::GenericArray<u8, digest::generic_array::typenum::UInt<digest::generic_array::typenum::UInt<digest::generic_array::typenum::UInt<digest::generic_array::typenum::UInt<digest::generic_array::typenum::UInt<digest::generic_array::typenum::UInt<digest::generic_array::typenum::UInt<digest::generic_array::typenum::UTerm, digest::consts::B1>, digest::consts::B1>, digest::consts::B0>, digest::consts::B1>, digest::consts::B0>, digest::consts::B0>, digest::consts::B0>>"* @"_ZN4core6result19Result$LT$T$C$E$GT$6unwrap17h63608d76352075d1E"(i8* align 1 dereferenceable(104) %_72, %"core::panic::Location"* align 8 dereferenceable(24) bitcast (<{ i8*, [16 x i8] }>* @alloc418 to %"core::panic::Location"*)), !dbg !842
  br label %bb27, !dbg !842

bb27:                                             ; preds = %bb26
  %74 = bitcast i8** %_70 to %"digest::generic_array::GenericArray<u8, digest::generic_array::typenum::UInt<digest::generic_array::typenum::UInt<digest::generic_array::typenum::UInt<digest::generic_array::typenum::UInt<digest::generic_array::typenum::UInt<digest::generic_array::typenum::UInt<digest::generic_array::typenum::UInt<digest::generic_array::typenum::UTerm, digest::consts::B1>, digest::consts::B1>, digest::consts::B0>, digest::consts::B1>, digest::consts::B0>, digest::consts::B0>, digest::consts::B0>>"**, !dbg !843
  store %"digest::generic_array::GenericArray<u8, digest::generic_array::typenum::UInt<digest::generic_array::typenum::UInt<digest::generic_array::typenum::UInt<digest::generic_array::typenum::UInt<digest::generic_array::typenum::UInt<digest::generic_array::typenum::UInt<digest::generic_array::typenum::UInt<digest::generic_array::typenum::UTerm, digest::consts::B1>, digest::consts::B1>, digest::consts::B0>, digest::consts::B1>, digest::consts::B0>, digest::consts::B0>, digest::consts::B0>>"* %_71, %"digest::generic_array::GenericArray<u8, digest::generic_array::typenum::UInt<digest::generic_array::typenum::UInt<digest::generic_array::typenum::UInt<digest::generic_array::typenum::UInt<digest::generic_array::typenum::UInt<digest::generic_array::typenum::UInt<digest::generic_array::typenum::UInt<digest::generic_array::typenum::UTerm, digest::consts::B1>, digest::consts::B1>, digest::consts::B0>, digest::consts::B1>, digest::consts::B0>, digest::consts::B0>, digest::consts::B0>>"** %74, align 8, !dbg !843
  %75 = load i8*, i8** %_70, align 8, !dbg !843, !nonnull !4
  %76 = bitcast i8* %75 to %"digest::generic_array::GenericArray<u8, digest::generic_array::typenum::UInt<digest::generic_array::typenum::UInt<digest::generic_array::typenum::UInt<digest::generic_array::typenum::UInt<digest::generic_array::typenum::UInt<digest::generic_array::typenum::UInt<digest::generic_array::typenum::UInt<digest::generic_array::typenum::UTerm, digest::consts::B1>, digest::consts::B1>, digest::consts::B0>, digest::consts::B1>, digest::consts::B0>, digest::consts::B0>, digest::consts::B0>>"*, !dbg !843
; call sha3::Sha3_384::absorb::{{closure}}
  call void @"_ZN4sha38Sha3_3846absorb28_$u7b$$u7b$closure$u7d$$u7d$17hbdbb935b8979a899E"(i64** align 8 dereferenceable(8) %f, %"digest::generic_array::GenericArray<u8, digest::generic_array::typenum::UInt<digest::generic_array::typenum::UInt<digest::generic_array::typenum::UInt<digest::generic_array::typenum::UInt<digest::generic_array::typenum::UInt<digest::generic_array::typenum::UInt<digest::generic_array::typenum::UInt<digest::generic_array::typenum::UTerm, digest::consts::B1>, digest::consts::B1>, digest::consts::B0>, digest::consts::B1>, digest::consts::B0>, digest::consts::B0>, digest::consts::B0>>"* align 1 dereferenceable(104) %76), !dbg !843
  br label %bb21, !dbg !843

bb28:                                             ; preds = %bb23
  %_81 = getelementptr inbounds %"block_buffer::BlockBuffer<digest::generic_array::typenum::UInt<digest::generic_array::typenum::UInt<digest::generic_array::typenum::UInt<digest::generic_array::typenum::UInt<digest::generic_array::typenum::UInt<digest::generic_array::typenum::UInt<digest::generic_array::typenum::UInt<digest::generic_array::typenum::UTerm, digest::consts::B1>, digest::consts::B1>, digest::consts::B0>, digest::consts::B1>, digest::consts::B0>, digest::consts::B0>, digest::consts::B0>>", %"block_buffer::BlockBuffer<digest::generic_array::typenum::UInt<digest::generic_array::typenum::UInt<digest::generic_array::typenum::UInt<digest::generic_array::typenum::UInt<digest::generic_array::typenum::UInt<digest::generic_array::typenum::UInt<digest::generic_array::typenum::UInt<digest::generic_array::typenum::UTerm, digest::consts::B1>, digest::consts::B1>, digest::consts::B0>, digest::consts::B1>, digest::consts::B0>, digest::consts::B0>, digest::consts::B0>>"* %self, i32 0, i32 1, !dbg !844
  store %"digest::generic_array::GenericArray<u8, digest::generic_array::typenum::UInt<digest::generic_array::typenum::UInt<digest::generic_array::typenum::UInt<digest::generic_array::typenum::UInt<digest::generic_array::typenum::UInt<digest::generic_array::typenum::UInt<digest::generic_array::typenum::UInt<digest::generic_array::typenum::UTerm, digest::consts::B1>, digest::consts::B1>, digest::consts::B0>, digest::consts::B1>, digest::consts::B0>, digest::consts::B0>, digest::consts::B0>>"* %_81, %"digest::generic_array::GenericArray<u8, digest::generic_array::typenum::UInt<digest::generic_array::typenum::UInt<digest::generic_array::typenum::UInt<digest::generic_array::typenum::UInt<digest::generic_array::typenum::UInt<digest::generic_array::typenum::UInt<digest::generic_array::typenum::UInt<digest::generic_array::typenum::UTerm, digest::consts::B1>, digest::consts::B1>, digest::consts::B0>, digest::consts::B1>, digest::consts::B0>, digest::consts::B0>, digest::consts::B0>>"** %self.dbg.spill.i7, align 8
  call void @llvm.dbg.declare(metadata %"digest::generic_array::GenericArray<u8, digest::generic_array::typenum::UInt<digest::generic_array::typenum::UInt<digest::generic_array::typenum::UInt<digest::generic_array::typenum::UInt<digest::generic_array::typenum::UInt<digest::generic_array::typenum::UInt<digest::generic_array::typenum::UInt<digest::generic_array::typenum::UTerm, digest::consts::B1>, digest::consts::B1>, digest::consts::B0>, digest::consts::B1>, digest::consts::B0>, digest::consts::B0>, digest::consts::B0>>"** %self.dbg.spill.i7, metadata !796, metadata !DIExpression()) #9, !dbg !845
  %_5.i8 = bitcast %"digest::generic_array::GenericArray<u8, digest::generic_array::typenum::UInt<digest::generic_array::typenum::UInt<digest::generic_array::typenum::UInt<digest::generic_array::typenum::UInt<digest::generic_array::typenum::UInt<digest::generic_array::typenum::UInt<digest::generic_array::typenum::UInt<digest::generic_array::typenum::UTerm, digest::consts::B1>, digest::consts::B1>, digest::consts::B0>, digest::consts::B1>, digest::consts::B0>, digest::consts::B0>, digest::consts::B0>>"* %_81 to i8*, !dbg !847
; call core::slice::raw::from_raw_parts_mut
  %77 = call { [0 x i8]*, i64 } @_ZN4core5slice3raw18from_raw_parts_mut17h4f9993b78f2e4c1fE(i8* %_5.i8, i64 104) #9, !dbg !848
  %_4.0.i9 = extractvalue { [0 x i8]*, i64 } %77, 0, !dbg !848
  %_4.1.i10 = extractvalue { [0 x i8]*, i64 } %77, 1, !dbg !848
  %_80.0 = extractvalue { [0 x i8]*, i64 } %77, 0, !dbg !844
  %_80.1 = extractvalue { [0 x i8]*, i64 } %77, 1, !dbg !844
  br label %bb29, !dbg !844

bb29:                                             ; preds = %bb28
  store i64 %rem.1, i64* %_82, align 8, !dbg !849
  %78 = load i64, i64* %_82, align 8, !dbg !844
; call core::slice::index::<impl core::ops::index::IndexMut<I> for [T]>::index_mut
  %79 = call { [0 x i8]*, i64 } @"_ZN4core5slice5index77_$LT$impl$u20$core..ops..index..IndexMut$LT$I$GT$$u20$for$u20$$u5b$T$u5d$$GT$9index_mut17hfc8cc15b9700af7cE"([0 x i8]* nonnull align 1 %_80.0, i64 %_80.1, i64 %78, %"core::panic::Location"* align 8 dereferenceable(24) bitcast (<{ i8*, [16 x i8] }>* @alloc420 to %"core::panic::Location"*)), !dbg !844
  %_78.0 = extractvalue { [0 x i8]*, i64 } %79, 0, !dbg !844
  %_78.1 = extractvalue { [0 x i8]*, i64 } %79, 1, !dbg !844
  br label %bb30, !dbg !844

bb30:                                             ; preds = %bb29
; call core::slice::<impl [T]>::copy_from_slice
  call void @"_ZN4core5slice29_$LT$impl$u20$$u5b$T$u5d$$GT$15copy_from_slice17hadd709d225153750E"([0 x i8]* nonnull align 1 %_78.0, i64 %_78.1, [0 x i8]* nonnull align 1 %rem.0, i64 %rem.1), !dbg !844
  br label %bb31, !dbg !844

bb31:                                             ; preds = %bb30
  %80 = bitcast %"block_buffer::BlockBuffer<digest::generic_array::typenum::UInt<digest::generic_array::typenum::UInt<digest::generic_array::typenum::UInt<digest::generic_array::typenum::UInt<digest::generic_array::typenum::UInt<digest::generic_array::typenum::UInt<digest::generic_array::typenum::UInt<digest::generic_array::typenum::UTerm, digest::consts::B1>, digest::consts::B1>, digest::consts::B0>, digest::consts::B1>, digest::consts::B0>, digest::consts::B0>, digest::consts::B0>>"* %self to i64*, !dbg !850
  store i64 %rem.1, i64* %80, align 8, !dbg !850
  br label %bb32, !dbg !815
}

; block_buffer::BlockBuffer<BlockSize>::input_block
; Function Attrs: inlinehint nounwind
define void @"_ZN12block_buffer28BlockBuffer$LT$BlockSize$GT$11input_block17h1ecd5223b564faf7E"(%"block_buffer::BlockBuffer<digest::generic_array::typenum::UInt<digest::generic_array::typenum::UInt<digest::generic_array::typenum::UInt<digest::generic_array::typenum::UInt<digest::generic_array::typenum::UInt<digest::generic_array::typenum::UInt<digest::generic_array::typenum::UInt<digest::generic_array::typenum::UInt<digest::generic_array::typenum::UTerm, digest::consts::B1>, digest::consts::B0>, digest::consts::B0>, digest::consts::B1>, digest::consts::B0>, digest::consts::B0>, digest::consts::B0>, digest::consts::B0>>"* align 8 dereferenceable(152) %self, [0 x i8]* nonnull align 1 %0, i64 %1, i64* align 8 dereferenceable(8) %2) unnamed_addr #0 !dbg !851 {
start:
  %self.dbg.spill.i7 = alloca %"digest::generic_array::GenericArray<u8, digest::generic_array::typenum::UInt<digest::generic_array::typenum::UInt<digest::generic_array::typenum::UInt<digest::generic_array::typenum::UInt<digest::generic_array::typenum::UInt<digest::generic_array::typenum::UInt<digest::generic_array::typenum::UInt<digest::generic_array::typenum::UInt<digest::generic_array::typenum::UTerm, digest::consts::B1>, digest::consts::B0>, digest::consts::B0>, digest::consts::B1>, digest::consts::B0>, digest::consts::B0>, digest::consts::B0>, digest::consts::B0>>"*, align 8
  %self.dbg.spill.i3 = alloca %"digest::generic_array::GenericArray<u8, digest::generic_array::typenum::UInt<digest::generic_array::typenum::UInt<digest::generic_array::typenum::UInt<digest::generic_array::typenum::UInt<digest::generic_array::typenum::UInt<digest::generic_array::typenum::UInt<digest::generic_array::typenum::UInt<digest::generic_array::typenum::UInt<digest::generic_array::typenum::UTerm, digest::consts::B1>, digest::consts::B0>, digest::consts::B0>, digest::consts::B1>, digest::consts::B0>, digest::consts::B0>, digest::consts::B0>, digest::consts::B0>>"*, align 8
  %self.dbg.spill.i = alloca %"digest::generic_array::GenericArray<u8, digest::generic_array::typenum::UInt<digest::generic_array::typenum::UInt<digest::generic_array::typenum::UInt<digest::generic_array::typenum::UInt<digest::generic_array::typenum::UInt<digest::generic_array::typenum::UInt<digest::generic_array::typenum::UInt<digest::generic_array::typenum::UInt<digest::generic_array::typenum::UTerm, digest::consts::B1>, digest::consts::B0>, digest::consts::B0>, digest::consts::B1>, digest::consts::B0>, digest::consts::B0>, digest::consts::B0>, digest::consts::B0>>"*, align 8
  %rem.dbg.spill = alloca { [0 x i8]*, i64 }, align 8
  %chunk.dbg.spill = alloca { [0 x i8]*, i64 }, align 8
  %__next.dbg.spill = alloca { [0 x i8]*, i64 }, align 8
  %val.dbg.spill = alloca { [0 x i8]*, i64 }, align 8
  %r.dbg.spill2 = alloca { [0 x i8]*, i64 }, align 8
  %l.dbg.spill = alloca { [0 x i8]*, i64 }, align 8
  %n.dbg.spill = alloca i64, align 8
  %r.dbg.spill = alloca i64, align 8
  %self.dbg.spill = alloca %"block_buffer::BlockBuffer<digest::generic_array::typenum::UInt<digest::generic_array::typenum::UInt<digest::generic_array::typenum::UInt<digest::generic_array::typenum::UInt<digest::generic_array::typenum::UInt<digest::generic_array::typenum::UInt<digest::generic_array::typenum::UInt<digest::generic_array::typenum::UInt<digest::generic_array::typenum::UTerm, digest::consts::B1>, digest::consts::B0>, digest::consts::B0>, digest::consts::B1>, digest::consts::B0>, digest::consts::B0>, digest::consts::B0>, digest::consts::B0>>"*, align 8
  %_82 = alloca i64, align 8
  %_70 = alloca i8*, align 8
  %_61 = alloca { i8*, i64 }, align 8
  %iter = alloca %"core::slice::ChunksExact<u8>"*, align 8
  %chunks_iter = alloca %"core::slice::ChunksExact<u8>", align 8
  %_50 = alloca i8*, align 8
  %_45 = alloca i64, align 8
  %_35 = alloca { { [0 x i8]*, i64 }, { [0 x i8]*, i64 } }, align 8
  %_27 = alloca i8, align 1
  %_18 = alloca { i64, i64 }, align 8
  %f = alloca i64*, align 8
  %input = alloca { [0 x i8]*, i64 }, align 8
  %3 = getelementptr inbounds { [0 x i8]*, i64 }, { [0 x i8]*, i64 }* %input, i32 0, i32 0
  store [0 x i8]* %0, [0 x i8]** %3, align 8
  %4 = getelementptr inbounds { [0 x i8]*, i64 }, { [0 x i8]*, i64 }* %input, i32 0, i32 1
  store i64 %1, i64* %4, align 8
  store i64* %2, i64** %f, align 8
  store %"block_buffer::BlockBuffer<digest::generic_array::typenum::UInt<digest::generic_array::typenum::UInt<digest::generic_array::typenum::UInt<digest::generic_array::typenum::UInt<digest::generic_array::typenum::UInt<digest::generic_array::typenum::UInt<digest::generic_array::typenum::UInt<digest::generic_array::typenum::UInt<digest::generic_array::typenum::UTerm, digest::consts::B1>, digest::consts::B0>, digest::consts::B0>, digest::consts::B1>, digest::consts::B0>, digest::consts::B0>, digest::consts::B0>, digest::consts::B0>>"* %self, %"block_buffer::BlockBuffer<digest::generic_array::typenum::UInt<digest::generic_array::typenum::UInt<digest::generic_array::typenum::UInt<digest::generic_array::typenum::UInt<digest::generic_array::typenum::UInt<digest::generic_array::typenum::UInt<digest::generic_array::typenum::UInt<digest::generic_array::typenum::UInt<digest::generic_array::typenum::UTerm, digest::consts::B1>, digest::consts::B0>, digest::consts::B0>, digest::consts::B1>, digest::consts::B0>, digest::consts::B0>, digest::consts::B0>, digest::consts::B0>>"** %self.dbg.spill, align 8
  call void @llvm.dbg.declare(metadata %"block_buffer::BlockBuffer<digest::generic_array::typenum::UInt<digest::generic_array::typenum::UInt<digest::generic_array::typenum::UInt<digest::generic_array::typenum::UInt<digest::generic_array::typenum::UInt<digest::generic_array::typenum::UInt<digest::generic_array::typenum::UInt<digest::generic_array::typenum::UInt<digest::generic_array::typenum::UTerm, digest::consts::B1>, digest::consts::B0>, digest::consts::B0>, digest::consts::B1>, digest::consts::B0>, digest::consts::B0>, digest::consts::B0>, digest::consts::B0>>"** %self.dbg.spill, metadata !867, metadata !DIExpression()), !dbg !891
  call void @llvm.dbg.declare(metadata { [0 x i8]*, i64 }* %input, metadata !868, metadata !DIExpression()), !dbg !892
  call void @llvm.dbg.declare(metadata i64** %f, metadata !869, metadata !DIExpression()), !dbg !893
  call void @llvm.dbg.declare(metadata %"core::slice::ChunksExact<u8>"* %chunks_iter, metadata !877, metadata !DIExpression()), !dbg !894
  call void @llvm.dbg.declare(metadata %"core::slice::ChunksExact<u8>"** %iter, metadata !879, metadata !DIExpression()), !dbg !895
; call block_buffer::BlockBuffer<BlockSize>::remaining
  %r = call i64 @"_ZN12block_buffer28BlockBuffer$LT$BlockSize$GT$9remaining17h9b381f84a7959d0eE"(%"block_buffer::BlockBuffer<digest::generic_array::typenum::UInt<digest::generic_array::typenum::UInt<digest::generic_array::typenum::UInt<digest::generic_array::typenum::UInt<digest::generic_array::typenum::UInt<digest::generic_array::typenum::UInt<digest::generic_array::typenum::UInt<digest::generic_array::typenum::UInt<digest::generic_array::typenum::UTerm, digest::consts::B1>, digest::consts::B0>, digest::consts::B0>, digest::consts::B1>, digest::consts::B0>, digest::consts::B0>, digest::consts::B0>, digest::consts::B0>>"* align 8 dereferenceable(152) %self), !dbg !896
  store i64 %r, i64* %r.dbg.spill, align 8, !dbg !896
  call void @llvm.dbg.declare(metadata i64* %r.dbg.spill, metadata !870, metadata !DIExpression()), !dbg !897
  br label %bb1, !dbg !896

bb1:                                              ; preds = %start
  %5 = getelementptr inbounds { [0 x i8]*, i64 }, { [0 x i8]*, i64 }* %input, i32 0, i32 0, !dbg !898
  %_8.0 = load [0 x i8]*, [0 x i8]** %5, align 8, !dbg !898, !nonnull !4
  %6 = getelementptr inbounds { [0 x i8]*, i64 }, { [0 x i8]*, i64 }* %input, i32 0, i32 1, !dbg !898
  %_8.1 = load i64, i64* %6, align 8, !dbg !898
  %_6 = icmp ult i64 %_8.1, %r, !dbg !898
  br i1 %_6, label %bb2, label %bb8, !dbg !898

bb8:                                              ; preds = %bb1
  %7 = bitcast %"block_buffer::BlockBuffer<digest::generic_array::typenum::UInt<digest::generic_array::typenum::UInt<digest::generic_array::typenum::UInt<digest::generic_array::typenum::UInt<digest::generic_array::typenum::UInt<digest::generic_array::typenum::UInt<digest::generic_array::typenum::UInt<digest::generic_array::typenum::UInt<digest::generic_array::typenum::UTerm, digest::consts::B1>, digest::consts::B0>, digest::consts::B0>, digest::consts::B1>, digest::consts::B0>, digest::consts::B0>, digest::consts::B0>, digest::consts::B0>>"* %self to i64*, !dbg !899
  %_28 = load i64, i64* %7, align 8, !dbg !899
  %8 = icmp eq i64 %_28, 0, !dbg !899
  br i1 %8, label %bb9, label %bb10, !dbg !899

bb2:                                              ; preds = %bb1
  %9 = getelementptr inbounds { [0 x i8]*, i64 }, { [0 x i8]*, i64 }* %input, i32 0, i32 0, !dbg !900
  %_11.0 = load [0 x i8]*, [0 x i8]** %9, align 8, !dbg !900, !nonnull !4
  %10 = getelementptr inbounds { [0 x i8]*, i64 }, { [0 x i8]*, i64 }* %input, i32 0, i32 1, !dbg !900
  %_11.1 = load i64, i64* %10, align 8, !dbg !900
  store i64 %_11.1, i64* %n.dbg.spill, align 8, !dbg !900
  call void @llvm.dbg.declare(metadata i64* %n.dbg.spill, metadata !872, metadata !DIExpression()), !dbg !901
  %_17 = getelementptr inbounds %"block_buffer::BlockBuffer<digest::generic_array::typenum::UInt<digest::generic_array::typenum::UInt<digest::generic_array::typenum::UInt<digest::generic_array::typenum::UInt<digest::generic_array::typenum::UInt<digest::generic_array::typenum::UInt<digest::generic_array::typenum::UInt<digest::generic_array::typenum::UInt<digest::generic_array::typenum::UTerm, digest::consts::B1>, digest::consts::B0>, digest::consts::B0>, digest::consts::B1>, digest::consts::B0>, digest::consts::B0>, digest::consts::B0>, digest::consts::B0>>", %"block_buffer::BlockBuffer<digest::generic_array::typenum::UInt<digest::generic_array::typenum::UInt<digest::generic_array::typenum::UInt<digest::generic_array::typenum::UInt<digest::generic_array::typenum::UInt<digest::generic_array::typenum::UInt<digest::generic_array::typenum::UInt<digest::generic_array::typenum::UInt<digest::generic_array::typenum::UTerm, digest::consts::B1>, digest::consts::B0>, digest::consts::B0>, digest::consts::B1>, digest::consts::B0>, digest::consts::B0>, digest::consts::B0>, digest::consts::B0>>"* %self, i32 0, i32 1, !dbg !902
  store %"digest::generic_array::GenericArray<u8, digest::generic_array::typenum::UInt<digest::generic_array::typenum::UInt<digest::generic_array::typenum::UInt<digest::generic_array::typenum::UInt<digest::generic_array::typenum::UInt<digest::generic_array::typenum::UInt<digest::generic_array::typenum::UInt<digest::generic_array::typenum::UInt<digest::generic_array::typenum::UTerm, digest::consts::B1>, digest::consts::B0>, digest::consts::B0>, digest::consts::B1>, digest::consts::B0>, digest::consts::B0>, digest::consts::B0>, digest::consts::B0>>"* %_17, %"digest::generic_array::GenericArray<u8, digest::generic_array::typenum::UInt<digest::generic_array::typenum::UInt<digest::generic_array::typenum::UInt<digest::generic_array::typenum::UInt<digest::generic_array::typenum::UInt<digest::generic_array::typenum::UInt<digest::generic_array::typenum::UInt<digest::generic_array::typenum::UInt<digest::generic_array::typenum::UTerm, digest::consts::B1>, digest::consts::B0>, digest::consts::B0>, digest::consts::B1>, digest::consts::B0>, digest::consts::B0>, digest::consts::B0>, digest::consts::B0>>"** %self.dbg.spill.i, align 8
  call void @llvm.dbg.declare(metadata %"digest::generic_array::GenericArray<u8, digest::generic_array::typenum::UInt<digest::generic_array::typenum::UInt<digest::generic_array::typenum::UInt<digest::generic_array::typenum::UInt<digest::generic_array::typenum::UInt<digest::generic_array::typenum::UInt<digest::generic_array::typenum::UInt<digest::generic_array::typenum::UInt<digest::generic_array::typenum::UTerm, digest::consts::B1>, digest::consts::B0>, digest::consts::B0>, digest::consts::B1>, digest::consts::B0>, digest::consts::B0>, digest::consts::B0>, digest::consts::B0>>"** %self.dbg.spill.i, metadata !903, metadata !DIExpression()) #9, !dbg !909
  %_5.i = bitcast %"digest::generic_array::GenericArray<u8, digest::generic_array::typenum::UInt<digest::generic_array::typenum::UInt<digest::generic_array::typenum::UInt<digest::generic_array::typenum::UInt<digest::generic_array::typenum::UInt<digest::generic_array::typenum::UInt<digest::generic_array::typenum::UInt<digest::generic_array::typenum::UInt<digest::generic_array::typenum::UTerm, digest::consts::B1>, digest::consts::B0>, digest::consts::B0>, digest::consts::B1>, digest::consts::B0>, digest::consts::B0>, digest::consts::B0>, digest::consts::B0>>"* %_17 to i8*, !dbg !911
; call core::slice::raw::from_raw_parts_mut
  %11 = call { [0 x i8]*, i64 } @_ZN4core5slice3raw18from_raw_parts_mut17h4f9993b78f2e4c1fE(i8* %_5.i, i64 144) #9, !dbg !912
  %_4.0.i = extractvalue { [0 x i8]*, i64 } %11, 0, !dbg !912
  %_4.1.i = extractvalue { [0 x i8]*, i64 } %11, 1, !dbg !912
  %_16.0 = extractvalue { [0 x i8]*, i64 } %11, 0, !dbg !902
  %_16.1 = extractvalue { [0 x i8]*, i64 } %11, 1, !dbg !902
  br label %bb3, !dbg !902

bb3:                                              ; preds = %bb2
  %12 = bitcast %"block_buffer::BlockBuffer<digest::generic_array::typenum::UInt<digest::generic_array::typenum::UInt<digest::generic_array::typenum::UInt<digest::generic_array::typenum::UInt<digest::generic_array::typenum::UInt<digest::generic_array::typenum::UInt<digest::generic_array::typenum::UInt<digest::generic_array::typenum::UInt<digest::generic_array::typenum::UTerm, digest::consts::B1>, digest::consts::B0>, digest::consts::B0>, digest::consts::B1>, digest::consts::B0>, digest::consts::B0>, digest::consts::B0>, digest::consts::B0>>"* %self to i64*, !dbg !913
  %_19 = load i64, i64* %12, align 8, !dbg !913
  %13 = bitcast %"block_buffer::BlockBuffer<digest::generic_array::typenum::UInt<digest::generic_array::typenum::UInt<digest::generic_array::typenum::UInt<digest::generic_array::typenum::UInt<digest::generic_array::typenum::UInt<digest::generic_array::typenum::UInt<digest::generic_array::typenum::UInt<digest::generic_array::typenum::UInt<digest::generic_array::typenum::UTerm, digest::consts::B1>, digest::consts::B0>, digest::consts::B0>, digest::consts::B1>, digest::consts::B0>, digest::consts::B0>, digest::consts::B0>, digest::consts::B0>>"* %self to i64*, !dbg !914
  %_21 = load i64, i64* %13, align 8, !dbg !914
  %14 = call { i64, i1 } @llvm.uadd.with.overflow.i64(i64 %_21, i64 %_11.1), !dbg !914
  %_23.0 = extractvalue { i64, i1 } %14, 0, !dbg !914
  %_23.1 = extractvalue { i64, i1 } %14, 1, !dbg !914
  %15 = call i1 @llvm.expect.i1(i1 %_23.1, i1 false), !dbg !914
  br i1 %15, label %panic, label %bb4, !dbg !914

bb4:                                              ; preds = %bb3
  %16 = bitcast { i64, i64 }* %_18 to i64*, !dbg !913
  store i64 %_19, i64* %16, align 8, !dbg !913
  %17 = getelementptr inbounds { i64, i64 }, { i64, i64 }* %_18, i32 0, i32 1, !dbg !913
  store i64 %_23.0, i64* %17, align 8, !dbg !913
  %18 = getelementptr inbounds { i64, i64 }, { i64, i64 }* %_18, i32 0, i32 0, !dbg !902
  %19 = load i64, i64* %18, align 8, !dbg !902
  %20 = getelementptr inbounds { i64, i64 }, { i64, i64 }* %_18, i32 0, i32 1, !dbg !902
  %21 = load i64, i64* %20, align 8, !dbg !902
; call core::slice::index::<impl core::ops::index::IndexMut<I> for [T]>::index_mut
  %22 = call { [0 x i8]*, i64 } @"_ZN4core5slice5index77_$LT$impl$u20$core..ops..index..IndexMut$LT$I$GT$$u20$for$u20$$u5b$T$u5d$$GT$9index_mut17hb60169623bf286d0E"([0 x i8]* nonnull align 1 %_16.0, i64 %_16.1, i64 %19, i64 %21, %"core::panic::Location"* align 8 dereferenceable(24) bitcast (<{ i8*, [16 x i8] }>* @alloc412 to %"core::panic::Location"*)), !dbg !902
  %_14.0 = extractvalue { [0 x i8]*, i64 } %22, 0, !dbg !902
  %_14.1 = extractvalue { [0 x i8]*, i64 } %22, 1, !dbg !902
  br label %bb5, !dbg !902

panic:                                            ; preds = %bb3
; call core::panicking::panic
  call void @_ZN4core9panicking5panic17h560e3e4b7752857aE([0 x i8]* nonnull align 1 bitcast ([28 x i8]* @str.0 to [0 x i8]*), i64 28, %"core::panic::Location"* align 8 dereferenceable(24) bitcast (<{ i8*, [16 x i8] }>* @alloc410 to %"core::panic::Location"*)), !dbg !914
  unreachable, !dbg !914

bb5:                                              ; preds = %bb4
  %23 = getelementptr inbounds { [0 x i8]*, i64 }, { [0 x i8]*, i64 }* %input, i32 0, i32 0, !dbg !915
  %_24.0 = load [0 x i8]*, [0 x i8]** %23, align 8, !dbg !915, !nonnull !4
  %24 = getelementptr inbounds { [0 x i8]*, i64 }, { [0 x i8]*, i64 }* %input, i32 0, i32 1, !dbg !915
  %_24.1 = load i64, i64* %24, align 8, !dbg !915
; call core::slice::<impl [T]>::copy_from_slice
  call void @"_ZN4core5slice29_$LT$impl$u20$$u5b$T$u5d$$GT$15copy_from_slice17hadd709d225153750E"([0 x i8]* nonnull align 1 %_14.0, i64 %_14.1, [0 x i8]* nonnull align 1 %_24.0, i64 %_24.1), !dbg !902
  br label %bb6, !dbg !902

bb6:                                              ; preds = %bb5
  %25 = bitcast %"block_buffer::BlockBuffer<digest::generic_array::typenum::UInt<digest::generic_array::typenum::UInt<digest::generic_array::typenum::UInt<digest::generic_array::typenum::UInt<digest::generic_array::typenum::UInt<digest::generic_array::typenum::UInt<digest::generic_array::typenum::UInt<digest::generic_array::typenum::UInt<digest::generic_array::typenum::UTerm, digest::consts::B1>, digest::consts::B0>, digest::consts::B0>, digest::consts::B1>, digest::consts::B0>, digest::consts::B0>, digest::consts::B0>, digest::consts::B0>>"* %self to i64*, !dbg !916
  %26 = load i64, i64* %25, align 8, !dbg !916
  %27 = call { i64, i1 } @llvm.uadd.with.overflow.i64(i64 %26, i64 %_11.1), !dbg !916
  %_26.0 = extractvalue { i64, i1 } %27, 0, !dbg !916
  %_26.1 = extractvalue { i64, i1 } %27, 1, !dbg !916
  %28 = call i1 @llvm.expect.i1(i1 %_26.1, i1 false), !dbg !916
  br i1 %28, label %panic1, label %bb7, !dbg !916

bb7:                                              ; preds = %bb6
  %29 = bitcast %"block_buffer::BlockBuffer<digest::generic_array::typenum::UInt<digest::generic_array::typenum::UInt<digest::generic_array::typenum::UInt<digest::generic_array::typenum::UInt<digest::generic_array::typenum::UInt<digest::generic_array::typenum::UInt<digest::generic_array::typenum::UInt<digest::generic_array::typenum::UInt<digest::generic_array::typenum::UTerm, digest::consts::B1>, digest::consts::B0>, digest::consts::B0>, digest::consts::B1>, digest::consts::B0>, digest::consts::B0>, digest::consts::B0>, digest::consts::B0>>"* %self to i64*, !dbg !916
  store i64 %_26.0, i64* %29, align 8, !dbg !916
  br label %bb32, !dbg !917

panic1:                                           ; preds = %bb6
; call core::panicking::panic
  call void @_ZN4core9panicking5panic17h560e3e4b7752857aE([0 x i8]* nonnull align 1 bitcast ([28 x i8]* @str.0 to [0 x i8]*), i64 28, %"core::panic::Location"* align 8 dereferenceable(24) bitcast (<{ i8*, [16 x i8] }>* @alloc414 to %"core::panic::Location"*)), !dbg !916
  unreachable, !dbg !916

bb32:                                             ; preds = %bb31, %bb7
  ret void, !dbg !918

bb9:                                              ; preds = %bb8
  store i8 0, i8* %_27, align 1, !dbg !899
  br label %bb11, !dbg !899

bb10:                                             ; preds = %bb8
  %30 = getelementptr inbounds { [0 x i8]*, i64 }, { [0 x i8]*, i64 }* %input, i32 0, i32 0, !dbg !919
  %_31.0 = load [0 x i8]*, [0 x i8]** %30, align 8, !dbg !919, !nonnull !4
  %31 = getelementptr inbounds { [0 x i8]*, i64 }, { [0 x i8]*, i64 }* %input, i32 0, i32 1, !dbg !919
  %_31.1 = load i64, i64* %31, align 8, !dbg !919
  %_29 = icmp uge i64 %_31.1, %r, !dbg !919
  %32 = zext i1 %_29 to i8, !dbg !899
  store i8 %32, i8* %_27, align 1, !dbg !899
  br label %bb11, !dbg !899

bb11:                                             ; preds = %bb9, %bb10
  %33 = load i8, i8* %_27, align 1, !dbg !899, !range !716
  %34 = trunc i8 %33 to i1, !dbg !899
  br i1 %34, label %bb12, label %bb17, !dbg !899

bb17:                                             ; preds = %bb16, %bb11
  %35 = getelementptr inbounds { [0 x i8]*, i64 }, { [0 x i8]*, i64 }* %input, i32 0, i32 0, !dbg !920
  %_54.0 = load [0 x i8]*, [0 x i8]** %35, align 8, !dbg !920, !nonnull !4
  %36 = getelementptr inbounds { [0 x i8]*, i64 }, { [0 x i8]*, i64 }* %input, i32 0, i32 1, !dbg !920
  %_54.1 = load i64, i64* %36, align 8, !dbg !920
; call block_buffer::BlockBuffer<BlockSize>::size
  %_55 = call i64 @"_ZN12block_buffer28BlockBuffer$LT$BlockSize$GT$4size17h0df756a0d45997fcE"(%"block_buffer::BlockBuffer<digest::generic_array::typenum::UInt<digest::generic_array::typenum::UInt<digest::generic_array::typenum::UInt<digest::generic_array::typenum::UInt<digest::generic_array::typenum::UInt<digest::generic_array::typenum::UInt<digest::generic_array::typenum::UInt<digest::generic_array::typenum::UInt<digest::generic_array::typenum::UTerm, digest::consts::B1>, digest::consts::B0>, digest::consts::B0>, digest::consts::B1>, digest::consts::B0>, digest::consts::B0>, digest::consts::B0>, digest::consts::B0>>"* align 8 dereferenceable(152) %self), !dbg !921
  br label %bb18, !dbg !921

bb12:                                             ; preds = %bb11
  %37 = getelementptr inbounds { [0 x i8]*, i64 }, { [0 x i8]*, i64 }* %input, i32 0, i32 0, !dbg !922
  %_36.0 = load [0 x i8]*, [0 x i8]** %37, align 8, !dbg !922, !nonnull !4
  %38 = getelementptr inbounds { [0 x i8]*, i64 }, { [0 x i8]*, i64 }* %input, i32 0, i32 1, !dbg !922
  %_36.1 = load i64, i64* %38, align 8, !dbg !922
; call core::slice::<impl [T]>::split_at
  call void @"_ZN4core5slice29_$LT$impl$u20$$u5b$T$u5d$$GT$8split_at17h2c16e77906b976e8E"({ { [0 x i8]*, i64 }, { [0 x i8]*, i64 } }* noalias nocapture sret({ { [0 x i8]*, i64 }, { [0 x i8]*, i64 } }) dereferenceable(32) %_35, [0 x i8]* nonnull align 1 %_36.0, i64 %_36.1, i64 %r), !dbg !922
  br label %bb13, !dbg !922

bb13:                                             ; preds = %bb12
  %39 = bitcast { { [0 x i8]*, i64 }, { [0 x i8]*, i64 } }* %_35 to { [0 x i8]*, i64 }*, !dbg !923
  %40 = getelementptr inbounds { [0 x i8]*, i64 }, { [0 x i8]*, i64 }* %39, i32 0, i32 0, !dbg !923
  %l.0 = load [0 x i8]*, [0 x i8]** %40, align 8, !dbg !923, !nonnull !4
  %41 = getelementptr inbounds { [0 x i8]*, i64 }, { [0 x i8]*, i64 }* %39, i32 0, i32 1, !dbg !923
  %l.1 = load i64, i64* %41, align 8, !dbg !923
  %42 = getelementptr inbounds { [0 x i8]*, i64 }, { [0 x i8]*, i64 }* %l.dbg.spill, i32 0, i32 0, !dbg !923
  store [0 x i8]* %l.0, [0 x i8]** %42, align 8, !dbg !923
  %43 = getelementptr inbounds { [0 x i8]*, i64 }, { [0 x i8]*, i64 }* %l.dbg.spill, i32 0, i32 1, !dbg !923
  store i64 %l.1, i64* %43, align 8, !dbg !923
  call void @llvm.dbg.declare(metadata { [0 x i8]*, i64 }* %l.dbg.spill, metadata !874, metadata !DIExpression()), !dbg !924
  %44 = getelementptr inbounds { { [0 x i8]*, i64 }, { [0 x i8]*, i64 } }, { { [0 x i8]*, i64 }, { [0 x i8]*, i64 } }* %_35, i32 0, i32 1, !dbg !925
  %45 = getelementptr inbounds { [0 x i8]*, i64 }, { [0 x i8]*, i64 }* %44, i32 0, i32 0, !dbg !925
  %r.0 = load [0 x i8]*, [0 x i8]** %45, align 8, !dbg !925, !nonnull !4
  %46 = getelementptr inbounds { [0 x i8]*, i64 }, { [0 x i8]*, i64 }* %44, i32 0, i32 1, !dbg !925
  %r.1 = load i64, i64* %46, align 8, !dbg !925
  %47 = getelementptr inbounds { [0 x i8]*, i64 }, { [0 x i8]*, i64 }* %r.dbg.spill2, i32 0, i32 0, !dbg !925
  store [0 x i8]* %r.0, [0 x i8]** %47, align 8, !dbg !925
  %48 = getelementptr inbounds { [0 x i8]*, i64 }, { [0 x i8]*, i64 }* %r.dbg.spill2, i32 0, i32 1, !dbg !925
  store i64 %r.1, i64* %48, align 8, !dbg !925
  call void @llvm.dbg.declare(metadata { [0 x i8]*, i64 }* %r.dbg.spill2, metadata !876, metadata !DIExpression()), !dbg !926
  %49 = getelementptr inbounds { [0 x i8]*, i64 }, { [0 x i8]*, i64 }* %input, i32 0, i32 0, !dbg !927
  store [0 x i8]* %r.0, [0 x i8]** %49, align 8, !dbg !927
  %50 = getelementptr inbounds { [0 x i8]*, i64 }, { [0 x i8]*, i64 }* %input, i32 0, i32 1, !dbg !927
  store i64 %r.1, i64* %50, align 8, !dbg !927
  %_44 = getelementptr inbounds %"block_buffer::BlockBuffer<digest::generic_array::typenum::UInt<digest::generic_array::typenum::UInt<digest::generic_array::typenum::UInt<digest::generic_array::typenum::UInt<digest::generic_array::typenum::UInt<digest::generic_array::typenum::UInt<digest::generic_array::typenum::UInt<digest::generic_array::typenum::UInt<digest::generic_array::typenum::UTerm, digest::consts::B1>, digest::consts::B0>, digest::consts::B0>, digest::consts::B1>, digest::consts::B0>, digest::consts::B0>, digest::consts::B0>, digest::consts::B0>>", %"block_buffer::BlockBuffer<digest::generic_array::typenum::UInt<digest::generic_array::typenum::UInt<digest::generic_array::typenum::UInt<digest::generic_array::typenum::UInt<digest::generic_array::typenum::UInt<digest::generic_array::typenum::UInt<digest::generic_array::typenum::UInt<digest::generic_array::typenum::UInt<digest::generic_array::typenum::UTerm, digest::consts::B1>, digest::consts::B0>, digest::consts::B0>, digest::consts::B1>, digest::consts::B0>, digest::consts::B0>, digest::consts::B0>, digest::consts::B0>>"* %self, i32 0, i32 1, !dbg !928
  store %"digest::generic_array::GenericArray<u8, digest::generic_array::typenum::UInt<digest::generic_array::typenum::UInt<digest::generic_array::typenum::UInt<digest::generic_array::typenum::UInt<digest::generic_array::typenum::UInt<digest::generic_array::typenum::UInt<digest::generic_array::typenum::UInt<digest::generic_array::typenum::UInt<digest::generic_array::typenum::UTerm, digest::consts::B1>, digest::consts::B0>, digest::consts::B0>, digest::consts::B1>, digest::consts::B0>, digest::consts::B0>, digest::consts::B0>, digest::consts::B0>>"* %_44, %"digest::generic_array::GenericArray<u8, digest::generic_array::typenum::UInt<digest::generic_array::typenum::UInt<digest::generic_array::typenum::UInt<digest::generic_array::typenum::UInt<digest::generic_array::typenum::UInt<digest::generic_array::typenum::UInt<digest::generic_array::typenum::UInt<digest::generic_array::typenum::UInt<digest::generic_array::typenum::UTerm, digest::consts::B1>, digest::consts::B0>, digest::consts::B0>, digest::consts::B1>, digest::consts::B0>, digest::consts::B0>, digest::consts::B0>, digest::consts::B0>>"** %self.dbg.spill.i3, align 8
  call void @llvm.dbg.declare(metadata %"digest::generic_array::GenericArray<u8, digest::generic_array::typenum::UInt<digest::generic_array::typenum::UInt<digest::generic_array::typenum::UInt<digest::generic_array::typenum::UInt<digest::generic_array::typenum::UInt<digest::generic_array::typenum::UInt<digest::generic_array::typenum::UInt<digest::generic_array::typenum::UInt<digest::generic_array::typenum::UTerm, digest::consts::B1>, digest::consts::B0>, digest::consts::B0>, digest::consts::B1>, digest::consts::B0>, digest::consts::B0>, digest::consts::B0>, digest::consts::B0>>"** %self.dbg.spill.i3, metadata !903, metadata !DIExpression()) #9, !dbg !929
  %_5.i4 = bitcast %"digest::generic_array::GenericArray<u8, digest::generic_array::typenum::UInt<digest::generic_array::typenum::UInt<digest::generic_array::typenum::UInt<digest::generic_array::typenum::UInt<digest::generic_array::typenum::UInt<digest::generic_array::typenum::UInt<digest::generic_array::typenum::UInt<digest::generic_array::typenum::UInt<digest::generic_array::typenum::UTerm, digest::consts::B1>, digest::consts::B0>, digest::consts::B0>, digest::consts::B1>, digest::consts::B0>, digest::consts::B0>, digest::consts::B0>, digest::consts::B0>>"* %_44 to i8*, !dbg !931
; call core::slice::raw::from_raw_parts_mut
  %51 = call { [0 x i8]*, i64 } @_ZN4core5slice3raw18from_raw_parts_mut17h4f9993b78f2e4c1fE(i8* %_5.i4, i64 144) #9, !dbg !932
  %_4.0.i5 = extractvalue { [0 x i8]*, i64 } %51, 0, !dbg !932
  %_4.1.i6 = extractvalue { [0 x i8]*, i64 } %51, 1, !dbg !932
  %_43.0 = extractvalue { [0 x i8]*, i64 } %51, 0, !dbg !928
  %_43.1 = extractvalue { [0 x i8]*, i64 } %51, 1, !dbg !928
  br label %bb14, !dbg !928

bb14:                                             ; preds = %bb13
  %52 = bitcast %"block_buffer::BlockBuffer<digest::generic_array::typenum::UInt<digest::generic_array::typenum::UInt<digest::generic_array::typenum::UInt<digest::generic_array::typenum::UInt<digest::generic_array::typenum::UInt<digest::generic_array::typenum::UInt<digest::generic_array::typenum::UInt<digest::generic_array::typenum::UInt<digest::generic_array::typenum::UTerm, digest::consts::B1>, digest::consts::B0>, digest::consts::B0>, digest::consts::B1>, digest::consts::B0>, digest::consts::B0>, digest::consts::B0>, digest::consts::B0>>"* %self to i64*, !dbg !933
  %_46 = load i64, i64* %52, align 8, !dbg !933
  store i64 %_46, i64* %_45, align 8, !dbg !933
  %53 = load i64, i64* %_45, align 8, !dbg !928
; call core::slice::index::<impl core::ops::index::IndexMut<I> for [T]>::index_mut
  %54 = call { [0 x i8]*, i64 } @"_ZN4core5slice5index77_$LT$impl$u20$core..ops..index..IndexMut$LT$I$GT$$u20$for$u20$$u5b$T$u5d$$GT$9index_mut17h35fc9b05895a83dfE"([0 x i8]* nonnull align 1 %_43.0, i64 %_43.1, i64 %53, %"core::panic::Location"* align 8 dereferenceable(24) bitcast (<{ i8*, [16 x i8] }>* @alloc416 to %"core::panic::Location"*)), !dbg !928
  %_41.0 = extractvalue { [0 x i8]*, i64 } %54, 0, !dbg !928
  %_41.1 = extractvalue { [0 x i8]*, i64 } %54, 1, !dbg !928
  br label %bb15, !dbg !928

bb15:                                             ; preds = %bb14
; call core::slice::<impl [T]>::copy_from_slice
  call void @"_ZN4core5slice29_$LT$impl$u20$$u5b$T$u5d$$GT$15copy_from_slice17hadd709d225153750E"([0 x i8]* nonnull align 1 %_41.0, i64 %_41.1, [0 x i8]* nonnull align 1 %l.0, i64 %l.1), !dbg !928
  br label %bb16, !dbg !928

bb16:                                             ; preds = %bb15
  %_52 = getelementptr inbounds %"block_buffer::BlockBuffer<digest::generic_array::typenum::UInt<digest::generic_array::typenum::UInt<digest::generic_array::typenum::UInt<digest::generic_array::typenum::UInt<digest::generic_array::typenum::UInt<digest::generic_array::typenum::UInt<digest::generic_array::typenum::UInt<digest::generic_array::typenum::UInt<digest::generic_array::typenum::UTerm, digest::consts::B1>, digest::consts::B0>, digest::consts::B0>, digest::consts::B1>, digest::consts::B0>, digest::consts::B0>, digest::consts::B0>, digest::consts::B0>>", %"block_buffer::BlockBuffer<digest::generic_array::typenum::UInt<digest::generic_array::typenum::UInt<digest::generic_array::typenum::UInt<digest::generic_array::typenum::UInt<digest::generic_array::typenum::UInt<digest::generic_array::typenum::UInt<digest::generic_array::typenum::UInt<digest::generic_array::typenum::UInt<digest::generic_array::typenum::UTerm, digest::consts::B1>, digest::consts::B0>, digest::consts::B0>, digest::consts::B1>, digest::consts::B0>, digest::consts::B0>, digest::consts::B0>, digest::consts::B0>>"* %self, i32 0, i32 1, !dbg !934
  %55 = bitcast i8** %_50 to %"digest::generic_array::GenericArray<u8, digest::generic_array::typenum::UInt<digest::generic_array::typenum::UInt<digest::generic_array::typenum::UInt<digest::generic_array::typenum::UInt<digest::generic_array::typenum::UInt<digest::generic_array::typenum::UInt<digest::generic_array::typenum::UInt<digest::generic_array::typenum::UInt<digest::generic_array::typenum::UTerm, digest::consts::B1>, digest::consts::B0>, digest::consts::B0>, digest::consts::B1>, digest::consts::B0>, digest::consts::B0>, digest::consts::B0>, digest::consts::B0>>"**, !dbg !935
  store %"digest::generic_array::GenericArray<u8, digest::generic_array::typenum::UInt<digest::generic_array::typenum::UInt<digest::generic_array::typenum::UInt<digest::generic_array::typenum::UInt<digest::generic_array::typenum::UInt<digest::generic_array::typenum::UInt<digest::generic_array::typenum::UInt<digest::generic_array::typenum::UInt<digest::generic_array::typenum::UTerm, digest::consts::B1>, digest::consts::B0>, digest::consts::B0>, digest::consts::B1>, digest::consts::B0>, digest::consts::B0>, digest::consts::B0>, digest::consts::B0>>"* %_52, %"digest::generic_array::GenericArray<u8, digest::generic_array::typenum::UInt<digest::generic_array::typenum::UInt<digest::generic_array::typenum::UInt<digest::generic_array::typenum::UInt<digest::generic_array::typenum::UInt<digest::generic_array::typenum::UInt<digest::generic_array::typenum::UInt<digest::generic_array::typenum::UInt<digest::generic_array::typenum::UTerm, digest::consts::B1>, digest::consts::B0>, digest::consts::B0>, digest::consts::B1>, digest::consts::B0>, digest::consts::B0>, digest::consts::B0>, digest::consts::B0>>"** %55, align 8, !dbg !935
  %56 = load i8*, i8** %_50, align 8, !dbg !935, !nonnull !4
  %57 = bitcast i8* %56 to %"digest::generic_array::GenericArray<u8, digest::generic_array::typenum::UInt<digest::generic_array::typenum::UInt<digest::generic_array::typenum::UInt<digest::generic_array::typenum::UInt<digest::generic_array::typenum::UInt<digest::generic_array::typenum::UInt<digest::generic_array::typenum::UInt<digest::generic_array::typenum::UInt<digest::generic_array::typenum::UTerm, digest::consts::B1>, digest::consts::B0>, digest::consts::B0>, digest::consts::B1>, digest::consts::B0>, digest::consts::B0>, digest::consts::B0>, digest::consts::B0>>"*, !dbg !935
; call sha3::Sha3_224::absorb::{{closure}}
  call void @"_ZN4sha38Sha3_2246absorb28_$u7b$$u7b$closure$u7d$$u7d$17hbd7dd73789812378E"(i64** align 8 dereferenceable(8) %f, %"digest::generic_array::GenericArray<u8, digest::generic_array::typenum::UInt<digest::generic_array::typenum::UInt<digest::generic_array::typenum::UInt<digest::generic_array::typenum::UInt<digest::generic_array::typenum::UInt<digest::generic_array::typenum::UInt<digest::generic_array::typenum::UInt<digest::generic_array::typenum::UInt<digest::generic_array::typenum::UTerm, digest::consts::B1>, digest::consts::B0>, digest::consts::B0>, digest::consts::B1>, digest::consts::B0>, digest::consts::B0>, digest::consts::B0>, digest::consts::B0>>"* align 1 dereferenceable(144) %57), !dbg !935
  br label %bb17, !dbg !935

bb18:                                             ; preds = %bb17
; call core::slice::<impl [T]>::chunks_exact
  call void @"_ZN4core5slice29_$LT$impl$u20$$u5b$T$u5d$$GT$12chunks_exact17h41c9c983bd7cb9ceE"(%"core::slice::ChunksExact<u8>"* noalias nocapture sret(%"core::slice::ChunksExact<u8>") dereferenceable(40) %chunks_iter, [0 x i8]* nonnull align 1 %_54.0, i64 %_54.1, i64 %_55), !dbg !920
  br label %bb19, !dbg !920

bb19:                                             ; preds = %bb18
; call <I as core::iter::traits::collect::IntoIterator>::into_iter
  %_57 = call align 8 dereferenceable(40) %"core::slice::ChunksExact<u8>"* @"_ZN63_$LT$I$u20$as$u20$core..iter..traits..collect..IntoIterator$GT$9into_iter17h766d323de353e683E"(%"core::slice::ChunksExact<u8>"* align 8 dereferenceable(40) %chunks_iter), !dbg !936
  br label %bb20, !dbg !936

bb20:                                             ; preds = %bb19
  store %"core::slice::ChunksExact<u8>"* %_57, %"core::slice::ChunksExact<u8>"** %iter, align 8, !dbg !936
  br label %bb21, !dbg !937

bb21:                                             ; preds = %bb27, %bb20
; call <&mut I as core::iter::traits::iterator::Iterator>::next
  %58 = call { i8*, i64 } @"_ZN72_$LT$$RF$mut$u20$I$u20$as$u20$core..iter..traits..iterator..Iterator$GT$4next17h87737b78cc35db92E"(%"core::slice::ChunksExact<u8>"** align 8 dereferenceable(8) %iter), !dbg !938
  store { i8*, i64 } %58, { i8*, i64 }* %_61, align 8, !dbg !938
  br label %bb22, !dbg !938

bb22:                                             ; preds = %bb21
  %59 = bitcast { i8*, i64 }* %_61 to {}**, !dbg !938
  %60 = load {}*, {}** %59, align 8, !dbg !938
  %61 = icmp eq {}* %60, null, !dbg !938
  %_64 = select i1 %61, i64 0, i64 1, !dbg !938
  switch i64 %_64, label %bb24 [
    i64 0, label %bb23
    i64 1, label %bb25
  ], !dbg !938

bb24:                                             ; preds = %bb22
  unreachable, !dbg !938

bb23:                                             ; preds = %bb22
; call core::slice::iter::ChunksExact<T>::remainder
  %62 = call { [0 x i8]*, i64 } @"_ZN4core5slice4iter20ChunksExact$LT$T$GT$9remainder17h490ed66fe7fb2994E"(%"core::slice::ChunksExact<u8>"* align 8 dereferenceable(40) %chunks_iter), !dbg !939
  %rem.0 = extractvalue { [0 x i8]*, i64 } %62, 0, !dbg !939
  %rem.1 = extractvalue { [0 x i8]*, i64 } %62, 1, !dbg !939
  %63 = getelementptr inbounds { [0 x i8]*, i64 }, { [0 x i8]*, i64 }* %rem.dbg.spill, i32 0, i32 0, !dbg !939
  store [0 x i8]* %rem.0, [0 x i8]** %63, align 8, !dbg !939
  %64 = getelementptr inbounds { [0 x i8]*, i64 }, { [0 x i8]*, i64 }* %rem.dbg.spill, i32 0, i32 1, !dbg !939
  store i64 %rem.1, i64* %64, align 8, !dbg !939
  call void @llvm.dbg.declare(metadata { [0 x i8]*, i64 }* %rem.dbg.spill, metadata !887, metadata !DIExpression()), !dbg !940
  br label %bb28, !dbg !939

bb25:                                             ; preds = %bb22
  %65 = bitcast { i8*, i64 }* %_61 to { [0 x i8]*, i64 }*, !dbg !941
  %66 = getelementptr inbounds { [0 x i8]*, i64 }, { [0 x i8]*, i64 }* %65, i32 0, i32 0, !dbg !941
  %val.0 = load [0 x i8]*, [0 x i8]** %66, align 8, !dbg !941, !nonnull !4
  %67 = getelementptr inbounds { [0 x i8]*, i64 }, { [0 x i8]*, i64 }* %65, i32 0, i32 1, !dbg !941
  %val.1 = load i64, i64* %67, align 8, !dbg !941
  %68 = getelementptr inbounds { [0 x i8]*, i64 }, { [0 x i8]*, i64 }* %val.dbg.spill, i32 0, i32 0, !dbg !941
  store [0 x i8]* %val.0, [0 x i8]** %68, align 8, !dbg !941
  %69 = getelementptr inbounds { [0 x i8]*, i64 }, { [0 x i8]*, i64 }* %val.dbg.spill, i32 0, i32 1, !dbg !941
  store i64 %val.1, i64* %69, align 8, !dbg !941
  call void @llvm.dbg.declare(metadata { [0 x i8]*, i64 }* %val.dbg.spill, metadata !883, metadata !DIExpression()), !dbg !942
  %70 = getelementptr inbounds { [0 x i8]*, i64 }, { [0 x i8]*, i64 }* %__next.dbg.spill, i32 0, i32 0, !dbg !942
  store [0 x i8]* %val.0, [0 x i8]** %70, align 8, !dbg !942
  %71 = getelementptr inbounds { [0 x i8]*, i64 }, { [0 x i8]*, i64 }* %__next.dbg.spill, i32 0, i32 1, !dbg !942
  store i64 %val.1, i64* %71, align 8, !dbg !942
  call void @llvm.dbg.declare(metadata { [0 x i8]*, i64 }* %__next.dbg.spill, metadata !881, metadata !DIExpression()), !dbg !938
  %72 = getelementptr inbounds { [0 x i8]*, i64 }, { [0 x i8]*, i64 }* %chunk.dbg.spill, i32 0, i32 0, !dbg !938
  store [0 x i8]* %val.0, [0 x i8]** %72, align 8, !dbg !938
  %73 = getelementptr inbounds { [0 x i8]*, i64 }, { [0 x i8]*, i64 }* %chunk.dbg.spill, i32 0, i32 1, !dbg !938
  store i64 %val.1, i64* %73, align 8, !dbg !938
  call void @llvm.dbg.declare(metadata { [0 x i8]*, i64 }* %chunk.dbg.spill, metadata !885, metadata !DIExpression()), !dbg !943
; call <T as core::convert::TryInto<U>>::try_into
  %_72 = call align 1 dereferenceable(144) i8* @"_ZN53_$LT$T$u20$as$u20$core..convert..TryInto$LT$U$GT$$GT$8try_into17hfe49b4969dcccc64E"([0 x i8]* nonnull align 1 %val.0, i64 %val.1), !dbg !944
  br label %bb26, !dbg !944

bb26:                                             ; preds = %bb25
; call core::result::Result<T,E>::unwrap
  %_71 = call align 1 dereferenceable(144) %"digest::generic_array::GenericArray<u8, digest::generic_array::typenum::UInt<digest::generic_array::typenum::UInt<digest::generic_array::typenum::UInt<digest::generic_array::typenum::UInt<digest::generic_array::typenum::UInt<digest::generic_array::typenum::UInt<digest::generic_array::typenum::UInt<digest::generic_array::typenum::UInt<digest::generic_array::typenum::UTerm, digest::consts::B1>, digest::consts::B0>, digest::consts::B0>, digest::consts::B1>, digest::consts::B0>, digest::consts::B0>, digest::consts::B0>, digest::consts::B0>>"* @"_ZN4core6result19Result$LT$T$C$E$GT$6unwrap17h9964a90bd6da82b7E"(i8* align 1 dereferenceable(144) %_72, %"core::panic::Location"* align 8 dereferenceable(24) bitcast (<{ i8*, [16 x i8] }>* @alloc418 to %"core::panic::Location"*)), !dbg !944
  br label %bb27, !dbg !944

bb27:                                             ; preds = %bb26
  %74 = bitcast i8** %_70 to %"digest::generic_array::GenericArray<u8, digest::generic_array::typenum::UInt<digest::generic_array::typenum::UInt<digest::generic_array::typenum::UInt<digest::generic_array::typenum::UInt<digest::generic_array::typenum::UInt<digest::generic_array::typenum::UInt<digest::generic_array::typenum::UInt<digest::generic_array::typenum::UInt<digest::generic_array::typenum::UTerm, digest::consts::B1>, digest::consts::B0>, digest::consts::B0>, digest::consts::B1>, digest::consts::B0>, digest::consts::B0>, digest::consts::B0>, digest::consts::B0>>"**, !dbg !945
  store %"digest::generic_array::GenericArray<u8, digest::generic_array::typenum::UInt<digest::generic_array::typenum::UInt<digest::generic_array::typenum::UInt<digest::generic_array::typenum::UInt<digest::generic_array::typenum::UInt<digest::generic_array::typenum::UInt<digest::generic_array::typenum::UInt<digest::generic_array::typenum::UInt<digest::generic_array::typenum::UTerm, digest::consts::B1>, digest::consts::B0>, digest::consts::B0>, digest::consts::B1>, digest::consts::B0>, digest::consts::B0>, digest::consts::B0>, digest::consts::B0>>"* %_71, %"digest::generic_array::GenericArray<u8, digest::generic_array::typenum::UInt<digest::generic_array::typenum::UInt<digest::generic_array::typenum::UInt<digest::generic_array::typenum::UInt<digest::generic_array::typenum::UInt<digest::generic_array::typenum::UInt<digest::generic_array::typenum::UInt<digest::generic_array::typenum::UInt<digest::generic_array::typenum::UTerm, digest::consts::B1>, digest::consts::B0>, digest::consts::B0>, digest::consts::B1>, digest::consts::B0>, digest::consts::B0>, digest::consts::B0>, digest::consts::B0>>"** %74, align 8, !dbg !945
  %75 = load i8*, i8** %_70, align 8, !dbg !945, !nonnull !4
  %76 = bitcast i8* %75 to %"digest::generic_array::GenericArray<u8, digest::generic_array::typenum::UInt<digest::generic_array::typenum::UInt<digest::generic_array::typenum::UInt<digest::generic_array::typenum::UInt<digest::generic_array::typenum::UInt<digest::generic_array::typenum::UInt<digest::generic_array::typenum::UInt<digest::generic_array::typenum::UInt<digest::generic_array::typenum::UTerm, digest::consts::B1>, digest::consts::B0>, digest::consts::B0>, digest::consts::B1>, digest::consts::B0>, digest::consts::B0>, digest::consts::B0>, digest::consts::B0>>"*, !dbg !945
; call sha3::Sha3_224::absorb::{{closure}}
  call void @"_ZN4sha38Sha3_2246absorb28_$u7b$$u7b$closure$u7d$$u7d$17hbd7dd73789812378E"(i64** align 8 dereferenceable(8) %f, %"digest::generic_array::GenericArray<u8, digest::generic_array::typenum::UInt<digest::generic_array::typenum::UInt<digest::generic_array::typenum::UInt<digest::generic_array::typenum::UInt<digest::generic_array::typenum::UInt<digest::generic_array::typenum::UInt<digest::generic_array::typenum::UInt<digest::generic_array::typenum::UInt<digest::generic_array::typenum::UTerm, digest::consts::B1>, digest::consts::B0>, digest::consts::B0>, digest::consts::B1>, digest::consts::B0>, digest::consts::B0>, digest::consts::B0>, digest::consts::B0>>"* align 1 dereferenceable(144) %76), !dbg !945
  br label %bb21, !dbg !945

bb28:                                             ; preds = %bb23
  %_81 = getelementptr inbounds %"block_buffer::BlockBuffer<digest::generic_array::typenum::UInt<digest::generic_array::typenum::UInt<digest::generic_array::typenum::UInt<digest::generic_array::typenum::UInt<digest::generic_array::typenum::UInt<digest::generic_array::typenum::UInt<digest::generic_array::typenum::UInt<digest::generic_array::typenum::UInt<digest::generic_array::typenum::UTerm, digest::consts::B1>, digest::consts::B0>, digest::consts::B0>, digest::consts::B1>, digest::consts::B0>, digest::consts::B0>, digest::consts::B0>, digest::consts::B0>>", %"block_buffer::BlockBuffer<digest::generic_array::typenum::UInt<digest::generic_array::typenum::UInt<digest::generic_array::typenum::UInt<digest::generic_array::typenum::UInt<digest::generic_array::typenum::UInt<digest::generic_array::typenum::UInt<digest::generic_array::typenum::UInt<digest::generic_array::typenum::UInt<digest::generic_array::typenum::UTerm, digest::consts::B1>, digest::consts::B0>, digest::consts::B0>, digest::consts::B1>, digest::consts::B0>, digest::consts::B0>, digest::consts::B0>, digest::consts::B0>>"* %self, i32 0, i32 1, !dbg !946
  store %"digest::generic_array::GenericArray<u8, digest::generic_array::typenum::UInt<digest::generic_array::typenum::UInt<digest::generic_array::typenum::UInt<digest::generic_array::typenum::UInt<digest::generic_array::typenum::UInt<digest::generic_array::typenum::UInt<digest::generic_array::typenum::UInt<digest::generic_array::typenum::UInt<digest::generic_array::typenum::UTerm, digest::consts::B1>, digest::consts::B0>, digest::consts::B0>, digest::consts::B1>, digest::consts::B0>, digest::consts::B0>, digest::consts::B0>, digest::consts::B0>>"* %_81, %"digest::generic_array::GenericArray<u8, digest::generic_array::typenum::UInt<digest::generic_array::typenum::UInt<digest::generic_array::typenum::UInt<digest::generic_array::typenum::UInt<digest::generic_array::typenum::UInt<digest::generic_array::typenum::UInt<digest::generic_array::typenum::UInt<digest::generic_array::typenum::UInt<digest::generic_array::typenum::UTerm, digest::consts::B1>, digest::consts::B0>, digest::consts::B0>, digest::consts::B1>, digest::consts::B0>, digest::consts::B0>, digest::consts::B0>, digest::consts::B0>>"** %self.dbg.spill.i7, align 8
  call void @llvm.dbg.declare(metadata %"digest::generic_array::GenericArray<u8, digest::generic_array::typenum::UInt<digest::generic_array::typenum::UInt<digest::generic_array::typenum::UInt<digest::generic_array::typenum::UInt<digest::generic_array::typenum::UInt<digest::generic_array::typenum::UInt<digest::generic_array::typenum::UInt<digest::generic_array::typenum::UInt<digest::generic_array::typenum::UTerm, digest::consts::B1>, digest::consts::B0>, digest::consts::B0>, digest::consts::B1>, digest::consts::B0>, digest::consts::B0>, digest::consts::B0>, digest::consts::B0>>"** %self.dbg.spill.i7, metadata !903, metadata !DIExpression()) #9, !dbg !947
  %_5.i8 = bitcast %"digest::generic_array::GenericArray<u8, digest::generic_array::typenum::UInt<digest::generic_array::typenum::UInt<digest::generic_array::typenum::UInt<digest::generic_array::typenum::UInt<digest::generic_array::typenum::UInt<digest::generic_array::typenum::UInt<digest::generic_array::typenum::UInt<digest::generic_array::typenum::UInt<digest::generic_array::typenum::UTerm, digest::consts::B1>, digest::consts::B0>, digest::consts::B0>, digest::consts::B1>, digest::consts::B0>, digest::consts::B0>, digest::consts::B0>, digest::consts::B0>>"* %_81 to i8*, !dbg !949
; call core::slice::raw::from_raw_parts_mut
  %77 = call { [0 x i8]*, i64 } @_ZN4core5slice3raw18from_raw_parts_mut17h4f9993b78f2e4c1fE(i8* %_5.i8, i64 144) #9, !dbg !950
  %_4.0.i9 = extractvalue { [0 x i8]*, i64 } %77, 0, !dbg !950
  %_4.1.i10 = extractvalue { [0 x i8]*, i64 } %77, 1, !dbg !950
  %_80.0 = extractvalue { [0 x i8]*, i64 } %77, 0, !dbg !946
  %_80.1 = extractvalue { [0 x i8]*, i64 } %77, 1, !dbg !946
  br label %bb29, !dbg !946

bb29:                                             ; preds = %bb28
  store i64 %rem.1, i64* %_82, align 8, !dbg !951
  %78 = load i64, i64* %_82, align 8, !dbg !946
; call core::slice::index::<impl core::ops::index::IndexMut<I> for [T]>::index_mut
  %79 = call { [0 x i8]*, i64 } @"_ZN4core5slice5index77_$LT$impl$u20$core..ops..index..IndexMut$LT$I$GT$$u20$for$u20$$u5b$T$u5d$$GT$9index_mut17hfc8cc15b9700af7cE"([0 x i8]* nonnull align 1 %_80.0, i64 %_80.1, i64 %78, %"core::panic::Location"* align 8 dereferenceable(24) bitcast (<{ i8*, [16 x i8] }>* @alloc420 to %"core::panic::Location"*)), !dbg !946
  %_78.0 = extractvalue { [0 x i8]*, i64 } %79, 0, !dbg !946
  %_78.1 = extractvalue { [0 x i8]*, i64 } %79, 1, !dbg !946
  br label %bb30, !dbg !946

bb30:                                             ; preds = %bb29
; call core::slice::<impl [T]>::copy_from_slice
  call void @"_ZN4core5slice29_$LT$impl$u20$$u5b$T$u5d$$GT$15copy_from_slice17hadd709d225153750E"([0 x i8]* nonnull align 1 %_78.0, i64 %_78.1, [0 x i8]* nonnull align 1 %rem.0, i64 %rem.1), !dbg !946
  br label %bb31, !dbg !946

bb31:                                             ; preds = %bb30
  %80 = bitcast %"block_buffer::BlockBuffer<digest::generic_array::typenum::UInt<digest::generic_array::typenum::UInt<digest::generic_array::typenum::UInt<digest::generic_array::typenum::UInt<digest::generic_array::typenum::UInt<digest::generic_array::typenum::UInt<digest::generic_array::typenum::UInt<digest::generic_array::typenum::UInt<digest::generic_array::typenum::UTerm, digest::consts::B1>, digest::consts::B0>, digest::consts::B0>, digest::consts::B1>, digest::consts::B0>, digest::consts::B0>, digest::consts::B0>, digest::consts::B0>>"* %self to i64*, !dbg !952
  store i64 %rem.1, i64* %80, align 8, !dbg !952
  br label %bb32, !dbg !917
}

; block_buffer::BlockBuffer<BlockSize>::input_block
; Function Attrs: inlinehint nounwind
define void @"_ZN12block_buffer28BlockBuffer$LT$BlockSize$GT$11input_block17h284ef4c472622241E"(%"block_buffer::BlockBuffer<digest::generic_array::typenum::UInt<digest::generic_array::typenum::UInt<digest::generic_array::typenum::UInt<digest::generic_array::typenum::UInt<digest::generic_array::typenum::UInt<digest::generic_array::typenum::UInt<digest::generic_array::typenum::UInt<digest::generic_array::typenum::UInt<digest::generic_array::typenum::UTerm, digest::consts::B1>, digest::consts::B0>, digest::consts::B1>, digest::consts::B0>, digest::consts::B1>, digest::consts::B0>, digest::consts::B0>, digest::consts::B0>>"* align 8 dereferenceable(176) %self, [0 x i8]* nonnull align 1 %0, i64 %1, i64* align 8 dereferenceable(8) %2) unnamed_addr #0 !dbg !953 {
start:
  %self.dbg.spill.i7 = alloca %"digest::generic_array::GenericArray<u8, digest::generic_array::typenum::UInt<digest::generic_array::typenum::UInt<digest::generic_array::typenum::UInt<digest::generic_array::typenum::UInt<digest::generic_array::typenum::UInt<digest::generic_array::typenum::UInt<digest::generic_array::typenum::UInt<digest::generic_array::typenum::UInt<digest::generic_array::typenum::UTerm, digest::consts::B1>, digest::consts::B0>, digest::consts::B1>, digest::consts::B0>, digest::consts::B1>, digest::consts::B0>, digest::consts::B0>, digest::consts::B0>>"*, align 8
  %self.dbg.spill.i3 = alloca %"digest::generic_array::GenericArray<u8, digest::generic_array::typenum::UInt<digest::generic_array::typenum::UInt<digest::generic_array::typenum::UInt<digest::generic_array::typenum::UInt<digest::generic_array::typenum::UInt<digest::generic_array::typenum::UInt<digest::generic_array::typenum::UInt<digest::generic_array::typenum::UInt<digest::generic_array::typenum::UTerm, digest::consts::B1>, digest::consts::B0>, digest::consts::B1>, digest::consts::B0>, digest::consts::B1>, digest::consts::B0>, digest::consts::B0>, digest::consts::B0>>"*, align 8
  %self.dbg.spill.i = alloca %"digest::generic_array::GenericArray<u8, digest::generic_array::typenum::UInt<digest::generic_array::typenum::UInt<digest::generic_array::typenum::UInt<digest::generic_array::typenum::UInt<digest::generic_array::typenum::UInt<digest::generic_array::typenum::UInt<digest::generic_array::typenum::UInt<digest::generic_array::typenum::UInt<digest::generic_array::typenum::UTerm, digest::consts::B1>, digest::consts::B0>, digest::consts::B1>, digest::consts::B0>, digest::consts::B1>, digest::consts::B0>, digest::consts::B0>, digest::consts::B0>>"*, align 8
  %rem.dbg.spill = alloca { [0 x i8]*, i64 }, align 8
  %chunk.dbg.spill = alloca { [0 x i8]*, i64 }, align 8
  %__next.dbg.spill = alloca { [0 x i8]*, i64 }, align 8
  %val.dbg.spill = alloca { [0 x i8]*, i64 }, align 8
  %r.dbg.spill2 = alloca { [0 x i8]*, i64 }, align 8
  %l.dbg.spill = alloca { [0 x i8]*, i64 }, align 8
  %n.dbg.spill = alloca i64, align 8
  %r.dbg.spill = alloca i64, align 8
  %self.dbg.spill = alloca %"block_buffer::BlockBuffer<digest::generic_array::typenum::UInt<digest::generic_array::typenum::UInt<digest::generic_array::typenum::UInt<digest::generic_array::typenum::UInt<digest::generic_array::typenum::UInt<digest::generic_array::typenum::UInt<digest::generic_array::typenum::UInt<digest::generic_array::typenum::UInt<digest::generic_array::typenum::UTerm, digest::consts::B1>, digest::consts::B0>, digest::consts::B1>, digest::consts::B0>, digest::consts::B1>, digest::consts::B0>, digest::consts::B0>, digest::consts::B0>>"*, align 8
  %_82 = alloca i64, align 8
  %_70 = alloca i8*, align 8
  %_61 = alloca { i8*, i64 }, align 8
  %iter = alloca %"core::slice::ChunksExact<u8>"*, align 8
  %chunks_iter = alloca %"core::slice::ChunksExact<u8>", align 8
  %_50 = alloca i8*, align 8
  %_45 = alloca i64, align 8
  %_35 = alloca { { [0 x i8]*, i64 }, { [0 x i8]*, i64 } }, align 8
  %_27 = alloca i8, align 1
  %_18 = alloca { i64, i64 }, align 8
  %f = alloca i64*, align 8
  %input = alloca { [0 x i8]*, i64 }, align 8
  %3 = getelementptr inbounds { [0 x i8]*, i64 }, { [0 x i8]*, i64 }* %input, i32 0, i32 0
  store [0 x i8]* %0, [0 x i8]** %3, align 8
  %4 = getelementptr inbounds { [0 x i8]*, i64 }, { [0 x i8]*, i64 }* %input, i32 0, i32 1
  store i64 %1, i64* %4, align 8
  store i64* %2, i64** %f, align 8
  store %"block_buffer::BlockBuffer<digest::generic_array::typenum::UInt<digest::generic_array::typenum::UInt<digest::generic_array::typenum::UInt<digest::generic_array::typenum::UInt<digest::generic_array::typenum::UInt<digest::generic_array::typenum::UInt<digest::generic_array::typenum::UInt<digest::generic_array::typenum::UInt<digest::generic_array::typenum::UTerm, digest::consts::B1>, digest::consts::B0>, digest::consts::B1>, digest::consts::B0>, digest::consts::B1>, digest::consts::B0>, digest::consts::B0>, digest::consts::B0>>"* %self, %"block_buffer::BlockBuffer<digest::generic_array::typenum::UInt<digest::generic_array::typenum::UInt<digest::generic_array::typenum::UInt<digest::generic_array::typenum::UInt<digest::generic_array::typenum::UInt<digest::generic_array::typenum::UInt<digest::generic_array::typenum::UInt<digest::generic_array::typenum::UInt<digest::generic_array::typenum::UTerm, digest::consts::B1>, digest::consts::B0>, digest::consts::B1>, digest::consts::B0>, digest::consts::B1>, digest::consts::B0>, digest::consts::B0>, digest::consts::B0>>"** %self.dbg.spill, align 8
  call void @llvm.dbg.declare(metadata %"block_buffer::BlockBuffer<digest::generic_array::typenum::UInt<digest::generic_array::typenum::UInt<digest::generic_array::typenum::UInt<digest::generic_array::typenum::UInt<digest::generic_array::typenum::UInt<digest::generic_array::typenum::UInt<digest::generic_array::typenum::UInt<digest::generic_array::typenum::UInt<digest::generic_array::typenum::UTerm, digest::consts::B1>, digest::consts::B0>, digest::consts::B1>, digest::consts::B0>, digest::consts::B1>, digest::consts::B0>, digest::consts::B0>, digest::consts::B0>>"** %self.dbg.spill, metadata !969, metadata !DIExpression()), !dbg !993
  call void @llvm.dbg.declare(metadata { [0 x i8]*, i64 }* %input, metadata !970, metadata !DIExpression()), !dbg !994
  call void @llvm.dbg.declare(metadata i64** %f, metadata !971, metadata !DIExpression()), !dbg !995
  call void @llvm.dbg.declare(metadata %"core::slice::ChunksExact<u8>"* %chunks_iter, metadata !979, metadata !DIExpression()), !dbg !996
  call void @llvm.dbg.declare(metadata %"core::slice::ChunksExact<u8>"** %iter, metadata !981, metadata !DIExpression()), !dbg !997
; call block_buffer::BlockBuffer<BlockSize>::remaining
  %r = call i64 @"_ZN12block_buffer28BlockBuffer$LT$BlockSize$GT$9remaining17h8d44a0f2de09c973E"(%"block_buffer::BlockBuffer<digest::generic_array::typenum::UInt<digest::generic_array::typenum::UInt<digest::generic_array::typenum::UInt<digest::generic_array::typenum::UInt<digest::generic_array::typenum::UInt<digest::generic_array::typenum::UInt<digest::generic_array::typenum::UInt<digest::generic_array::typenum::UInt<digest::generic_array::typenum::UTerm, digest::consts::B1>, digest::consts::B0>, digest::consts::B1>, digest::consts::B0>, digest::consts::B1>, digest::consts::B0>, digest::consts::B0>, digest::consts::B0>>"* align 8 dereferenceable(176) %self), !dbg !998
  store i64 %r, i64* %r.dbg.spill, align 8, !dbg !998
  call void @llvm.dbg.declare(metadata i64* %r.dbg.spill, metadata !972, metadata !DIExpression()), !dbg !999
  br label %bb1, !dbg !998

bb1:                                              ; preds = %start
  %5 = getelementptr inbounds { [0 x i8]*, i64 }, { [0 x i8]*, i64 }* %input, i32 0, i32 0, !dbg !1000
  %_8.0 = load [0 x i8]*, [0 x i8]** %5, align 8, !dbg !1000, !nonnull !4
  %6 = getelementptr inbounds { [0 x i8]*, i64 }, { [0 x i8]*, i64 }* %input, i32 0, i32 1, !dbg !1000
  %_8.1 = load i64, i64* %6, align 8, !dbg !1000
  %_6 = icmp ult i64 %_8.1, %r, !dbg !1000
  br i1 %_6, label %bb2, label %bb8, !dbg !1000

bb8:                                              ; preds = %bb1
  %7 = bitcast %"block_buffer::BlockBuffer<digest::generic_array::typenum::UInt<digest::generic_array::typenum::UInt<digest::generic_array::typenum::UInt<digest::generic_array::typenum::UInt<digest::generic_array::typenum::UInt<digest::generic_array::typenum::UInt<digest::generic_array::typenum::UInt<digest::generic_array::typenum::UInt<digest::generic_array::typenum::UTerm, digest::consts::B1>, digest::consts::B0>, digest::consts::B1>, digest::consts::B0>, digest::consts::B1>, digest::consts::B0>, digest::consts::B0>, digest::consts::B0>>"* %self to i64*, !dbg !1001
  %_28 = load i64, i64* %7, align 8, !dbg !1001
  %8 = icmp eq i64 %_28, 0, !dbg !1001
  br i1 %8, label %bb9, label %bb10, !dbg !1001

bb2:                                              ; preds = %bb1
  %9 = getelementptr inbounds { [0 x i8]*, i64 }, { [0 x i8]*, i64 }* %input, i32 0, i32 0, !dbg !1002
  %_11.0 = load [0 x i8]*, [0 x i8]** %9, align 8, !dbg !1002, !nonnull !4
  %10 = getelementptr inbounds { [0 x i8]*, i64 }, { [0 x i8]*, i64 }* %input, i32 0, i32 1, !dbg !1002
  %_11.1 = load i64, i64* %10, align 8, !dbg !1002
  store i64 %_11.1, i64* %n.dbg.spill, align 8, !dbg !1002
  call void @llvm.dbg.declare(metadata i64* %n.dbg.spill, metadata !974, metadata !DIExpression()), !dbg !1003
  %_17 = getelementptr inbounds %"block_buffer::BlockBuffer<digest::generic_array::typenum::UInt<digest::generic_array::typenum::UInt<digest::generic_array::typenum::UInt<digest::generic_array::typenum::UInt<digest::generic_array::typenum::UInt<digest::generic_array::typenum::UInt<digest::generic_array::typenum::UInt<digest::generic_array::typenum::UInt<digest::generic_array::typenum::UTerm, digest::consts::B1>, digest::consts::B0>, digest::consts::B1>, digest::consts::B0>, digest::consts::B1>, digest::consts::B0>, digest::consts::B0>, digest::consts::B0>>", %"block_buffer::BlockBuffer<digest::generic_array::typenum::UInt<digest::generic_array::typenum::UInt<digest::generic_array::typenum::UInt<digest::generic_array::typenum::UInt<digest::generic_array::typenum::UInt<digest::generic_array::typenum::UInt<digest::generic_array::typenum::UInt<digest::generic_array::typenum::UInt<digest::generic_array::typenum::UTerm, digest::consts::B1>, digest::consts::B0>, digest::consts::B1>, digest::consts::B0>, digest::consts::B1>, digest::consts::B0>, digest::consts::B0>, digest::consts::B0>>"* %self, i32 0, i32 1, !dbg !1004
  store %"digest::generic_array::GenericArray<u8, digest::generic_array::typenum::UInt<digest::generic_array::typenum::UInt<digest::generic_array::typenum::UInt<digest::generic_array::typenum::UInt<digest::generic_array::typenum::UInt<digest::generic_array::typenum::UInt<digest::generic_array::typenum::UInt<digest::generic_array::typenum::UInt<digest::generic_array::typenum::UTerm, digest::consts::B1>, digest::consts::B0>, digest::consts::B1>, digest::consts::B0>, digest::consts::B1>, digest::consts::B0>, digest::consts::B0>, digest::consts::B0>>"* %_17, %"digest::generic_array::GenericArray<u8, digest::generic_array::typenum::UInt<digest::generic_array::typenum::UInt<digest::generic_array::typenum::UInt<digest::generic_array::typenum::UInt<digest::generic_array::typenum::UInt<digest::generic_array::typenum::UInt<digest::generic_array::typenum::UInt<digest::generic_array::typenum::UInt<digest::generic_array::typenum::UTerm, digest::consts::B1>, digest::consts::B0>, digest::consts::B1>, digest::consts::B0>, digest::consts::B1>, digest::consts::B0>, digest::consts::B0>, digest::consts::B0>>"** %self.dbg.spill.i, align 8
  call void @llvm.dbg.declare(metadata %"digest::generic_array::GenericArray<u8, digest::generic_array::typenum::UInt<digest::generic_array::typenum::UInt<digest::generic_array::typenum::UInt<digest::generic_array::typenum::UInt<digest::generic_array::typenum::UInt<digest::generic_array::typenum::UInt<digest::generic_array::typenum::UInt<digest::generic_array::typenum::UInt<digest::generic_array::typenum::UTerm, digest::consts::B1>, digest::consts::B0>, digest::consts::B1>, digest::consts::B0>, digest::consts::B1>, digest::consts::B0>, digest::consts::B0>, digest::consts::B0>>"** %self.dbg.spill.i, metadata !1005, metadata !DIExpression()) #9, !dbg !1011
  %_5.i = bitcast %"digest::generic_array::GenericArray<u8, digest::generic_array::typenum::UInt<digest::generic_array::typenum::UInt<digest::generic_array::typenum::UInt<digest::generic_array::typenum::UInt<digest::generic_array::typenum::UInt<digest::generic_array::typenum::UInt<digest::generic_array::typenum::UInt<digest::generic_array::typenum::UInt<digest::generic_array::typenum::UTerm, digest::consts::B1>, digest::consts::B0>, digest::consts::B1>, digest::consts::B0>, digest::consts::B1>, digest::consts::B0>, digest::consts::B0>, digest::consts::B0>>"* %_17 to i8*, !dbg !1013
; call core::slice::raw::from_raw_parts_mut
  %11 = call { [0 x i8]*, i64 } @_ZN4core5slice3raw18from_raw_parts_mut17h4f9993b78f2e4c1fE(i8* %_5.i, i64 168) #9, !dbg !1014
  %_4.0.i = extractvalue { [0 x i8]*, i64 } %11, 0, !dbg !1014
  %_4.1.i = extractvalue { [0 x i8]*, i64 } %11, 1, !dbg !1014
  %_16.0 = extractvalue { [0 x i8]*, i64 } %11, 0, !dbg !1004
  %_16.1 = extractvalue { [0 x i8]*, i64 } %11, 1, !dbg !1004
  br label %bb3, !dbg !1004

bb3:                                              ; preds = %bb2
  %12 = bitcast %"block_buffer::BlockBuffer<digest::generic_array::typenum::UInt<digest::generic_array::typenum::UInt<digest::generic_array::typenum::UInt<digest::generic_array::typenum::UInt<digest::generic_array::typenum::UInt<digest::generic_array::typenum::UInt<digest::generic_array::typenum::UInt<digest::generic_array::typenum::UInt<digest::generic_array::typenum::UTerm, digest::consts::B1>, digest::consts::B0>, digest::consts::B1>, digest::consts::B0>, digest::consts::B1>, digest::consts::B0>, digest::consts::B0>, digest::consts::B0>>"* %self to i64*, !dbg !1015
  %_19 = load i64, i64* %12, align 8, !dbg !1015
  %13 = bitcast %"block_buffer::BlockBuffer<digest::generic_array::typenum::UInt<digest::generic_array::typenum::UInt<digest::generic_array::typenum::UInt<digest::generic_array::typenum::UInt<digest::generic_array::typenum::UInt<digest::generic_array::typenum::UInt<digest::generic_array::typenum::UInt<digest::generic_array::typenum::UInt<digest::generic_array::typenum::UTerm, digest::consts::B1>, digest::consts::B0>, digest::consts::B1>, digest::consts::B0>, digest::consts::B1>, digest::consts::B0>, digest::consts::B0>, digest::consts::B0>>"* %self to i64*, !dbg !1016
  %_21 = load i64, i64* %13, align 8, !dbg !1016
  %14 = call { i64, i1 } @llvm.uadd.with.overflow.i64(i64 %_21, i64 %_11.1), !dbg !1016
  %_23.0 = extractvalue { i64, i1 } %14, 0, !dbg !1016
  %_23.1 = extractvalue { i64, i1 } %14, 1, !dbg !1016
  %15 = call i1 @llvm.expect.i1(i1 %_23.1, i1 false), !dbg !1016
  br i1 %15, label %panic, label %bb4, !dbg !1016

bb4:                                              ; preds = %bb3
  %16 = bitcast { i64, i64 }* %_18 to i64*, !dbg !1015
  store i64 %_19, i64* %16, align 8, !dbg !1015
  %17 = getelementptr inbounds { i64, i64 }, { i64, i64 }* %_18, i32 0, i32 1, !dbg !1015
  store i64 %_23.0, i64* %17, align 8, !dbg !1015
  %18 = getelementptr inbounds { i64, i64 }, { i64, i64 }* %_18, i32 0, i32 0, !dbg !1004
  %19 = load i64, i64* %18, align 8, !dbg !1004
  %20 = getelementptr inbounds { i64, i64 }, { i64, i64 }* %_18, i32 0, i32 1, !dbg !1004
  %21 = load i64, i64* %20, align 8, !dbg !1004
; call core::slice::index::<impl core::ops::index::IndexMut<I> for [T]>::index_mut
  %22 = call { [0 x i8]*, i64 } @"_ZN4core5slice5index77_$LT$impl$u20$core..ops..index..IndexMut$LT$I$GT$$u20$for$u20$$u5b$T$u5d$$GT$9index_mut17hb60169623bf286d0E"([0 x i8]* nonnull align 1 %_16.0, i64 %_16.1, i64 %19, i64 %21, %"core::panic::Location"* align 8 dereferenceable(24) bitcast (<{ i8*, [16 x i8] }>* @alloc412 to %"core::panic::Location"*)), !dbg !1004
  %_14.0 = extractvalue { [0 x i8]*, i64 } %22, 0, !dbg !1004
  %_14.1 = extractvalue { [0 x i8]*, i64 } %22, 1, !dbg !1004
  br label %bb5, !dbg !1004

panic:                                            ; preds = %bb3
; call core::panicking::panic
  call void @_ZN4core9panicking5panic17h560e3e4b7752857aE([0 x i8]* nonnull align 1 bitcast ([28 x i8]* @str.0 to [0 x i8]*), i64 28, %"core::panic::Location"* align 8 dereferenceable(24) bitcast (<{ i8*, [16 x i8] }>* @alloc410 to %"core::panic::Location"*)), !dbg !1016
  unreachable, !dbg !1016

bb5:                                              ; preds = %bb4
  %23 = getelementptr inbounds { [0 x i8]*, i64 }, { [0 x i8]*, i64 }* %input, i32 0, i32 0, !dbg !1017
  %_24.0 = load [0 x i8]*, [0 x i8]** %23, align 8, !dbg !1017, !nonnull !4
  %24 = getelementptr inbounds { [0 x i8]*, i64 }, { [0 x i8]*, i64 }* %input, i32 0, i32 1, !dbg !1017
  %_24.1 = load i64, i64* %24, align 8, !dbg !1017
; call core::slice::<impl [T]>::copy_from_slice
  call void @"_ZN4core5slice29_$LT$impl$u20$$u5b$T$u5d$$GT$15copy_from_slice17hadd709d225153750E"([0 x i8]* nonnull align 1 %_14.0, i64 %_14.1, [0 x i8]* nonnull align 1 %_24.0, i64 %_24.1), !dbg !1004
  br label %bb6, !dbg !1004

bb6:                                              ; preds = %bb5
  %25 = bitcast %"block_buffer::BlockBuffer<digest::generic_array::typenum::UInt<digest::generic_array::typenum::UInt<digest::generic_array::typenum::UInt<digest::generic_array::typenum::UInt<digest::generic_array::typenum::UInt<digest::generic_array::typenum::UInt<digest::generic_array::typenum::UInt<digest::generic_array::typenum::UInt<digest::generic_array::typenum::UTerm, digest::consts::B1>, digest::consts::B0>, digest::consts::B1>, digest::consts::B0>, digest::consts::B1>, digest::consts::B0>, digest::consts::B0>, digest::consts::B0>>"* %self to i64*, !dbg !1018
  %26 = load i64, i64* %25, align 8, !dbg !1018
  %27 = call { i64, i1 } @llvm.uadd.with.overflow.i64(i64 %26, i64 %_11.1), !dbg !1018
  %_26.0 = extractvalue { i64, i1 } %27, 0, !dbg !1018
  %_26.1 = extractvalue { i64, i1 } %27, 1, !dbg !1018
  %28 = call i1 @llvm.expect.i1(i1 %_26.1, i1 false), !dbg !1018
  br i1 %28, label %panic1, label %bb7, !dbg !1018

bb7:                                              ; preds = %bb6
  %29 = bitcast %"block_buffer::BlockBuffer<digest::generic_array::typenum::UInt<digest::generic_array::typenum::UInt<digest::generic_array::typenum::UInt<digest::generic_array::typenum::UInt<digest::generic_array::typenum::UInt<digest::generic_array::typenum::UInt<digest::generic_array::typenum::UInt<digest::generic_array::typenum::UInt<digest::generic_array::typenum::UTerm, digest::consts::B1>, digest::consts::B0>, digest::consts::B1>, digest::consts::B0>, digest::consts::B1>, digest::consts::B0>, digest::consts::B0>, digest::consts::B0>>"* %self to i64*, !dbg !1018
  store i64 %_26.0, i64* %29, align 8, !dbg !1018
  br label %bb32, !dbg !1019

panic1:                                           ; preds = %bb6
; call core::panicking::panic
  call void @_ZN4core9panicking5panic17h560e3e4b7752857aE([0 x i8]* nonnull align 1 bitcast ([28 x i8]* @str.0 to [0 x i8]*), i64 28, %"core::panic::Location"* align 8 dereferenceable(24) bitcast (<{ i8*, [16 x i8] }>* @alloc414 to %"core::panic::Location"*)), !dbg !1018
  unreachable, !dbg !1018

bb32:                                             ; preds = %bb31, %bb7
  ret void, !dbg !1020

bb9:                                              ; preds = %bb8
  store i8 0, i8* %_27, align 1, !dbg !1001
  br label %bb11, !dbg !1001

bb10:                                             ; preds = %bb8
  %30 = getelementptr inbounds { [0 x i8]*, i64 }, { [0 x i8]*, i64 }* %input, i32 0, i32 0, !dbg !1021
  %_31.0 = load [0 x i8]*, [0 x i8]** %30, align 8, !dbg !1021, !nonnull !4
  %31 = getelementptr inbounds { [0 x i8]*, i64 }, { [0 x i8]*, i64 }* %input, i32 0, i32 1, !dbg !1021
  %_31.1 = load i64, i64* %31, align 8, !dbg !1021
  %_29 = icmp uge i64 %_31.1, %r, !dbg !1021
  %32 = zext i1 %_29 to i8, !dbg !1001
  store i8 %32, i8* %_27, align 1, !dbg !1001
  br label %bb11, !dbg !1001

bb11:                                             ; preds = %bb9, %bb10
  %33 = load i8, i8* %_27, align 1, !dbg !1001, !range !716
  %34 = trunc i8 %33 to i1, !dbg !1001
  br i1 %34, label %bb12, label %bb17, !dbg !1001

bb17:                                             ; preds = %bb16, %bb11
  %35 = getelementptr inbounds { [0 x i8]*, i64 }, { [0 x i8]*, i64 }* %input, i32 0, i32 0, !dbg !1022
  %_54.0 = load [0 x i8]*, [0 x i8]** %35, align 8, !dbg !1022, !nonnull !4
  %36 = getelementptr inbounds { [0 x i8]*, i64 }, { [0 x i8]*, i64 }* %input, i32 0, i32 1, !dbg !1022
  %_54.1 = load i64, i64* %36, align 8, !dbg !1022
; call block_buffer::BlockBuffer<BlockSize>::size
  %_55 = call i64 @"_ZN12block_buffer28BlockBuffer$LT$BlockSize$GT$4size17hed755d6020cc2867E"(%"block_buffer::BlockBuffer<digest::generic_array::typenum::UInt<digest::generic_array::typenum::UInt<digest::generic_array::typenum::UInt<digest::generic_array::typenum::UInt<digest::generic_array::typenum::UInt<digest::generic_array::typenum::UInt<digest::generic_array::typenum::UInt<digest::generic_array::typenum::UInt<digest::generic_array::typenum::UTerm, digest::consts::B1>, digest::consts::B0>, digest::consts::B1>, digest::consts::B0>, digest::consts::B1>, digest::consts::B0>, digest::consts::B0>, digest::consts::B0>>"* align 8 dereferenceable(176) %self), !dbg !1023
  br label %bb18, !dbg !1023

bb12:                                             ; preds = %bb11
  %37 = getelementptr inbounds { [0 x i8]*, i64 }, { [0 x i8]*, i64 }* %input, i32 0, i32 0, !dbg !1024
  %_36.0 = load [0 x i8]*, [0 x i8]** %37, align 8, !dbg !1024, !nonnull !4
  %38 = getelementptr inbounds { [0 x i8]*, i64 }, { [0 x i8]*, i64 }* %input, i32 0, i32 1, !dbg !1024
  %_36.1 = load i64, i64* %38, align 8, !dbg !1024
; call core::slice::<impl [T]>::split_at
  call void @"_ZN4core5slice29_$LT$impl$u20$$u5b$T$u5d$$GT$8split_at17h2c16e77906b976e8E"({ { [0 x i8]*, i64 }, { [0 x i8]*, i64 } }* noalias nocapture sret({ { [0 x i8]*, i64 }, { [0 x i8]*, i64 } }) dereferenceable(32) %_35, [0 x i8]* nonnull align 1 %_36.0, i64 %_36.1, i64 %r), !dbg !1024
  br label %bb13, !dbg !1024

bb13:                                             ; preds = %bb12
  %39 = bitcast { { [0 x i8]*, i64 }, { [0 x i8]*, i64 } }* %_35 to { [0 x i8]*, i64 }*, !dbg !1025
  %40 = getelementptr inbounds { [0 x i8]*, i64 }, { [0 x i8]*, i64 }* %39, i32 0, i32 0, !dbg !1025
  %l.0 = load [0 x i8]*, [0 x i8]** %40, align 8, !dbg !1025, !nonnull !4
  %41 = getelementptr inbounds { [0 x i8]*, i64 }, { [0 x i8]*, i64 }* %39, i32 0, i32 1, !dbg !1025
  %l.1 = load i64, i64* %41, align 8, !dbg !1025
  %42 = getelementptr inbounds { [0 x i8]*, i64 }, { [0 x i8]*, i64 }* %l.dbg.spill, i32 0, i32 0, !dbg !1025
  store [0 x i8]* %l.0, [0 x i8]** %42, align 8, !dbg !1025
  %43 = getelementptr inbounds { [0 x i8]*, i64 }, { [0 x i8]*, i64 }* %l.dbg.spill, i32 0, i32 1, !dbg !1025
  store i64 %l.1, i64* %43, align 8, !dbg !1025
  call void @llvm.dbg.declare(metadata { [0 x i8]*, i64 }* %l.dbg.spill, metadata !976, metadata !DIExpression()), !dbg !1026
  %44 = getelementptr inbounds { { [0 x i8]*, i64 }, { [0 x i8]*, i64 } }, { { [0 x i8]*, i64 }, { [0 x i8]*, i64 } }* %_35, i32 0, i32 1, !dbg !1027
  %45 = getelementptr inbounds { [0 x i8]*, i64 }, { [0 x i8]*, i64 }* %44, i32 0, i32 0, !dbg !1027
  %r.0 = load [0 x i8]*, [0 x i8]** %45, align 8, !dbg !1027, !nonnull !4
  %46 = getelementptr inbounds { [0 x i8]*, i64 }, { [0 x i8]*, i64 }* %44, i32 0, i32 1, !dbg !1027
  %r.1 = load i64, i64* %46, align 8, !dbg !1027
  %47 = getelementptr inbounds { [0 x i8]*, i64 }, { [0 x i8]*, i64 }* %r.dbg.spill2, i32 0, i32 0, !dbg !1027
  store [0 x i8]* %r.0, [0 x i8]** %47, align 8, !dbg !1027
  %48 = getelementptr inbounds { [0 x i8]*, i64 }, { [0 x i8]*, i64 }* %r.dbg.spill2, i32 0, i32 1, !dbg !1027
  store i64 %r.1, i64* %48, align 8, !dbg !1027
  call void @llvm.dbg.declare(metadata { [0 x i8]*, i64 }* %r.dbg.spill2, metadata !978, metadata !DIExpression()), !dbg !1028
  %49 = getelementptr inbounds { [0 x i8]*, i64 }, { [0 x i8]*, i64 }* %input, i32 0, i32 0, !dbg !1029
  store [0 x i8]* %r.0, [0 x i8]** %49, align 8, !dbg !1029
  %50 = getelementptr inbounds { [0 x i8]*, i64 }, { [0 x i8]*, i64 }* %input, i32 0, i32 1, !dbg !1029
  store i64 %r.1, i64* %50, align 8, !dbg !1029
  %_44 = getelementptr inbounds %"block_buffer::BlockBuffer<digest::generic_array::typenum::UInt<digest::generic_array::typenum::UInt<digest::generic_array::typenum::UInt<digest::generic_array::typenum::UInt<digest::generic_array::typenum::UInt<digest::generic_array::typenum::UInt<digest::generic_array::typenum::UInt<digest::generic_array::typenum::UInt<digest::generic_array::typenum::UTerm, digest::consts::B1>, digest::consts::B0>, digest::consts::B1>, digest::consts::B0>, digest::consts::B1>, digest::consts::B0>, digest::consts::B0>, digest::consts::B0>>", %"block_buffer::BlockBuffer<digest::generic_array::typenum::UInt<digest::generic_array::typenum::UInt<digest::generic_array::typenum::UInt<digest::generic_array::typenum::UInt<digest::generic_array::typenum::UInt<digest::generic_array::typenum::UInt<digest::generic_array::typenum::UInt<digest::generic_array::typenum::UInt<digest::generic_array::typenum::UTerm, digest::consts::B1>, digest::consts::B0>, digest::consts::B1>, digest::consts::B0>, digest::consts::B1>, digest::consts::B0>, digest::consts::B0>, digest::consts::B0>>"* %self, i32 0, i32 1, !dbg !1030
  store %"digest::generic_array::GenericArray<u8, digest::generic_array::typenum::UInt<digest::generic_array::typenum::UInt<digest::generic_array::typenum::UInt<digest::generic_array::typenum::UInt<digest::generic_array::typenum::UInt<digest::generic_array::typenum::UInt<digest::generic_array::typenum::UInt<digest::generic_array::typenum::UInt<digest::generic_array::typenum::UTerm, digest::consts::B1>, digest::consts::B0>, digest::consts::B1>, digest::consts::B0>, digest::consts::B1>, digest::consts::B0>, digest::consts::B0>, digest::consts::B0>>"* %_44, %"digest::generic_array::GenericArray<u8, digest::generic_array::typenum::UInt<digest::generic_array::typenum::UInt<digest::generic_array::typenum::UInt<digest::generic_array::typenum::UInt<digest::generic_array::typenum::UInt<digest::generic_array::typenum::UInt<digest::generic_array::typenum::UInt<digest::generic_array::typenum::UInt<digest::generic_array::typenum::UTerm, digest::consts::B1>, digest::consts::B0>, digest::consts::B1>, digest::consts::B0>, digest::consts::B1>, digest::consts::B0>, digest::consts::B0>, digest::consts::B0>>"** %self.dbg.spill.i3, align 8
  call void @llvm.dbg.declare(metadata %"digest::generic_array::GenericArray<u8, digest::generic_array::typenum::UInt<digest::generic_array::typenum::UInt<digest::generic_array::typenum::UInt<digest::generic_array::typenum::UInt<digest::generic_array::typenum::UInt<digest::generic_array::typenum::UInt<digest::generic_array::typenum::UInt<digest::generic_array::typenum::UInt<digest::generic_array::typenum::UTerm, digest::consts::B1>, digest::consts::B0>, digest::consts::B1>, digest::consts::B0>, digest::consts::B1>, digest::consts::B0>, digest::consts::B0>, digest::consts::B0>>"** %self.dbg.spill.i3, metadata !1005, metadata !DIExpression()) #9, !dbg !1031
  %_5.i4 = bitcast %"digest::generic_array::GenericArray<u8, digest::generic_array::typenum::UInt<digest::generic_array::typenum::UInt<digest::generic_array::typenum::UInt<digest::generic_array::typenum::UInt<digest::generic_array::typenum::UInt<digest::generic_array::typenum::UInt<digest::generic_array::typenum::UInt<digest::generic_array::typenum::UInt<digest::generic_array::typenum::UTerm, digest::consts::B1>, digest::consts::B0>, digest::consts::B1>, digest::consts::B0>, digest::consts::B1>, digest::consts::B0>, digest::consts::B0>, digest::consts::B0>>"* %_44 to i8*, !dbg !1033
; call core::slice::raw::from_raw_parts_mut
  %51 = call { [0 x i8]*, i64 } @_ZN4core5slice3raw18from_raw_parts_mut17h4f9993b78f2e4c1fE(i8* %_5.i4, i64 168) #9, !dbg !1034
  %_4.0.i5 = extractvalue { [0 x i8]*, i64 } %51, 0, !dbg !1034
  %_4.1.i6 = extractvalue { [0 x i8]*, i64 } %51, 1, !dbg !1034
  %_43.0 = extractvalue { [0 x i8]*, i64 } %51, 0, !dbg !1030
  %_43.1 = extractvalue { [0 x i8]*, i64 } %51, 1, !dbg !1030
  br label %bb14, !dbg !1030

bb14:                                             ; preds = %bb13
  %52 = bitcast %"block_buffer::BlockBuffer<digest::generic_array::typenum::UInt<digest::generic_array::typenum::UInt<digest::generic_array::typenum::UInt<digest::generic_array::typenum::UInt<digest::generic_array::typenum::UInt<digest::generic_array::typenum::UInt<digest::generic_array::typenum::UInt<digest::generic_array::typenum::UInt<digest::generic_array::typenum::UTerm, digest::consts::B1>, digest::consts::B0>, digest::consts::B1>, digest::consts::B0>, digest::consts::B1>, digest::consts::B0>, digest::consts::B0>, digest::consts::B0>>"* %self to i64*, !dbg !1035
  %_46 = load i64, i64* %52, align 8, !dbg !1035
  store i64 %_46, i64* %_45, align 8, !dbg !1035
  %53 = load i64, i64* %_45, align 8, !dbg !1030
; call core::slice::index::<impl core::ops::index::IndexMut<I> for [T]>::index_mut
  %54 = call { [0 x i8]*, i64 } @"_ZN4core5slice5index77_$LT$impl$u20$core..ops..index..IndexMut$LT$I$GT$$u20$for$u20$$u5b$T$u5d$$GT$9index_mut17h35fc9b05895a83dfE"([0 x i8]* nonnull align 1 %_43.0, i64 %_43.1, i64 %53, %"core::panic::Location"* align 8 dereferenceable(24) bitcast (<{ i8*, [16 x i8] }>* @alloc416 to %"core::panic::Location"*)), !dbg !1030
  %_41.0 = extractvalue { [0 x i8]*, i64 } %54, 0, !dbg !1030
  %_41.1 = extractvalue { [0 x i8]*, i64 } %54, 1, !dbg !1030
  br label %bb15, !dbg !1030

bb15:                                             ; preds = %bb14
; call core::slice::<impl [T]>::copy_from_slice
  call void @"_ZN4core5slice29_$LT$impl$u20$$u5b$T$u5d$$GT$15copy_from_slice17hadd709d225153750E"([0 x i8]* nonnull align 1 %_41.0, i64 %_41.1, [0 x i8]* nonnull align 1 %l.0, i64 %l.1), !dbg !1030
  br label %bb16, !dbg !1030

bb16:                                             ; preds = %bb15
  %_52 = getelementptr inbounds %"block_buffer::BlockBuffer<digest::generic_array::typenum::UInt<digest::generic_array::typenum::UInt<digest::generic_array::typenum::UInt<digest::generic_array::typenum::UInt<digest::generic_array::typenum::UInt<digest::generic_array::typenum::UInt<digest::generic_array::typenum::UInt<digest::generic_array::typenum::UInt<digest::generic_array::typenum::UTerm, digest::consts::B1>, digest::consts::B0>, digest::consts::B1>, digest::consts::B0>, digest::consts::B1>, digest::consts::B0>, digest::consts::B0>, digest::consts::B0>>", %"block_buffer::BlockBuffer<digest::generic_array::typenum::UInt<digest::generic_array::typenum::UInt<digest::generic_array::typenum::UInt<digest::generic_array::typenum::UInt<digest::generic_array::typenum::UInt<digest::generic_array::typenum::UInt<digest::generic_array::typenum::UInt<digest::generic_array::typenum::UInt<digest::generic_array::typenum::UTerm, digest::consts::B1>, digest::consts::B0>, digest::consts::B1>, digest::consts::B0>, digest::consts::B1>, digest::consts::B0>, digest::consts::B0>, digest::consts::B0>>"* %self, i32 0, i32 1, !dbg !1036
  %55 = bitcast i8** %_50 to %"digest::generic_array::GenericArray<u8, digest::generic_array::typenum::UInt<digest::generic_array::typenum::UInt<digest::generic_array::typenum::UInt<digest::generic_array::typenum::UInt<digest::generic_array::typenum::UInt<digest::generic_array::typenum::UInt<digest::generic_array::typenum::UInt<digest::generic_array::typenum::UInt<digest::generic_array::typenum::UTerm, digest::consts::B1>, digest::consts::B0>, digest::consts::B1>, digest::consts::B0>, digest::consts::B1>, digest::consts::B0>, digest::consts::B0>, digest::consts::B0>>"**, !dbg !1037
  store %"digest::generic_array::GenericArray<u8, digest::generic_array::typenum::UInt<digest::generic_array::typenum::UInt<digest::generic_array::typenum::UInt<digest::generic_array::typenum::UInt<digest::generic_array::typenum::UInt<digest::generic_array::typenum::UInt<digest::generic_array::typenum::UInt<digest::generic_array::typenum::UInt<digest::generic_array::typenum::UTerm, digest::consts::B1>, digest::consts::B0>, digest::consts::B1>, digest::consts::B0>, digest::consts::B1>, digest::consts::B0>, digest::consts::B0>, digest::consts::B0>>"* %_52, %"digest::generic_array::GenericArray<u8, digest::generic_array::typenum::UInt<digest::generic_array::typenum::UInt<digest::generic_array::typenum::UInt<digest::generic_array::typenum::UInt<digest::generic_array::typenum::UInt<digest::generic_array::typenum::UInt<digest::generic_array::typenum::UInt<digest::generic_array::typenum::UInt<digest::generic_array::typenum::UTerm, digest::consts::B1>, digest::consts::B0>, digest::consts::B1>, digest::consts::B0>, digest::consts::B1>, digest::consts::B0>, digest::consts::B0>, digest::consts::B0>>"** %55, align 8, !dbg !1037
  %56 = load i8*, i8** %_50, align 8, !dbg !1037, !nonnull !4
  %57 = bitcast i8* %56 to %"digest::generic_array::GenericArray<u8, digest::generic_array::typenum::UInt<digest::generic_array::typenum::UInt<digest::generic_array::typenum::UInt<digest::generic_array::typenum::UInt<digest::generic_array::typenum::UInt<digest::generic_array::typenum::UInt<digest::generic_array::typenum::UInt<digest::generic_array::typenum::UInt<digest::generic_array::typenum::UTerm, digest::consts::B1>, digest::consts::B0>, digest::consts::B1>, digest::consts::B0>, digest::consts::B1>, digest::consts::B0>, digest::consts::B0>, digest::consts::B0>>"*, !dbg !1037
; call sha3::Shake128::absorb::{{closure}}
  call void @"_ZN4sha38Shake1286absorb28_$u7b$$u7b$closure$u7d$$u7d$17h5cd4dabf57162778E"(i64** align 8 dereferenceable(8) %f, %"digest::generic_array::GenericArray<u8, digest::generic_array::typenum::UInt<digest::generic_array::typenum::UInt<digest::generic_array::typenum::UInt<digest::generic_array::typenum::UInt<digest::generic_array::typenum::UInt<digest::generic_array::typenum::UInt<digest::generic_array::typenum::UInt<digest::generic_array::typenum::UInt<digest::generic_array::typenum::UTerm, digest::consts::B1>, digest::consts::B0>, digest::consts::B1>, digest::consts::B0>, digest::consts::B1>, digest::consts::B0>, digest::consts::B0>, digest::consts::B0>>"* align 1 dereferenceable(168) %57), !dbg !1037
  br label %bb17, !dbg !1037

bb18:                                             ; preds = %bb17
; call core::slice::<impl [T]>::chunks_exact
  call void @"_ZN4core5slice29_$LT$impl$u20$$u5b$T$u5d$$GT$12chunks_exact17h41c9c983bd7cb9ceE"(%"core::slice::ChunksExact<u8>"* noalias nocapture sret(%"core::slice::ChunksExact<u8>") dereferenceable(40) %chunks_iter, [0 x i8]* nonnull align 1 %_54.0, i64 %_54.1, i64 %_55), !dbg !1022
  br label %bb19, !dbg !1022

bb19:                                             ; preds = %bb18
; call <I as core::iter::traits::collect::IntoIterator>::into_iter
  %_57 = call align 8 dereferenceable(40) %"core::slice::ChunksExact<u8>"* @"_ZN63_$LT$I$u20$as$u20$core..iter..traits..collect..IntoIterator$GT$9into_iter17h766d323de353e683E"(%"core::slice::ChunksExact<u8>"* align 8 dereferenceable(40) %chunks_iter), !dbg !1038
  br label %bb20, !dbg !1038

bb20:                                             ; preds = %bb19
  store %"core::slice::ChunksExact<u8>"* %_57, %"core::slice::ChunksExact<u8>"** %iter, align 8, !dbg !1038
  br label %bb21, !dbg !1039

bb21:                                             ; preds = %bb27, %bb20
; call <&mut I as core::iter::traits::iterator::Iterator>::next
  %58 = call { i8*, i64 } @"_ZN72_$LT$$RF$mut$u20$I$u20$as$u20$core..iter..traits..iterator..Iterator$GT$4next17h87737b78cc35db92E"(%"core::slice::ChunksExact<u8>"** align 8 dereferenceable(8) %iter), !dbg !1040
  store { i8*, i64 } %58, { i8*, i64 }* %_61, align 8, !dbg !1040
  br label %bb22, !dbg !1040

bb22:                                             ; preds = %bb21
  %59 = bitcast { i8*, i64 }* %_61 to {}**, !dbg !1040
  %60 = load {}*, {}** %59, align 8, !dbg !1040
  %61 = icmp eq {}* %60, null, !dbg !1040
  %_64 = select i1 %61, i64 0, i64 1, !dbg !1040
  switch i64 %_64, label %bb24 [
    i64 0, label %bb23
    i64 1, label %bb25
  ], !dbg !1040

bb24:                                             ; preds = %bb22
  unreachable, !dbg !1040

bb23:                                             ; preds = %bb22
; call core::slice::iter::ChunksExact<T>::remainder
  %62 = call { [0 x i8]*, i64 } @"_ZN4core5slice4iter20ChunksExact$LT$T$GT$9remainder17h490ed66fe7fb2994E"(%"core::slice::ChunksExact<u8>"* align 8 dereferenceable(40) %chunks_iter), !dbg !1041
  %rem.0 = extractvalue { [0 x i8]*, i64 } %62, 0, !dbg !1041
  %rem.1 = extractvalue { [0 x i8]*, i64 } %62, 1, !dbg !1041
  %63 = getelementptr inbounds { [0 x i8]*, i64 }, { [0 x i8]*, i64 }* %rem.dbg.spill, i32 0, i32 0, !dbg !1041
  store [0 x i8]* %rem.0, [0 x i8]** %63, align 8, !dbg !1041
  %64 = getelementptr inbounds { [0 x i8]*, i64 }, { [0 x i8]*, i64 }* %rem.dbg.spill, i32 0, i32 1, !dbg !1041
  store i64 %rem.1, i64* %64, align 8, !dbg !1041
  call void @llvm.dbg.declare(metadata { [0 x i8]*, i64 }* %rem.dbg.spill, metadata !989, metadata !DIExpression()), !dbg !1042
  br label %bb28, !dbg !1041

bb25:                                             ; preds = %bb22
  %65 = bitcast { i8*, i64 }* %_61 to { [0 x i8]*, i64 }*, !dbg !1043
  %66 = getelementptr inbounds { [0 x i8]*, i64 }, { [0 x i8]*, i64 }* %65, i32 0, i32 0, !dbg !1043
  %val.0 = load [0 x i8]*, [0 x i8]** %66, align 8, !dbg !1043, !nonnull !4
  %67 = getelementptr inbounds { [0 x i8]*, i64 }, { [0 x i8]*, i64 }* %65, i32 0, i32 1, !dbg !1043
  %val.1 = load i64, i64* %67, align 8, !dbg !1043
  %68 = getelementptr inbounds { [0 x i8]*, i64 }, { [0 x i8]*, i64 }* %val.dbg.spill, i32 0, i32 0, !dbg !1043
  store [0 x i8]* %val.0, [0 x i8]** %68, align 8, !dbg !1043
  %69 = getelementptr inbounds { [0 x i8]*, i64 }, { [0 x i8]*, i64 }* %val.dbg.spill, i32 0, i32 1, !dbg !1043
  store i64 %val.1, i64* %69, align 8, !dbg !1043
  call void @llvm.dbg.declare(metadata { [0 x i8]*, i64 }* %val.dbg.spill, metadata !985, metadata !DIExpression()), !dbg !1044
  %70 = getelementptr inbounds { [0 x i8]*, i64 }, { [0 x i8]*, i64 }* %__next.dbg.spill, i32 0, i32 0, !dbg !1044
  store [0 x i8]* %val.0, [0 x i8]** %70, align 8, !dbg !1044
  %71 = getelementptr inbounds { [0 x i8]*, i64 }, { [0 x i8]*, i64 }* %__next.dbg.spill, i32 0, i32 1, !dbg !1044
  store i64 %val.1, i64* %71, align 8, !dbg !1044
  call void @llvm.dbg.declare(metadata { [0 x i8]*, i64 }* %__next.dbg.spill, metadata !983, metadata !DIExpression()), !dbg !1040
  %72 = getelementptr inbounds { [0 x i8]*, i64 }, { [0 x i8]*, i64 }* %chunk.dbg.spill, i32 0, i32 0, !dbg !1040
  store [0 x i8]* %val.0, [0 x i8]** %72, align 8, !dbg !1040
  %73 = getelementptr inbounds { [0 x i8]*, i64 }, { [0 x i8]*, i64 }* %chunk.dbg.spill, i32 0, i32 1, !dbg !1040
  store i64 %val.1, i64* %73, align 8, !dbg !1040
  call void @llvm.dbg.declare(metadata { [0 x i8]*, i64 }* %chunk.dbg.spill, metadata !987, metadata !DIExpression()), !dbg !1045
; call <T as core::convert::TryInto<U>>::try_into
  %_72 = call align 1 dereferenceable(168) i8* @"_ZN53_$LT$T$u20$as$u20$core..convert..TryInto$LT$U$GT$$GT$8try_into17h346693bd14a8615fE"([0 x i8]* nonnull align 1 %val.0, i64 %val.1), !dbg !1046
  br label %bb26, !dbg !1046

bb26:                                             ; preds = %bb25
; call core::result::Result<T,E>::unwrap
  %_71 = call align 1 dereferenceable(168) %"digest::generic_array::GenericArray<u8, digest::generic_array::typenum::UInt<digest::generic_array::typenum::UInt<digest::generic_array::typenum::UInt<digest::generic_array::typenum::UInt<digest::generic_array::typenum::UInt<digest::generic_array::typenum::UInt<digest::generic_array::typenum::UInt<digest::generic_array::typenum::UInt<digest::generic_array::typenum::UTerm, digest::consts::B1>, digest::consts::B0>, digest::consts::B1>, digest::consts::B0>, digest::consts::B1>, digest::consts::B0>, digest::consts::B0>, digest::consts::B0>>"* @"_ZN4core6result19Result$LT$T$C$E$GT$6unwrap17hfd06230ec3931c72E"(i8* align 1 dereferenceable(168) %_72, %"core::panic::Location"* align 8 dereferenceable(24) bitcast (<{ i8*, [16 x i8] }>* @alloc418 to %"core::panic::Location"*)), !dbg !1046
  br label %bb27, !dbg !1046

bb27:                                             ; preds = %bb26
