; ModuleID = 'sol_swap.d1a98802-cgu.0'
source_filename = "sol_swap.d1a98802-cgu.0"
target datalayout = "e-m:e-p:64:64-i64:64-n32:64-S128"
target triple = "bpfel"

%"anchor_lang::prelude::Pubkey" = type { [32 x i8] }
%"std::vec::IntoIter<u8>" = type { %"std::marker::PhantomData<u8>", %"std::alloc::Global", i8*, i64, i8*, i8* }
%"std::marker::PhantomData<u8>" = type {}
%"std::alloc::Global" = type {}
%"std::option::Option<usize>::Some" = type { [1 x i64], i64 }
%"anchor_lang::idl::IdlAccount" = type { %"std::vec::Vec<u8>", %"anchor_lang::prelude::Pubkey" }
%"std::vec::Vec<u8>" = type { { i8*, i64 }, i64 }
%"anchor_lang::accounts::program_account::Inner<anchor_lang::idl::IdlAccount>" = type { %"anchor_lang::prelude::AccountInfo", %"anchor_lang::idl::IdlAccount" }
%"anchor_lang::prelude::AccountInfo" = type { %"anchor_lang::prelude::Pubkey"*, i64*, i64*, %"anchor_lang::prelude::Pubkey"*, i64, i8, i8, i8, [5 x i8] }
%"std::collections::btree_map::IntoIter<std::string::String, u8>" = type { %"alloc::collections::btree::navigate::LazyLeafRange<alloc::collections::btree::node::marker::Dying, std::string::String, u8>", i64 }
%"alloc::collections::btree::navigate::LazyLeafRange<alloc::collections::btree::node::marker::Dying, std::string::String, u8>" = type { %"std::option::Option<alloc::collections::btree::navigate::LazyLeafHandle<alloc::collections::btree::node::marker::Dying, std::string::String, u8>>", %"std::option::Option<alloc::collections::btree::navigate::LazyLeafHandle<alloc::collections::btree::node::marker::Dying, std::string::String, u8>>" }
%"std::option::Option<alloc::collections::btree::navigate::LazyLeafHandle<alloc::collections::btree::node::marker::Dying, std::string::String, u8>>" = type { i64, [3 x i64] }
%"std::collections::BTreeMap<std::string::String, u8>" = type { { i64, i64* }, i64 }
%"std::mem::ManuallyDrop<std::collections::BTreeMap<std::string::String, u8>>" = type { %"std::collections::BTreeMap<std::string::String, u8>" }
%"std::result::Result<(), anchor_lang::error::Error>" = type { i64, [13 x i64] }
%"anchor_spl::token::TokenAccount" = type { %"spl_token::state::Account" }
%"spl_token::state::Account" = type { %"anchor_lang::prelude::Pubkey", %"anchor_lang::prelude::Pubkey", i64, %"anchor_lang::solana_program::program_option::COption<anchor_lang::prelude::Pubkey>", i8, [3 x i8], { i32, i64 }, i64, %"anchor_lang::solana_program::program_option::COption<anchor_lang::prelude::Pubkey>", [1 x i32] }
%"anchor_lang::solana_program::program_option::COption<anchor_lang::prelude::Pubkey>" = type { i32, [8 x i32] }
%"std::io::Cursor<&mut [u8]>" = type { { [0 x i8]*, i64 }, i64 }
%"std::result::Result<anchor_spl::token::Mint, anchor_lang::error::Error>" = type { i64, [14 x i64] }
%"std::result::Result<anchor_spl::token::TokenAccount, anchor_lang::error::Error>" = type { i64, [22 x i64] }
%"anchor_lang::context::Context<Initialize>" = type { %"anchor_lang::prelude::Pubkey"*, %Initialize*, { [0 x %"anchor_lang::prelude::AccountInfo"]*, i64 }, %"std::collections::BTreeMap<std::string::String, u8>" }
%Initialize = type { %"anchor_lang::prelude::Signer", %"anchor_lang::prelude::Account<anchor_spl::token::TokenAccount>", %"anchor_lang::prelude::AccountInfo", %"anchor_lang::prelude::Account<Exchange>", %"anchor_lang::prelude::Account<anchor_spl::token::Mint>", %"anchor_lang::prelude::Program<anchor_spl::token::Token>", %"anchor_lang::prelude::Program<anchor_lang::System>" }
%"anchor_lang::prelude::Signer" = type { %"anchor_lang::prelude::AccountInfo" }
%"anchor_lang::prelude::Account<anchor_spl::token::TokenAccount>" = type { %"anchor_spl::token::TokenAccount", %"anchor_lang::prelude::AccountInfo" }
%"anchor_lang::prelude::Account<Exchange>" = type { %Exchange, %"anchor_lang::prelude::AccountInfo" }
%Exchange = type { i64, %"anchor_lang::prelude::Pubkey", %"anchor_lang::prelude::Pubkey", %"anchor_lang::prelude::Pubkey", i8, [7 x i8] }
%"anchor_lang::prelude::Account<anchor_spl::token::Mint>" = type { %"anchor_spl::token::Mint", %"anchor_lang::prelude::AccountInfo" }
%"anchor_spl::token::Mint" = type { %"spl_token::state::Mint" }
%"spl_token::state::Mint" = type { %"anchor_lang::solana_program::program_option::COption<anchor_lang::prelude::Pubkey>", [1 x i32], i64, i8, i8, [2 x i8], %"anchor_lang::solana_program::program_option::COption<anchor_lang::prelude::Pubkey>" }
%"anchor_lang::prelude::Program<anchor_spl::token::Token>" = type { %"std::marker::PhantomData<anchor_spl::token::Token>", %"anchor_lang::prelude::AccountInfo", %"std::option::Option<anchor_lang::prelude::Pubkey>", [7 x i8] }
%"std::marker::PhantomData<anchor_spl::token::Token>" = type {}
%"std::option::Option<anchor_lang::prelude::Pubkey>" = type { i8, [32 x i8] }
%"anchor_lang::prelude::Program<anchor_lang::System>" = type { %"std::marker::PhantomData<anchor_lang::System>", %"anchor_lang::prelude::AccountInfo", %"std::option::Option<anchor_lang::prelude::Pubkey>", [7 x i8] }
%"std::marker::PhantomData<anchor_lang::System>" = type {}
%"anchor_lang::context::Context<BuyToken>" = type { %"anchor_lang::prelude::Pubkey"*, %BuyToken*, { [0 x %"anchor_lang::prelude::AccountInfo"]*, i64 }, %"std::collections::BTreeMap<std::string::String, u8>" }
%BuyToken = type { %"anchor_lang::prelude::Signer", %"anchor_lang::prelude::Account<anchor_spl::token::TokenAccount>", %"anchor_lang::prelude::Account<anchor_spl::token::TokenAccount>", %"anchor_lang::prelude::AccountInfo", %"anchor_lang::prelude::Account<Exchange>", %"anchor_lang::prelude::Program<anchor_spl::token::Token>", %"anchor_lang::prelude::Program<anchor_lang::System>" }
%"anchor_lang::context::Context<SellToken>" = type { %"anchor_lang::prelude::Pubkey"*, %SellToken*, { [0 x %"anchor_lang::prelude::AccountInfo"]*, i64 }, %"std::collections::BTreeMap<std::string::String, u8>" }
%SellToken = type { %"anchor_lang::prelude::Signer", %"anchor_lang::prelude::Account<anchor_spl::token::TokenAccount>", %"anchor_lang::prelude::Account<anchor_spl::token::TokenAccount>", %"anchor_lang::prelude::AccountInfo", %"anchor_lang::prelude::Account<Exchange>", %"anchor_lang::prelude::Program<anchor_spl::token::Token>", %"anchor_lang::prelude::Program<anchor_lang::System>" }
%"anchor_lang::context::CpiContext<anchor_spl::token::Transfer>" = type { %"anchor_spl::token::Transfer", %"std::vec::Vec<anchor_lang::prelude::AccountInfo>", %"anchor_lang::prelude::AccountInfo", { [0 x { [0 x { [0 x i8]*, i64 }]*, i64 }]*, i64 } }
%"anchor_spl::token::Transfer" = type { %"anchor_lang::prelude::AccountInfo", %"anchor_lang::prelude::AccountInfo", %"anchor_lang::prelude::AccountInfo" }
%"std::vec::Vec<anchor_lang::prelude::AccountInfo>" = type { { i64*, i64 }, i64 }
%"anchor_lang::context::CpiContext<anchor_spl::token::MintTo>" = type { %"anchor_spl::token::MintTo", %"std::vec::Vec<anchor_lang::prelude::AccountInfo>", %"anchor_lang::prelude::AccountInfo", { [0 x { [0 x { [0 x i8]*, i64 }]*, i64 }]*, i64 } }
%"anchor_spl::token::MintTo" = type { %"anchor_lang::prelude::AccountInfo", %"anchor_lang::prelude::AccountInfo", %"anchor_lang::prelude::AccountInfo" }
%"std::result::Result<std::convert::Infallible, anchor_lang::error::Error>::Err" = type { %"anchor_lang::error::Error" }
%"anchor_lang::error::Error" = type { i64, [13 x i64] }
%"std::ops::ControlFlow<std::result::Result<std::convert::Infallible, anchor_lang::error::Error>, anchor_spl::token::TokenAccount>" = type { i64, [22 x i64] }
%"std::result::Result<std::convert::Infallible, anchor_lang::prelude::ProgramError>::Err" = type { %"anchor_lang::prelude::ProgramError" }
%"anchor_lang::prelude::ProgramError" = type { i32, [7 x i32] }
%"std::result::Result<std::cell::Ref<&mut [u8]>, anchor_lang::prelude::ProgramError>" = type { i64, [4 x i64] }
%"std::ops::ControlFlow<std::result::Result<std::convert::Infallible, anchor_lang::prelude::ProgramError>, std::cell::Ref<&mut [u8]>>" = type { i64, [4 x i64] }
%"std::ops::ControlFlow<std::result::Result<std::convert::Infallible, anchor_lang::prelude::ProgramError>, std::cell::Ref<&mut [u8]>>::Continue" = type { [1 x i64], { i64*, i64* } }
%"std::ops::ControlFlow<std::result::Result<std::convert::Infallible, anchor_lang::prelude::ProgramError>, std::cell::Ref<&mut [u8]>>::Break" = type { [1 x i64], %"std::result::Result<std::convert::Infallible, anchor_lang::prelude::ProgramError>::Err" }
%"std::ops::ControlFlow<std::result::Result<std::convert::Infallible, anchor_lang::error::Error>, anchor_spl::token::TokenAccount>::Continue" = type { [1 x i64], %"anchor_spl::token::TokenAccount" }
%"std::ops::ControlFlow<std::result::Result<std::convert::Infallible, anchor_lang::error::Error>, anchor_spl::token::TokenAccount>::Break" = type { [1 x i64], %"std::result::Result<std::convert::Infallible, anchor_lang::error::Error>::Err" }
%"std::result::Result<anchor_lang::prelude::Account<anchor_spl::token::Mint>, anchor_lang::error::Error>" = type { i64, [17 x i64] }
%"std::ops::ControlFlow<std::result::Result<std::convert::Infallible, anchor_lang::error::Error>, anchor_spl::token::Mint>" = type { i64, [14 x i64] }
%"std::result::Result<anchor_lang::prelude::Account<anchor_spl::token::Mint>, anchor_lang::error::Error>::Err" = type { [1 x i64], %"anchor_lang::error::Error" }
%"std::ops::ControlFlow<std::result::Result<std::convert::Infallible, anchor_lang::error::Error>, anchor_spl::token::Mint>::Continue" = type { [1 x i64], %"anchor_spl::token::Mint" }
%"std::ops::ControlFlow<std::result::Result<std::convert::Infallible, anchor_lang::error::Error>, anchor_spl::token::Mint>::Break" = type { [1 x i64], %"std::result::Result<std::convert::Infallible, anchor_lang::error::Error>::Err" }
%"std::result::Result<anchor_lang::prelude::Account<anchor_spl::token::Mint>, anchor_lang::error::Error>::Ok" = type { [1 x i64], %"anchor_lang::prelude::Account<anchor_spl::token::Mint>" }
%"std::result::Result<anchor_lang::prelude::Account<Exchange>, anchor_lang::error::Error>" = type { i64, [20 x i64] }
%"std::result::Result<Exchange, anchor_lang::error::Error>" = type { i64, [14 x i64] }
%"std::ops::ControlFlow<std::result::Result<std::convert::Infallible, anchor_lang::error::Error>, Exchange>" = type { i64, [14 x i64] }
%"std::result::Result<anchor_lang::prelude::Account<Exchange>, anchor_lang::error::Error>::Err" = type { [1 x i64], %"anchor_lang::error::Error" }
%"std::ops::ControlFlow<std::result::Result<std::convert::Infallible, anchor_lang::error::Error>, Exchange>::Continue" = type { [1 x i64], %Exchange }
%"std::ops::ControlFlow<std::result::Result<std::convert::Infallible, anchor_lang::error::Error>, Exchange>::Break" = type { [1 x i64], %"std::result::Result<std::convert::Infallible, anchor_lang::error::Error>::Err" }
%"std::result::Result<anchor_lang::prelude::Account<Exchange>, anchor_lang::error::Error>::Ok" = type { [1 x i64], %"anchor_lang::prelude::Account<Exchange>" }
%"std::result::Result<anchor_lang::prelude::Account<anchor_spl::token::TokenAccount>, anchor_lang::error::Error>" = type { i64, [28 x i64] }
%"std::result::Result<anchor_lang::prelude::Account<anchor_spl::token::TokenAccount>, anchor_lang::error::Error>::Err" = type { [1 x i64], %"anchor_lang::error::Error" }
%"std::result::Result<anchor_lang::prelude::Account<anchor_spl::token::TokenAccount>, anchor_lang::error::Error>::Ok" = type { [1 x i64], %"anchor_lang::prelude::Account<anchor_spl::token::TokenAccount>" }
%"std::result::Result<anchor_lang::prelude::Program<anchor_spl::token::Token>, anchor_lang::error::Error>" = type { i64, [14 x i64] }
%"anchor_lang::prelude::UpgradeableLoaderState" = type { i8, [47 x i8] }
%"std::result::Result<anchor_lang::prelude::UpgradeableLoaderState, anchor_lang::error::Error>" = type { i64, [14 x i64] }
%"std::ops::ControlFlow<std::result::Result<std::convert::Infallible, anchor_lang::error::Error>, anchor_lang::prelude::UpgradeableLoaderState>" = type { i64, [14 x i64] }
%"std::result::Result<anchor_lang::prelude::Program<anchor_spl::token::Token>, anchor_lang::error::Error>::Err" = type { [1 x i64], %"anchor_lang::error::Error" }
%"std::ops::ControlFlow<std::result::Result<std::convert::Infallible, anchor_lang::error::Error>, anchor_lang::prelude::UpgradeableLoaderState>::Continue" = type { [1 x i64], %"anchor_lang::prelude::UpgradeableLoaderState" }
%"std::ops::ControlFlow<std::result::Result<std::convert::Infallible, anchor_lang::error::Error>, anchor_lang::prelude::UpgradeableLoaderState>::Break" = type { [1 x i64], %"std::result::Result<std::convert::Infallible, anchor_lang::error::Error>::Err" }
%"std::panic::Location" = type { { [0 x i8]*, i64 }, i32, i32 }
%"anchor_lang::prelude::UpgradeableLoaderState::Program" = type { [1 x i8], %"anchor_lang::prelude::Pubkey" }
%"std::option::Option<anchor_lang::prelude::Pubkey>::Some" = type { [1 x i8], %"anchor_lang::prelude::Pubkey" }
%"std::result::Result<anchor_lang::prelude::Program<anchor_spl::token::Token>, anchor_lang::error::Error>::Ok" = type { [1 x i64], %"anchor_lang::prelude::Program<anchor_spl::token::Token>" }
%"std::result::Result<anchor_lang::prelude::Program<anchor_lang::System>, anchor_lang::error::Error>" = type { i64, [14 x i64] }
%"std::result::Result<anchor_lang::prelude::Program<anchor_lang::System>, anchor_lang::error::Error>::Err" = type { [1 x i64], %"anchor_lang::error::Error" }
%"std::result::Result<anchor_lang::prelude::Program<anchor_lang::System>, anchor_lang::error::Error>::Ok" = type { [1 x i64], %"anchor_lang::prelude::Program<anchor_lang::System>" }
%"std::result::Result<SellToken, anchor_lang::error::Error>" = type { i64, [110 x i64] }
%"std::result::Result<SellToken, anchor_lang::error::Error>::Err" = type { [1 x i64], %"anchor_lang::error::Error" }
%"std::result::Result<instruction::BuyToken, std::io::Error>" = type { i64, [2 x i64] }
%"std::io::Error" = type { %"std::io::error::Repr" }
%"std::io::error::Repr" = type { i8, [15 x i8] }
%"std::result::Result<std::convert::Infallible, std::io::Error>::Err" = type { %"std::io::Error" }
%"std::result::Result<instruction::BuyToken, std::io::Error>::Err" = type { [1 x i64], %"std::io::Error" }
%"std::result::Result<Initialize, anchor_lang::error::Error>" = type { i64, [99 x i64] }
%"std::result::Result<Initialize, anchor_lang::error::Error>::Err" = type { [1 x i64], %"anchor_lang::error::Error" }
%"std::result::Result<Exchange, std::io::Error>" = type { i64, [14 x i64] }
%"std::result::Result<Exchange, std::io::Error>::Err" = type { [1 x i64], %"std::io::Error" }
%"std::result::Result<instruction::Initialize, std::io::Error>" = type { i64, [3 x i64] }
%"std::result::Result<instruction::Initialize, std::io::Error>::Err" = type { [1 x i64], %"std::io::Error" }
%"std::result::Result<BuyToken, anchor_lang::error::Error>" = type { i64, [110 x i64] }
%"std::result::Result<BuyToken, anchor_lang::error::Error>::Err" = type { [1 x i64], %"anchor_lang::error::Error" }
%"std::result::Result<(), anchor_lang::error::Error>::Err" = type { %"anchor_lang::error::Error" }
%"std::result::Result<instruction::SellToken, std::io::Error>" = type { i64, [2 x i64] }
%"std::result::Result<instruction::SellToken, std::io::Error>::Err" = type { [1 x i64], %"std::io::Error" }
%"std::panic::PanicInfo" = type { { {}*, [3 x i64]* }, i64*, %"std::panic::Location"* }
%"std::fmt::Formatter" = type { { i64, i64 }, { i64, i64 }, { {}*, [3 x i64]* }, i32, i32, i8, [7 x i8] }
%"std::string::String" = type { %"std::vec::Vec<u8>" }
%"std::result::Result<(), std::io::Error>" = type { i8, [15 x i8] }
%"core::fmt::Opaque" = type {}
%"std::fmt::Arguments" = type { { [0 x { [0 x i8]*, i64 }]*, i64 }, { i64*, i64 }, { [0 x { i8*, i64* }]*, i64 } }
%"std::mem::MaybeUninit<std::string::String>" = type { [3 x i64] }
%"anchor_lang::__private::Ctor" = type { %"anchor_lang::prelude::AccountInfo", %"anchor_lang::prelude::AccountInfo", %"anchor_lang::prelude::AccountInfo", %"anchor_lang::prelude::AccountInfo", %"anchor_lang::prelude::AccountInfo" }
%"std::mem::MaybeUninit<std::option::Option<alloc::collections::btree::navigate::LazyLeafHandle<alloc::collections::btree::node::marker::Dying, std::string::String, u8>>>" = type { [4 x i64] }
%"std::mem::ManuallyDrop<std::option::Option<alloc::collections::btree::navigate::LazyLeafHandle<alloc::collections::btree::node::marker::Dying, std::string::String, u8>>>" = type { %"std::option::Option<alloc::collections::btree::navigate::LazyLeafHandle<alloc::collections::btree::node::marker::Dying, std::string::String, u8>>" }
%"std::mem::MaybeUninit<std::collections::BTreeMap<std::string::String, u8>>" = type { [3 x i64] }
%"alloc::collections::btree::node::Handle<alloc::collections::btree::node::NodeRef<alloc::collections::btree::node::marker::Dying, std::string::String, u8, alloc::collections::btree::node::marker::LeafOrInternal>, alloc::collections::btree::node::marker::KV>" = type { %"std::marker::PhantomData<alloc::collections::btree::node::marker::KV>", { i64, i64* }, i64 }
%"std::marker::PhantomData<alloc::collections::btree::node::marker::KV>" = type {}
%"std::mem::MaybeUninit<alloc::collections::btree::node::Handle<alloc::collections::btree::node::NodeRef<alloc::collections::btree::node::marker::Dying, std::string::String, u8, alloc::collections::btree::node::marker::LeafOrInternal>, alloc::collections::btree::node::marker::KV>>" = type { [3 x i64] }
%"std::mem::ManuallyDrop<alloc::collections::btree::node::Handle<alloc::collections::btree::node::NodeRef<alloc::collections::btree::node::marker::Dying, std::string::String, u8, alloc::collections::btree::node::marker::LeafOrInternal>, alloc::collections::btree::node::marker::KV>>" = type { %"alloc::collections::btree::node::Handle<alloc::collections::btree::node::NodeRef<alloc::collections::btree::node::marker::Dying, std::string::String, u8, alloc::collections::btree::node::marker::LeafOrInternal>, alloc::collections::btree::node::marker::KV>" }
%"alloc::collections::btree::node::Handle<alloc::collections::btree::node::NodeRef<alloc::collections::btree::node::marker::Dying, std::string::String, u8, alloc::collections::btree::node::marker::Leaf>, alloc::collections::btree::node::marker::Edge>" = type { %"std::marker::PhantomData<alloc::collections::btree::node::marker::Edge>", { i64, i64* }, i64 }
%"std::marker::PhantomData<alloc::collections::btree::node::marker::Edge>" = type {}
%"std::mem::MaybeUninit<alloc::collections::btree::node::Handle<alloc::collections::btree::node::NodeRef<alloc::collections::btree::node::marker::Dying, std::string::String, u8, alloc::collections::btree::node::marker::Leaf>, alloc::collections::btree::node::marker::Edge>>" = type { [3 x i64] }
%"std::mem::ManuallyDrop<alloc::collections::btree::node::Handle<alloc::collections::btree::node::NodeRef<alloc::collections::btree::node::marker::Dying, std::string::String, u8, alloc::collections::btree::node::marker::Leaf>, alloc::collections::btree::node::marker::Edge>>" = type { %"alloc::collections::btree::node::Handle<alloc::collections::btree::node::NodeRef<alloc::collections::btree::node::marker::Dying, std::string::String, u8, alloc::collections::btree::node::marker::Leaf>, alloc::collections::btree::node::marker::Edge>" }
%"anchor_lang::idl::IdlAccounts" = type { i64*, %"anchor_lang::prelude::AccountInfo" }
%"anchor_lang::idl::IdlSetBuffer" = type { i64*, i64*, %"anchor_lang::prelude::AccountInfo" }
%"anchor_lang::idl::IdlCreateBuffer" = type { i64*, %"anchor_lang::prelude::AccountInfo" }
%"alloc::collections::btree::node::LeafNode<std::string::String, u8>" = type { i64*, [11 x %"std::mem::MaybeUninit<std::string::String>"], i16, i16, [11 x i8], [1 x i8] }
%"alloc::collections::btree::node::InternalNode<std::string::String, u8>" = type { %"alloc::collections::btree::node::LeafNode<std::string::String, u8>", [12 x i8*] }
%"std::option::Option<std::fmt::Arguments>" = type { {}*, [5 x i64] }
%"std::ops::RangeFull" = type {}
%"std::option::Option<alloc::collections::btree::node::Handle<alloc::collections::btree::node::NodeRef<alloc::collections::btree::node::marker::Dying, std::string::String, u8, alloc::collections::btree::node::marker::Internal>, alloc::collections::btree::node::marker::Edge>>" = type { [1 x i64], {}*, [1 x i64] }
%"alloc::collections::btree::node::Handle<alloc::collections::btree::node::NodeRef<alloc::collections::btree::node::marker::Dying, std::string::String, u8, alloc::collections::btree::node::marker::Internal>, alloc::collections::btree::node::marker::Edge>" = type { %"std::marker::PhantomData<alloc::collections::btree::node::marker::Edge>", { i64, i64* }, i64 }
%"std::option::Option<alloc::collections::btree::node::Handle<alloc::collections::btree::node::NodeRef<alloc::collections::btree::node::marker::Dying, std::string::String, u8, alloc::collections::btree::node::marker::Internal>, alloc::collections::btree::node::marker::Edge>>::Some" = type { %"alloc::collections::btree::node::Handle<alloc::collections::btree::node::NodeRef<alloc::collections::btree::node::marker::Dying, std::string::String, u8, alloc::collections::btree::node::marker::Internal>, alloc::collections::btree::node::marker::Edge>" }
%"std::result::Result<alloc::collections::btree::node::Handle<alloc::collections::btree::node::NodeRef<alloc::collections::btree::node::marker::Dying, std::string::String, u8, alloc::collections::btree::node::marker::Internal>, alloc::collections::btree::node::marker::Edge>, alloc::collections::btree::node::NodeRef<alloc::collections::btree::node::marker::Dying, std::string::String, u8, alloc::collections::btree::node::marker::LeafOrInternal>>" = type { i64, [3 x i64] }
%"std::result::Result<alloc::collections::btree::node::Handle<alloc::collections::btree::node::NodeRef<alloc::collections::btree::node::marker::Dying, std::string::String, u8, alloc::collections::btree::node::marker::Internal>, alloc::collections::btree::node::marker::Edge>, alloc::collections::btree::node::NodeRef<alloc::collections::btree::node::marker::Dying, std::string::String, u8, alloc::collections::btree::node::marker::LeafOrInternal>>::Err" = type { [1 x i64], { i64, i64* } }
%"std::result::Result<alloc::collections::btree::node::Handle<alloc::collections::btree::node::NodeRef<alloc::collections::btree::node::marker::Dying, std::string::String, u8, alloc::collections::btree::node::marker::Internal>, alloc::collections::btree::node::marker::Edge>, alloc::collections::btree::node::NodeRef<alloc::collections::btree::node::marker::Dying, std::string::String, u8, alloc::collections::btree::node::marker::LeafOrInternal>>::Ok" = type { [1 x i64], %"alloc::collections::btree::node::Handle<alloc::collections::btree::node::NodeRef<alloc::collections::btree::node::marker::Dying, std::string::String, u8, alloc::collections::btree::node::marker::Internal>, alloc::collections::btree::node::marker::Edge>" }
%"std::option::Option<(alloc::collections::btree::node::Handle<alloc::collections::btree::node::NodeRef<alloc::collections::btree::node::marker::Dying, std::string::String, u8, alloc::collections::btree::node::marker::Leaf>, alloc::collections::btree::node::marker::Edge>, alloc::collections::btree::node::Handle<alloc::collections::btree::node::NodeRef<alloc::collections::btree::node::marker::Dying, std::string::String, u8, alloc::collections::btree::node::marker::LeafOrInternal>, alloc::collections::btree::node::marker::KV>)>" = type { [1 x i64], {}*, [4 x i64] }
%"std::option::Option<(alloc::collections::btree::node::Handle<alloc::collections::btree::node::NodeRef<alloc::collections::btree::node::marker::Dying, std::string::String, u8, alloc::collections::btree::node::marker::Leaf>, alloc::collections::btree::node::marker::Edge>, alloc::collections::btree::node::Handle<alloc::collections::btree::node::NodeRef<alloc::collections::btree::node::marker::Dying, std::string::String, u8, alloc::collections::btree::node::marker::LeafOrInternal>, alloc::collections::btree::node::marker::KV>)>::Some" = type { { %"alloc::collections::btree::node::Handle<alloc::collections::btree::node::NodeRef<alloc::collections::btree::node::marker::Dying, std::string::String, u8, alloc::collections::btree::node::marker::Leaf>, alloc::collections::btree::node::marker::Edge>", %"alloc::collections::btree::node::Handle<alloc::collections::btree::node::NodeRef<alloc::collections::btree::node::marker::Dying, std::string::String, u8, alloc::collections::btree::node::marker::LeafOrInternal>, alloc::collections::btree::node::marker::KV>" } }
%"std::result::Result<std::vec::Vec<u8>, std::io::Error>" = type { i64, [3 x i64] }
%"std::result::Result<std::vec::Vec<u8>, std::io::Error>::Ok" = type { [1 x i64], %"std::vec::Vec<u8>" }
%"std::result::Result<std::vec::Vec<u8>, std::io::Error>::Err" = type { [1 x i64], %"std::io::Error" }
%"std::result::Result<(), anchor_lang::prelude::ProgramError>" = type { i32, [7 x i32] }
%"[closure@programs/sol_swap/src/lib.rs:6:1: 6:11]" = type {}
%"std::result::Result<(), anchor_lang::prelude::ProgramError>::Ok" = type { {} }
%"std::result::Result<(), anchor_lang::prelude::ProgramError>::Err" = type { %"anchor_lang::prelude::ProgramError" }
%"std::result::Result<anchor_lang::prelude::Signer, anchor_lang::error::Error>" = type { i64, [14 x i64] }
%"[closure@programs/sol_swap/src/lib.rs:109:10: 109:18]" = type {}
%"std::result::Result<anchor_lang::prelude::Signer, anchor_lang::error::Error>::Ok" = type { [1 x i64], %"anchor_lang::prelude::Signer" }
%"std::result::Result<anchor_lang::prelude::Signer, anchor_lang::error::Error>::Err" = type { [1 x i64], %"anchor_lang::error::Error" }
%"[closure@programs/sol_swap/src/lib.rs:182:1: 182:11]" = type {}
%"std::result::Result<Exchange, std::io::Error>::Ok" = type { [1 x i64], %Exchange }
%"std::result::Result<Exchange, anchor_lang::error::Error>::Ok" = type { [1 x i64], %Exchange }
%"std::result::Result<Exchange, anchor_lang::error::Error>::Err" = type { [1 x i64], %"anchor_lang::error::Error" }
%"[closure@programs/sol_swap/src/lib.rs:109:10: 109:18].0" = type {}
%"std::result::Result<(), anchor_lang::error::Error>::Ok" = type { {} }
%"[closure@programs/sol_swap/src/lib.rs:94:10: 94:18]" = type {}
%"std::result::Result<anchor_lang::prelude::AccountInfo, anchor_lang::error::Error>" = type { i64, [14 x i64] }
%"[closure@programs/sol_swap/src/lib.rs:79:10: 79:18]" = type {}
%"std::result::Result<anchor_lang::prelude::AccountInfo, anchor_lang::error::Error>::Ok" = type { [1 x i64], %"anchor_lang::prelude::AccountInfo" }
%"std::result::Result<anchor_lang::prelude::AccountInfo, anchor_lang::error::Error>::Err" = type { [1 x i64], %"anchor_lang::error::Error" }
%"[closure@programs/sol_swap/src/lib.rs:79:10: 79:18].1" = type {}
%"[closure@programs/sol_swap/src/lib.rs:79:10: 79:18].2" = type {}
%"[closure@programs/sol_swap/src/lib.rs:6:1: 6:11].3" = type {}
%"std::result::Result<instruction::BuyToken, anchor_lang::error::ErrorCode>" = type { i32, [3 x i32] }
%"std::result::Result<instruction::BuyToken, std::io::Error>::Ok" = type { [1 x i64], i64 }
%"std::result::Result<instruction::BuyToken, anchor_lang::error::ErrorCode>::Ok" = type { [1 x i64], i64 }
%"std::result::Result<instruction::BuyToken, anchor_lang::error::ErrorCode>::Err" = type { [1 x i32], i32 }
%"[closure@programs/sol_swap/src/lib.rs:109:10: 109:18].4" = type {}
%"[closure@programs/sol_swap/src/lib.rs:79:10: 79:18].5" = type {}
%"[closure@programs/sol_swap/src/lib.rs:109:10: 109:18].6" = type {}
%"std::result::Result<anchor_lang::prelude::Pubkey, anchor_lang::error::Error>" = type { i8, [119 x i8] }
%"std::result::Result<anchor_lang::prelude::Pubkey, anchor_lang::solana_program::pubkey::PubkeyError>" = type { i8, [32 x i8] }
%"[closure@programs/sol_swap/src/lib.rs:79:10: 79:18].7" = type {}
%"std::result::Result<anchor_lang::prelude::Pubkey, anchor_lang::solana_program::pubkey::PubkeyError>::Ok" = type { [1 x i8], %"anchor_lang::prelude::Pubkey" }
%"std::result::Result<anchor_lang::prelude::Pubkey, anchor_lang::error::Error>::Ok" = type { [1 x i8], %"anchor_lang::prelude::Pubkey" }
%"std::result::Result<anchor_lang::prelude::Pubkey, anchor_lang::solana_program::pubkey::PubkeyError>::Err" = type { [1 x i8], i8 }
%"std::result::Result<anchor_lang::prelude::Pubkey, anchor_lang::error::Error>::Err" = type { [1 x i64], %"anchor_lang::error::Error" }
%"std::result::Result<anchor_lang::idl::IdlInstruction, anchor_lang::error::ErrorCode>" = type { i32, [11 x i32] }
%"std::result::Result<anchor_lang::idl::IdlInstruction, std::io::Error>" = type { i64, [5 x i64] }
%"[closure@programs/sol_swap/src/lib.rs:6:1: 6:11].8" = type {}
%"anchor_lang::idl::IdlInstruction" = type { i8, [39 x i8] }
%"std::result::Result<anchor_lang::idl::IdlInstruction, std::io::Error>::Ok" = type { [1 x i64], %"anchor_lang::idl::IdlInstruction" }
%"std::result::Result<anchor_lang::idl::IdlInstruction, anchor_lang::error::ErrorCode>::Ok" = type { [1 x i64], %"anchor_lang::idl::IdlInstruction" }
%"std::result::Result<anchor_lang::idl::IdlInstruction, std::io::Error>::Err" = type { [1 x i64], %"std::io::Error" }
%"std::result::Result<anchor_lang::idl::IdlInstruction, anchor_lang::error::ErrorCode>::Err" = type { [1 x i32], i32 }
%"[closure@programs/sol_swap/src/lib.rs:109:10: 109:18].9" = type {}
%"[closure@programs/sol_swap/src/lib.rs:94:10: 94:18].10" = type {}
%"[closure@programs/sol_swap/src/lib.rs:94:10: 94:18].11" = type {}
%"[closure@programs/sol_swap/src/lib.rs:79:10: 79:18].12" = type {}
%"[closure@programs/sol_swap/src/lib.rs:6:1: 6:11].13" = type {}
%"std::result::Result<instruction::SellToken, anchor_lang::error::ErrorCode>" = type { i32, [3 x i32] }
%"std::result::Result<instruction::SellToken, std::io::Error>::Ok" = type { [1 x i64], i64 }
%"std::result::Result<instruction::SellToken, anchor_lang::error::ErrorCode>::Ok" = type { [1 x i64], i64 }
%"std::result::Result<instruction::SellToken, anchor_lang::error::ErrorCode>::Err" = type { [1 x i32], i32 }
%"[closure@programs/sol_swap/src/lib.rs:109:10: 109:18].14" = type {}
%"[closure@programs/sol_swap/src/lib.rs:94:10: 94:18].15" = type {}
%"[closure@programs/sol_swap/src/lib.rs:79:10: 79:18].16" = type {}
%"[closure@programs/sol_swap/src/lib.rs:79:10: 79:18].17" = type {}
%"[closure@programs/sol_swap/src/lib.rs:94:10: 94:18].18" = type {}
%"std::result::Result<instruction::Initialize, anchor_lang::error::ErrorCode>" = type { i32, [7 x i32] }
%"[closure@programs/sol_swap/src/lib.rs:6:1: 6:11].19" = type {}
%"instruction::Initialize" = type { i64, i64, i8, [7 x i8] }
%"std::result::Result<instruction::Initialize, std::io::Error>::Ok" = type { [1 x i64], %"instruction::Initialize" }
%"std::result::Result<instruction::Initialize, anchor_lang::error::ErrorCode>::Ok" = type { [1 x i64], %"instruction::Initialize" }
%"std::result::Result<instruction::Initialize, anchor_lang::error::ErrorCode>::Err" = type { [1 x i32], i32 }
%"[closure@programs/sol_swap/src/lib.rs:79:10: 79:18].20" = type {}
%"[closure@programs/sol_swap/src/lib.rs:94:10: 94:18].21" = type {}
%"[closure@programs/sol_swap/src/lib.rs:94:10: 94:18].22" = type {}
%"[closure@programs/sol_swap/src/lib.rs:109:10: 109:18].23" = type {}
%"[closure@programs/sol_swap/src/lib.rs:94:10: 94:18].24" = type {}
%"[closure@programs/sol_swap/src/lib.rs:109:10: 109:18].25" = type {}
%"[closure@programs/sol_swap/src/lib.rs:109:10: 109:18].26" = type {}
%"[closure@programs/sol_swap/src/lib.rs:109:10: 109:18].27" = type {}
%"[closure@programs/sol_swap/src/lib.rs:94:10: 94:18].28" = type {}
%"[closure@programs/sol_swap/src/lib.rs:94:10: 94:18].29" = type {}
%"std::result::Result<u8, std::io::Error>" = type { i8, [23 x i8] }
%"std::result::Result<u8, std::io::Error>::Err" = type { [1 x i64], %"std::io::Error" }
%"std::result::Result<u8, std::io::Error>::Ok" = type { [1 x i8], i8 }
%"std::result::Result<u64, std::io::Error>" = type { i64, [2 x i64] }
%"std::result::Result<[u8; 8], std::array::TryFromSliceError>" = type { i8, [8 x i8] }
%"std::result::Result<u64, std::io::Error>::Err" = type { [1 x i64], %"std::io::Error" }
%"std::result::Result<u64, std::io::Error>::Ok" = type { [1 x i64], i64 }
%"std::option::Option<alloc::collections::btree::node::Handle<alloc::collections::btree::node::NodeRef<alloc::collections::btree::node::marker::Dying, std::string::String, u8, alloc::collections::btree::node::marker::LeafOrInternal>, alloc::collections::btree::node::marker::KV>>" = type { [1 x i64], {}*, [1 x i64] }
%"std::option::Option<alloc::collections::btree::node::Handle<alloc::collections::btree::node::NodeRef<alloc::collections::btree::node::marker::Dying, std::string::String, u8, alloc::collections::btree::node::marker::LeafOrInternal>, alloc::collections::btree::node::marker::KV>>::Some" = type { %"alloc::collections::btree::node::Handle<alloc::collections::btree::node::NodeRef<alloc::collections::btree::node::marker::Dying, std::string::String, u8, alloc::collections::btree::node::marker::LeafOrInternal>, alloc::collections::btree::node::marker::KV>" }
%"alloc::collections::btree::mem::replace::PanicGuard" = type {}
%"[closure@alloc::collections::btree::navigate::<impl alloc::collections::btree::node::Handle<alloc::collections::btree::node::NodeRef<alloc::collections::btree::node::marker::Dying, std::string::String, u8, alloc::collections::btree::node::marker::Leaf>, alloc::collections::btree::node::marker::Edge>>::deallocating_next_unchecked::{closure#0}]" = type {}
%"alloc::collections::btree::node::Handle<alloc::collections::btree::node::NodeRef<alloc::collections::btree::node::marker::Dying, std::string::String, u8, alloc::collections::btree::node::marker::Internal>, alloc::collections::btree::node::marker::KV>" = type { %"std::marker::PhantomData<alloc::collections::btree::node::marker::KV>", { i64, i64* }, i64 }
%"alloc::collections::btree::node::Handle<alloc::collections::btree::node::NodeRef<alloc::collections::btree::node::marker::Dying, std::string::String, u8, alloc::collections::btree::node::marker::Leaf>, alloc::collections::btree::node::marker::KV>" = type { %"std::marker::PhantomData<alloc::collections::btree::node::marker::KV>", { i64, i64* }, i64 }
%"alloc::collections::btree::node::Handle<alloc::collections::btree::node::NodeRef<alloc::collections::btree::node::marker::Dying, std::string::String, u8, alloc::collections::btree::node::marker::LeafOrInternal>, alloc::collections::btree::node::marker::Edge>" = type { %"std::marker::PhantomData<alloc::collections::btree::node::marker::Edge>", { i64, i64* }, i64 }
%"std::result::Result<alloc::collections::btree::node::Handle<alloc::collections::btree::node::NodeRef<alloc::collections::btree::node::marker::Dying, std::string::String, u8, alloc::collections::btree::node::marker::LeafOrInternal>, alloc::collections::btree::node::marker::KV>, alloc::collections::btree::node::Handle<alloc::collections::btree::node::NodeRef<alloc::collections::btree::node::marker::Dying, std::string::String, u8, alloc::collections::btree::node::marker::LeafOrInternal>, alloc::collections::btree::node::marker::Edge>>" = type { i64, [3 x i64] }
%"std::result::Result<alloc::collections::btree::node::Handle<alloc::collections::btree::node::NodeRef<alloc::collections::btree::node::marker::Dying, std::string::String, u8, alloc::collections::btree::node::marker::LeafOrInternal>, alloc::collections::btree::node::marker::KV>, alloc::collections::btree::node::Handle<alloc::collections::btree::node::NodeRef<alloc::collections::btree::node::marker::Dying, std::string::String, u8, alloc::collections::btree::node::marker::LeafOrInternal>, alloc::collections::btree::node::marker::Edge>>::Err" = type { [1 x i64], %"alloc::collections::btree::node::Handle<alloc::collections::btree::node::NodeRef<alloc::collections::btree::node::marker::Dying, std::string::String, u8, alloc::collections::btree::node::marker::LeafOrInternal>, alloc::collections::btree::node::marker::Edge>" }
%"std::result::Result<alloc::collections::btree::node::Handle<alloc::collections::btree::node::NodeRef<alloc::collections::btree::node::marker::Dying, std::string::String, u8, alloc::collections::btree::node::marker::LeafOrInternal>, alloc::collections::btree::node::marker::KV>, alloc::collections::btree::node::Handle<alloc::collections::btree::node::NodeRef<alloc::collections::btree::node::marker::Dying, std::string::String, u8, alloc::collections::btree::node::marker::LeafOrInternal>, alloc::collections::btree::node::marker::Edge>>::Ok" = type { [1 x i64], %"alloc::collections::btree::node::Handle<alloc::collections::btree::node::NodeRef<alloc::collections::btree::node::marker::Dying, std::string::String, u8, alloc::collections::btree::node::marker::LeafOrInternal>, alloc::collections::btree::node::marker::KV>" }
%"alloc::collections::btree::node::ForceResult<alloc::collections::btree::node::Handle<alloc::collections::btree::node::NodeRef<alloc::collections::btree::node::marker::Dying, std::string::String, u8, alloc::collections::btree::node::marker::Leaf>, alloc::collections::btree::node::marker::KV>, alloc::collections::btree::node::Handle<alloc::collections::btree::node::NodeRef<alloc::collections::btree::node::marker::Dying, std::string::String, u8, alloc::collections::btree::node::marker::Internal>, alloc::collections::btree::node::marker::KV>>" = type { i64, [3 x i64] }
%"alloc::collections::btree::node::ForceResult<alloc::collections::btree::node::NodeRef<alloc::collections::btree::node::marker::Dying, std::string::String, u8, alloc::collections::btree::node::marker::Leaf>, alloc::collections::btree::node::NodeRef<alloc::collections::btree::node::marker::Dying, std::string::String, u8, alloc::collections::btree::node::marker::Internal>>" = type { i64, [2 x i64] }
%"alloc::collections::btree::node::ForceResult<alloc::collections::btree::node::NodeRef<alloc::collections::btree::node::marker::Dying, std::string::String, u8, alloc::collections::btree::node::marker::Leaf>, alloc::collections::btree::node::NodeRef<alloc::collections::btree::node::marker::Dying, std::string::String, u8, alloc::collections::btree::node::marker::Internal>>::Leaf" = type { [1 x i64], { i64, i64* } }
%"alloc::collections::btree::node::ForceResult<alloc::collections::btree::node::Handle<alloc::collections::btree::node::NodeRef<alloc::collections::btree::node::marker::Dying, std::string::String, u8, alloc::collections::btree::node::marker::Leaf>, alloc::collections::btree::node::marker::KV>, alloc::collections::btree::node::Handle<alloc::collections::btree::node::NodeRef<alloc::collections::btree::node::marker::Dying, std::string::String, u8, alloc::collections::btree::node::marker::Internal>, alloc::collections::btree::node::marker::KV>>::Leaf" = type { [1 x i64], %"alloc::collections::btree::node::Handle<alloc::collections::btree::node::NodeRef<alloc::collections::btree::node::marker::Dying, std::string::String, u8, alloc::collections::btree::node::marker::Leaf>, alloc::collections::btree::node::marker::KV>" }
%"alloc::collections::btree::node::ForceResult<alloc::collections::btree::node::NodeRef<alloc::collections::btree::node::marker::Dying, std::string::String, u8, alloc::collections::btree::node::marker::Leaf>, alloc::collections::btree::node::NodeRef<alloc::collections::btree::node::marker::Dying, std::string::String, u8, alloc::collections::btree::node::marker::Internal>>::Internal" = type { [1 x i64], { i64, i64* } }
%"alloc::collections::btree::node::ForceResult<alloc::collections::btree::node::Handle<alloc::collections::btree::node::NodeRef<alloc::collections::btree::node::marker::Dying, std::string::String, u8, alloc::collections::btree::node::marker::Leaf>, alloc::collections::btree::node::marker::KV>, alloc::collections::btree::node::Handle<alloc::collections::btree::node::NodeRef<alloc::collections::btree::node::marker::Dying, std::string::String, u8, alloc::collections::btree::node::marker::Internal>, alloc::collections::btree::node::marker::KV>>::Internal" = type { [1 x i64], %"alloc::collections::btree::node::Handle<alloc::collections::btree::node::NodeRef<alloc::collections::btree::node::marker::Dying, std::string::String, u8, alloc::collections::btree::node::marker::Internal>, alloc::collections::btree::node::marker::KV>" }
%"alloc::collections::btree::navigate::LazyLeafHandle<alloc::collections::btree::node::marker::Dying, std::string::String, u8>" = type { i64, [3 x i64] }
%"alloc::collections::btree::navigate::LazyLeafHandle<alloc::collections::btree::node::marker::Dying, std::string::String, u8>::Root" = type { [1 x i64], { i64, i64* } }
%"std::option::Option<alloc::collections::btree::navigate::LazyLeafHandle<alloc::collections::btree::node::marker::Dying, std::string::String, u8>>::Some" = type { %"alloc::collections::btree::navigate::LazyLeafHandle<alloc::collections::btree::node::marker::Dying, std::string::String, u8>" }
%"alloc::collections::btree::navigate::LazyLeafHandle<alloc::collections::btree::node::marker::Dying, std::string::String, u8>::Edge" = type { [1 x i64], %"alloc::collections::btree::node::Handle<alloc::collections::btree::node::NodeRef<alloc::collections::btree::node::marker::Dying, std::string::String, u8, alloc::collections::btree::node::marker::Leaf>, alloc::collections::btree::node::marker::Edge>" }
%"std::option::Option<alloc::collections::btree::node::Handle<alloc::collections::btree::node::NodeRef<alloc::collections::btree::node::marker::Dying, std::string::String, u8, alloc::collections::btree::node::marker::Leaf>, alloc::collections::btree::node::marker::Edge>>" = type { [1 x i64], {}*, [1 x i64] }
%"std::option::Option<std::convert::Infallible>::None" = type {}
%"std::ops::ControlFlow<std::option::Option<std::convert::Infallible>, alloc::collections::btree::navigate::LazyLeafHandle<alloc::collections::btree::node::marker::Dying, std::string::String, u8>>" = type { i64, [3 x i64] }
%"std::ops::ControlFlow<std::option::Option<std::convert::Infallible>, alloc::collections::btree::navigate::LazyLeafHandle<alloc::collections::btree::node::marker::Dying, std::string::String, u8>>::Continue" = type { %"alloc::collections::btree::navigate::LazyLeafHandle<alloc::collections::btree::node::marker::Dying, std::string::String, u8>" }
%"std::option::Option<alloc::collections::btree::node::Handle<alloc::collections::btree::node::NodeRef<alloc::collections::btree::node::marker::Dying, std::string::String, u8, alloc::collections::btree::node::marker::Leaf>, alloc::collections::btree::node::marker::Edge>>::Some" = type { %"alloc::collections::btree::node::Handle<alloc::collections::btree::node::NodeRef<alloc::collections::btree::node::marker::Dying, std::string::String, u8, alloc::collections::btree::node::marker::Leaf>, alloc::collections::btree::node::marker::Edge>" }
%"std::result::Result<std::convert::Infallible, std::alloc::AllocError>::Err" = type { %"std::alloc::AllocError" }
%"std::alloc::AllocError" = type {}
%"std::ops::ControlFlow<std::result::Result<std::convert::Infallible, std::io::Error>>" = type { i8, [15 x i8] }
%"std::ops::ControlFlow<std::result::Result<std::convert::Infallible, std::io::Error>>::Break" = type { %"std::result::Result<std::convert::Infallible, std::io::Error>::Err" }
%"std::ops::ControlFlow<std::result::Result<std::convert::Infallible, anchor_lang::error::Error>, SellToken>" = type { i64, [110 x i64] }
%"std::result::Result<SellToken, anchor_lang::error::Error>::Ok" = type { [1 x i64], %SellToken }
%"std::ops::ControlFlow<std::result::Result<std::convert::Infallible, anchor_lang::error::Error>, SellToken>::Continue" = type { [1 x i64], %SellToken }
%"std::ops::ControlFlow<std::result::Result<std::convert::Infallible, anchor_lang::error::Error>, SellToken>::Break" = type { [1 x i64], %"std::result::Result<std::convert::Infallible, anchor_lang::error::Error>::Err" }
%"std::ops::ControlFlow<std::result::Result<std::convert::Infallible, anchor_lang::error::Error>, anchor_lang::prelude::Signer>" = type { i64, [14 x i64] }
%"std::ops::ControlFlow<std::result::Result<std::convert::Infallible, anchor_lang::error::Error>, anchor_lang::prelude::Signer>::Continue" = type { [1 x i64], %"anchor_lang::prelude::Signer" }
%"std::ops::ControlFlow<std::result::Result<std::convert::Infallible, anchor_lang::error::Error>, anchor_lang::prelude::Signer>::Break" = type { [1 x i64], %"std::result::Result<std::convert::Infallible, anchor_lang::error::Error>::Err" }
%"std::ops::ControlFlow<std::result::Result<std::convert::Infallible, anchor_lang::error::Error>, anchor_lang::idl::IdlSetBuffer>" = type { i64, [14 x i64] }
%"std::result::Result<anchor_lang::idl::IdlSetBuffer, anchor_lang::error::Error>" = type { i64, [14 x i64] }
%"std::result::Result<anchor_lang::idl::IdlSetBuffer, anchor_lang::error::Error>::Ok" = type { [1 x i64], %"anchor_lang::idl::IdlSetBuffer" }
%"std::ops::ControlFlow<std::result::Result<std::convert::Infallible, anchor_lang::error::Error>, anchor_lang::idl::IdlSetBuffer>::Continue" = type { [1 x i64], %"anchor_lang::idl::IdlSetBuffer" }
%"std::result::Result<anchor_lang::idl::IdlSetBuffer, anchor_lang::error::Error>::Err" = type { [1 x i64], %"anchor_lang::error::Error" }
%"std::ops::ControlFlow<std::result::Result<std::convert::Infallible, anchor_lang::error::Error>, anchor_lang::idl::IdlSetBuffer>::Break" = type { [1 x i64], %"std::result::Result<std::convert::Infallible, anchor_lang::error::Error>::Err" }
%"std::ops::ControlFlow<std::result::Result<std::convert::Infallible, anchor_lang::error::ErrorCode>, instruction::BuyToken>" = type { i32, [3 x i32] }
%"std::ops::ControlFlow<std::result::Result<std::convert::Infallible, anchor_lang::error::ErrorCode>, instruction::BuyToken>::Continue" = type { [1 x i64], i64 }
%"std::ops::ControlFlow<std::result::Result<std::convert::Infallible, anchor_lang::error::ErrorCode>, instruction::BuyToken>::Break" = type { [1 x i32], i32 }
%"std::ops::ControlFlow<std::result::Result<std::convert::Infallible, anchor_lang::error::Error>, anchor_lang::prelude::Account<anchor_spl::token::TokenAccount>>" = type { i64, [28 x i64] }
%"std::ops::ControlFlow<std::result::Result<std::convert::Infallible, anchor_lang::error::Error>, anchor_lang::prelude::Account<anchor_spl::token::TokenAccount>>::Continue" = type { [1 x i64], %"anchor_lang::prelude::Account<anchor_spl::token::TokenAccount>" }
%"std::ops::ControlFlow<std::result::Result<std::convert::Infallible, anchor_lang::error::Error>, anchor_lang::prelude::Account<anchor_spl::token::TokenAccount>>::Break" = type { [1 x i64], %"std::result::Result<std::convert::Infallible, anchor_lang::error::Error>::Err" }
%"std::ops::ControlFlow<std::result::Result<std::convert::Infallible, anchor_lang::error::Error>, Initialize>" = type { i64, [99 x i64] }
%"std::result::Result<Initialize, anchor_lang::error::Error>::Ok" = type { [1 x i64], %Initialize }
%"std::ops::ControlFlow<std::result::Result<std::convert::Infallible, anchor_lang::error::Error>, Initialize>::Continue" = type { [1 x i64], %Initialize }
%"std::ops::ControlFlow<std::result::Result<std::convert::Infallible, anchor_lang::error::Error>, Initialize>::Break" = type { [1 x i64], %"std::result::Result<std::convert::Infallible, anchor_lang::error::Error>::Err" }
%"std::ops::ControlFlow<std::result::Result<std::convert::Infallible, anchor_lang::error::Error>, anchor_lang::prelude::Pubkey>" = type { i8, [119 x i8] }
%"std::ops::ControlFlow<std::result::Result<std::convert::Infallible, anchor_lang::error::Error>, anchor_lang::prelude::Pubkey>::Continue" = type { [1 x i8], %"anchor_lang::prelude::Pubkey" }
%"std::ops::ControlFlow<std::result::Result<std::convert::Infallible, anchor_lang::error::Error>, anchor_lang::prelude::Pubkey>::Break" = type { [1 x i64], %"std::result::Result<std::convert::Infallible, anchor_lang::error::Error>::Err" }
%"std::ops::ControlFlow<std::result::Result<std::convert::Infallible, anchor_lang::error::Error>, anchor_lang::idl::IdlAccounts>" = type { i64, [14 x i64] }
%"std::result::Result<anchor_lang::idl::IdlAccounts, anchor_lang::error::Error>" = type { i64, [14 x i64] }
%"std::result::Result<anchor_lang::idl::IdlAccounts, anchor_lang::error::Error>::Ok" = type { [1 x i64], %"anchor_lang::idl::IdlAccounts" }
%"std::ops::ControlFlow<std::result::Result<std::convert::Infallible, anchor_lang::error::Error>, anchor_lang::idl::IdlAccounts>::Continue" = type { [1 x i64], %"anchor_lang::idl::IdlAccounts" }
%"std::result::Result<anchor_lang::idl::IdlAccounts, anchor_lang::error::Error>::Err" = type { [1 x i64], %"anchor_lang::error::Error" }
%"std::ops::ControlFlow<std::result::Result<std::convert::Infallible, anchor_lang::error::Error>, anchor_lang::idl::IdlAccounts>::Break" = type { [1 x i64], %"std::result::Result<std::convert::Infallible, anchor_lang::error::Error>::Err" }
%"std::ops::ControlFlow<std::result::Result<std::convert::Infallible, anchor_lang::error::Error>, anchor_lang::prelude::Account<Exchange>>" = type { i64, [20 x i64] }
%"std::ops::ControlFlow<std::result::Result<std::convert::Infallible, anchor_lang::error::Error>, anchor_lang::prelude::Account<Exchange>>::Continue" = type { [1 x i64], %"anchor_lang::prelude::Account<Exchange>" }
%"std::ops::ControlFlow<std::result::Result<std::convert::Infallible, anchor_lang::error::Error>, anchor_lang::prelude::Account<Exchange>>::Break" = type { [1 x i64], %"std::result::Result<std::convert::Infallible, anchor_lang::error::Error>::Err" }
%"std::ops::ControlFlow<std::result::Result<std::convert::Infallible, anchor_lang::error::ErrorCode>, anchor_lang::idl::IdlInstruction>" = type { i32, [11 x i32] }
%"std::ops::ControlFlow<std::result::Result<std::convert::Infallible, anchor_lang::error::ErrorCode>, anchor_lang::idl::IdlInstruction>::Continue" = type { [1 x i64], %"anchor_lang::idl::IdlInstruction" }
%"std::ops::ControlFlow<std::result::Result<std::convert::Infallible, anchor_lang::error::ErrorCode>, anchor_lang::idl::IdlInstruction>::Break" = type { [1 x i32], i32 }
%"std::ops::ControlFlow<std::result::Result<std::convert::Infallible, anchor_lang::error::Error>, anchor_lang::idl::IdlCreateBuffer>" = type { i64, [14 x i64] }
%"std::result::Result<anchor_lang::idl::IdlCreateBuffer, anchor_lang::error::Error>" = type { i64, [14 x i64] }
%"std::result::Result<anchor_lang::idl::IdlCreateBuffer, anchor_lang::error::Error>::Ok" = type { [1 x i64], %"anchor_lang::idl::IdlCreateBuffer" }
%"std::ops::ControlFlow<std::result::Result<std::convert::Infallible, anchor_lang::error::Error>, anchor_lang::idl::IdlCreateBuffer>::Continue" = type { [1 x i64], %"anchor_lang::idl::IdlCreateBuffer" }
%"std::result::Result<anchor_lang::idl::IdlCreateBuffer, anchor_lang::error::Error>::Err" = type { [1 x i64], %"anchor_lang::error::Error" }
%"std::ops::ControlFlow<std::result::Result<std::convert::Infallible, anchor_lang::error::Error>, anchor_lang::idl::IdlCreateBuffer>::Break" = type { [1 x i64], %"std::result::Result<std::convert::Infallible, anchor_lang::error::Error>::Err" }
%"std::ops::ControlFlow<std::result::Result<std::convert::Infallible, anchor_lang::error::ErrorCode>, instruction::Initialize>" = type { i32, [7 x i32] }
%"std::ops::ControlFlow<std::result::Result<std::convert::Infallible, anchor_lang::error::ErrorCode>, instruction::Initialize>::Continue" = type { [1 x i64], %"instruction::Initialize" }
%"std::ops::ControlFlow<std::result::Result<std::convert::Infallible, anchor_lang::error::ErrorCode>, instruction::Initialize>::Break" = type { [1 x i32], i32 }
%"std::result::Result<anchor_spl::token::Mint, anchor_lang::error::Error>::Ok" = type { [1 x i64], %"anchor_spl::token::Mint" }
%"std::result::Result<anchor_spl::token::Mint, anchor_lang::error::Error>::Err" = type { [1 x i64], %"anchor_lang::error::Error" }
%"std::ops::ControlFlow<std::result::Result<std::convert::Infallible, anchor_lang::error::Error>, anchor_lang::prelude::Program<anchor_lang::System>>" = type { i64, [14 x i64] }
%"std::ops::ControlFlow<std::result::Result<std::convert::Infallible, anchor_lang::error::Error>, anchor_lang::prelude::Program<anchor_lang::System>>::Continue" = type { [1 x i64], %"anchor_lang::prelude::Program<anchor_lang::System>" }
%"std::ops::ControlFlow<std::result::Result<std::convert::Infallible, anchor_lang::error::Error>, anchor_lang::prelude::Program<anchor_lang::System>>::Break" = type { [1 x i64], %"std::result::Result<std::convert::Infallible, anchor_lang::error::Error>::Err" }
%"std::ops::ControlFlow<std::result::Result<std::convert::Infallible, anchor_lang::error::Error>, anchor_lang::prelude::Program<anchor_spl::token::Token>>" = type { i64, [14 x i64] }
%"std::ops::ControlFlow<std::result::Result<std::convert::Infallible, anchor_lang::error::Error>, anchor_lang::prelude::Program<anchor_spl::token::Token>>::Continue" = type { [1 x i64], %"anchor_lang::prelude::Program<anchor_spl::token::Token>" }
%"std::ops::ControlFlow<std::result::Result<std::convert::Infallible, anchor_lang::error::Error>, anchor_lang::prelude::Program<anchor_spl::token::Token>>::Break" = type { [1 x i64], %"std::result::Result<std::convert::Infallible, anchor_lang::error::Error>::Err" }
%"std::ops::ControlFlow<std::result::Result<std::convert::Infallible, anchor_lang::error::Error>, BuyToken>" = type { i64, [110 x i64] }
%"std::result::Result<BuyToken, anchor_lang::error::Error>::Ok" = type { [1 x i64], %BuyToken }
%"std::ops::ControlFlow<std::result::Result<std::convert::Infallible, anchor_lang::error::Error>, BuyToken>::Continue" = type { [1 x i64], %BuyToken }
%"std::ops::ControlFlow<std::result::Result<std::convert::Infallible, anchor_lang::error::Error>, BuyToken>::Break" = type { [1 x i64], %"std::result::Result<std::convert::Infallible, anchor_lang::error::Error>::Err" }
%"std::ops::ControlFlow<std::result::Result<std::convert::Infallible, anchor_lang::error::Error>, anchor_lang::__private::Ctor>" = type { i64, [30 x i64] }
%"std::result::Result<anchor_lang::__private::Ctor, anchor_lang::error::Error>" = type { i64, [30 x i64] }
%"std::result::Result<anchor_lang::__private::Ctor, anchor_lang::error::Error>::Ok" = type { [1 x i64], %"anchor_lang::__private::Ctor" }
%"std::ops::ControlFlow<std::result::Result<std::convert::Infallible, anchor_lang::error::Error>, anchor_lang::__private::Ctor>::Continue" = type { [1 x i64], %"anchor_lang::__private::Ctor" }
%"std::result::Result<anchor_lang::__private::Ctor, anchor_lang::error::Error>::Err" = type { [1 x i64], %"anchor_lang::error::Error" }
%"std::ops::ControlFlow<std::result::Result<std::convert::Infallible, anchor_lang::error::Error>, anchor_lang::__private::Ctor>::Break" = type { [1 x i64], %"std::result::Result<std::convert::Infallible, anchor_lang::error::Error>::Err" }
%"std::ops::ControlFlow<std::result::Result<std::convert::Infallible, anchor_lang::error::Error>, anchor_lang::prelude::Account<anchor_spl::token::Mint>>" = type { i64, [17 x i64] }
%"std::ops::ControlFlow<std::result::Result<std::convert::Infallible, anchor_lang::error::Error>, anchor_lang::prelude::Account<anchor_spl::token::Mint>>::Continue" = type { [1 x i64], %"anchor_lang::prelude::Account<anchor_spl::token::Mint>" }
%"std::ops::ControlFlow<std::result::Result<std::convert::Infallible, anchor_lang::error::Error>, anchor_lang::prelude::Account<anchor_spl::token::Mint>>::Break" = type { [1 x i64], %"std::result::Result<std::convert::Infallible, anchor_lang::error::Error>::Err" }
%"std::ops::ControlFlow<std::result::Result<std::convert::Infallible, anchor_lang::error::ErrorCode>, instruction::SellToken>" = type { i32, [3 x i32] }
%"std::ops::ControlFlow<std::result::Result<std::convert::Infallible, anchor_lang::error::ErrorCode>, instruction::SellToken>::Continue" = type { [1 x i64], i64 }
%"std::ops::ControlFlow<std::result::Result<std::convert::Infallible, anchor_lang::error::ErrorCode>, instruction::SellToken>::Break" = type { [1 x i32], i32 }
%"std::result::Result<anchor_spl::token::TokenAccount, anchor_lang::error::Error>::Ok" = type { [1 x i64], %"anchor_spl::token::TokenAccount" }
%"std::result::Result<anchor_spl::token::TokenAccount, anchor_lang::error::Error>::Err" = type { [1 x i64], %"anchor_lang::error::Error" }
%"std::ops::ControlFlow<std::result::Result<std::convert::Infallible, anchor_lang::error::Error>>" = type { i64, [13 x i64] }
%"std::result::Result<std::cell::RefMut<&mut [u8]>, anchor_lang::prelude::ProgramError>" = type { i64, [4 x i64] }
%"std::ops::ControlFlow<std::result::Result<std::convert::Infallible, anchor_lang::prelude::ProgramError>, std::cell::RefMut<&mut [u8]>>" = type { i64, [4 x i64] }
%"std::ops::ControlFlow<std::result::Result<std::convert::Infallible, anchor_lang::prelude::ProgramError>, std::cell::RefMut<&mut [u8]>>::Continue" = type { [1 x i64], { i64*, i64* } }
%"std::ops::ControlFlow<std::result::Result<std::convert::Infallible, anchor_lang::prelude::ProgramError>, std::cell::RefMut<&mut [u8]>>::Break" = type { [1 x i64], %"std::result::Result<std::convert::Infallible, anchor_lang::prelude::ProgramError>::Err" }
%"std::ops::ControlFlow<std::result::Result<std::convert::Infallible, anchor_lang::error::Error>>::Break" = type { %"std::result::Result<std::convert::Infallible, anchor_lang::error::Error>::Err" }
%"std::vec::Vec<anchor_lang::prelude::AccountMeta>" = type { { i8*, i64 }, i64 }
%"anchor_lang::prelude::AccountMeta" = type { %"anchor_lang::prelude::Pubkey", i8, i8 }
%"std::ops::ControlFlow<std::result::Result<std::convert::Infallible, anchor_lang::prelude::ProgramError>>" = type { i32, [7 x i32] }
%"anchor_lang::solana_program::instruction::Instruction" = type { %"std::vec::Vec<anchor_lang::prelude::AccountMeta>", %"std::vec::Vec<u8>", %"anchor_lang::prelude::Pubkey" }
%"std::ops::ControlFlow<std::result::Result<std::convert::Infallible, anchor_lang::prelude::ProgramError>>::Break" = type { %"std::result::Result<std::convert::Infallible, anchor_lang::prelude::ProgramError>::Err" }
%"anchor_lang::idl::IdlInstruction::Create" = type { [1 x i64], i64 }
%"anchor_lang::idl::IdlInstruction::Write" = type { [1 x i64], %"std::vec::Vec<u8>" }
%"anchor_lang::idl::IdlInstruction::SetAuthority" = type { [1 x i8], %"anchor_lang::prelude::Pubkey" }
%"std::result::Result<anchor_lang::idl::IdlAccount, anchor_lang::error::Error>" = type { i64, [14 x i64] }
%"std::ops::ControlFlow<std::result::Result<std::convert::Infallible, anchor_lang::error::Error>, anchor_lang::idl::IdlAccount>" = type { i64, [14 x i64] }
%"anchor_lang::prelude::Rent" = type { i64, double, i8, [7 x i8] }
%"std::result::Result<anchor_lang::prelude::Rent, anchor_lang::prelude::ProgramError>" = type { i64, [4 x i64] }
%"std::ops::ControlFlow<std::result::Result<std::convert::Infallible, anchor_lang::prelude::ProgramError>, anchor_lang::prelude::Rent>" = type { i64, [4 x i64] }
%"std::ops::ControlFlow<std::result::Result<std::convert::Infallible, anchor_lang::prelude::ProgramError>, anchor_lang::prelude::Rent>::Continue" = type { [1 x i64], %"anchor_lang::prelude::Rent" }
%"std::ops::ControlFlow<std::result::Result<std::convert::Infallible, anchor_lang::prelude::ProgramError>, anchor_lang::prelude::Rent>::Break" = type { [1 x i64], %"std::result::Result<std::convert::Infallible, anchor_lang::prelude::ProgramError>::Err" }
%"std::ops::ControlFlow<std::result::Result<std::convert::Infallible, anchor_lang::error::Error>, anchor_lang::idl::IdlAccount>::Continue" = type { [1 x i64], %"anchor_lang::idl::IdlAccount" }
%"std::ops::ControlFlow<std::result::Result<std::convert::Infallible, anchor_lang::error::Error>, anchor_lang::idl::IdlAccount>::Break" = type { [1 x i64], %"std::result::Result<std::convert::Infallible, anchor_lang::error::Error>::Err" }
%"std::option::Option<std::string::String>" = type { {}*, [2 x i64] }
%"anchor_lang::error::Source" = type { { [0 x i8]*, i64 }, i32, [1 x i32] }
%"std::option::Option<anchor_lang::error::Source>" = type { {}*, [2 x i64] }
%"anchor_lang::error::AnchorError" = type { %"std::string::String", %"std::string::String", %"std::option::Option<anchor_lang::error::Source>", %"std::option::Option<std::string::String>", i32, [1 x i32] }
%"std::option::Option<anchor_lang::error::Source>::Some" = type { %"anchor_lang::error::Source" }
%"std::ops::ControlFlow<std::result::Result<std::convert::Infallible, anchor_lang::error::Error>, anchor_lang::prelude::AccountInfo>" = type { i64, [14 x i64] }
%"std::ops::ControlFlow<std::result::Result<std::convert::Infallible, anchor_lang::error::Error>, anchor_lang::prelude::AccountInfo>::Continue" = type { [1 x i64], %"anchor_lang::prelude::AccountInfo" }
%"std::ops::ControlFlow<std::result::Result<std::convert::Infallible, anchor_lang::error::Error>, anchor_lang::prelude::AccountInfo>::Break" = type { [1 x i64], %"std::result::Result<std::convert::Infallible, anchor_lang::error::Error>::Err" }
%"std::option::Option<std::string::String>::Some" = type { %"std::string::String" }
%"__client_accounts_initialize::Initialize" = type { %"anchor_lang::prelude::Pubkey", %"anchor_lang::prelude::Pubkey", %"anchor_lang::prelude::Pubkey", %"anchor_lang::prelude::Pubkey", %"anchor_lang::prelude::Pubkey", %"anchor_lang::prelude::Pubkey", %"anchor_lang::prelude::Pubkey" }
%"__cpi_client_accounts_initialize::Initialize" = type { %"anchor_lang::prelude::AccountInfo", %"anchor_lang::prelude::AccountInfo", %"anchor_lang::prelude::AccountInfo", %"anchor_lang::prelude::AccountInfo", %"anchor_lang::prelude::AccountInfo", %"anchor_lang::prelude::AccountInfo", %"anchor_lang::prelude::AccountInfo" }
%"__client_accounts_buy_token::BuyToken" = type { %"anchor_lang::prelude::Pubkey", %"anchor_lang::prelude::Pubkey", %"anchor_lang::prelude::Pubkey", %"anchor_lang::prelude::Pubkey", %"anchor_lang::prelude::Pubkey", %"anchor_lang::prelude::Pubkey", %"anchor_lang::prelude::Pubkey" }
%"__cpi_client_accounts_buy_token::BuyToken" = type { %"anchor_lang::prelude::AccountInfo", %"anchor_lang::prelude::AccountInfo", %"anchor_lang::prelude::AccountInfo", %"anchor_lang::prelude::AccountInfo", %"anchor_lang::prelude::AccountInfo", %"anchor_lang::prelude::AccountInfo", %"anchor_lang::prelude::AccountInfo" }
%"__client_accounts_sell_token::SellToken" = type { %"anchor_lang::prelude::Pubkey", %"anchor_lang::prelude::Pubkey", %"anchor_lang::prelude::Pubkey", %"anchor_lang::prelude::Pubkey", %"anchor_lang::prelude::Pubkey", %"anchor_lang::prelude::Pubkey", %"anchor_lang::prelude::Pubkey" }
%"__cpi_client_accounts_sell_token::SellToken" = type { %"anchor_lang::prelude::AccountInfo", %"anchor_lang::prelude::AccountInfo", %"anchor_lang::prelude::AccountInfo", %"anchor_lang::prelude::AccountInfo", %"anchor_lang::prelude::AccountInfo", %"anchor_lang::prelude::AccountInfo", %"anchor_lang::prelude::AccountInfo" }
%"std::ops::ControlFlow<std::result::Result<std::convert::Infallible, std::io::Error>, u8>" = type { i8, [23 x i8] }
%"std::result::Result<anchor_lang::prelude::Pubkey, std::io::Error>" = type { i8, [39 x i8] }
%"std::ops::ControlFlow<std::result::Result<std::convert::Infallible, std::io::Error>, anchor_lang::prelude::Pubkey>" = type { i8, [39 x i8] }
%"std::ops::ControlFlow<std::result::Result<std::convert::Infallible, std::io::Error>, u64>" = type { i64, [2 x i64] }
%"std::ops::ControlFlow<std::result::Result<std::convert::Infallible, std::io::Error>, u64>::Continue" = type { [1 x i64], i64 }
%"std::ops::ControlFlow<std::result::Result<std::convert::Infallible, std::io::Error>, u64>::Break" = type { [1 x i64], %"std::result::Result<std::convert::Infallible, std::io::Error>::Err" }
%"std::ops::ControlFlow<std::result::Result<std::convert::Infallible, std::io::Error>, anchor_lang::prelude::Pubkey>::Continue" = type { [1 x i8], %"anchor_lang::prelude::Pubkey" }
%"std::ops::ControlFlow<std::result::Result<std::convert::Infallible, std::io::Error>, anchor_lang::prelude::Pubkey>::Break" = type { [1 x i64], %"std::result::Result<std::convert::Infallible, std::io::Error>::Err" }
%"std::ops::ControlFlow<std::result::Result<std::convert::Infallible, std::io::Error>, u8>::Continue" = type { [1 x i8], i8 }
%"std::ops::ControlFlow<std::result::Result<std::convert::Infallible, std::io::Error>, u8>::Break" = type { [1 x i64], %"std::result::Result<std::convert::Infallible, std::io::Error>::Err" }
%"std::fmt::DebugTuple" = type { %"std::fmt::Formatter"*, i64, i8, i8, [6 x i8] }

@alloc479 = private unnamed_addr constant <{ [0 x i8] }> zeroinitializer, align 8
@_ZN14solana_program14system_program2ID17hf50795d7d4bfef3aE = external global %"anchor_lang::prelude::Pubkey"
@_ZN14solana_program22bpf_loader_upgradeable2ID17h8c767e29a0f533a6E = external global %"anchor_lang::prelude::Pubkey"
@alloc739 = private unnamed_addr constant <{ [40 x i8] }> <{ [40 x i8] c"internal error: entered unreachable code" }>, align 1
@alloc799 = private unnamed_addr constant <{ [105 x i8] }> <{ [105 x i8] c"/home/seaceved/.cargo/registry/src/github.com-1ecc6299db9ec823/anchor-lang-0.22.0/src/accounts/program.rs" }>, align 1
@alloc738 = private unnamed_addr constant <{ i8*, [16 x i8] }> <{ i8* getelementptr inbounds (<{ [105 x i8] }>, <{ [105 x i8] }>* @alloc799, i32 0, i32 0, i32 0), [16 x i8] c"i\00\00\00\00\00\00\00o\00\00\00\15\00\00\00" }>, align 8
@vtable.0 = private unnamed_addr constant <{ i8*, [16 x i8], i8*, i8*, i8*, [0 x i8] }> <{ i8* bitcast (void (%"std::string::String"*)* @"_ZN4core3ptr42drop_in_place$LT$alloc..string..String$GT$17hd10f26f49069dc78E" to i8*), [16 x i8] c"\18\00\00\00\00\00\00\00\08\00\00\00\00\00\00\00", i8* bitcast (i1 (%"std::string::String"*, [0 x i8]*, i64)* @"_ZN58_$LT$alloc..string..String$u20$as$u20$core..fmt..Write$GT$9write_str17h662cd1554891a3deE" to i8*), i8* bitcast (i1 (%"std::string::String"*, i32)* @"_ZN58_$LT$alloc..string..String$u20$as$u20$core..fmt..Write$GT$10write_char17h65fa4ca3c3dc5cf1E" to i8*), i8* bitcast (i1 (%"std::string::String"*, %"std::fmt::Arguments"*)* @_ZN4core3fmt5Write9write_fmt17ha37ee33d8e780520E to i8*), [0 x i8] zeroinitializer }>, align 8, !dbg !0
@alloc745 = private unnamed_addr constant <{ [55 x i8] }> <{ [55 x i8] c"a Display implementation returned an error unexpectedly" }>, align 1
@alloc746 = private unnamed_addr constant <{ [74 x i8] }> <{ [74 x i8] c"/home/runner/work/bpf-tools/bpf-tools/out/rust/library/alloc/src/string.rs" }>, align 1
@alloc747 = private unnamed_addr constant <{ i8*, [16 x i8] }> <{ i8* getelementptr inbounds (<{ [74 x i8] }>, <{ [74 x i8] }>* @alloc746, i32 0, i32 0, i32 0), [16 x i8] c"J\00\00\00\00\00\00\00O\09\00\00\0E\00\00\00" }>, align 8
@alloc748 = private unnamed_addr constant <{ [12 x i8] }> <{ [12 x i8] c"invalid args" }>, align 1
@alloc749 = private unnamed_addr constant <{ [74 x i8] }> <{ [74 x i8] c"/home/runner/work/bpf-tools/bpf-tools/out/rust/library/core/src/fmt/mod.rs" }>, align 1
@alloc750 = private unnamed_addr constant <{ i8*, [16 x i8] }> <{ i8* getelementptr inbounds (<{ [74 x i8] }>, <{ [74 x i8] }>* @alloc749, i32 0, i32 0, i32 0), [16 x i8] c"J\00\00\00\00\00\00\00c\01\00\00\0D\00\00\00" }>, align 8
@alloc751 = private unnamed_addr constant <{ [74 x i8] }> <{ [74 x i8] c"/home/runner/work/bpf-tools/bpf-tools/out/rust/library/core/src/ptr/mod.rs" }>, align 1
@alloc752 = private unnamed_addr constant <{ i8*, [16 x i8] }> <{ i8* getelementptr inbounds (<{ [74 x i8] }>, <{ [74 x i8] }>* @alloc751, i32 0, i32 0, i32 0), [16 x i8] c"J\00\00\00\00\00\00\00\BC\02\00\00\0D\00\00\00" }>, align 8
@alloc753 = private unnamed_addr constant <{ [73 x i8] }> <{ [73 x i8] c"assertion failed: 0 < pointee_size && pointee_size <= isize::MAX as usize" }>, align 1
@alloc754 = private unnamed_addr constant <{ [80 x i8] }> <{ [80 x i8] c"/home/runner/work/bpf-tools/bpf-tools/out/rust/library/core/src/ptr/const_ptr.rs" }>, align 1
@alloc755 = private unnamed_addr constant <{ i8*, [16 x i8] }> <{ i8* getelementptr inbounds (<{ [80 x i8] }>, <{ [80 x i8] }>* @alloc754, i32 0, i32 0, i32 0), [16 x i8] c"P\00\00\00\00\00\00\00\85\01\00\00\09\00\00\00" }>, align 8
@alloc760 = private unnamed_addr constant <{ [79 x i8] }> <{ [79 x i8] c"/home/runner/work/bpf-tools/bpf-tools/out/rust/library/core/src/char/methods.rs" }>, align 1
@alloc757 = private unnamed_addr constant <{ i8*, [16 x i8] }> <{ i8* getelementptr inbounds (<{ [79 x i8] }>, <{ [79 x i8] }>* @alloc760, i32 0, i32 0, i32 0), [16 x i8] c"O\00\00\00\00\00\00\00P\06\00\00\16\00\00\00" }>, align 8
@alloc759 = private unnamed_addr constant <{ i8*, [16 x i8] }> <{ i8* getelementptr inbounds (<{ [79 x i8] }>, <{ [79 x i8] }>* @alloc760, i32 0, i32 0, i32 0), [16 x i8] c"O\00\00\00\00\00\00\00j\06\00\00\0A\00\00\00" }>, align 8
@alloc468 = private unnamed_addr constant <{ [18 x i8] }> <{ [18 x i8] c"encode_utf8: need " }>, align 1
@alloc470 = private unnamed_addr constant <{ [19 x i8] }> <{ [19 x i8] c" bytes to encode U+" }>, align 1
@alloc471 = private unnamed_addr constant <{ [21 x i8] }> <{ [21 x i8] c", but the buffer has " }>, align 1
@alloc469 = private unnamed_addr constant <{ i8*, [8 x i8], i8*, [8 x i8], i8*, [8 x i8] }> <{ i8* getelementptr inbounds (<{ [18 x i8] }>, <{ [18 x i8] }>* @alloc468, i32 0, i32 0, i32 0), [8 x i8] c"\12\00\00\00\00\00\00\00", i8* getelementptr inbounds (<{ [19 x i8] }>, <{ [19 x i8] }>* @alloc470, i32 0, i32 0, i32 0), [8 x i8] c"\13\00\00\00\00\00\00\00", i8* getelementptr inbounds (<{ [21 x i8] }>, <{ [21 x i8] }>* @alloc471, i32 0, i32 0, i32 0), [8 x i8] c"\15\00\00\00\00\00\00\00" }>, align 8
@alloc761 = private unnamed_addr constant <{ i8*, [16 x i8] }> <{ i8* getelementptr inbounds (<{ [79 x i8] }>, <{ [79 x i8] }>* @alloc760, i32 0, i32 0, i32 0), [16 x i8] c"O\00\00\00\00\00\00\00c\06\00\00\0E\00\00\00" }>, align 8
@alloc762 = private unnamed_addr constant <{ [89 x i8] }> <{ [89 x i8] c"/home/runner/work/bpf-tools/bpf-tools/out/rust/library/core/src/iter/traits/exact_size.rs" }>, align 1
@alloc763 = private unnamed_addr constant <{ i8*, [16 x i8] }> <{ i8* getelementptr inbounds (<{ [89 x i8] }>, <{ [89 x i8] }>* @alloc762, i32 0, i32 0, i32 0), [16 x i8] c"Y\00\00\00\00\00\00\00l\00\00\00\09\00\00\00" }>, align 8
@alloc764 = private unnamed_addr constant <{ [76 x i8] }> <{ [76 x i8] c"/home/runner/work/bpf-tools/bpf-tools/out/rust/library/core/src/array/mod.rs" }>, align 1
@alloc765 = private unnamed_addr constant <{ i8*, [16 x i8] }> <{ i8* getelementptr inbounds (<{ [76 x i8] }>, <{ [76 x i8] }>* @alloc764, i32 0, i32 0, i32 0), [16 x i8] c"L\00\00\00\00\00\00\00K\00\00\00\0A\00\00\00" }>, align 8
@alloc767 = private unnamed_addr constant <{ [43 x i8] }> <{ [43 x i8] c"called `Option::unwrap()` on a `None` value" }>, align 1
@vtable.1 = private unnamed_addr constant <{ i8*, [16 x i8], i8*, [0 x i8] }> <{ i8* bitcast (void (%"std::io::Error"*)* @"_ZN4core3ptr42drop_in_place$LT$std..io..error..Error$GT$17hf2b798d0e4f9693eE" to i8*), [16 x i8] c"\10\00\00\00\00\00\00\00\08\00\00\00\00\00\00\00", i8* bitcast (i1 (%"std::io::Error"*, %"std::fmt::Formatter"*)* @"_ZN58_$LT$std..io..error..Error$u20$as$u20$core..fmt..Debug$GT$3fmt17ha495cdbaf19f3b15E" to i8*), [0 x i8] zeroinitializer }>, align 8, !dbg !39
@alloc776 = private unnamed_addr constant <{ [26 x i8] }> <{ [26 x i8] c"Unexpected length of input" }>, align 1
@alloc777 = private unnamed_addr constant <{ [88 x i8] }> <{ [88 x i8] c"/home/seaceved/.cargo/registry/src/github.com-1ecc6299db9ec823/borsh-0.9.3/src/de/mod.rs" }>, align 1
@alloc773 = private unnamed_addr constant <{ i8*, [16 x i8] }> <{ i8* getelementptr inbounds (<{ [88 x i8] }>, <{ [88 x i8] }>* @alloc777, i32 0, i32 0, i32 0), [16 x i8] c"X\00\00\00\00\00\00\00G\00\00\00\13\00\00\00" }>, align 8
@alloc775 = private unnamed_addr constant <{ i8*, [16 x i8] }> <{ i8* getelementptr inbounds (<{ [88 x i8] }>, <{ [88 x i8] }>* @alloc777, i32 0, i32 0, i32 0), [16 x i8] c"X\00\00\00\00\00\00\00H\00\00\00\11\00\00\00" }>, align 8
@alloc778 = private unnamed_addr constant <{ i8*, [16 x i8] }> <{ i8* getelementptr inbounds (<{ [88 x i8] }>, <{ [88 x i8] }>* @alloc777, i32 0, i32 0, i32 0), [16 x i8] c"X\00\00\00\00\00\00\00\85\00\00\00\01\00\00\00" }>, align 8
@alloc784 = private unnamed_addr constant <{ [47 x i8] }> <{ [47 x i8] c"assertion failed: BorrowType::PERMITS_TRAVERSAL" }>, align 1
@alloc787 = private unnamed_addr constant <{ [90 x i8] }> <{ [90 x i8] c"/home/runner/work/bpf-tools/bpf-tools/out/rust/library/alloc/src/collections/btree/node.rs" }>, align 1
@alloc781 = private unnamed_addr constant <{ i8*, [16 x i8] }> <{ i8* getelementptr inbounds (<{ [90 x i8] }>, <{ [90 x i8] }>* @alloc787, i32 0, i32 0, i32 0), [16 x i8] c"Z\00\00\00\00\00\00\00\E5\03\00\00\09\00\00\00" }>, align 8
@alloc783 = private unnamed_addr constant <{ i8*, [16 x i8] }> <{ i8* getelementptr inbounds (<{ [90 x i8] }>, <{ [90 x i8] }>* @alloc787, i32 0, i32 0, i32 0), [16 x i8] c"Z\00\00\00\00\00\00\00\EE\03\00\00I\00\00\00" }>, align 8
@alloc786 = private unnamed_addr constant <{ i8*, [16 x i8] }> <{ i8* getelementptr inbounds (<{ [90 x i8] }>, <{ [90 x i8] }>* @alloc787, i32 0, i32 0, i32 0), [16 x i8] c"Z\00\00\00\00\00\00\00>\01\00\00\09\00\00\00" }>, align 8
@alloc788 = private unnamed_addr constant <{ i8*, [16 x i8] }> <{ i8* getelementptr inbounds (<{ [90 x i8] }>, <{ [90 x i8] }>* @alloc787, i32 0, i32 0, i32 0), [16 x i8] c"Z\00\00\00\00\00\00\00F\01\00\00B\00\00\00" }>, align 8
@alloc791 = private unnamed_addr constant <{ [94 x i8] }> <{ [94 x i8] c"/home/runner/work/bpf-tools/bpf-tools/out/rust/library/alloc/src/collections/btree/navigate.rs" }>, align 1
@alloc790 = private unnamed_addr constant <{ i8*, [16 x i8] }> <{ i8* getelementptr inbounds (<{ [94 x i8] }>, <{ [94 x i8] }>* @alloc791, i32 0, i32 0, i32 0), [16 x i8] c"^\00\00\00\00\00\00\00A\02\00\00V\00\00\00" }>, align 8
@alloc792 = private unnamed_addr constant <{ i8*, [16 x i8] }> <{ i8* getelementptr inbounds (<{ [94 x i8] }>, <{ [94 x i8] }>* @alloc791, i32 0, i32 0, i32 0), [16 x i8] c"^\00\00\00\00\00\00\00\B8\00\00\00'\00\00\00" }>, align 8
@alloc795 = private unnamed_addr constant <{ [105 x i8] }> <{ [105 x i8] c"/home/seaceved/.cargo/registry/src/github.com-1ecc6299db9ec823/anchor-lang-0.22.0/src/accounts/account.rs" }>, align 1
@alloc794 = private unnamed_addr constant <{ i8*, [16 x i8] }> <{ i8* getelementptr inbounds (<{ [105 x i8] }>, <{ [105 x i8] }>* @alloc795, i32 0, i32 0, i32 0), [16 x i8] c"i\00\00\00\00\00\00\00A\01\00\00\18\00\00\00" }>, align 8
@alloc796 = private unnamed_addr constant <{ i8*, [16 x i8] }> <{ i8* getelementptr inbounds (<{ [105 x i8] }>, <{ [105 x i8] }>* @alloc795, i32 0, i32 0, i32 0), [16 x i8] c"i\00\00\00\00\00\00\00B\01\00\00\16\00\00\00" }>, align 8
@alloc798 = private unnamed_addr constant <{ i8*, [16 x i8] }> <{ i8* getelementptr inbounds (<{ [105 x i8] }>, <{ [105 x i8] }>* @alloc799, i32 0, i32 0, i32 0), [16 x i8] c"i\00\00\00\00\00\00\00\8F\00\00\00\18\00\00\00" }>, align 8
@alloc800 = private unnamed_addr constant <{ i8*, [16 x i8] }> <{ i8* getelementptr inbounds (<{ [105 x i8] }>, <{ [105 x i8] }>* @alloc799, i32 0, i32 0, i32 0), [16 x i8] c"i\00\00\00\00\00\00\00\90\00\00\00\16\00\00\00" }>, align 8
@alloc803 = private unnamed_addr constant <{ [101 x i8] }> <{ [101 x i8] c"/home/seaceved/.cargo/registry/src/github.com-1ecc6299db9ec823/solana-program-1.9.9/src/entrypoint.rs" }>, align 1
@alloc802 = private unnamed_addr constant <{ i8*, [16 x i8] }> <{ i8* getelementptr inbounds (<{ [101 x i8] }>, <{ [101 x i8] }>* @alloc803, i32 0, i32 0, i32 0), [16 x i8] c"e\00\00\00\00\00\00\00\ED\00\00\00\13\00\00\00" }>, align 8
@str.2 = internal constant [28 x i8] c"attempt to add with overflow"
@alloc804 = private unnamed_addr constant <{ i8*, [16 x i8] }> <{ i8* getelementptr inbounds (<{ [101 x i8] }>, <{ [101 x i8] }>* @alloc803, i32 0, i32 0, i32 0), [16 x i8] c"e\00\00\00\00\00\00\00\F1\00\00\00\12\00\00\00" }>, align 8
@_ZN8sol_swap2ID17h8053a4a9d5b8d1e2E = constant <{ [32 x i8] }> <{ [32 x i8] c"\DA\07\\\B2\FF^\C6\81v\13\DES\0Bi*\875Gwi\DAGC\0C\BD\81T3\\J\83'" }>, align 1, !dbg !140
@alloc878 = private unnamed_addr constant <{ [28 x i8] }> <{ [28 x i8] c"programs/sol_swap/src/lib.rs" }>, align 1
@alloc806 = private unnamed_addr constant <{ i8*, [16 x i8] }> <{ i8* getelementptr inbounds (<{ [28 x i8] }>, <{ [28 x i8] }>* @alloc878, i32 0, i32 0, i32 0), [16 x i8] c"\1C\00\00\00\00\00\00\00\06\00\00\00\01\00\00\00" }>, align 8
@alloc807 = private unnamed_addr constant <{ [29 x i8] }> <{ [29 x i8] c"Instruction: IdlCreateAccount" }>, align 1
@alloc808 = private unnamed_addr constant <{ [28 x i8] }> <{ [28 x i8] c"Instruction: IdlCreateBuffer" }>, align 1
@alloc809 = private unnamed_addr constant <{ [21 x i8] }> <{ [21 x i8] c"Instruction: IdlWrite" }>, align 1
@alloc810 = private unnamed_addr constant <{ [28 x i8] }> <{ [28 x i8] c"Instruction: IdlSetAuthority" }>, align 1
@alloc811 = private unnamed_addr constant <{ [25 x i8] }> <{ [25 x i8] c"Instruction: IdlSetBuffer" }>, align 1
@alloc812 = private unnamed_addr constant <{ [23 x i8] }> <{ [23 x i8] c"Instruction: Initialize" }>, align 1
@alloc813 = private unnamed_addr constant <{ [21 x i8] }> <{ [21 x i8] c"Instruction: BuyToken" }>, align 1
@alloc814 = private unnamed_addr constant <{ [22 x i8] }> <{ [22 x i8] c"Instruction: SellToken" }>, align 1
@alloc867 = private unnamed_addr constant <{ [8 x i8] }> <{ [8 x i8] c"exchange" }>, align 1
@alloc610 = private unnamed_addr constant <{ [4 x i8] }> zeroinitializer, align 4
@alloc439 = private unnamed_addr constant <{ [4 x i8] }> <{ [4 x i8] c"\01\00\00\00" }>, align 4
@alloc818 = private unnamed_addr constant <{ i8*, [16 x i8] }> <{ i8* getelementptr inbounds (<{ [28 x i8] }>, <{ [28 x i8] }>* @alloc878, i32 0, i32 0, i32 0), [16 x i8] c"\1C\00\00\00\00\00\00\00%\00\00\00\1C\00\00\00" }>, align 8
@str.3 = internal constant [33 x i8] c"attempt to multiply with overflow"
@alloc625 = private unnamed_addr constant <{ [4 x i8] }> <{ [4 x i8] c"\02\00\00\00" }>, align 4
@alloc822 = private unnamed_addr constant <{ i8*, [16 x i8] }> <{ i8* getelementptr inbounds (<{ [28 x i8] }>, <{ [28 x i8] }>* @alloc878, i32 0, i32 0, i32 0), [16 x i8] c"\1C\00\00\00\00\00\00\00>\00\00\00\1E\00\00\00" }>, align 8
@str.4 = internal constant [25 x i8] c"attempt to divide by zero"
@alloc649 = private unnamed_addr constant <{ [8 x i8] }> <{ [8 x i8] c"\AF\AFm\1F\0D\98\9B\ED" }>, align 1
@alloc825 = private unnamed_addr constant <{ [23 x i8] }> <{ [23 x i8] c"Should always serialize" }>, align 1
@alloc655 = private unnamed_addr constant <{ [8 x i8] }> <{ [8 x i8] c"\8A\7F\0E[&Wsi" }>, align 1
@alloc660 = private unnamed_addr constant <{ [8 x i8] }> <{ [8 x i8] c"m=(\BB\E6\B0\87\AE" }>, align 1
@_ZN8sol_swap1A17hf40aa988a1ae6d57E = internal constant <{ [16 x i8] }> <{ [16 x i8] c"\00\00\00\00\03\00\00\00\00\80\00\00\00\00\00\00" }>, align 8, !dbg !152
@alloc672 = private unnamed_addr constant <{ i8*, [8 x i8] }> <{ i8* getelementptr inbounds (<{ [0 x i8] }>, <{ [0 x i8] }>* @alloc479, i32 0, i32 0, i32 0), [8 x i8] zeroinitializer }>, align 8
@alloc570 = private unnamed_addr constant <{ [4 x i8] }> <{ [4 x i8] c"\D0\07\00\00" }>, align 4
@alloc871 = private unnamed_addr constant <{ [10 x i8] }> <{ [10 x i8] c"pool_token" }>, align 1
@alloc828 = private unnamed_addr constant <{ i8*, [16 x i8] }> <{ i8* getelementptr inbounds (<{ [28 x i8] }>, <{ [28 x i8] }>* @alloc878, i32 0, i32 0, i32 0), [16 x i8] c"\1C\00\00\00\00\00\00\00O\00\00\00\0A\00\00\00" }>, align 8
@alloc301 = private unnamed_addr constant <{ [4 x i8] }> <{ [4 x i8] c"\D6\07\00\00" }>, align 4
@alloc251 = private unnamed_addr constant <{ [4 x i8] }> <{ [4 x i8] c"\D1\07\00\00" }>, align 4
@alloc832 = private unnamed_addr constant <{ [9 x i8] }> <{ [9 x i8] c"authority" }>, align 1
@alloc872 = private unnamed_addr constant <{ [8 x i8] }> <{ [8 x i8] c"pool_sol" }>, align 1
@alloc836 = private unnamed_addr constant <{ [9 x i8] }> <{ [9 x i8] c"pool_mint" }>, align 1
@alloc868 = private unnamed_addr constant <{ [13 x i8] }> <{ [13 x i8] c"token_program" }>, align 1
@alloc869 = private unnamed_addr constant <{ [14 x i8] }> <{ [14 x i8] c"system_program" }>, align 1
@alloc870 = private unnamed_addr constant <{ [15 x i8] }> <{ [15 x i8] c"user_token_pool" }>, align 1
@alloc585 = private unnamed_addr constant <{ [4 x i8] }> <{ [4 x i8] c"\D3\07\00\00" }>, align 4
@alloc863 = private unnamed_addr constant <{ [4 x i8] }> <{ [4 x i8] c"user" }>, align 1
@alloc874 = private unnamed_addr constant <{ i8*, [16 x i8] }> <{ i8* getelementptr inbounds (<{ [28 x i8] }>, <{ [28 x i8] }>* @alloc878, i32 0, i32 0, i32 0), [16 x i8] c"\1C\00\00\00\00\00\00\00\B6\00\00\00\01\00\00\00" }>, align 8
@alloc282 = private unnamed_addr constant <{ [8 x i8] }> <{ [8 x i8] c"\1E\C8\DC\95\03=h2" }>, align 1
@alloc283 = private unnamed_addr constant <{ i8*, [0 x i8] }> <{ i8* getelementptr inbounds (<{ [8 x i8] }>, <{ [8 x i8] }>* @alloc282, i32 0, i32 0, i32 0), [0 x i8] zeroinitializer }>, align 8
@alloc880 = private unnamed_addr constant <{ [18 x i8] }> <{ [18 x i8] c"InsufficientTokens" }>, align 1
@alloc881 = private unnamed_addr constant <{ [15 x i8] }> <{ [15 x i8] c"InsufficientSol" }>, align 1
@alloc882 = private unnamed_addr constant <{ [25 x i8] }> <{ [25 x i8] c"UnauthorizedExchangeOwner" }>, align 1
@alloc879 = private unnamed_addr constant <{ i8*, [16 x i8] }> <{ i8* getelementptr inbounds (<{ [28 x i8] }>, <{ [28 x i8] }>* @alloc878, i32 0, i32 0, i32 0), [16 x i8] c"\1C\00\00\00\00\00\00\00\BF\00\00\00\01\00\00\00" }>, align 8
@alloc476 = private unnamed_addr constant <{ [28 x i8] }> <{ [28 x i8] c"User has Insufficient Tokens" }>, align 1
@alloc477 = private unnamed_addr constant <{ i8*, [8 x i8] }> <{ i8* getelementptr inbounds (<{ [28 x i8] }>, <{ [28 x i8] }>* @alloc476, i32 0, i32 0, i32 0), [8 x i8] c"\1C\00\00\00\00\00\00\00" }>, align 8
@alloc486 = private unnamed_addr constant <{ [25 x i8] }> <{ [25 x i8] c"User has Insufficient SOL" }>, align 1
@alloc487 = private unnamed_addr constant <{ i8*, [8 x i8] }> <{ i8* getelementptr inbounds (<{ [25 x i8] }>, <{ [25 x i8] }>* @alloc486, i32 0, i32 0, i32 0), [8 x i8] c"\19\00\00\00\00\00\00\00" }>, align 8
@alloc481 = private unnamed_addr constant <{ [29 x i8] }> <{ [29 x i8] c"Exchange owner is not program" }>, align 1
@alloc482 = private unnamed_addr constant <{ i8*, [8 x i8] }> <{ i8* getelementptr inbounds (<{ [29 x i8] }>, <{ [29 x i8] }>* @alloc481, i32 0, i32 0, i32 0), [8 x i8] c"\1D\00\00\00\00\00\00\00" }>, align 8

; <alloc::vec::into_iter::IntoIter<T,A> as core::iter::traits::iterator::Iterator>::size_hint
; Function Attrs: inlinehint nounwind
define void @"_ZN103_$LT$alloc..vec..into_iter..IntoIter$LT$T$C$A$GT$$u20$as$u20$core..iter..traits..iterator..Iterator$GT$9size_hint17hd38ea635c6049d64E"({ i64, { i64, i64 } }* noalias nocapture sret({ i64, { i64, i64 } }) dereferenceable(24) %0, %"std::vec::IntoIter<u8>"* align 8 dereferenceable(32) %self) unnamed_addr #0 !dbg !252 {
start:
  %rhs.dbg.spill.i = alloca i64, align 8
  %self.dbg.spill.i = alloca i64, align 8
  %self.dbg.spill = alloca %"std::vec::IntoIter<u8>"*, align 8
  %_12 = alloca { i64, i64 }, align 8
  %exact = alloca i64, align 8
  store %"std::vec::IntoIter<u8>"* %self, %"std::vec::IntoIter<u8>"** %self.dbg.spill, align 8
  call void @llvm.dbg.declare(metadata %"std::vec::IntoIter<u8>"** %self.dbg.spill, metadata !291, metadata !DIExpression()), !dbg !294
  call void @llvm.dbg.declare(metadata i64* %exact, metadata !292, metadata !DIExpression()), !dbg !295
  br label %bb1, !dbg !296

bb1:                                              ; preds = %start
  %1 = icmp eq i64 1, 0, !dbg !296
  br i1 %1, label %bb2, label %bb4, !dbg !296

bb2:                                              ; preds = %bb1
  %2 = getelementptr inbounds %"std::vec::IntoIter<u8>", %"std::vec::IntoIter<u8>"* %self, i32 0, i32 5, !dbg !297
  %_5 = load i8*, i8** %2, align 8, !dbg !297
  %_4 = ptrtoint i8* %_5 to i64, !dbg !298
  %3 = getelementptr inbounds %"std::vec::IntoIter<u8>", %"std::vec::IntoIter<u8>"* %self, i32 0, i32 4, !dbg !299
  %_7 = load i8*, i8** %3, align 8, !dbg !299
  %_6 = ptrtoint i8* %_7 to i64, !dbg !299
  store i64 %_4, i64* %self.dbg.spill.i, align 8
  call void @llvm.dbg.declare(metadata i64* %self.dbg.spill.i, metadata !300, metadata !DIExpression()), !dbg !309
  store i64 %_6, i64* %rhs.dbg.spill.i, align 8
  call void @llvm.dbg.declare(metadata i64* %rhs.dbg.spill.i, metadata !308, metadata !DIExpression()), !dbg !311
  %4 = sub i64 %_4, %_6, !dbg !312
  store i64 %4, i64* %exact, align 8, !dbg !298
  br label %bb3, !dbg !298

bb4:                                              ; preds = %bb1
  %5 = getelementptr inbounds %"std::vec::IntoIter<u8>", %"std::vec::IntoIter<u8>"* %self, i32 0, i32 5, !dbg !313
  %_9 = load i8*, i8** %5, align 8, !dbg !313
  %6 = getelementptr inbounds %"std::vec::IntoIter<u8>", %"std::vec::IntoIter<u8>"* %self, i32 0, i32 4, !dbg !314
  %_10 = load i8*, i8** %6, align 8, !dbg !314
; call core::ptr::const_ptr::<impl *const T>::offset_from
  %_8 = call i64 @"_ZN4core3ptr9const_ptr33_$LT$impl$u20$$BP$const$u20$T$GT$11offset_from17hcbcf16b9303a1a2aE"(i8* %_9, i8* %_10), !dbg !313
  br label %bb5, !dbg !313

bb5:                                              ; preds = %bb4
  store i64 %_8, i64* %exact, align 8, !dbg !313
  br label %bb6, !dbg !315

bb6:                                              ; preds = %bb3, %bb5
  %_11 = load i64, i64* %exact, align 8, !dbg !316
  %_13 = load i64, i64* %exact, align 8, !dbg !317
  %7 = bitcast { i64, i64 }* %_12 to %"std::option::Option<usize>::Some"*, !dbg !318
  %8 = getelementptr inbounds %"std::option::Option<usize>::Some", %"std::option::Option<usize>::Some"* %7, i32 0, i32 1, !dbg !318
  store i64 %_13, i64* %8, align 8, !dbg !318
  %9 = bitcast { i64, i64 }* %_12 to i64*, !dbg !318
  store i64 1, i64* %9, align 8, !dbg !318
  %10 = bitcast { i64, { i64, i64 } }* %0 to i64*, !dbg !319
  store i64 %_11, i64* %10, align 8, !dbg !319
  %11 = getelementptr inbounds { i64, { i64, i64 } }, { i64, { i64, i64 } }* %0, i32 0, i32 1, !dbg !319
  %12 = getelementptr inbounds { i64, i64 }, { i64, i64 }* %_12, i32 0, i32 0, !dbg !319
  %13 = load i64, i64* %12, align 8, !dbg !319, !range !320
  %14 = getelementptr inbounds { i64, i64 }, { i64, i64 }* %_12, i32 0, i32 1, !dbg !319
  %15 = load i64, i64* %14, align 8, !dbg !319
  %16 = getelementptr inbounds { i64, i64 }, { i64, i64 }* %11, i32 0, i32 0, !dbg !319
  store i64 %13, i64* %16, align 8, !dbg !319
  %17 = getelementptr inbounds { i64, i64 }, { i64, i64 }* %11, i32 0, i32 1, !dbg !319
  store i64 %15, i64* %17, align 8, !dbg !319
  ret void, !dbg !321

bb3:                                              ; preds = %bb2
  br label %bb6, !dbg !315
}

; <anchor_lang::accounts::program_account::ProgramAccount<T> as core::ops::deref::DerefMut>::deref_mut
; Function Attrs: nounwind
define align 8 dereferenceable(56) %"anchor_lang::idl::IdlAccount"* @"_ZN110_$LT$anchor_lang..accounts..program_account..ProgramAccount$LT$T$GT$$u20$as$u20$core..ops..deref..DerefMut$GT$9deref_mut17h103b6765c4a01e95E"(i64** align 8 dereferenceable(8) %self) unnamed_addr #1 !dbg !322 {
start:
  %self.dbg.spill = alloca i64**, align 8
  store i64** %self, i64*** %self.dbg.spill, align 8
  call void @llvm.dbg.declare(metadata i64*** %self.dbg.spill, metadata !436, metadata !DIExpression()), !dbg !437
  %_6 = bitcast i64** %self to %"anchor_lang::accounts::program_account::Inner<anchor_lang::idl::IdlAccount>"**, !dbg !438
; call <alloc::boxed::Box<T,A> as core::ops::deref::DerefMut>::deref_mut
  %_4 = call align 8 dereferenceable(104) %"anchor_lang::accounts::program_account::Inner<anchor_lang::idl::IdlAccount>"* @"_ZN77_$LT$alloc..boxed..Box$LT$T$C$A$GT$$u20$as$u20$core..ops..deref..DerefMut$GT$9deref_mut17h1edf6bf3ce7c989eE"(%"anchor_lang::accounts::program_account::Inner<anchor_lang::idl::IdlAccount>"** align 8 dereferenceable(8) %_6), !dbg !439
  br label %bb1, !dbg !439

bb1:                                              ; preds = %start
  %_3 = getelementptr inbounds %"anchor_lang::accounts::program_account::Inner<anchor_lang::idl::IdlAccount>", %"anchor_lang::accounts::program_account::Inner<anchor_lang::idl::IdlAccount>"* %_4, i32 0, i32 1, !dbg !440
  ret %"anchor_lang::idl::IdlAccount"* %_3, !dbg !441
}

; <alloc::collections::btree::map::BTreeMap<K,V> as core::iter::traits::collect::IntoIterator>::into_iter
; Function Attrs: nounwind
define void @"_ZN115_$LT$alloc..collections..btree..map..BTreeMap$LT$K$C$V$GT$$u20$as$u20$core..iter..traits..collect..IntoIterator$GT$9into_iter17h22b8230497afc63dE"(%"std::collections::btree_map::IntoIter<std::string::String, u8>"* noalias nocapture sret(%"std::collections::btree_map::IntoIter<std::string::String, u8>") dereferenceable(72) %0, %"std::collections::BTreeMap<std::string::String, u8>"* noalias nocapture dereferenceable(24) %self) unnamed_addr #1 !dbg !442 {
start:
  %self.dbg.spill.i1 = alloca %"std::mem::ManuallyDrop<std::collections::BTreeMap<std::string::String, u8>>"*, align 8
  %self.dbg.spill.i = alloca %"std::mem::ManuallyDrop<std::collections::BTreeMap<std::string::String, u8>>"*, align 8
  %_2.i = alloca %"std::collections::BTreeMap<std::string::String, u8>", align 8
  %root.dbg.spill = alloca { i64, i64* }, align 8
  %_17 = alloca %"alloc::collections::btree::navigate::LazyLeafRange<alloc::collections::btree::node::marker::Dying, std::string::String, u8>", align 8
  %_13 = alloca %"alloc::collections::btree::navigate::LazyLeafRange<alloc::collections::btree::node::marker::Dying, std::string::String, u8>", align 8
  %full_range = alloca %"alloc::collections::btree::navigate::LazyLeafRange<alloc::collections::btree::node::marker::Dying, std::string::String, u8>", align 8
  %_4 = alloca { i64, i64* }, align 8
  %_3 = alloca %"std::collections::BTreeMap<std::string::String, u8>", align 8
  %me = alloca %"std::mem::ManuallyDrop<std::collections::BTreeMap<std::string::String, u8>>", align 8
  call void @llvm.dbg.declare(metadata %"std::collections::BTreeMap<std::string::String, u8>"* %self, metadata !658, metadata !DIExpression()), !dbg !670
  call void @llvm.dbg.declare(metadata %"std::mem::ManuallyDrop<std::collections::BTreeMap<std::string::String, u8>>"* %me, metadata !659, metadata !DIExpression()), !dbg !671
  call void @llvm.dbg.declare(metadata %"alloc::collections::btree::navigate::LazyLeafRange<alloc::collections::btree::node::marker::Dying, std::string::String, u8>"* %full_range, metadata !668, metadata !DIExpression()), !dbg !672
  %1 = bitcast %"std::collections::BTreeMap<std::string::String, u8>"* %_3 to i8*, !dbg !673
  %2 = bitcast %"std::collections::BTreeMap<std::string::String, u8>"* %self to i8*, !dbg !673
  call void @llvm.memcpy.p0i8.p0i8.i64(i8* align 8 %1, i8* align 8 %2, i64 24, i1 false), !dbg !673
  call void @llvm.experimental.noalias.scope.decl(metadata !674), !dbg !677
  call void @llvm.experimental.noalias.scope.decl(metadata !678), !dbg !677
  call void @llvm.dbg.declare(metadata %"std::collections::BTreeMap<std::string::String, u8>"* %_3, metadata !680, metadata !DIExpression()) #11, !dbg !686
  %3 = bitcast %"std::collections::BTreeMap<std::string::String, u8>"* %_2.i to i8*, !dbg !688
  %4 = bitcast %"std::collections::BTreeMap<std::string::String, u8>"* %_3 to i8*, !dbg !688
  call void @llvm.memcpy.p0i8.p0i8.i64(i8* align 8 %3, i8* align 8 %4, i64 24, i1 false) #11, !dbg !688, !noalias !674
  %5 = bitcast %"std::mem::ManuallyDrop<std::collections::BTreeMap<std::string::String, u8>>"* %me to %"std::collections::BTreeMap<std::string::String, u8>"*, !dbg !689
  %6 = bitcast %"std::collections::BTreeMap<std::string::String, u8>"* %5 to i8*, !dbg !689
  %7 = bitcast %"std::collections::BTreeMap<std::string::String, u8>"* %_2.i to i8*, !dbg !689
  call void @llvm.memcpy.p0i8.p0i8.i64(i8* align 8 %6, i8* align 8 %7, i64 24, i1 false) #11, !dbg !689, !noalias !678
  br label %bb1, !dbg !677

bb1:                                              ; preds = %start
  store %"std::mem::ManuallyDrop<std::collections::BTreeMap<std::string::String, u8>>"* %me, %"std::mem::ManuallyDrop<std::collections::BTreeMap<std::string::String, u8>>"** %self.dbg.spill.i1, align 8
  call void @llvm.dbg.declare(metadata %"std::mem::ManuallyDrop<std::collections::BTreeMap<std::string::String, u8>>"** %self.dbg.spill.i1, metadata !690, metadata !DIExpression()), !dbg !698
  %_3.i = bitcast %"std::mem::ManuallyDrop<std::collections::BTreeMap<std::string::String, u8>>"* %me to %"std::collections::BTreeMap<std::string::String, u8>"*, !dbg !700
  br label %bb2, !dbg !701

bb2:                                              ; preds = %bb1
  %_5 = bitcast %"std::collections::BTreeMap<std::string::String, u8>"* %_3.i to { i64, i64* }*, !dbg !701
; call core::option::Option<T>::take
  %8 = call { i64, i64* } @"_ZN4core6option15Option$LT$T$GT$4take17h2a92a20c2212ca59E"({ i64, i64* }* align 8 dereferenceable(16) %_5), !dbg !701
  store { i64, i64* } %8, { i64, i64* }* %_4, align 8, !dbg !701
  br label %bb3, !dbg !701

bb3:                                              ; preds = %bb2
  %9 = getelementptr inbounds { i64, i64* }, { i64, i64* }* %_4, i32 0, i32 1, !dbg !702
  %10 = bitcast i64** %9 to {}**, !dbg !702
  %11 = load {}*, {}** %10, align 8, !dbg !702
  %12 = icmp eq {}* %11, null, !dbg !702
  %_8 = select i1 %12, i64 0, i64 1, !dbg !702
  %13 = icmp eq i64 %_8, 1, !dbg !702
  br i1 %13, label %bb4, label %bb8, !dbg !702

bb4:                                              ; preds = %bb3
  %14 = getelementptr inbounds { i64, i64* }, { i64, i64* }* %_4, i32 0, i32 0, !dbg !703
  %root.0 = load i64, i64* %14, align 8, !dbg !703
  %15 = getelementptr inbounds { i64, i64* }, { i64, i64* }* %_4, i32 0, i32 1, !dbg !703
  %root.1 = load i64*, i64** %15, align 8, !dbg !703, !nonnull !4
  %16 = getelementptr inbounds { i64, i64* }, { i64, i64* }* %root.dbg.spill, i32 0, i32 0, !dbg !703
  store i64 %root.0, i64* %16, align 8, !dbg !703
  %17 = getelementptr inbounds { i64, i64* }, { i64, i64* }* %root.dbg.spill, i32 0, i32 1, !dbg !703
  store i64* %root.1, i64** %17, align 8, !dbg !703
  call void @llvm.dbg.declare(metadata { i64, i64* }* %root.dbg.spill, metadata !666, metadata !DIExpression()), !dbg !704
; call alloc::collections::btree::node::NodeRef<alloc::collections::btree::node::marker::Owned,K,V,Type>::into_dying
  %18 = call { i64, i64* } @"_ZN5alloc11collections5btree4node76NodeRef$LT$alloc..collections..btree..node..marker..Owned$C$K$C$V$C$Type$GT$10into_dying17h8022e8bbd42494d6E"(i64 %root.0, i64* nonnull %root.1), !dbg !705
  %_11.0 = extractvalue { i64, i64* } %18, 0, !dbg !705
  %_11.1 = extractvalue { i64, i64* } %18, 1, !dbg !705
  br label %bb5, !dbg !705

bb8:                                              ; preds = %bb3
; call alloc::collections::btree::navigate::LazyLeafRange<BorrowType,K,V>::none
  call void @"_ZN5alloc11collections5btree8navigate39LazyLeafRange$LT$BorrowType$C$K$C$V$GT$4none17ha30bde5525d38a09E"(%"alloc::collections::btree::navigate::LazyLeafRange<alloc::collections::btree::node::marker::Dying, std::string::String, u8>"* noalias nocapture sret(%"alloc::collections::btree::navigate::LazyLeafRange<alloc::collections::btree::node::marker::Dying, std::string::String, u8>") dereferenceable(64) %_17), !dbg !706
  br label %bb9, !dbg !706

bb9:                                              ; preds = %bb8
  %19 = bitcast %"std::collections::btree_map::IntoIter<std::string::String, u8>"* %0 to %"alloc::collections::btree::navigate::LazyLeafRange<alloc::collections::btree::node::marker::Dying, std::string::String, u8>"*, !dbg !707
  %20 = bitcast %"alloc::collections::btree::navigate::LazyLeafRange<alloc::collections::btree::node::marker::Dying, std::string::String, u8>"* %19 to i8*, !dbg !707
  %21 = bitcast %"alloc::collections::btree::navigate::LazyLeafRange<alloc::collections::btree::node::marker::Dying, std::string::String, u8>"* %_17 to i8*, !dbg !707
  call void @llvm.memcpy.p0i8.p0i8.i64(i8* align 8 %20, i8* align 8 %21, i64 64, i1 false), !dbg !707
  %22 = getelementptr inbounds %"std::collections::btree_map::IntoIter<std::string::String, u8>", %"std::collections::btree_map::IntoIter<std::string::String, u8>"* %0, i32 0, i32 1, !dbg !707
  store i64 0, i64* %22, align 8, !dbg !707
  br label %bb10, !dbg !708

bb10:                                             ; preds = %bb7, %bb9
  ret void, !dbg !709

bb5:                                              ; preds = %bb4
; call alloc::collections::btree::navigate::<impl alloc::collections::btree::node::NodeRef<alloc::collections::btree::node::marker::Dying,K,V,alloc::collections::btree::node::marker::LeafOrInternal>>::full_range
  call void @"_ZN5alloc11collections5btree8navigate178_$LT$impl$u20$alloc..collections..btree..node..NodeRef$LT$alloc..collections..btree..node..marker..Dying$C$K$C$V$C$alloc..collections..btree..node..marker..LeafOrInternal$GT$$GT$10full_range17he52f9cb75f4ba42bE"(%"alloc::collections::btree::navigate::LazyLeafRange<alloc::collections::btree::node::marker::Dying, std::string::String, u8>"* noalias nocapture sret(%"alloc::collections::btree::navigate::LazyLeafRange<alloc::collections::btree::node::marker::Dying, std::string::String, u8>") dereferenceable(64) %full_range, i64 %_11.0, i64* nonnull %_11.1), !dbg !705
  br label %bb6, !dbg !705

bb6:                                              ; preds = %bb5
  %23 = bitcast %"alloc::collections::btree::navigate::LazyLeafRange<alloc::collections::btree::node::marker::Dying, std::string::String, u8>"* %_13 to i8*, !dbg !710
  %24 = bitcast %"alloc::collections::btree::navigate::LazyLeafRange<alloc::collections::btree::node::marker::Dying, std::string::String, u8>"* %full_range to i8*, !dbg !710
  call void @llvm.memcpy.p0i8.p0i8.i64(i8* align 8 %23, i8* align 8 %24, i64 64, i1 false), !dbg !710
  store %"std::mem::ManuallyDrop<std::collections::BTreeMap<std::string::String, u8>>"* %me, %"std::mem::ManuallyDrop<std::collections::BTreeMap<std::string::String, u8>>"** %self.dbg.spill.i, align 8
  call void @llvm.dbg.declare(metadata %"std::mem::ManuallyDrop<std::collections::BTreeMap<std::string::String, u8>>"** %self.dbg.spill.i, metadata !711, metadata !DIExpression()), !dbg !719
  %25 = bitcast %"std::mem::ManuallyDrop<std::collections::BTreeMap<std::string::String, u8>>"* %me to %"std::collections::BTreeMap<std::string::String, u8>"*, !dbg !721
  br label %bb7, !dbg !722

bb7:                                              ; preds = %bb6
  %26 = getelementptr inbounds %"std::collections::BTreeMap<std::string::String, u8>", %"std::collections::BTreeMap<std::string::String, u8>"* %25, i32 0, i32 1, !dbg !722
  %_14 = load i64, i64* %26, align 8, !dbg !722
  %27 = bitcast %"std::collections::btree_map::IntoIter<std::string::String, u8>"* %0 to %"alloc::collections::btree::navigate::LazyLeafRange<alloc::collections::btree::node::marker::Dying, std::string::String, u8>"*, !dbg !723
  %28 = bitcast %"alloc::collections::btree::navigate::LazyLeafRange<alloc::collections::btree::node::marker::Dying, std::string::String, u8>"* %27 to i8*, !dbg !723
  %29 = bitcast %"alloc::collections::btree::navigate::LazyLeafRange<alloc::collections::btree::node::marker::Dying, std::string::String, u8>"* %_13 to i8*, !dbg !723
  call void @llvm.memcpy.p0i8.p0i8.i64(i8* align 8 %28, i8* align 8 %29, i64 64, i1 false), !dbg !723
  %30 = getelementptr inbounds %"std::collections::btree_map::IntoIter<std::string::String, u8>", %"std::collections::btree_map::IntoIter<std::string::String, u8>"* %0, i32 0, i32 1, !dbg !723
  store i64 %_14, i64* %30, align 8, !dbg !723
  br label %bb10, !dbg !708
}

; anchor_lang::AccountSerialize::try_serialize
; Function Attrs: nounwind
define void @_ZN11anchor_lang16AccountSerialize13try_serialize17h91bdad734c54ea2cE(%"std::result::Result<(), anchor_lang::error::Error>"* noalias nocapture sret(%"std::result::Result<(), anchor_lang::error::Error>") dereferenceable(112) %0, %"anchor_spl::token::TokenAccount"* align 8 dereferenceable(176) %self, %"std::io::Cursor<&mut [u8]>"* align 8 dereferenceable(24) %_writer) unnamed_addr #1 !dbg !724 {
start:
  %_writer.dbg.spill = alloca %"std::io::Cursor<&mut [u8]>"*, align 8
  %self.dbg.spill = alloca %"anchor_spl::token::TokenAccount"*, align 8
  store %"anchor_spl::token::TokenAccount"* %self, %"anchor_spl::token::TokenAccount"** %self.dbg.spill, align 8
  call void @llvm.dbg.declare(metadata %"anchor_spl::token::TokenAccount"** %self.dbg.spill, metadata !895, metadata !DIExpression()), !dbg !900
  store %"std::io::Cursor<&mut [u8]>"* %_writer, %"std::io::Cursor<&mut [u8]>"** %_writer.dbg.spill, align 8
  call void @llvm.dbg.declare(metadata %"std::io::Cursor<&mut [u8]>"** %_writer.dbg.spill, metadata !896, metadata !DIExpression()), !dbg !901
  %1 = bitcast %"std::result::Result<(), anchor_lang::error::Error>"* %0 to i64*, !dbg !902
  store i64 2, i64* %1, align 8, !dbg !902
  ret void, !dbg !903
}

; anchor_lang::AccountDeserialize::try_deserialize
; Function Attrs: nounwind
define void @_ZN11anchor_lang18AccountDeserialize15try_deserialize17h25f33e698d8d29d0E(%"std::result::Result<anchor_spl::token::Mint, anchor_lang::error::Error>"* noalias nocapture sret(%"std::result::Result<anchor_spl::token::Mint, anchor_lang::error::Error>") dereferenceable(120) %0, { [0 x i8]*, i64 }* align 8 dereferenceable(16) %buf) unnamed_addr #1 !dbg !904 {
start:
  %buf.dbg.spill = alloca { [0 x i8]*, i64 }*, align 8
  store { [0 x i8]*, i64 }* %buf, { [0 x i8]*, i64 }** %buf.dbg.spill, align 8
  call void @llvm.dbg.declare(metadata { [0 x i8]*, i64 }** %buf.dbg.spill, metadata !938, metadata !DIExpression()), !dbg !941
; call <anchor_spl::token::Mint as anchor_lang::AccountDeserialize>::try_deserialize_unchecked
  call void @"_ZN75_$LT$anchor_spl..token..Mint$u20$as$u20$anchor_lang..AccountDeserialize$GT$25try_deserialize_unchecked17hf2e20175b520e716E"(%"std::result::Result<anchor_spl::token::Mint, anchor_lang::error::Error>"* noalias nocapture sret(%"std::result::Result<anchor_spl::token::Mint, anchor_lang::error::Error>") dereferenceable(120) %0, { [0 x i8]*, i64 }* align 8 dereferenceable(16) %buf), !dbg !942
  br label %bb1, !dbg !942

bb1:                                              ; preds = %start
  ret void, !dbg !943
}

; anchor_lang::AccountDeserialize::try_deserialize
; Function Attrs: nounwind
define void @_ZN11anchor_lang18AccountDeserialize15try_deserialize17h9a8463b663cd7775E(%"std::result::Result<anchor_spl::token::TokenAccount, anchor_lang::error::Error>"* noalias nocapture sret(%"std::result::Result<anchor_spl::token::TokenAccount, anchor_lang::error::Error>") dereferenceable(184) %0, { [0 x i8]*, i64 }* align 8 dereferenceable(16) %buf) unnamed_addr #1 !dbg !944 {
start:
  %buf.dbg.spill = alloca { [0 x i8]*, i64 }*, align 8
  store { [0 x i8]*, i64 }* %buf, { [0 x i8]*, i64 }** %buf.dbg.spill, align 8
  call void @llvm.dbg.declare(metadata { [0 x i8]*, i64 }** %buf.dbg.spill, metadata !962, metadata !DIExpression()), !dbg !964
; call <anchor_spl::token::TokenAccount as anchor_lang::AccountDeserialize>::try_deserialize_unchecked
  call void @"_ZN83_$LT$anchor_spl..token..TokenAccount$u20$as$u20$anchor_lang..AccountDeserialize$GT$25try_deserialize_unchecked17h091fa6951c206e67E"(%"std::result::Result<anchor_spl::token::TokenAccount, anchor_lang::error::Error>"* noalias nocapture sret(%"std::result::Result<anchor_spl::token::TokenAccount, anchor_lang::error::Error>") dereferenceable(184) %0, { [0 x i8]*, i64 }* align 8 dereferenceable(16) %buf), !dbg !965
  br label %bb1, !dbg !965

bb1:                                              ; preds = %start
  ret void, !dbg !966
}

; anchor_lang::context::Context<T>::new
; Function Attrs: nounwind
define void @"_ZN11anchor_lang7context16Context$LT$T$GT$3new17h2d58b085bd129cd2E"(%"anchor_lang::context::Context<Initialize>"* noalias nocapture sret(%"anchor_lang::context::Context<Initialize>") dereferenceable(56) %0, %"anchor_lang::prelude::Pubkey"* align 1 dereferenceable(32) %program_id, %Initialize* align 8 dereferenceable(792) %accounts, [0 x %"anchor_lang::prelude::AccountInfo"]* nonnull align 8 %remaining_accounts.0, i64 %remaining_accounts.1, %"std::collections::BTreeMap<std::string::String, u8>"* noalias nocapture dereferenceable(24) %bumps) unnamed_addr #1 !dbg !967 {
start:
  %remaining_accounts.dbg.spill = alloca { [0 x %"anchor_lang::prelude::AccountInfo"]*, i64 }, align 8
  %accounts.dbg.spill = alloca %Initialize*, align 8
  %program_id.dbg.spill = alloca %"anchor_lang::prelude::Pubkey"*, align 8
  %_8 = alloca %"std::collections::BTreeMap<std::string::String, u8>", align 8
  store %"anchor_lang::prelude::Pubkey"* %program_id, %"anchor_lang::prelude::Pubkey"** %program_id.dbg.spill, align 8
  call void @llvm.dbg.declare(metadata %"anchor_lang::prelude::Pubkey"** %program_id.dbg.spill, metadata !1055, metadata !DIExpression()), !dbg !1059
  store %Initialize* %accounts, %Initialize** %accounts.dbg.spill, align 8
  call void @llvm.dbg.declare(metadata %Initialize** %accounts.dbg.spill, metadata !1056, metadata !DIExpression()), !dbg !1060
  %1 = getelementptr inbounds { [0 x %"anchor_lang::prelude::AccountInfo"]*, i64 }, { [0 x %"anchor_lang::prelude::AccountInfo"]*, i64 }* %remaining_accounts.dbg.spill, i32 0, i32 0
  store [0 x %"anchor_lang::prelude::AccountInfo"]* %remaining_accounts.0, [0 x %"anchor_lang::prelude::AccountInfo"]** %1, align 8
  %2 = getelementptr inbounds { [0 x %"anchor_lang::prelude::AccountInfo"]*, i64 }, { [0 x %"anchor_lang::prelude::AccountInfo"]*, i64 }* %remaining_accounts.dbg.spill, i32 0, i32 1
  store i64 %remaining_accounts.1, i64* %2, align 8
  call void @llvm.dbg.declare(metadata { [0 x %"anchor_lang::prelude::AccountInfo"]*, i64 }* %remaining_accounts.dbg.spill, metadata !1057, metadata !DIExpression()), !dbg !1061
  call void @llvm.dbg.declare(metadata %"std::collections::BTreeMap<std::string::String, u8>"* %bumps, metadata !1058, metadata !DIExpression()), !dbg !1062
  %3 = bitcast %"std::collections::BTreeMap<std::string::String, u8>"* %_8 to i8*, !dbg !1063
  %4 = bitcast %"std::collections::BTreeMap<std::string::String, u8>"* %bumps to i8*, !dbg !1063
  call void @llvm.memcpy.p0i8.p0i8.i64(i8* align 8 %3, i8* align 8 %4, i64 24, i1 false), !dbg !1063
  %5 = bitcast %"anchor_lang::context::Context<Initialize>"* %0 to %"anchor_lang::prelude::Pubkey"**, !dbg !1064
  store %"anchor_lang::prelude::Pubkey"* %program_id, %"anchor_lang::prelude::Pubkey"** %5, align 8, !dbg !1064
  %6 = getelementptr inbounds %"anchor_lang::context::Context<Initialize>", %"anchor_lang::context::Context<Initialize>"* %0, i32 0, i32 1, !dbg !1064
  store %Initialize* %accounts, %Initialize** %6, align 8, !dbg !1064
  %7 = getelementptr inbounds %"anchor_lang::context::Context<Initialize>", %"anchor_lang::context::Context<Initialize>"* %0, i32 0, i32 2, !dbg !1064
  %8 = getelementptr inbounds { [0 x %"anchor_lang::prelude::AccountInfo"]*, i64 }, { [0 x %"anchor_lang::prelude::AccountInfo"]*, i64 }* %7, i32 0, i32 0, !dbg !1064
  store [0 x %"anchor_lang::prelude::AccountInfo"]* %remaining_accounts.0, [0 x %"anchor_lang::prelude::AccountInfo"]** %8, align 8, !dbg !1064
  %9 = getelementptr inbounds { [0 x %"anchor_lang::prelude::AccountInfo"]*, i64 }, { [0 x %"anchor_lang::prelude::AccountInfo"]*, i64 }* %7, i32 0, i32 1, !dbg !1064
  store i64 %remaining_accounts.1, i64* %9, align 8, !dbg !1064
  %10 = getelementptr inbounds %"anchor_lang::context::Context<Initialize>", %"anchor_lang::context::Context<Initialize>"* %0, i32 0, i32 3, !dbg !1064
  %11 = bitcast %"std::collections::BTreeMap<std::string::String, u8>"* %10 to i8*, !dbg !1064
  %12 = bitcast %"std::collections::BTreeMap<std::string::String, u8>"* %_8 to i8*, !dbg !1064
  call void @llvm.memcpy.p0i8.p0i8.i64(i8* align 8 %11, i8* align 8 %12, i64 24, i1 false), !dbg !1064
  ret void, !dbg !1065
}

; anchor_lang::context::Context<T>::new
; Function Attrs: nounwind
define void @"_ZN11anchor_lang7context16Context$LT$T$GT$3new17h3b3f2cb49d7109d0E"(%"anchor_lang::context::Context<BuyToken>"* noalias nocapture sret(%"anchor_lang::context::Context<BuyToken>") dereferenceable(56) %0, %"anchor_lang::prelude::Pubkey"* align 1 dereferenceable(32) %program_id, %BuyToken* align 8 dereferenceable(880) %accounts, [0 x %"anchor_lang::prelude::AccountInfo"]* nonnull align 8 %remaining_accounts.0, i64 %remaining_accounts.1, %"std::collections::BTreeMap<std::string::String, u8>"* noalias nocapture dereferenceable(24) %bumps) unnamed_addr #1 !dbg !1066 {
start:
  %remaining_accounts.dbg.spill = alloca { [0 x %"anchor_lang::prelude::AccountInfo"]*, i64 }, align 8
  %accounts.dbg.spill = alloca %BuyToken*, align 8
  %program_id.dbg.spill = alloca %"anchor_lang::prelude::Pubkey"*, align 8
  %_8 = alloca %"std::collections::BTreeMap<std::string::String, u8>", align 8
  store %"anchor_lang::prelude::Pubkey"* %program_id, %"anchor_lang::prelude::Pubkey"** %program_id.dbg.spill, align 8
  call void @llvm.dbg.declare(metadata %"anchor_lang::prelude::Pubkey"** %program_id.dbg.spill, metadata !1088, metadata !DIExpression()), !dbg !1092
  store %BuyToken* %accounts, %BuyToken** %accounts.dbg.spill, align 8
  call void @llvm.dbg.declare(metadata %BuyToken** %accounts.dbg.spill, metadata !1089, metadata !DIExpression()), !dbg !1093
  %1 = getelementptr inbounds { [0 x %"anchor_lang::prelude::AccountInfo"]*, i64 }, { [0 x %"anchor_lang::prelude::AccountInfo"]*, i64 }* %remaining_accounts.dbg.spill, i32 0, i32 0
  store [0 x %"anchor_lang::prelude::AccountInfo"]* %remaining_accounts.0, [0 x %"anchor_lang::prelude::AccountInfo"]** %1, align 8
  %2 = getelementptr inbounds { [0 x %"anchor_lang::prelude::AccountInfo"]*, i64 }, { [0 x %"anchor_lang::prelude::AccountInfo"]*, i64 }* %remaining_accounts.dbg.spill, i32 0, i32 1
  store i64 %remaining_accounts.1, i64* %2, align 8
  call void @llvm.dbg.declare(metadata { [0 x %"anchor_lang::prelude::AccountInfo"]*, i64 }* %remaining_accounts.dbg.spill, metadata !1090, metadata !DIExpression()), !dbg !1094
  call void @llvm.dbg.declare(metadata %"std::collections::BTreeMap<std::string::String, u8>"* %bumps, metadata !1091, metadata !DIExpression()), !dbg !1095
  %3 = bitcast %"std::collections::BTreeMap<std::string::String, u8>"* %_8 to i8*, !dbg !1096
  %4 = bitcast %"std::collections::BTreeMap<std::string::String, u8>"* %bumps to i8*, !dbg !1096
  call void @llvm.memcpy.p0i8.p0i8.i64(i8* align 8 %3, i8* align 8 %4, i64 24, i1 false), !dbg !1096
  %5 = bitcast %"anchor_lang::context::Context<BuyToken>"* %0 to %"anchor_lang::prelude::Pubkey"**, !dbg !1097
  store %"anchor_lang::prelude::Pubkey"* %program_id, %"anchor_lang::prelude::Pubkey"** %5, align 8, !dbg !1097
  %6 = getelementptr inbounds %"anchor_lang::context::Context<BuyToken>", %"anchor_lang::context::Context<BuyToken>"* %0, i32 0, i32 1, !dbg !1097
  store %BuyToken* %accounts, %BuyToken** %6, align 8, !dbg !1097
  %7 = getelementptr inbounds %"anchor_lang::context::Context<BuyToken>", %"anchor_lang::context::Context<BuyToken>"* %0, i32 0, i32 2, !dbg !1097
  %8 = getelementptr inbounds { [0 x %"anchor_lang::prelude::AccountInfo"]*, i64 }, { [0 x %"anchor_lang::prelude::AccountInfo"]*, i64 }* %7, i32 0, i32 0, !dbg !1097
  store [0 x %"anchor_lang::prelude::AccountInfo"]* %remaining_accounts.0, [0 x %"anchor_lang::prelude::AccountInfo"]** %8, align 8, !dbg !1097
  %9 = getelementptr inbounds { [0 x %"anchor_lang::prelude::AccountInfo"]*, i64 }, { [0 x %"anchor_lang::prelude::AccountInfo"]*, i64 }* %7, i32 0, i32 1, !dbg !1097
  store i64 %remaining_accounts.1, i64* %9, align 8, !dbg !1097
  %10 = getelementptr inbounds %"anchor_lang::context::Context<BuyToken>", %"anchor_lang::context::Context<BuyToken>"* %0, i32 0, i32 3, !dbg !1097
  %11 = bitcast %"std::collections::BTreeMap<std::string::String, u8>"* %10 to i8*, !dbg !1097
  %12 = bitcast %"std::collections::BTreeMap<std::string::String, u8>"* %_8 to i8*, !dbg !1097
  call void @llvm.memcpy.p0i8.p0i8.i64(i8* align 8 %11, i8* align 8 %12, i64 24, i1 false), !dbg !1097
  ret void, !dbg !1098
}

; anchor_lang::context::Context<T>::new
; Function Attrs: nounwind
define void @"_ZN11anchor_lang7context16Context$LT$T$GT$3new17h932139bc48d62ba9E"(%"anchor_lang::context::Context<SellToken>"* noalias nocapture sret(%"anchor_lang::context::Context<SellToken>") dereferenceable(56) %0, %"anchor_lang::prelude::Pubkey"* align 1 dereferenceable(32) %program_id, %SellToken* align 8 dereferenceable(880) %accounts, [0 x %"anchor_lang::prelude::AccountInfo"]* nonnull align 8 %remaining_accounts.0, i64 %remaining_accounts.1, %"std::collections::BTreeMap<std::string::String, u8>"* noalias nocapture dereferenceable(24) %bumps) unnamed_addr #1 !dbg !1099 {
start:
  %remaining_accounts.dbg.spill = alloca { [0 x %"anchor_lang::prelude::AccountInfo"]*, i64 }, align 8
  %accounts.dbg.spill = alloca %SellToken*, align 8
  %program_id.dbg.spill = alloca %"anchor_lang::prelude::Pubkey"*, align 8
  %_8 = alloca %"std::collections::BTreeMap<std::string::String, u8>", align 8
  store %"anchor_lang::prelude::Pubkey"* %program_id, %"anchor_lang::prelude::Pubkey"** %program_id.dbg.spill, align 8
  call void @llvm.dbg.declare(metadata %"anchor_lang::prelude::Pubkey"** %program_id.dbg.spill, metadata !1121, metadata !DIExpression()), !dbg !1125
  store %SellToken* %accounts, %SellToken** %accounts.dbg.spill, align 8
  call void @llvm.dbg.declare(metadata %SellToken** %accounts.dbg.spill, metadata !1122, metadata !DIExpression()), !dbg !1126
  %1 = getelementptr inbounds { [0 x %"anchor_lang::prelude::AccountInfo"]*, i64 }, { [0 x %"anchor_lang::prelude::AccountInfo"]*, i64 }* %remaining_accounts.dbg.spill, i32 0, i32 0
  store [0 x %"anchor_lang::prelude::AccountInfo"]* %remaining_accounts.0, [0 x %"anchor_lang::prelude::AccountInfo"]** %1, align 8
  %2 = getelementptr inbounds { [0 x %"anchor_lang::prelude::AccountInfo"]*, i64 }, { [0 x %"anchor_lang::prelude::AccountInfo"]*, i64 }* %remaining_accounts.dbg.spill, i32 0, i32 1
  store i64 %remaining_accounts.1, i64* %2, align 8
  call void @llvm.dbg.declare(metadata { [0 x %"anchor_lang::prelude::AccountInfo"]*, i64 }* %remaining_accounts.dbg.spill, metadata !1123, metadata !DIExpression()), !dbg !1127
  call void @llvm.dbg.declare(metadata %"std::collections::BTreeMap<std::string::String, u8>"* %bumps, metadata !1124, metadata !DIExpression()), !dbg !1128
  %3 = bitcast %"std::collections::BTreeMap<std::string::String, u8>"* %_8 to i8*, !dbg !1129
  %4 = bitcast %"std::collections::BTreeMap<std::string::String, u8>"* %bumps to i8*, !dbg !1129
  call void @llvm.memcpy.p0i8.p0i8.i64(i8* align 8 %3, i8* align 8 %4, i64 24, i1 false), !dbg !1129
  %5 = bitcast %"anchor_lang::context::Context<SellToken>"* %0 to %"anchor_lang::prelude::Pubkey"**, !dbg !1130
  store %"anchor_lang::prelude::Pubkey"* %program_id, %"anchor_lang::prelude::Pubkey"** %5, align 8, !dbg !1130
  %6 = getelementptr inbounds %"anchor_lang::context::Context<SellToken>", %"anchor_lang::context::Context<SellToken>"* %0, i32 0, i32 1, !dbg !1130
  store %SellToken* %accounts, %SellToken** %6, align 8, !dbg !1130
  %7 = getelementptr inbounds %"anchor_lang::context::Context<SellToken>", %"anchor_lang::context::Context<SellToken>"* %0, i32 0, i32 2, !dbg !1130
  %8 = getelementptr inbounds { [0 x %"anchor_lang::prelude::AccountInfo"]*, i64 }, { [0 x %"anchor_lang::prelude::AccountInfo"]*, i64 }* %7, i32 0, i32 0, !dbg !1130
  store [0 x %"anchor_lang::prelude::AccountInfo"]* %remaining_accounts.0, [0 x %"anchor_lang::prelude::AccountInfo"]** %8, align 8, !dbg !1130
  %9 = getelementptr inbounds { [0 x %"anchor_lang::prelude::AccountInfo"]*, i64 }, { [0 x %"anchor_lang::prelude::AccountInfo"]*, i64 }* %7, i32 0, i32 1, !dbg !1130
  store i64 %remaining_accounts.1, i64* %9, align 8, !dbg !1130
  %10 = getelementptr inbounds %"anchor_lang::context::Context<SellToken>", %"anchor_lang::context::Context<SellToken>"* %0, i32 0, i32 3, !dbg !1130
  %11 = bitcast %"std::collections::BTreeMap<std::string::String, u8>"* %10 to i8*, !dbg !1130
  %12 = bitcast %"std::collections::BTreeMap<std::string::String, u8>"* %_8 to i8*, !dbg !1130
  call void @llvm.memcpy.p0i8.p0i8.i64(i8* align 8 %11, i8* align 8 %12, i64 24, i1 false), !dbg !1130
  ret void, !dbg !1131
}

; anchor_lang::context::CpiContext<T>::with_signer
; Function Attrs: nounwind
define void @"_ZN11anchor_lang7context19CpiContext$LT$T$GT$11with_signer17h3c2deda047bd83feE"(%"anchor_lang::context::CpiContext<anchor_spl::token::Transfer>"* noalias nocapture sret(%"anchor_lang::context::CpiContext<anchor_spl::token::Transfer>") dereferenceable(232) %0, %"anchor_lang::context::CpiContext<anchor_spl::token::Transfer>"* noalias nocapture dereferenceable(232) %self, [0 x { [0 x { [0 x i8]*, i64 }]*, i64 }]* nonnull align 8 %signer_seeds.0, i64 %signer_seeds.1) unnamed_addr #1 !dbg !1132 {
start:
  %signer_seeds.dbg.spill = alloca { [0 x { [0 x { [0 x i8]*, i64 }]*, i64 }]*, i64 }, align 8, !dbg !1178
  call void @llvm.dbg.declare(metadata %"anchor_lang::context::CpiContext<anchor_spl::token::Transfer>"* %self, metadata !1176, metadata !DIExpression()), !dbg !1178
  %1 = getelementptr inbounds { [0 x { [0 x { [0 x i8]*, i64 }]*, i64 }]*, i64 }, { [0 x { [0 x { [0 x i8]*, i64 }]*, i64 }]*, i64 }* %signer_seeds.dbg.spill, i32 0, i32 0
  store [0 x { [0 x { [0 x i8]*, i64 }]*, i64 }]* %signer_seeds.0, [0 x { [0 x { [0 x i8]*, i64 }]*, i64 }]** %1, align 8
  %2 = getelementptr inbounds { [0 x { [0 x { [0 x i8]*, i64 }]*, i64 }]*, i64 }, { [0 x { [0 x { [0 x i8]*, i64 }]*, i64 }]*, i64 }* %signer_seeds.dbg.spill, i32 0, i32 1
  store i64 %signer_seeds.1, i64* %2, align 8
  call void @llvm.dbg.declare(metadata { [0 x { [0 x { [0 x i8]*, i64 }]*, i64 }]*, i64 }* %signer_seeds.dbg.spill, metadata !1177, metadata !DIExpression()), !dbg !1179
  %3 = getelementptr inbounds %"anchor_lang::context::CpiContext<anchor_spl::token::Transfer>", %"anchor_lang::context::CpiContext<anchor_spl::token::Transfer>"* %self, i32 0, i32 3, !dbg !1180
  %4 = getelementptr inbounds { [0 x { [0 x { [0 x i8]*, i64 }]*, i64 }]*, i64 }, { [0 x { [0 x { [0 x i8]*, i64 }]*, i64 }]*, i64 }* %3, i32 0, i32 0, !dbg !1180
  store [0 x { [0 x { [0 x i8]*, i64 }]*, i64 }]* %signer_seeds.0, [0 x { [0 x { [0 x i8]*, i64 }]*, i64 }]** %4, align 8, !dbg !1180
  %5 = getelementptr inbounds { [0 x { [0 x { [0 x i8]*, i64 }]*, i64 }]*, i64 }, { [0 x { [0 x { [0 x i8]*, i64 }]*, i64 }]*, i64 }* %3, i32 0, i32 1, !dbg !1180
  store i64 %signer_seeds.1, i64* %5, align 8, !dbg !1180
  %6 = bitcast %"anchor_lang::context::CpiContext<anchor_spl::token::Transfer>"* %0 to i8*, !dbg !1181
  %7 = bitcast %"anchor_lang::context::CpiContext<anchor_spl::token::Transfer>"* %self to i8*, !dbg !1181
  call void @llvm.memcpy.p0i8.p0i8.i64(i8* align 8 %6, i8* align 8 %7, i64 232, i1 false), !dbg !1181
  ret void, !dbg !1182
}

; anchor_lang::context::CpiContext<T>::with_signer
; Function Attrs: nounwind
define void @"_ZN11anchor_lang7context19CpiContext$LT$T$GT$11with_signer17h9a3628e08c4c0cb4E"(%"anchor_lang::context::CpiContext<anchor_spl::token::MintTo>"* noalias nocapture sret(%"anchor_lang::context::CpiContext<anchor_spl::token::MintTo>") dereferenceable(232) %0, %"anchor_lang::context::CpiContext<anchor_spl::token::MintTo>"* noalias nocapture dereferenceable(232) %self, [0 x { [0 x { [0 x i8]*, i64 }]*, i64 }]* nonnull align 8 %signer_seeds.0, i64 %signer_seeds.1) unnamed_addr #1 !dbg !1183 {
start:
  %signer_seeds.dbg.spill = alloca { [0 x { [0 x { [0 x i8]*, i64 }]*, i64 }]*, i64 }, align 8, !dbg !1202
  call void @llvm.dbg.declare(metadata %"anchor_lang::context::CpiContext<anchor_spl::token::MintTo>"* %self, metadata !1200, metadata !DIExpression()), !dbg !1202
  %1 = getelementptr inbounds { [0 x { [0 x { [0 x i8]*, i64 }]*, i64 }]*, i64 }, { [0 x { [0 x { [0 x i8]*, i64 }]*, i64 }]*, i64 }* %signer_seeds.dbg.spill, i32 0, i32 0
  store [0 x { [0 x { [0 x i8]*, i64 }]*, i64 }]* %signer_seeds.0, [0 x { [0 x { [0 x i8]*, i64 }]*, i64 }]** %1, align 8
  %2 = getelementptr inbounds { [0 x { [0 x { [0 x i8]*, i64 }]*, i64 }]*, i64 }, { [0 x { [0 x { [0 x i8]*, i64 }]*, i64 }]*, i64 }* %signer_seeds.dbg.spill, i32 0, i32 1
  store i64 %signer_seeds.1, i64* %2, align 8
  call void @llvm.dbg.declare(metadata { [0 x { [0 x { [0 x i8]*, i64 }]*, i64 }]*, i64 }* %signer_seeds.dbg.spill, metadata !1201, metadata !DIExpression()), !dbg !1203
  %3 = getelementptr inbounds %"anchor_lang::context::CpiContext<anchor_spl::token::MintTo>", %"anchor_lang::context::CpiContext<anchor_spl::token::MintTo>"* %self, i32 0, i32 3, !dbg !1204
  %4 = getelementptr inbounds { [0 x { [0 x { [0 x i8]*, i64 }]*, i64 }]*, i64 }, { [0 x { [0 x { [0 x i8]*, i64 }]*, i64 }]*, i64 }* %3, i32 0, i32 0, !dbg !1204
  store [0 x { [0 x { [0 x i8]*, i64 }]*, i64 }]* %signer_seeds.0, [0 x { [0 x { [0 x i8]*, i64 }]*, i64 }]** %4, align 8, !dbg !1204
  %5 = getelementptr inbounds { [0 x { [0 x { [0 x i8]*, i64 }]*, i64 }]*, i64 }, { [0 x { [0 x { [0 x i8]*, i64 }]*, i64 }]*, i64 }* %3, i32 0, i32 1, !dbg !1204
  store i64 %signer_seeds.1, i64* %5, align 8, !dbg !1204
  %6 = bitcast %"anchor_lang::context::CpiContext<anchor_spl::token::MintTo>"* %0 to i8*, !dbg !1205
  %7 = bitcast %"anchor_lang::context::CpiContext<anchor_spl::token::MintTo>"* %self to i8*, !dbg !1205
  call void @llvm.memcpy.p0i8.p0i8.i64(i8* align 8 %6, i8* align 8 %7, i64 232, i1 false), !dbg !1205
  ret void, !dbg !1206
}

; anchor_lang::context::CpiContext<T>::new
; Function Attrs: nounwind
define void @"_ZN11anchor_lang7context19CpiContext$LT$T$GT$3new17h21d507f7511cbb55E"(%"anchor_lang::context::CpiContext<anchor_spl::token::MintTo>"* noalias nocapture sret(%"anchor_lang::context::CpiContext<anchor_spl::token::MintTo>") dereferenceable(232) %0, %"anchor_lang::prelude::AccountInfo"* noalias nocapture dereferenceable(48) %program, %"anchor_spl::token::MintTo"* noalias nocapture dereferenceable(144) %accounts) unnamed_addr #1 !dbg !1207 {
start:
  %_5 = alloca %"std::vec::Vec<anchor_lang::prelude::AccountInfo>", align 8
  %_4 = alloca %"anchor_lang::prelude::AccountInfo", align 8
  %_3 = alloca %"anchor_spl::token::MintTo", align 8
  call void @llvm.dbg.declare(metadata %"anchor_lang::prelude::AccountInfo"* %program, metadata !1211, metadata !DIExpression()), !dbg !1213
  call void @llvm.dbg.declare(metadata %"anchor_spl::token::MintTo"* %accounts, metadata !1212, metadata !DIExpression()), !dbg !1214
  %1 = bitcast %"anchor_spl::token::MintTo"* %_3 to i8*, !dbg !1215
  %2 = bitcast %"anchor_spl::token::MintTo"* %accounts to i8*, !dbg !1215
  call void @llvm.memcpy.p0i8.p0i8.i64(i8* align 8 %1, i8* align 8 %2, i64 144, i1 false), !dbg !1215
  %3 = bitcast %"anchor_lang::prelude::AccountInfo"* %_4 to i8*, !dbg !1216
  %4 = bitcast %"anchor_lang::prelude::AccountInfo"* %program to i8*, !dbg !1216
  call void @llvm.memcpy.p0i8.p0i8.i64(i8* align 8 %3, i8* align 8 %4, i64 48, i1 false), !dbg !1216
; call alloc::vec::Vec<T>::new
  call void @"_ZN5alloc3vec12Vec$LT$T$GT$3new17h7e746beec661da8bE"(%"std::vec::Vec<anchor_lang::prelude::AccountInfo>"* noalias nocapture sret(%"std::vec::Vec<anchor_lang::prelude::AccountInfo>") dereferenceable(24) %_5), !dbg !1217
  br label %bb1, !dbg !1217

bb1:                                              ; preds = %start
  %5 = bitcast %"anchor_lang::context::CpiContext<anchor_spl::token::MintTo>"* %0 to %"anchor_spl::token::MintTo"*, !dbg !1218
  %6 = bitcast %"anchor_spl::token::MintTo"* %5 to i8*, !dbg !1218
  %7 = bitcast %"anchor_spl::token::MintTo"* %_3 to i8*, !dbg !1218
  call void @llvm.memcpy.p0i8.p0i8.i64(i8* align 8 %6, i8* align 8 %7, i64 144, i1 false), !dbg !1218
  %8 = getelementptr inbounds %"anchor_lang::context::CpiContext<anchor_spl::token::MintTo>", %"anchor_lang::context::CpiContext<anchor_spl::token::MintTo>"* %0, i32 0, i32 1, !dbg !1218
  %9 = bitcast %"std::vec::Vec<anchor_lang::prelude::AccountInfo>"* %8 to i8*, !dbg !1218
  %10 = bitcast %"std::vec::Vec<anchor_lang::prelude::AccountInfo>"* %_5 to i8*, !dbg !1218
  call void @llvm.memcpy.p0i8.p0i8.i64(i8* align 8 %9, i8* align 8 %10, i64 24, i1 false), !dbg !1218
  %11 = getelementptr inbounds %"anchor_lang::context::CpiContext<anchor_spl::token::MintTo>", %"anchor_lang::context::CpiContext<anchor_spl::token::MintTo>"* %0, i32 0, i32 2, !dbg !1218
  %12 = bitcast %"anchor_lang::prelude::AccountInfo"* %11 to i8*, !dbg !1218
  %13 = bitcast %"anchor_lang::prelude::AccountInfo"* %_4 to i8*, !dbg !1218
  call void @llvm.memcpy.p0i8.p0i8.i64(i8* align 8 %12, i8* align 8 %13, i64 48, i1 false), !dbg !1218
  %14 = getelementptr inbounds %"anchor_lang::context::CpiContext<anchor_spl::token::MintTo>", %"anchor_lang::context::CpiContext<anchor_spl::token::MintTo>"* %0, i32 0, i32 3, !dbg !1218
  %15 = getelementptr inbounds { [0 x { [0 x { [0 x i8]*, i64 }]*, i64 }]*, i64 }, { [0 x { [0 x { [0 x i8]*, i64 }]*, i64 }]*, i64 }* %14, i32 0, i32 0, !dbg !1218
  store [0 x { [0 x { [0 x i8]*, i64 }]*, i64 }]* bitcast (<{ [0 x i8] }>* @alloc479 to [0 x { [0 x { [0 x i8]*, i64 }]*, i64 }]*), [0 x { [0 x { [0 x i8]*, i64 }]*, i64 }]** %15, align 8, !dbg !1218
  %16 = getelementptr inbounds { [0 x { [0 x { [0 x i8]*, i64 }]*, i64 }]*, i64 }, { [0 x { [0 x { [0 x i8]*, i64 }]*, i64 }]*, i64 }* %14, i32 0, i32 1, !dbg !1218
  store i64 0, i64* %16, align 8, !dbg !1218
  ret void, !dbg !1219
}

; anchor_lang::context::CpiContext<T>::new
; Function Attrs: nounwind
define void @"_ZN11anchor_lang7context19CpiContext$LT$T$GT$3new17h6c5ae398588d209eE"(%"anchor_lang::context::CpiContext<anchor_spl::token::Transfer>"* noalias nocapture sret(%"anchor_lang::context::CpiContext<anchor_spl::token::Transfer>") dereferenceable(232) %0, %"anchor_lang::prelude::AccountInfo"* noalias nocapture dereferenceable(48) %program, %"anchor_spl::token::Transfer"* noalias nocapture dereferenceable(144) %accounts) unnamed_addr #1 !dbg !1220 {
start:
  %_5 = alloca %"std::vec::Vec<anchor_lang::prelude::AccountInfo>", align 8
  %_4 = alloca %"anchor_lang::prelude::AccountInfo", align 8
  %_3 = alloca %"anchor_spl::token::Transfer", align 8
  call void @llvm.dbg.declare(metadata %"anchor_lang::prelude::AccountInfo"* %program, metadata !1224, metadata !DIExpression()), !dbg !1226
  call void @llvm.dbg.declare(metadata %"anchor_spl::token::Transfer"* %accounts, metadata !1225, metadata !DIExpression()), !dbg !1227
  %1 = bitcast %"anchor_spl::token::Transfer"* %_3 to i8*, !dbg !1228
  %2 = bitcast %"anchor_spl::token::Transfer"* %accounts to i8*, !dbg !1228
  call void @llvm.memcpy.p0i8.p0i8.i64(i8* align 8 %1, i8* align 8 %2, i64 144, i1 false), !dbg !1228
  %3 = bitcast %"anchor_lang::prelude::AccountInfo"* %_4 to i8*, !dbg !1229
  %4 = bitcast %"anchor_lang::prelude::AccountInfo"* %program to i8*, !dbg !1229
  call void @llvm.memcpy.p0i8.p0i8.i64(i8* align 8 %3, i8* align 8 %4, i64 48, i1 false), !dbg !1229
; call alloc::vec::Vec<T>::new
  call void @"_ZN5alloc3vec12Vec$LT$T$GT$3new17h7e746beec661da8bE"(%"std::vec::Vec<anchor_lang::prelude::AccountInfo>"* noalias nocapture sret(%"std::vec::Vec<anchor_lang::prelude::AccountInfo>") dereferenceable(24) %_5), !dbg !1230
  br label %bb1, !dbg !1230

bb1:                                              ; preds = %start
  %5 = bitcast %"anchor_lang::context::CpiContext<anchor_spl::token::Transfer>"* %0 to %"anchor_spl::token::Transfer"*, !dbg !1231
  %6 = bitcast %"anchor_spl::token::Transfer"* %5 to i8*, !dbg !1231
  %7 = bitcast %"anchor_spl::token::Transfer"* %_3 to i8*, !dbg !1231
  call void @llvm.memcpy.p0i8.p0i8.i64(i8* align 8 %6, i8* align 8 %7, i64 144, i1 false), !dbg !1231
  %8 = getelementptr inbounds %"anchor_lang::context::CpiContext<anchor_spl::token::Transfer>", %"anchor_lang::context::CpiContext<anchor_spl::token::Transfer>"* %0, i32 0, i32 1, !dbg !1231
  %9 = bitcast %"std::vec::Vec<anchor_lang::prelude::AccountInfo>"* %8 to i8*, !dbg !1231
  %10 = bitcast %"std::vec::Vec<anchor_lang::prelude::AccountInfo>"* %_5 to i8*, !dbg !1231
  call void @llvm.memcpy.p0i8.p0i8.i64(i8* align 8 %9, i8* align 8 %10, i64 24, i1 false), !dbg !1231
  %11 = getelementptr inbounds %"anchor_lang::context::CpiContext<anchor_spl::token::Transfer>", %"anchor_lang::context::CpiContext<anchor_spl::token::Transfer>"* %0, i32 0, i32 2, !dbg !1231
  %12 = bitcast %"anchor_lang::prelude::AccountInfo"* %11 to i8*, !dbg !1231
  %13 = bitcast %"anchor_lang::prelude::AccountInfo"* %_4 to i8*, !dbg !1231
  call void @llvm.memcpy.p0i8.p0i8.i64(i8* align 8 %12, i8* align 8 %13, i64 48, i1 false), !dbg !1231
  %14 = getelementptr inbounds %"anchor_lang::context::CpiContext<anchor_spl::token::Transfer>", %"anchor_lang::context::CpiContext<anchor_spl::token::Transfer>"* %0, i32 0, i32 3, !dbg !1231
  %15 = getelementptr inbounds { [0 x { [0 x { [0 x i8]*, i64 }]*, i64 }]*, i64 }, { [0 x { [0 x { [0 x i8]*, i64 }]*, i64 }]*, i64 }* %14, i32 0, i32 0, !dbg !1231
  store [0 x { [0 x { [0 x i8]*, i64 }]*, i64 }]* bitcast (<{ [0 x i8] }>* @alloc479 to [0 x { [0 x { [0 x i8]*, i64 }]*, i64 }]*), [0 x { [0 x { [0 x i8]*, i64 }]*, i64 }]** %15, align 8, !dbg !1231
  %16 = getelementptr inbounds { [0 x { [0 x { [0 x i8]*, i64 }]*, i64 }]*, i64 }, { [0 x { [0 x { [0 x i8]*, i64 }]*, i64 }]*, i64 }* %14, i32 0, i32 1, !dbg !1231
  store i64 0, i64* %16, align 8, !dbg !1231
  ret void, !dbg !1232
}

; anchor_lang::accounts::account::Account<T>::new
; Function Attrs: nounwind
define void @"_ZN11anchor_lang8accounts7account16Account$LT$T$GT$3new17h8d232ce58964dab6E"(%"anchor_lang::prelude::Account<anchor_spl::token::TokenAccount>"* noalias nocapture sret(%"anchor_lang::prelude::Account<anchor_spl::token::TokenAccount>") dereferenceable(224) %0, %"anchor_lang::prelude::AccountInfo"* noalias nocapture dereferenceable(48) %info, %"anchor_spl::token::TokenAccount"* noalias nocapture dereferenceable(176) %account) unnamed_addr #1 !dbg !1233 {
start:
  %_4 = alloca %"anchor_spl::token::TokenAccount", align 8
  %_3 = alloca %"anchor_lang::prelude::AccountInfo", align 8
  call void @llvm.dbg.declare(metadata %"anchor_lang::prelude::AccountInfo"* %info, metadata !1238, metadata !DIExpression()), !dbg !1240
  call void @llvm.dbg.declare(metadata %"anchor_spl::token::TokenAccount"* %account, metadata !1239, metadata !DIExpression()), !dbg !1241
  %1 = bitcast %"anchor_lang::prelude::AccountInfo"* %_3 to i8*, !dbg !1242
  %2 = bitcast %"anchor_lang::prelude::AccountInfo"* %info to i8*, !dbg !1242
  call void @llvm.memcpy.p0i8.p0i8.i64(i8* align 8 %1, i8* align 8 %2, i64 48, i1 false), !dbg !1242
  %3 = bitcast %"anchor_spl::token::TokenAccount"* %_4 to i8*, !dbg !1243
  %4 = bitcast %"anchor_spl::token::TokenAccount"* %account to i8*, !dbg !1243
  call void @llvm.memcpy.p0i8.p0i8.i64(i8* align 8 %3, i8* align 8 %4, i64 176, i1 false), !dbg !1243
  %5 = bitcast %"anchor_lang::prelude::Account<anchor_spl::token::TokenAccount>"* %0 to %"anchor_spl::token::TokenAccount"*, !dbg !1244
  %6 = bitcast %"anchor_spl::token::TokenAccount"* %5 to i8*, !dbg !1244
  %7 = bitcast %"anchor_spl::token::TokenAccount"* %_4 to i8*, !dbg !1244
  call void @llvm.memcpy.p0i8.p0i8.i64(i8* align 8 %6, i8* align 8 %7, i64 176, i1 false), !dbg !1244
  %8 = getelementptr inbounds %"anchor_lang::prelude::Account<anchor_spl::token::TokenAccount>", %"anchor_lang::prelude::Account<anchor_spl::token::TokenAccount>"* %0, i32 0, i32 1, !dbg !1244
  %9 = bitcast %"anchor_lang::prelude::AccountInfo"* %8 to i8*, !dbg !1244
  %10 = bitcast %"anchor_lang::prelude::AccountInfo"* %_3 to i8*, !dbg !1244
  call void @llvm.memcpy.p0i8.p0i8.i64(i8* align 8 %9, i8* align 8 %10, i64 48, i1 false), !dbg !1244
  ret void, !dbg !1245
}

; anchor_lang::accounts::account::Account<T>::new
; Function Attrs: nounwind
define void @"_ZN11anchor_lang8accounts7account16Account$LT$T$GT$3new17h97b06ae3884b0687E"(%"anchor_lang::prelude::Account<anchor_spl::token::Mint>"* noalias nocapture sret(%"anchor_lang::prelude::Account<anchor_spl::token::Mint>") dereferenceable(136) %0, %"anchor_lang::prelude::AccountInfo"* noalias nocapture dereferenceable(48) %info, %"anchor_spl::token::Mint"* noalias nocapture dereferenceable(88) %account) unnamed_addr #1 !dbg !1246 {
start:
  %_4 = alloca %"anchor_spl::token::Mint", align 8
  %_3 = alloca %"anchor_lang::prelude::AccountInfo", align 8
  call void @llvm.dbg.declare(metadata %"anchor_lang::prelude::AccountInfo"* %info, metadata !1250, metadata !DIExpression()), !dbg !1252
  call void @llvm.dbg.declare(metadata %"anchor_spl::token::Mint"* %account, metadata !1251, metadata !DIExpression()), !dbg !1253
  %1 = bitcast %"anchor_lang::prelude::AccountInfo"* %_3 to i8*, !dbg !1254
  %2 = bitcast %"anchor_lang::prelude::AccountInfo"* %info to i8*, !dbg !1254
  call void @llvm.memcpy.p0i8.p0i8.i64(i8* align 8 %1, i8* align 8 %2, i64 48, i1 false), !dbg !1254
  %3 = bitcast %"anchor_spl::token::Mint"* %_4 to i8*, !dbg !1255
  %4 = bitcast %"anchor_spl::token::Mint"* %account to i8*, !dbg !1255
  call void @llvm.memcpy.p0i8.p0i8.i64(i8* align 8 %3, i8* align 8 %4, i64 88, i1 false), !dbg !1255
  %5 = bitcast %"anchor_lang::prelude::Account<anchor_spl::token::Mint>"* %0 to %"anchor_spl::token::Mint"*, !dbg !1256
  %6 = bitcast %"anchor_spl::token::Mint"* %5 to i8*, !dbg !1256
  %7 = bitcast %"anchor_spl::token::Mint"* %_4 to i8*, !dbg !1256
  call void @llvm.memcpy.p0i8.p0i8.i64(i8* align 8 %6, i8* align 8 %7, i64 88, i1 false), !dbg !1256
  %8 = getelementptr inbounds %"anchor_lang::prelude::Account<anchor_spl::token::Mint>", %"anchor_lang::prelude::Account<anchor_spl::token::Mint>"* %0, i32 0, i32 1, !dbg !1256
  %9 = bitcast %"anchor_lang::prelude::AccountInfo"* %8 to i8*, !dbg !1256
  %10 = bitcast %"anchor_lang::prelude::AccountInfo"* %_3 to i8*, !dbg !1256
  call void @llvm.memcpy.p0i8.p0i8.i64(i8* align 8 %9, i8* align 8 %10, i64 48, i1 false), !dbg !1256
  ret void, !dbg !1257
}

; anchor_lang::accounts::account::Account<T>::new
; Function Attrs: nounwind
define void @"_ZN11anchor_lang8accounts7account16Account$LT$T$GT$3new17hf85681c9b46be705E"(%"anchor_lang::prelude::Account<Exchange>"* noalias nocapture sret(%"anchor_lang::prelude::Account<Exchange>") dereferenceable(160) %0, %"anchor_lang::prelude::AccountInfo"* noalias nocapture dereferenceable(48) %info, %Exchange* noalias nocapture dereferenceable(112) %account) unnamed_addr #1 !dbg !1258 {
start:
  %_4 = alloca %Exchange, align 8
  %_3 = alloca %"anchor_lang::prelude::AccountInfo", align 8
  call void @llvm.dbg.declare(metadata %"anchor_lang::prelude::AccountInfo"* %info, metadata !1262, metadata !DIExpression()), !dbg !1264
  call void @llvm.dbg.declare(metadata %Exchange* %account, metadata !1263, metadata !DIExpression()), !dbg !1265
  %1 = bitcast %"anchor_lang::prelude::AccountInfo"* %_3 to i8*, !dbg !1266
  %2 = bitcast %"anchor_lang::prelude::AccountInfo"* %info to i8*, !dbg !1266
  call void @llvm.memcpy.p0i8.p0i8.i64(i8* align 8 %1, i8* align 8 %2, i64 48, i1 false), !dbg !1266
  %3 = bitcast %Exchange* %_4 to i8*, !dbg !1267
  %4 = bitcast %Exchange* %account to i8*, !dbg !1267
  call void @llvm.memcpy.p0i8.p0i8.i64(i8* align 8 %3, i8* align 8 %4, i64 112, i1 false), !dbg !1267
  %5 = bitcast %"anchor_lang::prelude::Account<Exchange>"* %0 to %Exchange*, !dbg !1268
  %6 = bitcast %Exchange* %5 to i8*, !dbg !1268
  %7 = bitcast %Exchange* %_4 to i8*, !dbg !1268
  call void @llvm.memcpy.p0i8.p0i8.i64(i8* align 8 %6, i8* align 8 %7, i64 112, i1 false), !dbg !1268
  %8 = getelementptr inbounds %"anchor_lang::prelude::Account<Exchange>", %"anchor_lang::prelude::Account<Exchange>"* %0, i32 0, i32 1, !dbg !1268
  %9 = bitcast %"anchor_lang::prelude::AccountInfo"* %8 to i8*, !dbg !1268
  %10 = bitcast %"anchor_lang::prelude::AccountInfo"* %_3 to i8*, !dbg !1268
  call void @llvm.memcpy.p0i8.p0i8.i64(i8* align 8 %9, i8* align 8 %10, i64 48, i1 false), !dbg !1268
  ret void, !dbg !1269
}

; anchor_lang::accounts::account::Account<T>::reload
; Function Attrs: nounwind
define void @"_ZN11anchor_lang8accounts7account16Account$LT$T$GT$6reload17hed540c2333085b46E"(%"std::result::Result<(), anchor_lang::error::Error>"* noalias nocapture sret(%"std::result::Result<(), anchor_lang::error::Error>") dereferenceable(112) %0, %"anchor_lang::prelude::Account<anchor_spl::token::TokenAccount>"* align 8 dereferenceable(224) %self) unnamed_addr #1 !dbg !1270 {
start:
  %val.dbg.spill = alloca { i64*, i64* }, align 8
  %self.dbg.spill = alloca %"anchor_lang::prelude::Account<anchor_spl::token::TokenAccount>"*, align 8
  %val = alloca %"anchor_spl::token::TokenAccount", align 8
  %_21 = alloca %"std::result::Result<std::convert::Infallible, anchor_lang::error::Error>::Err", align 8
  %residual1 = alloca %"std::result::Result<std::convert::Infallible, anchor_lang::error::Error>::Err", align 8
  %_16 = alloca %"std::result::Result<anchor_spl::token::TokenAccount, anchor_lang::error::Error>", align 8
  %_15 = alloca %"std::ops::ControlFlow<std::result::Result<std::convert::Infallible, anchor_lang::error::Error>, anchor_spl::token::TokenAccount>", align 8
  %_14 = alloca %"anchor_spl::token::TokenAccount", align 8
  %_12 = alloca %"std::result::Result<std::convert::Infallible, anchor_lang::prelude::ProgramError>::Err", align 8
  %residual = alloca %"std::result::Result<std::convert::Infallible, anchor_lang::prelude::ProgramError>::Err", align 8
  %_8 = alloca %"std::result::Result<std::cell::Ref<&mut [u8]>, anchor_lang::prelude::ProgramError>", align 8
  %_7 = alloca %"std::ops::ControlFlow<std::result::Result<std::convert::Infallible, anchor_lang::prelude::ProgramError>, std::cell::Ref<&mut [u8]>>", align 8
  %_6 = alloca { i64*, i64* }, align 8
  %data = alloca { [0 x i8]*, i64 }, align 8
  store %"anchor_lang::prelude::Account<anchor_spl::token::TokenAccount>"* %self, %"anchor_lang::prelude::Account<anchor_spl::token::TokenAccount>"** %self.dbg.spill, align 8
  call void @llvm.dbg.declare(metadata %"anchor_lang::prelude::Account<anchor_spl::token::TokenAccount>"** %self.dbg.spill, metadata !1275, metadata !DIExpression()), !dbg !1319
  call void @llvm.dbg.declare(metadata { [0 x i8]*, i64 }* %data, metadata !1276, metadata !DIExpression()), !dbg !1320
  call void @llvm.dbg.declare(metadata %"std::result::Result<std::convert::Infallible, anchor_lang::prelude::ProgramError>::Err"* %residual, metadata !1278, metadata !DIExpression()), !dbg !1321
  call void @llvm.dbg.declare(metadata %"std::result::Result<std::convert::Infallible, anchor_lang::error::Error>::Err"* %residual1, metadata !1306, metadata !DIExpression()), !dbg !1322
  call void @llvm.dbg.declare(metadata %"anchor_spl::token::TokenAccount"* %val, metadata !1317, metadata !DIExpression()), !dbg !1323
  %_9 = getelementptr inbounds %"anchor_lang::prelude::Account<anchor_spl::token::TokenAccount>", %"anchor_lang::prelude::Account<anchor_spl::token::TokenAccount>"* %self, i32 0, i32 1, !dbg !1324
; call solana_program::account_info::AccountInfo::try_borrow_data
  call void @_ZN14solana_program12account_info11AccountInfo15try_borrow_data17hda244f29ae7b540dE(%"std::result::Result<std::cell::Ref<&mut [u8]>, anchor_lang::prelude::ProgramError>"* noalias nocapture sret(%"std::result::Result<std::cell::Ref<&mut [u8]>, anchor_lang::prelude::ProgramError>") dereferenceable(40) %_8, %"anchor_lang::prelude::AccountInfo"* align 8 dereferenceable(48) %_9), !dbg !1324
  br label %bb1, !dbg !1324

bb1:                                              ; preds = %start
; call <core::result::Result<T,E> as core::ops::try_trait::Try>::branch
  call void @"_ZN79_$LT$core..result..Result$LT$T$C$E$GT$$u20$as$u20$core..ops..try_trait..Try$GT$6branch17hfa16d484a5f61f03E"(%"std::ops::ControlFlow<std::result::Result<std::convert::Infallible, anchor_lang::prelude::ProgramError>, std::cell::Ref<&mut [u8]>>"* noalias nocapture sret(%"std::ops::ControlFlow<std::result::Result<std::convert::Infallible, anchor_lang::prelude::ProgramError>, std::cell::Ref<&mut [u8]>>") dereferenceable(40) %_7, %"std::result::Result<std::cell::Ref<&mut [u8]>, anchor_lang::prelude::ProgramError>"* noalias nocapture dereferenceable(40) %_8), !dbg !1324
  br label %bb2, !dbg !1324

bb2:                                              ; preds = %bb1
  %1 = bitcast %"std::ops::ControlFlow<std::result::Result<std::convert::Infallible, anchor_lang::prelude::ProgramError>, std::cell::Ref<&mut [u8]>>"* %_7 to i64*, !dbg !1324
  %_10 = load i64, i64* %1, align 8, !dbg !1324, !range !320
  switch i64 %_10, label %bb4 [
    i64 0, label %bb3
    i64 1, label %bb5
  ], !dbg !1324

bb4:                                              ; preds = %bb2
  unreachable, !dbg !1324

bb3:                                              ; preds = %bb2
  %2 = bitcast %"std::ops::ControlFlow<std::result::Result<std::convert::Infallible, anchor_lang::prelude::ProgramError>, std::cell::Ref<&mut [u8]>>"* %_7 to %"std::ops::ControlFlow<std::result::Result<std::convert::Infallible, anchor_lang::prelude::ProgramError>, std::cell::Ref<&mut [u8]>>::Continue"*, !dbg !1324
  %3 = getelementptr inbounds %"std::ops::ControlFlow<std::result::Result<std::convert::Infallible, anchor_lang::prelude::ProgramError>, std::cell::Ref<&mut [u8]>>::Continue", %"std::ops::ControlFlow<std::result::Result<std::convert::Infallible, anchor_lang::prelude::ProgramError>, std::cell::Ref<&mut [u8]>>::Continue"* %2, i32 0, i32 1, !dbg !1324
  %4 = getelementptr inbounds { i64*, i64* }, { i64*, i64* }* %3, i32 0, i32 0, !dbg !1324
  %val.0 = load i64*, i64** %4, align 8, !dbg !1324, !nonnull !4
  %5 = getelementptr inbounds { i64*, i64* }, { i64*, i64* }* %3, i32 0, i32 1, !dbg !1324
  %val.1 = load i64*, i64** %5, align 8, !dbg !1324, !nonnull !4
  %6 = getelementptr inbounds { i64*, i64* }, { i64*, i64* }* %val.dbg.spill, i32 0, i32 0, !dbg !1324
  store i64* %val.0, i64** %6, align 8, !dbg !1324
  %7 = getelementptr inbounds { i64*, i64* }, { i64*, i64* }* %val.dbg.spill, i32 0, i32 1, !dbg !1324
  store i64* %val.1, i64** %7, align 8, !dbg !1324
  call void @llvm.dbg.declare(metadata { i64*, i64* }* %val.dbg.spill, metadata !1295, metadata !DIExpression()), !dbg !1325
  %8 = getelementptr inbounds { i64*, i64* }, { i64*, i64* }* %_6, i32 0, i32 0, !dbg !1325
  store i64* %val.0, i64** %8, align 8, !dbg !1325
  %9 = getelementptr inbounds { i64*, i64* }, { i64*, i64* }* %_6, i32 0, i32 1, !dbg !1325
  store i64* %val.1, i64** %9, align 8, !dbg !1325
; call <core::cell::Ref<T> as core::ops::deref::Deref>::deref
  %_3 = call align 8 dereferenceable(16) { [0 x i8]*, i64 }* @"_ZN68_$LT$core..cell..Ref$LT$T$GT$$u20$as$u20$core..ops..deref..Deref$GT$5deref17h99fef659c59935c4E"({ i64*, i64* }* align 8 dereferenceable(16) %_6), !dbg !1326
  br label %bb7, !dbg !1326

bb5:                                              ; preds = %bb2
  %10 = bitcast %"std::ops::ControlFlow<std::result::Result<std::convert::Infallible, anchor_lang::prelude::ProgramError>, std::cell::Ref<&mut [u8]>>"* %_7 to %"std::ops::ControlFlow<std::result::Result<std::convert::Infallible, anchor_lang::prelude::ProgramError>, std::cell::Ref<&mut [u8]>>::Break"*, !dbg !1327
  %11 = getelementptr inbounds %"std::ops::ControlFlow<std::result::Result<std::convert::Infallible, anchor_lang::prelude::ProgramError>, std::cell::Ref<&mut [u8]>>::Break", %"std::ops::ControlFlow<std::result::Result<std::convert::Infallible, anchor_lang::prelude::ProgramError>, std::cell::Ref<&mut [u8]>>::Break"* %10, i32 0, i32 1, !dbg !1327
  %12 = bitcast %"std::result::Result<std::convert::Infallible, anchor_lang::prelude::ProgramError>::Err"* %residual to i8*, !dbg !1327
  %13 = bitcast %"std::result::Result<std::convert::Infallible, anchor_lang::prelude::ProgramError>::Err"* %11 to i8*, !dbg !1327
  call void @llvm.memcpy.p0i8.p0i8.i64(i8* align 8 %12, i8* align 8 %13, i64 32, i1 false), !dbg !1327
  %14 = bitcast %"std::result::Result<std::convert::Infallible, anchor_lang::prelude::ProgramError>::Err"* %_12 to i8*, !dbg !1321
  %15 = bitcast %"std::result::Result<std::convert::Infallible, anchor_lang::prelude::ProgramError>::Err"* %residual to i8*, !dbg !1321
  call void @llvm.memcpy.p0i8.p0i8.i64(i8* align 8 %14, i8* align 8 %15, i64 32, i1 false), !dbg !1321
; call <core::result::Result<T,F> as core::ops::try_trait::FromResidual<core::result::Result<core::convert::Infallible,E>>>::from_residual
  call void @"_ZN153_$LT$core..result..Result$LT$T$C$F$GT$$u20$as$u20$core..ops..try_trait..FromResidual$LT$core..result..Result$LT$core..convert..Infallible$C$E$GT$$GT$$GT$13from_residual17heafbd82bed20f0aeE"(%"std::result::Result<(), anchor_lang::error::Error>"* noalias nocapture sret(%"std::result::Result<(), anchor_lang::error::Error>") dereferenceable(112) %0, %"std::result::Result<std::convert::Infallible, anchor_lang::prelude::ProgramError>::Err"* noalias nocapture dereferenceable(32) %_12), !dbg !1328
  br label %bb6, !dbg !1328

bb6:                                              ; preds = %bb5
  br label %bb14, !dbg !1329

bb14:                                             ; preds = %bb15, %bb13, %bb6
  ret void, !dbg !1331

bb7:                                              ; preds = %bb3
  %16 = getelementptr inbounds { [0 x i8]*, i64 }, { [0 x i8]*, i64 }* %_3, i32 0, i32 0, !dbg !1326
  %17 = load [0 x i8]*, [0 x i8]** %16, align 8, !dbg !1326, !nonnull !4
  %18 = getelementptr inbounds { [0 x i8]*, i64 }, { [0 x i8]*, i64 }* %_3, i32 0, i32 1, !dbg !1326
  %19 = load i64, i64* %18, align 8, !dbg !1326
  %20 = getelementptr inbounds { [0 x i8]*, i64 }, { [0 x i8]*, i64 }* %data, i32 0, i32 0, !dbg !1326
  store [0 x i8]* %17, [0 x i8]** %20, align 8, !dbg !1326
  %21 = getelementptr inbounds { [0 x i8]*, i64 }, { [0 x i8]*, i64 }* %data, i32 0, i32 1, !dbg !1326
  store i64 %19, i64* %21, align 8, !dbg !1326
; call anchor_lang::AccountDeserialize::try_deserialize
  call void @_ZN11anchor_lang18AccountDeserialize15try_deserialize17h9a8463b663cd7775E(%"std::result::Result<anchor_spl::token::TokenAccount, anchor_lang::error::Error>"* noalias nocapture sret(%"std::result::Result<anchor_spl::token::TokenAccount, anchor_lang::error::Error>") dereferenceable(184) %_16, { [0 x i8]*, i64 }* align 8 dereferenceable(16) %data), !dbg !1332
  br label %bb8, !dbg !1332

bb8:                                              ; preds = %bb7
; call <core::result::Result<T,E> as core::ops::try_trait::Try>::branch
  call void @"_ZN79_$LT$core..result..Result$LT$T$C$E$GT$$u20$as$u20$core..ops..try_trait..Try$GT$6branch17hec4966b2ea76e627E"(%"std::ops::ControlFlow<std::result::Result<std::convert::Infallible, anchor_lang::error::Error>, anchor_spl::token::TokenAccount>"* noalias nocapture sret(%"std::ops::ControlFlow<std::result::Result<std::convert::Infallible, anchor_lang::error::Error>, anchor_spl::token::TokenAccount>") dereferenceable(184) %_15, %"std::result::Result<anchor_spl::token::TokenAccount, anchor_lang::error::Error>"* noalias nocapture dereferenceable(184) %_16), !dbg !1332
  br label %bb9, !dbg !1332

bb9:                                              ; preds = %bb8
  %22 = bitcast %"std::ops::ControlFlow<std::result::Result<std::convert::Infallible, anchor_lang::error::Error>, anchor_spl::token::TokenAccount>"* %_15 to i64*, !dbg !1332
  %_19 = load i64, i64* %22, align 8, !dbg !1332, !range !320
  switch i64 %_19, label %bb11 [
    i64 0, label %bb10
    i64 1, label %bb12
  ], !dbg !1332

bb11:                                             ; preds = %bb9
  unreachable, !dbg !1332

bb10:                                             ; preds = %bb9
  %23 = bitcast %"std::ops::ControlFlow<std::result::Result<std::convert::Infallible, anchor_lang::error::Error>, anchor_spl::token::TokenAccount>"* %_15 to %"std::ops::ControlFlow<std::result::Result<std::convert::Infallible, anchor_lang::error::Error>, anchor_spl::token::TokenAccount>::Continue"*, !dbg !1332
  %24 = getelementptr inbounds %"std::ops::ControlFlow<std::result::Result<std::convert::Infallible, anchor_lang::error::Error>, anchor_spl::token::TokenAccount>::Continue", %"std::ops::ControlFlow<std::result::Result<std::convert::Infallible, anchor_lang::error::Error>, anchor_spl::token::TokenAccount>::Continue"* %23, i32 0, i32 1, !dbg !1332
  %25 = bitcast %"anchor_spl::token::TokenAccount"* %val to i8*, !dbg !1332
  %26 = bitcast %"anchor_spl::token::TokenAccount"* %24 to i8*, !dbg !1332
  call void @llvm.memcpy.p0i8.p0i8.i64(i8* align 8 %25, i8* align 8 %26, i64 176, i1 false), !dbg !1332
  %27 = bitcast %"anchor_spl::token::TokenAccount"* %_14 to i8*, !dbg !1323
  %28 = bitcast %"anchor_spl::token::TokenAccount"* %val to i8*, !dbg !1323
  call void @llvm.memcpy.p0i8.p0i8.i64(i8* align 8 %27, i8* align 8 %28, i64 176, i1 false), !dbg !1323
  br label %bb15, !dbg !1333

bb12:                                             ; preds = %bb9
  %29 = bitcast %"std::ops::ControlFlow<std::result::Result<std::convert::Infallible, anchor_lang::error::Error>, anchor_spl::token::TokenAccount>"* %_15 to %"std::ops::ControlFlow<std::result::Result<std::convert::Infallible, anchor_lang::error::Error>, anchor_spl::token::TokenAccount>::Break"*, !dbg !1334
  %30 = getelementptr inbounds %"std::ops::ControlFlow<std::result::Result<std::convert::Infallible, anchor_lang::error::Error>, anchor_spl::token::TokenAccount>::Break", %"std::ops::ControlFlow<std::result::Result<std::convert::Infallible, anchor_lang::error::Error>, anchor_spl::token::TokenAccount>::Break"* %29, i32 0, i32 1, !dbg !1334
  %31 = bitcast %"std::result::Result<std::convert::Infallible, anchor_lang::error::Error>::Err"* %residual1 to i8*, !dbg !1334
  %32 = bitcast %"std::result::Result<std::convert::Infallible, anchor_lang::error::Error>::Err"* %30 to i8*, !dbg !1334
  call void @llvm.memcpy.p0i8.p0i8.i64(i8* align 8 %31, i8* align 8 %32, i64 112, i1 false), !dbg !1334
  %33 = bitcast %"std::result::Result<std::convert::Infallible, anchor_lang::error::Error>::Err"* %_21 to i8*, !dbg !1322
  %34 = bitcast %"std::result::Result<std::convert::Infallible, anchor_lang::error::Error>::Err"* %residual1 to i8*, !dbg !1322
  call void @llvm.memcpy.p0i8.p0i8.i64(i8* align 8 %33, i8* align 8 %34, i64 112, i1 false), !dbg !1322
; call <core::result::Result<T,F> as core::ops::try_trait::FromResidual<core::result::Result<core::convert::Infallible,E>>>::from_residual
  call void @"_ZN153_$LT$core..result..Result$LT$T$C$F$GT$$u20$as$u20$core..ops..try_trait..FromResidual$LT$core..result..Result$LT$core..convert..Infallible$C$E$GT$$GT$$GT$13from_residual17h0eedb1bc3f455575E"(%"std::result::Result<(), anchor_lang::error::Error>"* noalias nocapture sret(%"std::result::Result<(), anchor_lang::error::Error>") dereferenceable(112) %0, %"std::result::Result<std::convert::Infallible, anchor_lang::error::Error>::Err"* noalias nocapture dereferenceable(112) %_21), !dbg !1335
  br label %bb13, !dbg !1335

bb13:                                             ; preds = %bb12
; call core::ptr::drop_in_place<core::cell::Ref<&mut [u8]>>
  call void @"_ZN4core3ptr68drop_in_place$LT$core..cell..Ref$LT$$RF$mut$u20$$u5b$u8$u5d$$GT$$GT$17h72a59591ad52fd60E"({ i64*, i64* }* %_6), !dbg !1336
  br label %bb14, !dbg !1336

bb15:                                             ; preds = %bb10
  %35 = bitcast %"anchor_lang::prelude::Account<anchor_spl::token::TokenAccount>"* %self to %"anchor_spl::token::TokenAccount"*, !dbg !1333
  %36 = bitcast %"anchor_spl::token::TokenAccount"* %35 to i8*, !dbg !1333
  %37 = bitcast %"anchor_spl::token::TokenAccount"* %_14 to i8*, !dbg !1333
  call void @llvm.memcpy.p0i8.p0i8.i64(i8* align 8 %36, i8* align 8 %37, i64 176, i1 false), !dbg !1333
  %38 = bitcast %"std::result::Result<(), anchor_lang::error::Error>"* %0 to i64*, !dbg !1337
  store i64 2, i64* %38, align 8, !dbg !1337
; call core::ptr::drop_in_place<core::cell::Ref<&mut [u8]>>
  call void @"_ZN4core3ptr68drop_in_place$LT$core..cell..Ref$LT$$RF$mut$u20$$u5b$u8$u5d$$GT$$GT$17h72a59591ad52fd60E"({ i64*, i64* }* %_6), !dbg !1336
  br label %bb14, !dbg !1336
}

; anchor_lang::accounts::account::Account<T>::try_from
; Function Attrs: noinline nounwind
define void @"_ZN11anchor_lang8accounts7account16Account$LT$T$GT$8try_from17h18b6c399f5f8dcd0E"(%"std::result::Result<anchor_lang::prelude::Account<anchor_spl::token::Mint>, anchor_lang::error::Error>"* noalias nocapture sret(%"std::result::Result<anchor_lang::prelude::Account<anchor_spl::token::Mint>, anchor_lang::error::Error>") dereferenceable(144) %0, %"anchor_lang::prelude::AccountInfo"* align 8 dereferenceable(48) %info) unnamed_addr #2 !dbg !1338 {
start:
  %val.dbg.spill = alloca { i64*, i64* }, align 8
  %info.dbg.spill = alloca %"anchor_lang::prelude::AccountInfo"*, align 8
  %val = alloca %"anchor_spl::token::Mint", align 8
  %_42 = alloca %"std::result::Result<std::convert::Infallible, anchor_lang::error::Error>::Err", align 8
  %residual1 = alloca %"std::result::Result<std::convert::Infallible, anchor_lang::error::Error>::Err", align 8
  %_37 = alloca %"std::result::Result<anchor_spl::token::Mint, anchor_lang::error::Error>", align 8
  %_36 = alloca %"std::ops::ControlFlow<std::result::Result<std::convert::Infallible, anchor_lang::error::Error>, anchor_spl::token::Mint>", align 8
  %_35 = alloca %"anchor_spl::token::Mint", align 8
  %_33 = alloca %"anchor_lang::prelude::AccountInfo", align 8
  %_32 = alloca %"anchor_lang::prelude::Account<anchor_spl::token::Mint>", align 8
  %_30 = alloca %"std::result::Result<std::convert::Infallible, anchor_lang::prelude::ProgramError>::Err", align 8
  %residual = alloca %"std::result::Result<std::convert::Infallible, anchor_lang::prelude::ProgramError>::Err", align 8
  %_26 = alloca %"std::result::Result<std::cell::Ref<&mut [u8]>, anchor_lang::prelude::ProgramError>", align 8
  %_25 = alloca %"std::ops::ControlFlow<std::result::Result<std::convert::Infallible, anchor_lang::prelude::ProgramError>, std::cell::Ref<&mut [u8]>>", align 8
  %_24 = alloca { i64*, i64* }, align 8
  %data = alloca { [0 x i8]*, i64 }, align 8
  %_19 = alloca i32, align 4
  %_18 = alloca %"anchor_lang::error::Error", align 8
  %_17 = alloca %"anchor_lang::prelude::Pubkey", align 1
  %_16 = alloca %"anchor_lang::prelude::Pubkey"*, align 8
  %_12 = alloca i32, align 4
  %_11 = alloca %"anchor_lang::error::Error", align 8
  %_6 = alloca %"anchor_lang::prelude::Pubkey"*, align 8
  %_2 = alloca i8, align 1
  store %"anchor_lang::prelude::AccountInfo"* %info, %"anchor_lang::prelude::AccountInfo"** %info.dbg.spill, align 8
  call void @llvm.dbg.declare(metadata %"anchor_lang::prelude::AccountInfo"** %info.dbg.spill, metadata !1357, metadata !DIExpression()), !dbg !1368
  call void @llvm.dbg.declare(metadata { [0 x i8]*, i64 }* %data, metadata !1358, metadata !DIExpression()), !dbg !1369
  call void @llvm.dbg.declare(metadata %"std::result::Result<std::convert::Infallible, anchor_lang::prelude::ProgramError>::Err"* %residual, metadata !1360, metadata !DIExpression()), !dbg !1370
  call void @llvm.dbg.declare(metadata %"std::result::Result<std::convert::Infallible, anchor_lang::error::Error>::Err"* %residual1, metadata !1364, metadata !DIExpression()), !dbg !1371
  call void @llvm.dbg.declare(metadata %"anchor_spl::token::Mint"* %val, metadata !1366, metadata !DIExpression()), !dbg !1372
  %_4 = getelementptr inbounds %"anchor_lang::prelude::AccountInfo", %"anchor_lang::prelude::AccountInfo"* %info, i32 0, i32 3, !dbg !1373
  store %"anchor_lang::prelude::Pubkey"* @_ZN14solana_program14system_program2ID17hf50795d7d4bfef3aE, %"anchor_lang::prelude::Pubkey"** %_6, align 8, !dbg !1374
; call core::cmp::impls::<impl core::cmp::PartialEq<&B> for &A>::eq
  %_3 = call zeroext i1 @"_ZN4core3cmp5impls69_$LT$impl$u20$core..cmp..PartialEq$LT$$RF$B$GT$$u20$for$u20$$RF$A$GT$2eq17hdd9f53180d14a21eE"(%"anchor_lang::prelude::Pubkey"** align 8 dereferenceable(8) %_4, %"anchor_lang::prelude::Pubkey"** align 8 dereferenceable(8) %_6), !dbg !1373
  br label %bb4, !dbg !1373

bb4:                                              ; preds = %start
  br i1 %_3, label %bb2, label %bb1, !dbg !1373

bb1:                                              ; preds = %bb4
  store i8 0, i8* %_2, align 1, !dbg !1373
  br label %bb3, !dbg !1373

bb2:                                              ; preds = %bb4
; call solana_program::account_info::AccountInfo::lamports
  %_9 = call i64 @_ZN14solana_program12account_info11AccountInfo8lamports17h484abddebb35fde4E(%"anchor_lang::prelude::AccountInfo"* align 8 dereferenceable(48) %info), !dbg !1375
  br label %bb5, !dbg !1375

bb5:                                              ; preds = %bb2
  %_8 = icmp eq i64 %_9, 0, !dbg !1375
  %1 = zext i1 %_8 to i8, !dbg !1373
  store i8 %1, i8* %_2, align 1, !dbg !1373
  br label %bb3, !dbg !1373

bb3:                                              ; preds = %bb1, %bb5
  %2 = load i8, i8* %_2, align 1, !dbg !1373, !range !1376
  %3 = trunc i8 %2 to i1, !dbg !1373
  br i1 %3, label %bb6, label %bb8, !dbg !1373

bb8:                                              ; preds = %bb3
  %_14 = getelementptr inbounds %"anchor_lang::prelude::AccountInfo", %"anchor_lang::prelude::AccountInfo"* %info, i32 0, i32 3, !dbg !1377
; call <anchor_spl::token::Mint as anchor_lang::Owner>::owner
  call void @"_ZN62_$LT$anchor_spl..token..Mint$u20$as$u20$anchor_lang..Owner$GT$5owner17h704f0ce0154734dfE"(%"anchor_lang::prelude::Pubkey"* noalias nocapture sret(%"anchor_lang::prelude::Pubkey") dereferenceable(32) %_17), !dbg !1378
  br label %bb9, !dbg !1378

bb6:                                              ; preds = %bb3
  store i32 3012, i32* %_12, align 4, !dbg !1379
  %4 = load i32, i32* %_12, align 4, !dbg !1379, !range !1380
; call <T as core::convert::Into<U>>::into
  call void @"_ZN50_$LT$T$u20$as$u20$core..convert..Into$LT$U$GT$$GT$4into17h72a8f8ceb626b4b4E"(%"anchor_lang::error::Error"* noalias nocapture sret(%"anchor_lang::error::Error") dereferenceable(112) %_11, i32 %4), !dbg !1379
  br label %bb7, !dbg !1379

bb7:                                              ; preds = %bb6
  %5 = bitcast %"std::result::Result<anchor_lang::prelude::Account<anchor_spl::token::Mint>, anchor_lang::error::Error>"* %0 to %"std::result::Result<anchor_lang::prelude::Account<anchor_spl::token::Mint>, anchor_lang::error::Error>::Err"*, !dbg !1381
  %6 = getelementptr inbounds %"std::result::Result<anchor_lang::prelude::Account<anchor_spl::token::Mint>, anchor_lang::error::Error>::Err", %"std::result::Result<anchor_lang::prelude::Account<anchor_spl::token::Mint>, anchor_lang::error::Error>::Err"* %5, i32 0, i32 1, !dbg !1381
  %7 = bitcast %"anchor_lang::error::Error"* %6 to i8*, !dbg !1381
  %8 = bitcast %"anchor_lang::error::Error"* %_11 to i8*, !dbg !1381
  call void @llvm.memcpy.p0i8.p0i8.i64(i8* align 8 %7, i8* align 8 %8, i64 112, i1 false), !dbg !1381
  %9 = bitcast %"std::result::Result<anchor_lang::prelude::Account<anchor_spl::token::Mint>, anchor_lang::error::Error>"* %0 to i64*, !dbg !1381
  store i64 1, i64* %9, align 8, !dbg !1381
  br label %bb32, !dbg !1382

bb32:                                             ; preds = %bb29, %bb31, %bb19, %bb12, %bb7
  ret void, !dbg !1384

bb9:                                              ; preds = %bb8
  store %"anchor_lang::prelude::Pubkey"* %_17, %"anchor_lang::prelude::Pubkey"** %_16, align 8, !dbg !1385
; call core::cmp::impls::<impl core::cmp::PartialEq<&B> for &A>::ne
  %_13 = call zeroext i1 @"_ZN4core3cmp5impls69_$LT$impl$u20$core..cmp..PartialEq$LT$$RF$B$GT$$u20$for$u20$$RF$A$GT$2ne17h3536063d3aa1af69E"(%"anchor_lang::prelude::Pubkey"** align 8 dereferenceable(8) %_14, %"anchor_lang::prelude::Pubkey"** align 8 dereferenceable(8) %_16), !dbg !1377
  br label %bb10, !dbg !1377

bb10:                                             ; preds = %bb9
  br i1 %_13, label %bb11, label %bb13, !dbg !1377

bb13:                                             ; preds = %bb10
; call solana_program::account_info::AccountInfo::try_borrow_data
  call void @_ZN14solana_program12account_info11AccountInfo15try_borrow_data17hda244f29ae7b540dE(%"std::result::Result<std::cell::Ref<&mut [u8]>, anchor_lang::prelude::ProgramError>"* noalias nocapture sret(%"std::result::Result<std::cell::Ref<&mut [u8]>, anchor_lang::prelude::ProgramError>") dereferenceable(40) %_26, %"anchor_lang::prelude::AccountInfo"* align 8 dereferenceable(48) %info), !dbg !1386
  br label %bb14, !dbg !1386

bb11:                                             ; preds = %bb10
  store i32 3007, i32* %_19, align 4, !dbg !1387
  %10 = load i32, i32* %_19, align 4, !dbg !1387, !range !1380
; call <T as core::convert::Into<U>>::into
  call void @"_ZN50_$LT$T$u20$as$u20$core..convert..Into$LT$U$GT$$GT$4into17h72a8f8ceb626b4b4E"(%"anchor_lang::error::Error"* noalias nocapture sret(%"anchor_lang::error::Error") dereferenceable(112) %_18, i32 %10), !dbg !1387
  br label %bb12, !dbg !1387

bb12:                                             ; preds = %bb11
  %11 = bitcast %"std::result::Result<anchor_lang::prelude::Account<anchor_spl::token::Mint>, anchor_lang::error::Error>"* %0 to %"std::result::Result<anchor_lang::prelude::Account<anchor_spl::token::Mint>, anchor_lang::error::Error>::Err"*, !dbg !1388
  %12 = getelementptr inbounds %"std::result::Result<anchor_lang::prelude::Account<anchor_spl::token::Mint>, anchor_lang::error::Error>::Err", %"std::result::Result<anchor_lang::prelude::Account<anchor_spl::token::Mint>, anchor_lang::error::Error>::Err"* %11, i32 0, i32 1, !dbg !1388
  %13 = bitcast %"anchor_lang::error::Error"* %12 to i8*, !dbg !1388
  %14 = bitcast %"anchor_lang::error::Error"* %_18 to i8*, !dbg !1388
  call void @llvm.memcpy.p0i8.p0i8.i64(i8* align 8 %13, i8* align 8 %14, i64 112, i1 false), !dbg !1388
  %15 = bitcast %"std::result::Result<anchor_lang::prelude::Account<anchor_spl::token::Mint>, anchor_lang::error::Error>"* %0 to i64*, !dbg !1388
  store i64 1, i64* %15, align 8, !dbg !1388
  br label %bb32, !dbg !1382

bb14:                                             ; preds = %bb13
; call <core::result::Result<T,E> as core::ops::try_trait::Try>::branch
  call void @"_ZN79_$LT$core..result..Result$LT$T$C$E$GT$$u20$as$u20$core..ops..try_trait..Try$GT$6branch17hfa16d484a5f61f03E"(%"std::ops::ControlFlow<std::result::Result<std::convert::Infallible, anchor_lang::prelude::ProgramError>, std::cell::Ref<&mut [u8]>>"* noalias nocapture sret(%"std::ops::ControlFlow<std::result::Result<std::convert::Infallible, anchor_lang::prelude::ProgramError>, std::cell::Ref<&mut [u8]>>") dereferenceable(40) %_25, %"std::result::Result<std::cell::Ref<&mut [u8]>, anchor_lang::prelude::ProgramError>"* noalias nocapture dereferenceable(40) %_26), !dbg !1386
  br label %bb15, !dbg !1386

bb15:                                             ; preds = %bb14
  %16 = bitcast %"std::ops::ControlFlow<std::result::Result<std::convert::Infallible, anchor_lang::prelude::ProgramError>, std::cell::Ref<&mut [u8]>>"* %_25 to i64*, !dbg !1386
  %_28 = load i64, i64* %16, align 8, !dbg !1386, !range !320
  switch i64 %_28, label %bb17 [
    i64 0, label %bb16
    i64 1, label %bb18
  ], !dbg !1386

bb17:                                             ; preds = %bb15
  unreachable, !dbg !1386

bb16:                                             ; preds = %bb15
  %17 = bitcast %"std::ops::ControlFlow<std::result::Result<std::convert::Infallible, anchor_lang::prelude::ProgramError>, std::cell::Ref<&mut [u8]>>"* %_25 to %"std::ops::ControlFlow<std::result::Result<std::convert::Infallible, anchor_lang::prelude::ProgramError>, std::cell::Ref<&mut [u8]>>::Continue"*, !dbg !1386
  %18 = getelementptr inbounds %"std::ops::ControlFlow<std::result::Result<std::convert::Infallible, anchor_lang::prelude::ProgramError>, std::cell::Ref<&mut [u8]>>::Continue", %"std::ops::ControlFlow<std::result::Result<std::convert::Infallible, anchor_lang::prelude::ProgramError>, std::cell::Ref<&mut [u8]>>::Continue"* %17, i32 0, i32 1, !dbg !1386
  %19 = getelementptr inbounds { i64*, i64* }, { i64*, i64* }* %18, i32 0, i32 0, !dbg !1386
  %val.0 = load i64*, i64** %19, align 8, !dbg !1386, !nonnull !4
  %20 = getelementptr inbounds { i64*, i64* }, { i64*, i64* }* %18, i32 0, i32 1, !dbg !1386
  %val.1 = load i64*, i64** %20, align 8, !dbg !1386, !nonnull !4
  %21 = getelementptr inbounds { i64*, i64* }, { i64*, i64* }* %val.dbg.spill, i32 0, i32 0, !dbg !1386
  store i64* %val.0, i64** %21, align 8, !dbg !1386
  %22 = getelementptr inbounds { i64*, i64* }, { i64*, i64* }* %val.dbg.spill, i32 0, i32 1, !dbg !1386
  store i64* %val.1, i64** %22, align 8, !dbg !1386
  call void @llvm.dbg.declare(metadata { i64*, i64* }* %val.dbg.spill, metadata !1362, metadata !DIExpression()), !dbg !1389
  %23 = getelementptr inbounds { i64*, i64* }, { i64*, i64* }* %_24, i32 0, i32 0, !dbg !1389
  store i64* %val.0, i64** %23, align 8, !dbg !1389
  %24 = getelementptr inbounds { i64*, i64* }, { i64*, i64* }* %_24, i32 0, i32 1, !dbg !1389
  store i64* %val.1, i64** %24, align 8, !dbg !1389
; call <core::cell::Ref<T> as core::ops::deref::Deref>::deref
  %_21 = call align 8 dereferenceable(16) { [0 x i8]*, i64 }* @"_ZN68_$LT$core..cell..Ref$LT$T$GT$$u20$as$u20$core..ops..deref..Deref$GT$5deref17h99fef659c59935c4E"({ i64*, i64* }* align 8 dereferenceable(16) %_24), !dbg !1390
  br label %bb20, !dbg !1390

bb18:                                             ; preds = %bb15
  %25 = bitcast %"std::ops::ControlFlow<std::result::Result<std::convert::Infallible, anchor_lang::prelude::ProgramError>, std::cell::Ref<&mut [u8]>>"* %_25 to %"std::ops::ControlFlow<std::result::Result<std::convert::Infallible, anchor_lang::prelude::ProgramError>, std::cell::Ref<&mut [u8]>>::Break"*, !dbg !1391
  %26 = getelementptr inbounds %"std::ops::ControlFlow<std::result::Result<std::convert::Infallible, anchor_lang::prelude::ProgramError>, std::cell::Ref<&mut [u8]>>::Break", %"std::ops::ControlFlow<std::result::Result<std::convert::Infallible, anchor_lang::prelude::ProgramError>, std::cell::Ref<&mut [u8]>>::Break"* %25, i32 0, i32 1, !dbg !1391
  %27 = bitcast %"std::result::Result<std::convert::Infallible, anchor_lang::prelude::ProgramError>::Err"* %residual to i8*, !dbg !1391
  %28 = bitcast %"std::result::Result<std::convert::Infallible, anchor_lang::prelude::ProgramError>::Err"* %26 to i8*, !dbg !1391
  call void @llvm.memcpy.p0i8.p0i8.i64(i8* align 8 %27, i8* align 8 %28, i64 32, i1 false), !dbg !1391
  %29 = bitcast %"std::result::Result<std::convert::Infallible, anchor_lang::prelude::ProgramError>::Err"* %_30 to i8*, !dbg !1370
  %30 = bitcast %"std::result::Result<std::convert::Infallible, anchor_lang::prelude::ProgramError>::Err"* %residual to i8*, !dbg !1370
  call void @llvm.memcpy.p0i8.p0i8.i64(i8* align 8 %29, i8* align 8 %30, i64 32, i1 false), !dbg !1370
; call <core::result::Result<T,F> as core::ops::try_trait::FromResidual<core::result::Result<core::convert::Infallible,E>>>::from_residual
  call void @"_ZN153_$LT$core..result..Result$LT$T$C$F$GT$$u20$as$u20$core..ops..try_trait..FromResidual$LT$core..result..Result$LT$core..convert..Infallible$C$E$GT$$GT$$GT$13from_residual17hae435428f52583c1E"(%"std::result::Result<anchor_lang::prelude::Account<anchor_spl::token::Mint>, anchor_lang::error::Error>"* noalias nocapture sret(%"std::result::Result<anchor_lang::prelude::Account<anchor_spl::token::Mint>, anchor_lang::error::Error>") dereferenceable(144) %0, %"std::result::Result<std::convert::Infallible, anchor_lang::prelude::ProgramError>::Err"* noalias nocapture dereferenceable(32) %_30), !dbg !1392
  br label %bb19, !dbg !1392

bb19:                                             ; preds = %bb18
  br label %bb32, !dbg !1382

bb20:                                             ; preds = %bb16
  %31 = getelementptr inbounds { [0 x i8]*, i64 }, { [0 x i8]*, i64 }* %_21, i32 0, i32 0, !dbg !1390
  %32 = load [0 x i8]*, [0 x i8]** %31, align 8, !dbg !1390, !nonnull !4
  %33 = getelementptr inbounds { [0 x i8]*, i64 }, { [0 x i8]*, i64 }* %_21, i32 0, i32 1, !dbg !1390
  %34 = load i64, i64* %33, align 8, !dbg !1390
  %35 = getelementptr inbounds { [0 x i8]*, i64 }, { [0 x i8]*, i64 }* %data, i32 0, i32 0, !dbg !1390
  store [0 x i8]* %32, [0 x i8]** %35, align 8, !dbg !1390
  %36 = getelementptr inbounds { [0 x i8]*, i64 }, { [0 x i8]*, i64 }* %data, i32 0, i32 1, !dbg !1390
  store i64 %34, i64* %36, align 8, !dbg !1390
; call <solana_program::account_info::AccountInfo as core::clone::Clone>::clone
  call void @"_ZN80_$LT$solana_program..account_info..AccountInfo$u20$as$u20$core..clone..Clone$GT$5clone17hd5b45e5ab8b13e4fE"(%"anchor_lang::prelude::AccountInfo"* noalias nocapture sret(%"anchor_lang::prelude::AccountInfo") dereferenceable(48) %_33, %"anchor_lang::prelude::AccountInfo"* align 8 dereferenceable(48) %info), !dbg !1393
  br label %bb21, !dbg !1393

bb21:                                             ; preds = %bb20
; call anchor_lang::AccountDeserialize::try_deserialize
  call void @_ZN11anchor_lang18AccountDeserialize15try_deserialize17h25f33e698d8d29d0E(%"std::result::Result<anchor_spl::token::Mint, anchor_lang::error::Error>"* noalias nocapture sret(%"std::result::Result<anchor_spl::token::Mint, anchor_lang::error::Error>") dereferenceable(120) %_37, { [0 x i8]*, i64 }* align 8 dereferenceable(16) %data), !dbg !1394
  br label %bb22, !dbg !1394

bb22:                                             ; preds = %bb21
; call <core::result::Result<T,E> as core::ops::try_trait::Try>::branch
  call void @"_ZN79_$LT$core..result..Result$LT$T$C$E$GT$$u20$as$u20$core..ops..try_trait..Try$GT$6branch17hc0349239a497c597E"(%"std::ops::ControlFlow<std::result::Result<std::convert::Infallible, anchor_lang::error::Error>, anchor_spl::token::Mint>"* noalias nocapture sret(%"std::ops::ControlFlow<std::result::Result<std::convert::Infallible, anchor_lang::error::Error>, anchor_spl::token::Mint>") dereferenceable(120) %_36, %"std::result::Result<anchor_spl::token::Mint, anchor_lang::error::Error>"* noalias nocapture dereferenceable(120) %_37), !dbg !1394
  br label %bb23, !dbg !1394

bb23:                                             ; preds = %bb22
  %37 = bitcast %"std::ops::ControlFlow<std::result::Result<std::convert::Infallible, anchor_lang::error::Error>, anchor_spl::token::Mint>"* %_36 to i64*, !dbg !1394
  %_40 = load i64, i64* %37, align 8, !dbg !1394, !range !320
  switch i64 %_40, label %bb25 [
    i64 0, label %bb24
    i64 1, label %bb26
  ], !dbg !1394

bb25:                                             ; preds = %bb23
  unreachable, !dbg !1394

bb24:                                             ; preds = %bb23
  %38 = bitcast %"std::ops::ControlFlow<std::result::Result<std::convert::Infallible, anchor_lang::error::Error>, anchor_spl::token::Mint>"* %_36 to %"std::ops::ControlFlow<std::result::Result<std::convert::Infallible, anchor_lang::error::Error>, anchor_spl::token::Mint>::Continue"*, !dbg !1394
  %39 = getelementptr inbounds %"std::ops::ControlFlow<std::result::Result<std::convert::Infallible, anchor_lang::error::Error>, anchor_spl::token::Mint>::Continue", %"std::ops::ControlFlow<std::result::Result<std::convert::Infallible, anchor_lang::error::Error>, anchor_spl::token::Mint>::Continue"* %38, i32 0, i32 1, !dbg !1394
  %40 = bitcast %"anchor_spl::token::Mint"* %val to i8*, !dbg !1394
  %41 = bitcast %"anchor_spl::token::Mint"* %39 to i8*, !dbg !1394
  call void @llvm.memcpy.p0i8.p0i8.i64(i8* align 8 %40, i8* align 8 %41, i64 88, i1 false), !dbg !1394
  %42 = bitcast %"anchor_spl::token::Mint"* %_35 to i8*, !dbg !1372
  %43 = bitcast %"anchor_spl::token::Mint"* %val to i8*, !dbg !1372
  call void @llvm.memcpy.p0i8.p0i8.i64(i8* align 8 %42, i8* align 8 %43, i64 88, i1 false), !dbg !1372
; call anchor_lang::accounts::account::Account<T>::new
  call void @"_ZN11anchor_lang8accounts7account16Account$LT$T$GT$3new17h97b06ae3884b0687E"(%"anchor_lang::prelude::Account<anchor_spl::token::Mint>"* noalias nocapture sret(%"anchor_lang::prelude::Account<anchor_spl::token::Mint>") dereferenceable(136) %_32, %"anchor_lang::prelude::AccountInfo"* noalias nocapture dereferenceable(48) %_33, %"anchor_spl::token::Mint"* noalias nocapture dereferenceable(88) %_35), !dbg !1395
  br label %bb28, !dbg !1395

bb26:                                             ; preds = %bb23
  %44 = bitcast %"std::ops::ControlFlow<std::result::Result<std::convert::Infallible, anchor_lang::error::Error>, anchor_spl::token::Mint>"* %_36 to %"std::ops::ControlFlow<std::result::Result<std::convert::Infallible, anchor_lang::error::Error>, anchor_spl::token::Mint>::Break"*, !dbg !1396
  %45 = getelementptr inbounds %"std::ops::ControlFlow<std::result::Result<std::convert::Infallible, anchor_lang::error::Error>, anchor_spl::token::Mint>::Break", %"std::ops::ControlFlow<std::result::Result<std::convert::Infallible, anchor_lang::error::Error>, anchor_spl::token::Mint>::Break"* %44, i32 0, i32 1, !dbg !1396
  %46 = bitcast %"std::result::Result<std::convert::Infallible, anchor_lang::error::Error>::Err"* %residual1 to i8*, !dbg !1396
  %47 = bitcast %"std::result::Result<std::convert::Infallible, anchor_lang::error::Error>::Err"* %45 to i8*, !dbg !1396
  call void @llvm.memcpy.p0i8.p0i8.i64(i8* align 8 %46, i8* align 8 %47, i64 112, i1 false), !dbg !1396
  %48 = bitcast %"std::result::Result<std::convert::Infallible, anchor_lang::error::Error>::Err"* %_42 to i8*, !dbg !1371
  %49 = bitcast %"std::result::Result<std::convert::Infallible, anchor_lang::error::Error>::Err"* %residual1 to i8*, !dbg !1371
  call void @llvm.memcpy.p0i8.p0i8.i64(i8* align 8 %48, i8* align 8 %49, i64 112, i1 false), !dbg !1371
; call <core::result::Result<T,F> as core::ops::try_trait::FromResidual<core::result::Result<core::convert::Infallible,E>>>::from_residual
  call void @"_ZN153_$LT$core..result..Result$LT$T$C$F$GT$$u20$as$u20$core..ops..try_trait..FromResidual$LT$core..result..Result$LT$core..convert..Infallible$C$E$GT$$GT$$GT$13from_residual17hd7c4452b6ec902c9E"(%"std::result::Result<anchor_lang::prelude::Account<anchor_spl::token::Mint>, anchor_lang::error::Error>"* noalias nocapture sret(%"std::result::Result<anchor_lang::prelude::Account<anchor_spl::token::Mint>, anchor_lang::error::Error>") dereferenceable(144) %0, %"std::result::Result<std::convert::Infallible, anchor_lang::error::Error>::Err"* noalias nocapture dereferenceable(112) %_42), !dbg !1397
  br label %bb27, !dbg !1397

bb27:                                             ; preds = %bb26
; call core::ptr::drop_in_place<solana_program::account_info::AccountInfo>
  call void @"_ZN4core3ptr62drop_in_place$LT$solana_program..account_info..AccountInfo$GT$17h10233615d59e7eedE"(%"anchor_lang::prelude::AccountInfo"* %_33), !dbg !1398
  br label %bb30, !dbg !1398

bb30:                                             ; preds = %bb27
; call core::ptr::drop_in_place<core::cell::Ref<&mut [u8]>>
  call void @"_ZN4core3ptr68drop_in_place$LT$core..cell..Ref$LT$$RF$mut$u20$$u5b$u8$u5d$$GT$$GT$17h72a59591ad52fd60E"({ i64*, i64* }* %_24), !dbg !1399
  br label %bb31, !dbg !1399

bb31:                                             ; preds = %bb30
  br label %bb32, !dbg !1382

bb28:                                             ; preds = %bb24
  %50 = bitcast %"std::result::Result<anchor_lang::prelude::Account<anchor_spl::token::Mint>, anchor_lang::error::Error>"* %0 to %"std::result::Result<anchor_lang::prelude::Account<anchor_spl::token::Mint>, anchor_lang::error::Error>::Ok"*, !dbg !1400
  %51 = getelementptr inbounds %"std::result::Result<anchor_lang::prelude::Account<anchor_spl::token::Mint>, anchor_lang::error::Error>::Ok", %"std::result::Result<anchor_lang::prelude::Account<anchor_spl::token::Mint>, anchor_lang::error::Error>::Ok"* %50, i32 0, i32 1, !dbg !1400
  %52 = bitcast %"anchor_lang::prelude::Account<anchor_spl::token::Mint>"* %51 to i8*, !dbg !1400
  %53 = bitcast %"anchor_lang::prelude::Account<anchor_spl::token::Mint>"* %_32 to i8*, !dbg !1400
  call void @llvm.memcpy.p0i8.p0i8.i64(i8* align 8 %52, i8* align 8 %53, i64 136, i1 false), !dbg !1400
  %54 = bitcast %"std::result::Result<anchor_lang::prelude::Account<anchor_spl::token::Mint>, anchor_lang::error::Error>"* %0 to i64*, !dbg !1400
  store i64 0, i64* %54, align 8, !dbg !1400
; call core::ptr::drop_in_place<core::cell::Ref<&mut [u8]>>
  call void @"_ZN4core3ptr68drop_in_place$LT$core..cell..Ref$LT$$RF$mut$u20$$u5b$u8$u5d$$GT$$GT$17h72a59591ad52fd60E"({ i64*, i64* }* %_24), !dbg !1399
  br label %bb29, !dbg !1399

bb29:                                             ; preds = %bb28
  br label %bb32, !dbg !1384
}

; anchor_lang::accounts::account::Account<T>::try_from
; Function Attrs: noinline nounwind
define void @"_ZN11anchor_lang8accounts7account16Account$LT$T$GT$8try_from17h560c2bb819c47befE"(%"std::result::Result<anchor_lang::prelude::Account<Exchange>, anchor_lang::error::Error>"* noalias nocapture sret(%"std::result::Result<anchor_lang::prelude::Account<Exchange>, anchor_lang::error::Error>") dereferenceable(168) %0, %"anchor_lang::prelude::AccountInfo"* align 8 dereferenceable(48) %info) unnamed_addr #2 !dbg !1401 {
start:
  %val.dbg.spill = alloca { i64*, i64* }, align 8
  %info.dbg.spill = alloca %"anchor_lang::prelude::AccountInfo"*, align 8
  %val = alloca %Exchange, align 8
  %_42 = alloca %"std::result::Result<std::convert::Infallible, anchor_lang::error::Error>::Err", align 8
  %residual1 = alloca %"std::result::Result<std::convert::Infallible, anchor_lang::error::Error>::Err", align 8
  %_37 = alloca %"std::result::Result<Exchange, anchor_lang::error::Error>", align 8
  %_36 = alloca %"std::ops::ControlFlow<std::result::Result<std::convert::Infallible, anchor_lang::error::Error>, Exchange>", align 8
  %_35 = alloca %Exchange, align 8
  %_33 = alloca %"anchor_lang::prelude::AccountInfo", align 8
  %_32 = alloca %"anchor_lang::prelude::Account<Exchange>", align 8
  %_30 = alloca %"std::result::Result<std::convert::Infallible, anchor_lang::prelude::ProgramError>::Err", align 8
  %residual = alloca %"std::result::Result<std::convert::Infallible, anchor_lang::prelude::ProgramError>::Err", align 8
  %_26 = alloca %"std::result::Result<std::cell::Ref<&mut [u8]>, anchor_lang::prelude::ProgramError>", align 8
  %_25 = alloca %"std::ops::ControlFlow<std::result::Result<std::convert::Infallible, anchor_lang::prelude::ProgramError>, std::cell::Ref<&mut [u8]>>", align 8
  %_24 = alloca { i64*, i64* }, align 8
  %data = alloca { [0 x i8]*, i64 }, align 8
  %_19 = alloca i32, align 4
  %_18 = alloca %"anchor_lang::error::Error", align 8
  %_17 = alloca %"anchor_lang::prelude::Pubkey", align 1
  %_16 = alloca %"anchor_lang::prelude::Pubkey"*, align 8
  %_12 = alloca i32, align 4
  %_11 = alloca %"anchor_lang::error::Error", align 8
  %_6 = alloca %"anchor_lang::prelude::Pubkey"*, align 8
  %_2 = alloca i8, align 1
  store %"anchor_lang::prelude::AccountInfo"* %info, %"anchor_lang::prelude::AccountInfo"** %info.dbg.spill, align 8
  call void @llvm.dbg.declare(metadata %"anchor_lang::prelude::AccountInfo"** %info.dbg.spill, metadata !1419, metadata !DIExpression()), !dbg !1430
  call void @llvm.dbg.declare(metadata { [0 x i8]*, i64 }* %data, metadata !1420, metadata !DIExpression()), !dbg !1431
  call void @llvm.dbg.declare(metadata %"std::result::Result<std::convert::Infallible, anchor_lang::prelude::ProgramError>::Err"* %residual, metadata !1422, metadata !DIExpression()), !dbg !1432
  call void @llvm.dbg.declare(metadata %"std::result::Result<std::convert::Infallible, anchor_lang::error::Error>::Err"* %residual1, metadata !1426, metadata !DIExpression()), !dbg !1433
  call void @llvm.dbg.declare(metadata %Exchange* %val, metadata !1428, metadata !DIExpression()), !dbg !1434
  %_4 = getelementptr inbounds %"anchor_lang::prelude::AccountInfo", %"anchor_lang::prelude::AccountInfo"* %info, i32 0, i32 3, !dbg !1435
  store %"anchor_lang::prelude::Pubkey"* @_ZN14solana_program14system_program2ID17hf50795d7d4bfef3aE, %"anchor_lang::prelude::Pubkey"** %_6, align 8, !dbg !1436
; call core::cmp::impls::<impl core::cmp::PartialEq<&B> for &A>::eq
  %_3 = call zeroext i1 @"_ZN4core3cmp5impls69_$LT$impl$u20$core..cmp..PartialEq$LT$$RF$B$GT$$u20$for$u20$$RF$A$GT$2eq17hdd9f53180d14a21eE"(%"anchor_lang::prelude::Pubkey"** align 8 dereferenceable(8) %_4, %"anchor_lang::prelude::Pubkey"** align 8 dereferenceable(8) %_6), !dbg !1435
  br label %bb4, !dbg !1435

bb4:                                              ; preds = %start
  br i1 %_3, label %bb2, label %bb1, !dbg !1435

bb1:                                              ; preds = %bb4
  store i8 0, i8* %_2, align 1, !dbg !1435
  br label %bb3, !dbg !1435

bb2:                                              ; preds = %bb4
; call solana_program::account_info::AccountInfo::lamports
  %_9 = call i64 @_ZN14solana_program12account_info11AccountInfo8lamports17h484abddebb35fde4E(%"anchor_lang::prelude::AccountInfo"* align 8 dereferenceable(48) %info), !dbg !1437
  br label %bb5, !dbg !1437

bb5:                                              ; preds = %bb2
  %_8 = icmp eq i64 %_9, 0, !dbg !1437
  %1 = zext i1 %_8 to i8, !dbg !1435
  store i8 %1, i8* %_2, align 1, !dbg !1435
  br label %bb3, !dbg !1435

bb3:                                              ; preds = %bb1, %bb5
  %2 = load i8, i8* %_2, align 1, !dbg !1435, !range !1376
  %3 = trunc i8 %2 to i1, !dbg !1435
  br i1 %3, label %bb6, label %bb8, !dbg !1435

bb8:                                              ; preds = %bb3
  %_14 = getelementptr inbounds %"anchor_lang::prelude::AccountInfo", %"anchor_lang::prelude::AccountInfo"* %info, i32 0, i32 3, !dbg !1438
; call <sol_swap::Exchange as anchor_lang::Owner>::owner
  call void @"_ZN57_$LT$sol_swap..Exchange$u20$as$u20$anchor_lang..Owner$GT$5owner17h32490fe6e3324f22E"(%"anchor_lang::prelude::Pubkey"* noalias nocapture sret(%"anchor_lang::prelude::Pubkey") dereferenceable(32) %_17), !dbg !1439
  br label %bb9, !dbg !1439

bb6:                                              ; preds = %bb3
  store i32 3012, i32* %_12, align 4, !dbg !1440
  %4 = load i32, i32* %_12, align 4, !dbg !1440, !range !1380
; call <T as core::convert::Into<U>>::into
  call void @"_ZN50_$LT$T$u20$as$u20$core..convert..Into$LT$U$GT$$GT$4into17h72a8f8ceb626b4b4E"(%"anchor_lang::error::Error"* noalias nocapture sret(%"anchor_lang::error::Error") dereferenceable(112) %_11, i32 %4), !dbg !1440
  br label %bb7, !dbg !1440

bb7:                                              ; preds = %bb6
  %5 = bitcast %"std::result::Result<anchor_lang::prelude::Account<Exchange>, anchor_lang::error::Error>"* %0 to %"std::result::Result<anchor_lang::prelude::Account<Exchange>, anchor_lang::error::Error>::Err"*, !dbg !1441
  %6 = getelementptr inbounds %"std::result::Result<anchor_lang::prelude::Account<Exchange>, anchor_lang::error::Error>::Err", %"std::result::Result<anchor_lang::prelude::Account<Exchange>, anchor_lang::error::Error>::Err"* %5, i32 0, i32 1, !dbg !1441
  %7 = bitcast %"anchor_lang::error::Error"* %6 to i8*, !dbg !1441
  %8 = bitcast %"anchor_lang::error::Error"* %_11 to i8*, !dbg !1441
  call void @llvm.memcpy.p0i8.p0i8.i64(i8* align 8 %7, i8* align 8 %8, i64 112, i1 false), !dbg !1441
  %9 = bitcast %"std::result::Result<anchor_lang::prelude::Account<Exchange>, anchor_lang::error::Error>"* %0 to i64*, !dbg !1441
  store i64 1, i64* %9, align 8, !dbg !1441
  br label %bb32, !dbg !1442

bb32:                                             ; preds = %bb29, %bb31, %bb19, %bb12, %bb7
  ret void, !dbg !1444

bb9:                                              ; preds = %bb8
  store %"anchor_lang::prelude::Pubkey"* %_17, %"anchor_lang::prelude::Pubkey"** %_16, align 8, !dbg !1445
; call core::cmp::impls::<impl core::cmp::PartialEq<&B> for &A>::ne
  %_13 = call zeroext i1 @"_ZN4core3cmp5impls69_$LT$impl$u20$core..cmp..PartialEq$LT$$RF$B$GT$$u20$for$u20$$RF$A$GT$2ne17h3536063d3aa1af69E"(%"anchor_lang::prelude::Pubkey"** align 8 dereferenceable(8) %_14, %"anchor_lang::prelude::Pubkey"** align 8 dereferenceable(8) %_16), !dbg !1438
  br label %bb10, !dbg !1438

bb10:                                             ; preds = %bb9
  br i1 %_13, label %bb11, label %bb13, !dbg !1438

bb13:                                             ; preds = %bb10
; call solana_program::account_info::AccountInfo::try_borrow_data
  call void @_ZN14solana_program12account_info11AccountInfo15try_borrow_data17hda244f29ae7b540dE(%"std::result::Result<std::cell::Ref<&mut [u8]>, anchor_lang::prelude::ProgramError>"* noalias nocapture sret(%"std::result::Result<std::cell::Ref<&mut [u8]>, anchor_lang::prelude::ProgramError>") dereferenceable(40) %_26, %"anchor_lang::prelude::AccountInfo"* align 8 dereferenceable(48) %info), !dbg !1446
  br label %bb14, !dbg !1446

bb11:                                             ; preds = %bb10
  store i32 3007, i32* %_19, align 4, !dbg !1447
  %10 = load i32, i32* %_19, align 4, !dbg !1447, !range !1380
; call <T as core::convert::Into<U>>::into
  call void @"_ZN50_$LT$T$u20$as$u20$core..convert..Into$LT$U$GT$$GT$4into17h72a8f8ceb626b4b4E"(%"anchor_lang::error::Error"* noalias nocapture sret(%"anchor_lang::error::Error") dereferenceable(112) %_18, i32 %10), !dbg !1447
  br label %bb12, !dbg !1447

bb12:                                             ; preds = %bb11
  %11 = bitcast %"std::result::Result<anchor_lang::prelude::Account<Exchange>, anchor_lang::error::Error>"* %0 to %"std::result::Result<anchor_lang::prelude::Account<Exchange>, anchor_lang::error::Error>::Err"*, !dbg !1448
  %12 = getelementptr inbounds %"std::result::Result<anchor_lang::prelude::Account<Exchange>, anchor_lang::error::Error>::Err", %"std::result::Result<anchor_lang::prelude::Account<Exchange>, anchor_lang::error::Error>::Err"* %11, i32 0, i32 1, !dbg !1448
  %13 = bitcast %"anchor_lang::error::Error"* %12 to i8*, !dbg !1448
  %14 = bitcast %"anchor_lang::error::Error"* %_18 to i8*, !dbg !1448
  call void @llvm.memcpy.p0i8.p0i8.i64(i8* align 8 %13, i8* align 8 %14, i64 112, i1 false), !dbg !1448
  %15 = bitcast %"std::result::Result<anchor_lang::prelude::Account<Exchange>, anchor_lang::error::Error>"* %0 to i64*, !dbg !1448
  store i64 1, i64* %15, align 8, !dbg !1448
  br label %bb32, !dbg !1442

bb14:                                             ; preds = %bb13
; call <core::result::Result<T,E> as core::ops::try_trait::Try>::branch
  call void @"_ZN79_$LT$core..result..Result$LT$T$C$E$GT$$u20$as$u20$core..ops..try_trait..Try$GT$6branch17hfa16d484a5f61f03E"(%"std::ops::ControlFlow<std::result::Result<std::convert::Infallible, anchor_lang::prelude::ProgramError>, std::cell::Ref<&mut [u8]>>"* noalias nocapture sret(%"std::ops::ControlFlow<std::result::Result<std::convert::Infallible, anchor_lang::prelude::ProgramError>, std::cell::Ref<&mut [u8]>>") dereferenceable(40) %_25, %"std::result::Result<std::cell::Ref<&mut [u8]>, anchor_lang::prelude::ProgramError>"* noalias nocapture dereferenceable(40) %_26), !dbg !1446
  br label %bb15, !dbg !1446

bb15:                                             ; preds = %bb14
  %16 = bitcast %"std::ops::ControlFlow<std::result::Result<std::convert::Infallible, anchor_lang::prelude::ProgramError>, std::cell::Ref<&mut [u8]>>"* %_25 to i64*, !dbg !1446
  %_28 = load i64, i64* %16, align 8, !dbg !1446, !range !320
  switch i64 %_28, label %bb17 [
    i64 0, label %bb16
    i64 1, label %bb18
  ], !dbg !1446

bb17:                                             ; preds = %bb15
  unreachable, !dbg !1446

bb16:                                             ; preds = %bb15
  %17 = bitcast %"std::ops::ControlFlow<std::result::Result<std::convert::Infallible, anchor_lang::prelude::ProgramError>, std::cell::Ref<&mut [u8]>>"* %_25 to %"std::ops::ControlFlow<std::result::Result<std::convert::Infallible, anchor_lang::prelude::ProgramError>, std::cell::Ref<&mut [u8]>>::Continue"*, !dbg !1446
  %18 = getelementptr inbounds %"std::ops::ControlFlow<std::result::Result<std::convert::Infallible, anchor_lang::prelude::ProgramError>, std::cell::Ref<&mut [u8]>>::Continue", %"std::ops::ControlFlow<std::result::Result<std::convert::Infallible, anchor_lang::prelude::ProgramError>, std::cell::Ref<&mut [u8]>>::Continue"* %17, i32 0, i32 1, !dbg !1446
  %19 = getelementptr inbounds { i64*, i64* }, { i64*, i64* }* %18, i32 0, i32 0, !dbg !1446
  %val.0 = load i64*, i64** %19, align 8, !dbg !1446, !nonnull !4
  %20 = getelementptr inbounds { i64*, i64* }, { i64*, i64* }* %18, i32 0, i32 1, !dbg !1446
  %val.1 = load i64*, i64** %20, align 8, !dbg !1446, !nonnull !4
  %21 = getelementptr inbounds { i64*, i64* }, { i64*, i64* }* %val.dbg.spill, i32 0, i32 0, !dbg !1446
  store i64* %val.0, i64** %21, align 8, !dbg !1446
  %22 = getelementptr inbounds { i64*, i64* }, { i64*, i64* }* %val.dbg.spill, i32 0, i32 1, !dbg !1446
  store i64* %val.1, i64** %22, align 8, !dbg !1446
  call void @llvm.dbg.declare(metadata { i64*, i64* }* %val.dbg.spill, metadata !1424, metadata !DIExpression()), !dbg !1449
  %23 = getelementptr inbounds { i64*, i64* }, { i64*, i64* }* %_24, i32 0, i32 0, !dbg !1449
  store i64* %val.0, i64** %23, align 8, !dbg !1449
  %24 = getelementptr inbounds { i64*, i64* }, { i64*, i64* }* %_24, i32 0, i32 1, !dbg !1449
  store i64* %val.1, i64** %24, align 8, !dbg !1449
; call <core::cell::Ref<T> as core::ops::deref::Deref>::deref
  %_21 = call align 8 dereferenceable(16) { [0 x i8]*, i64 }* @"_ZN68_$LT$core..cell..Ref$LT$T$GT$$u20$as$u20$core..ops..deref..Deref$GT$5deref17h99fef659c59935c4E"({ i64*, i64* }* align 8 dereferenceable(16) %_24), !dbg !1450
  br label %bb20, !dbg !1450

bb18:                                             ; preds = %bb15
  %25 = bitcast %"std::ops::ControlFlow<std::result::Result<std::convert::Infallible, anchor_lang::prelude::ProgramError>, std::cell::Ref<&mut [u8]>>"* %_25 to %"std::ops::ControlFlow<std::result::Result<std::convert::Infallible, anchor_lang::prelude::ProgramError>, std::cell::Ref<&mut [u8]>>::Break"*, !dbg !1451
  %26 = getelementptr inbounds %"std::ops::ControlFlow<std::result::Result<std::convert::Infallible, anchor_lang::prelude::ProgramError>, std::cell::Ref<&mut [u8]>>::Break", %"std::ops::ControlFlow<std::result::Result<std::convert::Infallible, anchor_lang::prelude::ProgramError>, std::cell::Ref<&mut [u8]>>::Break"* %25, i32 0, i32 1, !dbg !1451
  %27 = bitcast %"std::result::Result<std::convert::Infallible, anchor_lang::prelude::ProgramError>::Err"* %residual to i8*, !dbg !1451
  %28 = bitcast %"std::result::Result<std::convert::Infallible, anchor_lang::prelude::ProgramError>::Err"* %26 to i8*, !dbg !1451
  call void @llvm.memcpy.p0i8.p0i8.i64(i8* align 8 %27, i8* align 8 %28, i64 32, i1 false), !dbg !1451
  %29 = bitcast %"std::result::Result<std::convert::Infallible, anchor_lang::prelude::ProgramError>::Err"* %_30 to i8*, !dbg !1432
  %30 = bitcast %"std::result::Result<std::convert::Infallible, anchor_lang::prelude::ProgramError>::Err"* %residual to i8*, !dbg !1432
  call void @llvm.memcpy.p0i8.p0i8.i64(i8* align 8 %29, i8* align 8 %30, i64 32, i1 false), !dbg !1432
; call <core::result::Result<T,F> as core::ops::try_trait::FromResidual<core::result::Result<core::convert::Infallible,E>>>::from_residual
  call void @"_ZN153_$LT$core..result..Result$LT$T$C$F$GT$$u20$as$u20$core..ops..try_trait..FromResidual$LT$core..result..Result$LT$core..convert..Infallible$C$E$GT$$GT$$GT$13from_residual17h94c4e61431e1da50E"(%"std::result::Result<anchor_lang::prelude::Account<Exchange>, anchor_lang::error::Error>"* noalias nocapture sret(%"std::result::Result<anchor_lang::prelude::Account<Exchange>, anchor_lang::error::Error>") dereferenceable(168) %0, %"std::result::Result<std::convert::Infallible, anchor_lang::prelude::ProgramError>::Err"* noalias nocapture dereferenceable(32) %_30), !dbg !1452
  br label %bb19, !dbg !1452

bb19:                                             ; preds = %bb18
  br label %bb32, !dbg !1442

bb20:                                             ; preds = %bb16
  %31 = getelementptr inbounds { [0 x i8]*, i64 }, { [0 x i8]*, i64 }* %_21, i32 0, i32 0, !dbg !1450
  %32 = load [0 x i8]*, [0 x i8]** %31, align 8, !dbg !1450, !nonnull !4
  %33 = getelementptr inbounds { [0 x i8]*, i64 }, { [0 x i8]*, i64 }* %_21, i32 0, i32 1, !dbg !1450
  %34 = load i64, i64* %33, align 8, !dbg !1450
  %35 = getelementptr inbounds { [0 x i8]*, i64 }, { [0 x i8]*, i64 }* %data, i32 0, i32 0, !dbg !1450
  store [0 x i8]* %32, [0 x i8]** %35, align 8, !dbg !1450
  %36 = getelementptr inbounds { [0 x i8]*, i64 }, { [0 x i8]*, i64 }* %data, i32 0, i32 1, !dbg !1450
  store i64 %34, i64* %36, align 8, !dbg !1450
; call <solana_program::account_info::AccountInfo as core::clone::Clone>::clone
  call void @"_ZN80_$LT$solana_program..account_info..AccountInfo$u20$as$u20$core..clone..Clone$GT$5clone17hd5b45e5ab8b13e4fE"(%"anchor_lang::prelude::AccountInfo"* noalias nocapture sret(%"anchor_lang::prelude::AccountInfo") dereferenceable(48) %_33, %"anchor_lang::prelude::AccountInfo"* align 8 dereferenceable(48) %info), !dbg !1453
  br label %bb21, !dbg !1453

bb21:                                             ; preds = %bb20
; call <sol_swap::Exchange as anchor_lang::AccountDeserialize>::try_deserialize
  call void @"_ZN70_$LT$sol_swap..Exchange$u20$as$u20$anchor_lang..AccountDeserialize$GT$15try_deserialize17hff6459201ef5d732E"(%"std::result::Result<Exchange, anchor_lang::error::Error>"* noalias nocapture sret(%"std::result::Result<Exchange, anchor_lang::error::Error>") dereferenceable(120) %_37, { [0 x i8]*, i64 }* align 8 dereferenceable(16) %data), !dbg !1454
  br label %bb22, !dbg !1454

bb22:                                             ; preds = %bb21
; call <core::result::Result<T,E> as core::ops::try_trait::Try>::branch
  call void @"_ZN79_$LT$core..result..Result$LT$T$C$E$GT$$u20$as$u20$core..ops..try_trait..Try$GT$6branch17h79e2b8807561322bE"(%"std::ops::ControlFlow<std::result::Result<std::convert::Infallible, anchor_lang::error::Error>, Exchange>"* noalias nocapture sret(%"std::ops::ControlFlow<std::result::Result<std::convert::Infallible, anchor_lang::error::Error>, Exchange>") dereferenceable(120) %_36, %"std::result::Result<Exchange, anchor_lang::error::Error>"* noalias nocapture dereferenceable(120) %_37), !dbg !1454
  br label %bb23, !dbg !1454

bb23:                                             ; preds = %bb22
  %37 = bitcast %"std::ops::ControlFlow<std::result::Result<std::convert::Infallible, anchor_lang::error::Error>, Exchange>"* %_36 to i64*, !dbg !1454
  %_40 = load i64, i64* %37, align 8, !dbg !1454, !range !320
  switch i64 %_40, label %bb25 [
    i64 0, label %bb24
    i64 1, label %bb26
  ], !dbg !1454

bb25:                                             ; preds = %bb23
  unreachable, !dbg !1454

bb24:                                             ; preds = %bb23
  %38 = bitcast %"std::ops::ControlFlow<std::result::Result<std::convert::Infallible, anchor_lang::error::Error>, Exchange>"* %_36 to %"std::ops::ControlFlow<std::result::Result<std::convert::Infallible, anchor_lang::error::Error>, Exchange>::Continue"*, !dbg !1454
  %39 = getelementptr inbounds %"std::ops::ControlFlow<std::result::Result<std::convert::Infallible, anchor_lang::error::Error>, Exchange>::Continue", %"std::ops::ControlFlow<std::result::Result<std::convert::Infallible, anchor_lang::error::Error>, Exchange>::Continue"* %38, i32 0, i32 1, !dbg !1454
  %40 = bitcast %Exchange* %val to i8*, !dbg !1454
  %41 = bitcast %Exchange* %39 to i8*, !dbg !1454
  call void @llvm.memcpy.p0i8.p0i8.i64(i8* align 8 %40, i8* align 8 %41, i64 112, i1 false), !dbg !1454
  %42 = bitcast %Exchange* %_35 to i8*, !dbg !1434
  %43 = bitcast %Exchange* %val to i8*, !dbg !1434
  call void @llvm.memcpy.p0i8.p0i8.i64(i8* align 8 %42, i8* align 8 %43, i64 112, i1 false), !dbg !1434
; call anchor_lang::accounts::account::Account<T>::new
  call void @"_ZN11anchor_lang8accounts7account16Account$LT$T$GT$3new17hf85681c9b46be705E"(%"anchor_lang::prelude::Account<Exchange>"* noalias nocapture sret(%"anchor_lang::prelude::Account<Exchange>") dereferenceable(160) %_32, %"anchor_lang::prelude::AccountInfo"* noalias nocapture dereferenceable(48) %_33, %Exchange* noalias nocapture dereferenceable(112) %_35), !dbg !1455
  br label %bb28, !dbg !1455

bb26:                                             ; preds = %bb23
  %44 = bitcast %"std::ops::ControlFlow<std::result::Result<std::convert::Infallible, anchor_lang::error::Error>, Exchange>"* %_36 to %"std::ops::ControlFlow<std::result::Result<std::convert::Infallible, anchor_lang::error::Error>, Exchange>::Break"*, !dbg !1456
  %45 = getelementptr inbounds %"std::ops::ControlFlow<std::result::Result<std::convert::Infallible, anchor_lang::error::Error>, Exchange>::Break", %"std::ops::ControlFlow<std::result::Result<std::convert::Infallible, anchor_lang::error::Error>, Exchange>::Break"* %44, i32 0, i32 1, !dbg !1456
  %46 = bitcast %"std::result::Result<std::convert::Infallible, anchor_lang::error::Error>::Err"* %residual1 to i8*, !dbg !1456
  %47 = bitcast %"std::result::Result<std::convert::Infallible, anchor_lang::error::Error>::Err"* %45 to i8*, !dbg !1456
  call void @llvm.memcpy.p0i8.p0i8.i64(i8* align 8 %46, i8* align 8 %47, i64 112, i1 false), !dbg !1456
  %48 = bitcast %"std::result::Result<std::convert::Infallible, anchor_lang::error::Error>::Err"* %_42 to i8*, !dbg !1433
  %49 = bitcast %"std::result::Result<std::convert::Infallible, anchor_lang::error::Error>::Err"* %residual1 to i8*, !dbg !1433
  call void @llvm.memcpy.p0i8.p0i8.i64(i8* align 8 %48, i8* align 8 %49, i64 112, i1 false), !dbg !1433
; call <core::result::Result<T,F> as core::ops::try_trait::FromResidual<core::result::Result<core::convert::Infallible,E>>>::from_residual
  call void @"_ZN153_$LT$core..result..Result$LT$T$C$F$GT$$u20$as$u20$core..ops..try_trait..FromResidual$LT$core..result..Result$LT$core..convert..Infallible$C$E$GT$$GT$$GT$13from_residual17hea6d58edfc1b0d7fE"(%"std::result::Result<anchor_lang::prelude::Account<Exchange>, anchor_lang::error::Error>"* noalias nocapture sret(%"std::result::Result<anchor_lang::prelude::Account<Exchange>, anchor_lang::error::Error>") dereferenceable(168) %0, %"std::result::Result<std::convert::Infallible, anchor_lang::error::Error>::Err"* noalias nocapture dereferenceable(112) %_42), !dbg !1457
  br label %bb27, !dbg !1457

bb27:                                             ; preds = %bb26
; call core::ptr::drop_in_place<solana_program::account_info::AccountInfo>
  call void @"_ZN4core3ptr62drop_in_place$LT$solana_program..account_info..AccountInfo$GT$17h10233615d59e7eedE"(%"anchor_lang::prelude::AccountInfo"* %_33), !dbg !1458
  br label %bb30, !dbg !1458

bb30:                                             ; preds = %bb27
; call core::ptr::drop_in_place<core::cell::Ref<&mut [u8]>>
  call void @"_ZN4core3ptr68drop_in_place$LT$core..cell..Ref$LT$$RF$mut$u20$$u5b$u8$u5d$$GT$$GT$17h72a59591ad52fd60E"({ i64*, i64* }* %_24), !dbg !1459
  br label %bb31, !dbg !1459

bb31:                                             ; preds = %bb30
  br label %bb32, !dbg !1442

bb28:                                             ; preds = %bb24
  %50 = bitcast %"std::result::Result<anchor_lang::prelude::Account<Exchange>, anchor_lang::error::Error>"* %0 to %"std::result::Result<anchor_lang::prelude::Account<Exchange>, anchor_lang::error::Error>::Ok"*, !dbg !1460
  %51 = getelementptr inbounds %"std::result::Result<anchor_lang::prelude::Account<Exchange>, anchor_lang::error::Error>::Ok", %"std::result::Result<anchor_lang::prelude::Account<Exchange>, anchor_lang::error::Error>::Ok"* %50, i32 0, i32 1, !dbg !1460
  %52 = bitcast %"anchor_lang::prelude::Account<Exchange>"* %51 to i8*, !dbg !1460
  %53 = bitcast %"anchor_lang::prelude::Account<Exchange>"* %_32 to i8*, !dbg !1460
  call void @llvm.memcpy.p0i8.p0i8.i64(i8* align 8 %52, i8* align 8 %53, i64 160, i1 false), !dbg !1460
  %54 = bitcast %"std::result::Result<anchor_lang::prelude::Account<Exchange>, anchor_lang::error::Error>"* %0 to i64*, !dbg !1460
  store i64 0, i64* %54, align 8, !dbg !1460
; call core::ptr::drop_in_place<core::cell::Ref<&mut [u8]>>
  call void @"_ZN4core3ptr68drop_in_place$LT$core..cell..Ref$LT$$RF$mut$u20$$u5b$u8$u5d$$GT$$GT$17h72a59591ad52fd60E"({ i64*, i64* }* %_24), !dbg !1459
  br label %bb29, !dbg !1459

bb29:                                             ; preds = %bb28
  br label %bb32, !dbg !1444
}

; anchor_lang::accounts::account::Account<T>::try_from
; Function Attrs: noinline nounwind
define void @"_ZN11anchor_lang8accounts7account16Account$LT$T$GT$8try_from17h983374695bc40eb9E"(%"std::result::Result<anchor_lang::prelude::Account<anchor_spl::token::TokenAccount>, anchor_lang::error::Error>"* noalias nocapture sret(%"std::result::Result<anchor_lang::prelude::Account<anchor_spl::token::TokenAccount>, anchor_lang::error::Error>") dereferenceable(232) %0, %"anchor_lang::prelude::AccountInfo"* align 8 dereferenceable(48) %info) unnamed_addr #2 !dbg !1461 {
start:
  %val.dbg.spill = alloca { i64*, i64* }, align 8
  %info.dbg.spill = alloca %"anchor_lang::prelude::AccountInfo"*, align 8
  %val = alloca %"anchor_spl::token::TokenAccount", align 8
  %_42 = alloca %"std::result::Result<std::convert::Infallible, anchor_lang::error::Error>::Err", align 8
  %residual1 = alloca %"std::result::Result<std::convert::Infallible, anchor_lang::error::Error>::Err", align 8
  %_37 = alloca %"std::result::Result<anchor_spl::token::TokenAccount, anchor_lang::error::Error>", align 8
  %_36 = alloca %"std::ops::ControlFlow<std::result::Result<std::convert::Infallible, anchor_lang::error::Error>, anchor_spl::token::TokenAccount>", align 8
  %_35 = alloca %"anchor_spl::token::TokenAccount", align 8
  %_33 = alloca %"anchor_lang::prelude::AccountInfo", align 8
  %_32 = alloca %"anchor_lang::prelude::Account<anchor_spl::token::TokenAccount>", align 8
  %_30 = alloca %"std::result::Result<std::convert::Infallible, anchor_lang::prelude::ProgramError>::Err", align 8
  %residual = alloca %"std::result::Result<std::convert::Infallible, anchor_lang::prelude::ProgramError>::Err", align 8
  %_26 = alloca %"std::result::Result<std::cell::Ref<&mut [u8]>, anchor_lang::prelude::ProgramError>", align 8
  %_25 = alloca %"std::ops::ControlFlow<std::result::Result<std::convert::Infallible, anchor_lang::prelude::ProgramError>, std::cell::Ref<&mut [u8]>>", align 8
  %_24 = alloca { i64*, i64* }, align 8
  %data = alloca { [0 x i8]*, i64 }, align 8
  %_19 = alloca i32, align 4
  %_18 = alloca %"anchor_lang::error::Error", align 8
  %_17 = alloca %"anchor_lang::prelude::Pubkey", align 1
  %_16 = alloca %"anchor_lang::prelude::Pubkey"*, align 8
  %_12 = alloca i32, align 4
  %_11 = alloca %"anchor_lang::error::Error", align 8
  %_6 = alloca %"anchor_lang::prelude::Pubkey"*, align 8
  %_2 = alloca i8, align 1
  store %"anchor_lang::prelude::AccountInfo"* %info, %"anchor_lang::prelude::AccountInfo"** %info.dbg.spill, align 8
  call void @llvm.dbg.declare(metadata %"anchor_lang::prelude::AccountInfo"** %info.dbg.spill, metadata !1479, metadata !DIExpression()), !dbg !1490
  call void @llvm.dbg.declare(metadata { [0 x i8]*, i64 }* %data, metadata !1480, metadata !DIExpression()), !dbg !1491
  call void @llvm.dbg.declare(metadata %"std::result::Result<std::convert::Infallible, anchor_lang::prelude::ProgramError>::Err"* %residual, metadata !1482, metadata !DIExpression()), !dbg !1492
  call void @llvm.dbg.declare(metadata %"std::result::Result<std::convert::Infallible, anchor_lang::error::Error>::Err"* %residual1, metadata !1486, metadata !DIExpression()), !dbg !1493
  call void @llvm.dbg.declare(metadata %"anchor_spl::token::TokenAccount"* %val, metadata !1488, metadata !DIExpression()), !dbg !1494
  %_4 = getelementptr inbounds %"anchor_lang::prelude::AccountInfo", %"anchor_lang::prelude::AccountInfo"* %info, i32 0, i32 3, !dbg !1495
  store %"anchor_lang::prelude::Pubkey"* @_ZN14solana_program14system_program2ID17hf50795d7d4bfef3aE, %"anchor_lang::prelude::Pubkey"** %_6, align 8, !dbg !1496
; call core::cmp::impls::<impl core::cmp::PartialEq<&B> for &A>::eq
  %_3 = call zeroext i1 @"_ZN4core3cmp5impls69_$LT$impl$u20$core..cmp..PartialEq$LT$$RF$B$GT$$u20$for$u20$$RF$A$GT$2eq17hdd9f53180d14a21eE"(%"anchor_lang::prelude::Pubkey"** align 8 dereferenceable(8) %_4, %"anchor_lang::prelude::Pubkey"** align 8 dereferenceable(8) %_6), !dbg !1495
  br label %bb4, !dbg !1495

bb4:                                              ; preds = %start
  br i1 %_3, label %bb2, label %bb1, !dbg !1495

bb1:                                              ; preds = %bb4
  store i8 0, i8* %_2, align 1, !dbg !1495
  br label %bb3, !dbg !1495

bb2:                                              ; preds = %bb4
; call solana_program::account_info::AccountInfo::lamports
  %_9 = call i64 @_ZN14solana_program12account_info11AccountInfo8lamports17h484abddebb35fde4E(%"anchor_lang::prelude::AccountInfo"* align 8 dereferenceable(48) %info), !dbg !1497
  br label %bb5, !dbg !1497

bb5:                                              ; preds = %bb2
  %_8 = icmp eq i64 %_9, 0, !dbg !1497
  %1 = zext i1 %_8 to i8, !dbg !1495
  store i8 %1, i8* %_2, align 1, !dbg !1495
  br label %bb3, !dbg !1495

bb3:                                              ; preds = %bb1, %bb5
  %2 = load i8, i8* %_2, align 1, !dbg !1495, !range !1376
  %3 = trunc i8 %2 to i1, !dbg !1495
  br i1 %3, label %bb6, label %bb8, !dbg !1495

bb8:                                              ; preds = %bb3
  %_14 = getelementptr inbounds %"anchor_lang::prelude::AccountInfo", %"anchor_lang::prelude::AccountInfo"* %info, i32 0, i32 3, !dbg !1498
; call <anchor_spl::token::TokenAccount as anchor_lang::Owner>::owner
  call void @"_ZN70_$LT$anchor_spl..token..TokenAccount$u20$as$u20$anchor_lang..Owner$GT$5owner17h728e0a2862a017b7E"(%"anchor_lang::prelude::Pubkey"* noalias nocapture sret(%"anchor_lang::prelude::Pubkey") dereferenceable(32) %_17), !dbg !1499
  br label %bb9, !dbg !1499

bb6:                                              ; preds = %bb3
  store i32 3012, i32* %_12, align 4, !dbg !1500
  %4 = load i32, i32* %_12, align 4, !dbg !1500, !range !1380
; call <T as core::convert::Into<U>>::into
  call void @"_ZN50_$LT$T$u20$as$u20$core..convert..Into$LT$U$GT$$GT$4into17h72a8f8ceb626b4b4E"(%"anchor_lang::error::Error"* noalias nocapture sret(%"anchor_lang::error::Error") dereferenceable(112) %_11, i32 %4), !dbg !1500
  br label %bb7, !dbg !1500

bb7:                                              ; preds = %bb6
  %5 = bitcast %"std::result::Result<anchor_lang::prelude::Account<anchor_spl::token::TokenAccount>, anchor_lang::error::Error>"* %0 to %"std::result::Result<anchor_lang::prelude::Account<anchor_spl::token::TokenAccount>, anchor_lang::error::Error>::Err"*, !dbg !1501
  %6 = getelementptr inbounds %"std::result::Result<anchor_lang::prelude::Account<anchor_spl::token::TokenAccount>, anchor_lang::error::Error>::Err", %"std::result::Result<anchor_lang::prelude::Account<anchor_spl::token::TokenAccount>, anchor_lang::error::Error>::Err"* %5, i32 0, i32 1, !dbg !1501
  %7 = bitcast %"anchor_lang::error::Error"* %6 to i8*, !dbg !1501
  %8 = bitcast %"anchor_lang::error::Error"* %_11 to i8*, !dbg !1501
  call void @llvm.memcpy.p0i8.p0i8.i64(i8* align 8 %7, i8* align 8 %8, i64 112, i1 false), !dbg !1501
  %9 = bitcast %"std::result::Result<anchor_lang::prelude::Account<anchor_spl::token::TokenAccount>, anchor_lang::error::Error>"* %0 to i64*, !dbg !1501
  store i64 1, i64* %9, align 8, !dbg !1501
  br label %bb32, !dbg !1502

bb32:                                             ; preds = %bb29, %bb31, %bb19, %bb12, %bb7
  ret void, !dbg !1504

bb9:                                              ; preds = %bb8
  store %"anchor_lang::prelude::Pubkey"* %_17, %"anchor_lang::prelude::Pubkey"** %_16, align 8, !dbg !1505
; call core::cmp::impls::<impl core::cmp::PartialEq<&B> for &A>::ne
  %_13 = call zeroext i1 @"_ZN4core3cmp5impls69_$LT$impl$u20$core..cmp..PartialEq$LT$$RF$B$GT$$u20$for$u20$$RF$A$GT$2ne17h3536063d3aa1af69E"(%"anchor_lang::prelude::Pubkey"** align 8 dereferenceable(8) %_14, %"anchor_lang::prelude::Pubkey"** align 8 dereferenceable(8) %_16), !dbg !1498
  br label %bb10, !dbg !1498

bb10:                                             ; preds = %bb9
  br i1 %_13, label %bb11, label %bb13, !dbg !1498

bb13:                                             ; preds = %bb10
; call solana_program::account_info::AccountInfo::try_borrow_data
  call void @_ZN14solana_program12account_info11AccountInfo15try_borrow_data17hda244f29ae7b540dE(%"std::result::Result<std::cell::Ref<&mut [u8]>, anchor_lang::prelude::ProgramError>"* noalias nocapture sret(%"std::result::Result<std::cell::Ref<&mut [u8]>, anchor_lang::prelude::ProgramError>") dereferenceable(40) %_26, %"anchor_lang::prelude::AccountInfo"* align 8 dereferenceable(48) %info), !dbg !1506
  br label %bb14, !dbg !1506

bb11:                                             ; preds = %bb10
  store i32 3007, i32* %_19, align 4, !dbg !1507
  %10 = load i32, i32* %_19, align 4, !dbg !1507, !range !1380
; call <T as core::convert::Into<U>>::into
  call void @"_ZN50_$LT$T$u20$as$u20$core..convert..Into$LT$U$GT$$GT$4into17h72a8f8ceb626b4b4E"(%"anchor_lang::error::Error"* noalias nocapture sret(%"anchor_lang::error::Error") dereferenceable(112) %_18, i32 %10), !dbg !1507
  br label %bb12, !dbg !1507

bb12:                                             ; preds = %bb11
  %11 = bitcast %"std::result::Result<anchor_lang::prelude::Account<anchor_spl::token::TokenAccount>, anchor_lang::error::Error>"* %0 to %"std::result::Result<anchor_lang::prelude::Account<anchor_spl::token::TokenAccount>, anchor_lang::error::Error>::Err"*, !dbg !1508
  %12 = getelementptr inbounds %"std::result::Result<anchor_lang::prelude::Account<anchor_spl::token::TokenAccount>, anchor_lang::error::Error>::Err", %"std::result::Result<anchor_lang::prelude::Account<anchor_spl::token::TokenAccount>, anchor_lang::error::Error>::Err"* %11, i32 0, i32 1, !dbg !1508
  %13 = bitcast %"anchor_lang::error::Error"* %12 to i8*, !dbg !1508
  %14 = bitcast %"anchor_lang::error::Error"* %_18 to i8*, !dbg !1508
  call void @llvm.memcpy.p0i8.p0i8.i64(i8* align 8 %13, i8* align 8 %14, i64 112, i1 false), !dbg !1508
  %15 = bitcast %"std::result::Result<anchor_lang::prelude::Account<anchor_spl::token::TokenAccount>, anchor_lang::error::Error>"* %0 to i64*, !dbg !1508
  store i64 1, i64* %15, align 8, !dbg !1508
  br label %bb32, !dbg !1502

bb14:                                             ; preds = %bb13
; call <core::result::Result<T,E> as core::ops::try_trait::Try>::branch
  call void @"_ZN79_$LT$core..result..Result$LT$T$C$E$GT$$u20$as$u20$core..ops..try_trait..Try$GT$6branch17hfa16d484a5f61f03E"(%"std::ops::ControlFlow<std::result::Result<std::convert::Infallible, anchor_lang::prelude::ProgramError>, std::cell::Ref<&mut [u8]>>"* noalias nocapture sret(%"std::ops::ControlFlow<std::result::Result<std::convert::Infallible, anchor_lang::prelude::ProgramError>, std::cell::Ref<&mut [u8]>>") dereferenceable(40) %_25, %"std::result::Result<std::cell::Ref<&mut [u8]>, anchor_lang::prelude::ProgramError>"* noalias nocapture dereferenceable(40) %_26), !dbg !1506
  br label %bb15, !dbg !1506

bb15:                                             ; preds = %bb14
  %16 = bitcast %"std::ops::ControlFlow<std::result::Result<std::convert::Infallible, anchor_lang::prelude::ProgramError>, std::cell::Ref<&mut [u8]>>"* %_25 to i64*, !dbg !1506
  %_28 = load i64, i64* %16, align 8, !dbg !1506, !range !320
  switch i64 %_28, label %bb17 [
    i64 0, label %bb16
    i64 1, label %bb18
  ], !dbg !1506

bb17:                                             ; preds = %bb15
  unreachable, !dbg !1506

bb16:                                             ; preds = %bb15
  %17 = bitcast %"std::ops::ControlFlow<std::result::Result<std::convert::Infallible, anchor_lang::prelude::ProgramError>, std::cell::Ref<&mut [u8]>>"* %_25 to %"std::ops::ControlFlow<std::result::Result<std::convert::Infallible, anchor_lang::prelude::ProgramError>, std::cell::Ref<&mut [u8]>>::Continue"*, !dbg !1506
  %18 = getelementptr inbounds %"std::ops::ControlFlow<std::result::Result<std::convert::Infallible, anchor_lang::prelude::ProgramError>, std::cell::Ref<&mut [u8]>>::Continue", %"std::ops::ControlFlow<std::result::Result<std::convert::Infallible, anchor_lang::prelude::ProgramError>, std::cell::Ref<&mut [u8]>>::Continue"* %17, i32 0, i32 1, !dbg !1506
  %19 = getelementptr inbounds { i64*, i64* }, { i64*, i64* }* %18, i32 0, i32 0, !dbg !1506
  %val.0 = load i64*, i64** %19, align 8, !dbg !1506, !nonnull !4
  %20 = getelementptr inbounds { i64*, i64* }, { i64*, i64* }* %18, i32 0, i32 1, !dbg !1506
  %val.1 = load i64*, i64** %20, align 8, !dbg !1506, !nonnull !4
  %21 = getelementptr inbounds { i64*, i64* }, { i64*, i64* }* %val.dbg.spill, i32 0, i32 0, !dbg !1506
  store i64* %val.0, i64** %21, align 8, !dbg !1506
  %22 = getelementptr inbounds { i64*, i64* }, { i64*, i64* }* %val.dbg.spill, i32 0, i32 1, !dbg !1506
  store i64* %val.1, i64** %22, align 8, !dbg !1506
  call void @llvm.dbg.declare(metadata { i64*, i64* }* %val.dbg.spill, metadata !1484, metadata !DIExpression()), !dbg !1509
  %23 = getelementptr inbounds { i64*, i64* }, { i64*, i64* }* %_24, i32 0, i32 0, !dbg !1509
  store i64* %val.0, i64** %23, align 8, !dbg !1509
  %24 = getelementptr inbounds { i64*, i64* }, { i64*, i64* }* %_24, i32 0, i32 1, !dbg !1509
  store i64* %val.1, i64** %24, align 8, !dbg !1509
; call <core::cell::Ref<T> as core::ops::deref::Deref>::deref
  %_21 = call align 8 dereferenceable(16) { [0 x i8]*, i64 }* @"_ZN68_$LT$core..cell..Ref$LT$T$GT$$u20$as$u20$core..ops..deref..Deref$GT$5deref17h99fef659c59935c4E"({ i64*, i64* }* align 8 dereferenceable(16) %_24), !dbg !1510
  br label %bb20, !dbg !1510

bb18:                                             ; preds = %bb15
  %25 = bitcast %"std::ops::ControlFlow<std::result::Result<std::convert::Infallible, anchor_lang::prelude::ProgramError>, std::cell::Ref<&mut [u8]>>"* %_25 to %"std::ops::ControlFlow<std::result::Result<std::convert::Infallible, anchor_lang::prelude::ProgramError>, std::cell::Ref<&mut [u8]>>::Break"*, !dbg !1511
  %26 = getelementptr inbounds %"std::ops::ControlFlow<std::result::Result<std::convert::Infallible, anchor_lang::prelude::ProgramError>, std::cell::Ref<&mut [u8]>>::Break", %"std::ops::ControlFlow<std::result::Result<std::convert::Infallible, anchor_lang::prelude::ProgramError>, std::cell::Ref<&mut [u8]>>::Break"* %25, i32 0, i32 1, !dbg !1511
  %27 = bitcast %"std::result::Result<std::convert::Infallible, anchor_lang::prelude::ProgramError>::Err"* %residual to i8*, !dbg !1511
  %28 = bitcast %"std::result::Result<std::convert::Infallible, anchor_lang::prelude::ProgramError>::Err"* %26 to i8*, !dbg !1511
  call void @llvm.memcpy.p0i8.p0i8.i64(i8* align 8 %27, i8* align 8 %28, i64 32, i1 false), !dbg !1511
  %29 = bitcast %"std::result::Result<std::convert::Infallible, anchor_lang::prelude::ProgramError>::Err"* %_30 to i8*, !dbg !1492
  %30 = bitcast %"std::result::Result<std::convert::Infallible, anchor_lang::prelude::ProgramError>::Err"* %residual to i8*, !dbg !1492
  call void @llvm.memcpy.p0i8.p0i8.i64(i8* align 8 %29, i8* align 8 %30, i64 32, i1 false), !dbg !1492
; call <core::result::Result<T,F> as core::ops::try_trait::FromResidual<core::result::Result<core::convert::Infallible,E>>>::from_residual
  call void @"_ZN153_$LT$core..result..Result$LT$T$C$F$GT$$u20$as$u20$core..ops..try_trait..FromResidual$LT$core..result..Result$LT$core..convert..Infallible$C$E$GT$$GT$$GT$13from_residual17h3ab206dff09eb6a9E"(%"std::result::Result<anchor_lang::prelude::Account<anchor_spl::token::TokenAccount>, anchor_lang::error::Error>"* noalias nocapture sret(%"std::result::Result<anchor_lang::prelude::Account<anchor_spl::token::TokenAccount>, anchor_lang::error::Error>") dereferenceable(232) %0, %"std::result::Result<std::convert::Infallible, anchor_lang::prelude::ProgramError>::Err"* noalias nocapture dereferenceable(32) %_30), !dbg !1512
  br label %bb19, !dbg !1512

bb19:                                             ; preds = %bb18
  br label %bb32, !dbg !1502

bb20:                                             ; preds = %bb16
  %31 = getelementptr inbounds { [0 x i8]*, i64 }, { [0 x i8]*, i64 }* %_21, i32 0, i32 0, !dbg !1510
  %32 = load [0 x i8]*, [0 x i8]** %31, align 8, !dbg !1510, !nonnull !4
  %33 = getelementptr inbounds { [0 x i8]*, i64 }, { [0 x i8]*, i64 }* %_21, i32 0, i32 1, !dbg !1510
  %34 = load i64, i64* %33, align 8, !dbg !1510
  %35 = getelementptr inbounds { [0 x i8]*, i64 }, { [0 x i8]*, i64 }* %data, i32 0, i32 0, !dbg !1510
  store [0 x i8]* %32, [0 x i8]** %35, align 8, !dbg !1510
  %36 = getelementptr inbounds { [0 x i8]*, i64 }, { [0 x i8]*, i64 }* %data, i32 0, i32 1, !dbg !1510
  store i64 %34, i64* %36, align 8, !dbg !1510
; call <solana_program::account_info::AccountInfo as core::clone::Clone>::clone
  call void @"_ZN80_$LT$solana_program..account_info..AccountInfo$u20$as$u20$core..clone..Clone$GT$5clone17hd5b45e5ab8b13e4fE"(%"anchor_lang::prelude::AccountInfo"* noalias nocapture sret(%"anchor_lang::prelude::AccountInfo") dereferenceable(48) %_33, %"anchor_lang::prelude::AccountInfo"* align 8 dereferenceable(48) %info), !dbg !1513
  br label %bb21, !dbg !1513

bb21:                                             ; preds = %bb20
; call anchor_lang::AccountDeserialize::try_deserialize
  call void @_ZN11anchor_lang18AccountDeserialize15try_deserialize17h9a8463b663cd7775E(%"std::result::Result<anchor_spl::token::TokenAccount, anchor_lang::error::Error>"* noalias nocapture sret(%"std::result::Result<anchor_spl::token::TokenAccount, anchor_lang::error::Error>") dereferenceable(184) %_37, { [0 x i8]*, i64 }* align 8 dereferenceable(16) %data), !dbg !1514
  br label %bb22, !dbg !1514

bb22:                                             ; preds = %bb21
; call <core::result::Result<T,E> as core::ops::try_trait::Try>::branch
  call void @"_ZN79_$LT$core..result..Result$LT$T$C$E$GT$$u20$as$u20$core..ops..try_trait..Try$GT$6branch17hec4966b2ea76e627E"(%"std::ops::ControlFlow<std::result::Result<std::convert::Infallible, anchor_lang::error::Error>, anchor_spl::token::TokenAccount>"* noalias nocapture sret(%"std::ops::ControlFlow<std::result::Result<std::convert::Infallible, anchor_lang::error::Error>, anchor_spl::token::TokenAccount>") dereferenceable(184) %_36, %"std::result::Result<anchor_spl::token::TokenAccount, anchor_lang::error::Error>"* noalias nocapture dereferenceable(184) %_37), !dbg !1514
  br label %bb23, !dbg !1514

bb23:                                             ; preds = %bb22
  %37 = bitcast %"std::ops::ControlFlow<std::result::Result<std::convert::Infallible, anchor_lang::error::Error>, anchor_spl::token::TokenAccount>"* %_36 to i64*, !dbg !1514
  %_40 = load i64, i64* %37, align 8, !dbg !1514, !range !320
  switch i64 %_40, label %bb25 [
    i64 0, label %bb24
    i64 1, label %bb26
  ], !dbg !1514

bb25:                                             ; preds = %bb23
  unreachable, !dbg !1514

bb24:                                             ; preds = %bb23
  %38 = bitcast %"std::ops::ControlFlow<std::result::Result<std::convert::Infallible, anchor_lang::error::Error>, anchor_spl::token::TokenAccount>"* %_36 to %"std::ops::ControlFlow<std::result::Result<std::convert::Infallible, anchor_lang::error::Error>, anchor_spl::token::TokenAccount>::Continue"*, !dbg !1514
  %39 = getelementptr inbounds %"std::ops::ControlFlow<std::result::Result<std::convert::Infallible, anchor_lang::error::Error>, anchor_spl::token::TokenAccount>::Continue", %"std::ops::ControlFlow<std::result::Result<std::convert::Infallible, anchor_lang::error::Error>, anchor_spl::token::TokenAccount>::Continue"* %38, i32 0, i32 1, !dbg !1514
  %40 = bitcast %"anchor_spl::token::TokenAccount"* %val to i8*, !dbg !1514
  %41 = bitcast %"anchor_spl::token::TokenAccount"* %39 to i8*, !dbg !1514
  call void @llvm.memcpy.p0i8.p0i8.i64(i8* align 8 %40, i8* align 8 %41, i64 176, i1 false), !dbg !1514
  %42 = bitcast %"anchor_spl::token::TokenAccount"* %_35 to i8*, !dbg !1494
  %43 = bitcast %"anchor_spl::token::TokenAccount"* %val to i8*, !dbg !1494
  call void @llvm.memcpy.p0i8.p0i8.i64(i8* align 8 %42, i8* align 8 %43, i64 176, i1 false), !dbg !1494
; call anchor_lang::accounts::account::Account<T>::new
  call void @"_ZN11anchor_lang8accounts7account16Account$LT$T$GT$3new17h8d232ce58964dab6E"(%"anchor_lang::prelude::Account<anchor_spl::token::TokenAccount>"* noalias nocapture sret(%"anchor_lang::prelude::Account<anchor_spl::token::TokenAccount>") dereferenceable(224) %_32, %"anchor_lang::prelude::AccountInfo"* noalias nocapture dereferenceable(48) %_33, %"anchor_spl::token::TokenAccount"* noalias nocapture dereferenceable(176) %_35), !dbg !1515
  br label %bb28, !dbg !1515

bb26:                                             ; preds = %bb23
  %44 = bitcast %"std::ops::ControlFlow<std::result::Result<std::convert::Infallible, anchor_lang::error::Error>, anchor_spl::token::TokenAccount>"* %_36 to %"std::ops::ControlFlow<std::result::Result<std::convert::Infallible, anchor_lang::error::Error>, anchor_spl::token::TokenAccount>::Break"*, !dbg !1516
  %45 = getelementptr inbounds %"std::ops::ControlFlow<std::result::Result<std::convert::Infallible, anchor_lang::error::Error>, anchor_spl::token::TokenAccount>::Break", %"std::ops::ControlFlow<std::result::Result<std::convert::Infallible, anchor_lang::error::Error>, anchor_spl::token::TokenAccount>::Break"* %44, i32 0, i32 1, !dbg !1516
  %46 = bitcast %"std::result::Result<std::convert::Infallible, anchor_lang::error::Error>::Err"* %residual1 to i8*, !dbg !1516
  %47 = bitcast %"std::result::Result<std::convert::Infallible, anchor_lang::error::Error>::Err"* %45 to i8*, !dbg !1516
  call void @llvm.memcpy.p0i8.p0i8.i64(i8* align 8 %46, i8* align 8 %47, i64 112, i1 false), !dbg !1516
  %48 = bitcast %"std::result::Result<std::convert::Infallible, anchor_lang::error::Error>::Err"* %_42 to i8*, !dbg !1493
  %49 = bitcast %"std::result::Result<std::convert::Infallible, anchor_lang::error::Error>::Err"* %residual1 to i8*, !dbg !1493
  call void @llvm.memcpy.p0i8.p0i8.i64(i8* align 8 %48, i8* align 8 %49, i64 112, i1 false), !dbg !1493
; call <core::result::Result<T,F> as core::ops::try_trait::FromResidual<core::result::Result<core::convert::Infallible,E>>>::from_residual
  call void @"_ZN153_$LT$core..result..Result$LT$T$C$F$GT$$u20$as$u20$core..ops..try_trait..FromResidual$LT$core..result..Result$LT$core..convert..Infallible$C$E$GT$$GT$$GT$13from_residual17h0ab9a72fcc0095d2E"(%"std::result::Result<anchor_lang::prelude::Account<anchor_spl::token::TokenAccount>, anchor_lang::error::Error>"* noalias nocapture sret(%"std::result::Result<anchor_lang::prelude::Account<anchor_spl::token::TokenAccount>, anchor_lang::error::Error>") dereferenceable(232) %0, %"std::result::Result<std::convert::Infallible, anchor_lang::error::Error>::Err"* noalias nocapture dereferenceable(112) %_42), !dbg !1517
  br label %bb27, !dbg !1517

bb27:                                             ; preds = %bb26
; call core::ptr::drop_in_place<solana_program::account_info::AccountInfo>
  call void @"_ZN4core3ptr62drop_in_place$LT$solana_program..account_info..AccountInfo$GT$17h10233615d59e7eedE"(%"anchor_lang::prelude::AccountInfo"* %_33), !dbg !1518
  br label %bb30, !dbg !1518

bb30:                                             ; preds = %bb27
; call core::ptr::drop_in_place<core::cell::Ref<&mut [u8]>>
  call void @"_ZN4core3ptr68drop_in_place$LT$core..cell..Ref$LT$$RF$mut$u20$$u5b$u8$u5d$$GT$$GT$17h72a59591ad52fd60E"({ i64*, i64* }* %_24), !dbg !1519
  br label %bb31, !dbg !1519

bb31:                                             ; preds = %bb30
  br label %bb32, !dbg !1502

bb28:                                             ; preds = %bb24
  %50 = bitcast %"std::result::Result<anchor_lang::prelude::Account<anchor_spl::token::TokenAccount>, anchor_lang::error::Error>"* %0 to %"std::result::Result<anchor_lang::prelude::Account<anchor_spl::token::TokenAccount>, anchor_lang::error::Error>::Ok"*, !dbg !1520
  %51 = getelementptr inbounds %"std::result::Result<anchor_lang::prelude::Account<anchor_spl::token::TokenAccount>, anchor_lang::error::Error>::Ok", %"std::result::Result<anchor_lang::prelude::Account<anchor_spl::token::TokenAccount>, anchor_lang::error::Error>::Ok"* %50, i32 0, i32 1, !dbg !1520
  %52 = bitcast %"anchor_lang::prelude::Account<anchor_spl::token::TokenAccount>"* %51 to i8*, !dbg !1520
  %53 = bitcast %"anchor_lang::prelude::Account<anchor_spl::token::TokenAccount>"* %_32 to i8*, !dbg !1520
  call void @llvm.memcpy.p0i8.p0i8.i64(i8* align 8 %52, i8* align 8 %53, i64 224, i1 false), !dbg !1520
  %54 = bitcast %"std::result::Result<anchor_lang::prelude::Account<anchor_spl::token::TokenAccount>, anchor_lang::error::Error>"* %0 to i64*, !dbg !1520
  store i64 0, i64* %54, align 8, !dbg !1520
; call core::ptr::drop_in_place<core::cell::Ref<&mut [u8]>>
  call void @"_ZN4core3ptr68drop_in_place$LT$core..cell..Ref$LT$$RF$mut$u20$$u5b$u8$u5d$$GT$$GT$17h72a59591ad52fd60E"({ i64*, i64* }* %_24), !dbg !1519
  br label %bb29, !dbg !1519

bb29:                                             ; preds = %bb28
  br label %bb32, !dbg !1504
}

; anchor_lang::accounts::program::Program<T>::new
; Function Attrs: nounwind
define void @"_ZN11anchor_lang8accounts7program16Program$LT$T$GT$3new17hddb1ed49ae37b204E"(%"anchor_lang::prelude::Program<anchor_spl::token::Token>"* noalias nocapture sret(%"anchor_lang::prelude::Program<anchor_spl::token::Token>") dereferenceable(88) %0, %"anchor_lang::prelude::AccountInfo"* noalias nocapture dereferenceable(48) %info, %"std::option::Option<anchor_lang::prelude::Pubkey>"* noalias nocapture dereferenceable(33) %programdata_address) unnamed_addr #1 !dbg !1521 {
start:
  %_4 = alloca %"std::option::Option<anchor_lang::prelude::Pubkey>", align 1
  %_3 = alloca %"anchor_lang::prelude::AccountInfo", align 8
  call void @llvm.dbg.declare(metadata %"anchor_lang::prelude::AccountInfo"* %info, metadata !1526, metadata !DIExpression()), !dbg !1528
  call void @llvm.dbg.declare(metadata %"std::option::Option<anchor_lang::prelude::Pubkey>"* %programdata_address, metadata !1527, metadata !DIExpression()), !dbg !1529
  %1 = bitcast %"anchor_lang::prelude::AccountInfo"* %_3 to i8*, !dbg !1530
  %2 = bitcast %"anchor_lang::prelude::AccountInfo"* %info to i8*, !dbg !1530
  call void @llvm.memcpy.p0i8.p0i8.i64(i8* align 8 %1, i8* align 8 %2, i64 48, i1 false), !dbg !1530
  %3 = bitcast %"std::option::Option<anchor_lang::prelude::Pubkey>"* %_4 to i8*, !dbg !1531
  %4 = bitcast %"std::option::Option<anchor_lang::prelude::Pubkey>"* %programdata_address to i8*, !dbg !1531
  call void @llvm.memcpy.p0i8.p0i8.i64(i8* align 1 %3, i8* align 1 %4, i64 33, i1 false), !dbg !1531
  %5 = bitcast %"anchor_lang::prelude::Program<anchor_spl::token::Token>"* %0 to %"anchor_lang::prelude::AccountInfo"*, !dbg !1532
  %6 = bitcast %"anchor_lang::prelude::AccountInfo"* %5 to i8*, !dbg !1532
  %7 = bitcast %"anchor_lang::prelude::AccountInfo"* %_3 to i8*, !dbg !1532
  call void @llvm.memcpy.p0i8.p0i8.i64(i8* align 8 %6, i8* align 8 %7, i64 48, i1 false), !dbg !1532
  %8 = getelementptr inbounds %"anchor_lang::prelude::Program<anchor_spl::token::Token>", %"anchor_lang::prelude::Program<anchor_spl::token::Token>"* %0, i32 0, i32 2, !dbg !1532
  %9 = bitcast %"std::option::Option<anchor_lang::prelude::Pubkey>"* %8 to i8*, !dbg !1532
  %10 = bitcast %"std::option::Option<anchor_lang::prelude::Pubkey>"* %_4 to i8*, !dbg !1532
  call void @llvm.memcpy.p0i8.p0i8.i64(i8* align 8 %9, i8* align 1 %10, i64 33, i1 false), !dbg !1532
  ret void, !dbg !1533
}

; anchor_lang::accounts::program::Program<T>::new
; Function Attrs: nounwind
define void @"_ZN11anchor_lang8accounts7program16Program$LT$T$GT$3new17hf0a20561d3d2a9c6E"(%"anchor_lang::prelude::Program<anchor_lang::System>"* noalias nocapture sret(%"anchor_lang::prelude::Program<anchor_lang::System>") dereferenceable(88) %0, %"anchor_lang::prelude::AccountInfo"* noalias nocapture dereferenceable(48) %info, %"std::option::Option<anchor_lang::prelude::Pubkey>"* noalias nocapture dereferenceable(33) %programdata_address) unnamed_addr #1 !dbg !1534 {
start:
  %_4 = alloca %"std::option::Option<anchor_lang::prelude::Pubkey>", align 1
  %_3 = alloca %"anchor_lang::prelude::AccountInfo", align 8
  call void @llvm.dbg.declare(metadata %"anchor_lang::prelude::AccountInfo"* %info, metadata !1538, metadata !DIExpression()), !dbg !1540
  call void @llvm.dbg.declare(metadata %"std::option::Option<anchor_lang::prelude::Pubkey>"* %programdata_address, metadata !1539, metadata !DIExpression()), !dbg !1541
  %1 = bitcast %"anchor_lang::prelude::AccountInfo"* %_3 to i8*, !dbg !1542
  %2 = bitcast %"anchor_lang::prelude::AccountInfo"* %info to i8*, !dbg !1542
  call void @llvm.memcpy.p0i8.p0i8.i64(i8* align 8 %1, i8* align 8 %2, i64 48, i1 false), !dbg !1542
  %3 = bitcast %"std::option::Option<anchor_lang::prelude::Pubkey>"* %_4 to i8*, !dbg !1543
  %4 = bitcast %"std::option::Option<anchor_lang::prelude::Pubkey>"* %programdata_address to i8*, !dbg !1543
  call void @llvm.memcpy.p0i8.p0i8.i64(i8* align 1 %3, i8* align 1 %4, i64 33, i1 false), !dbg !1543
  %5 = bitcast %"anchor_lang::prelude::Program<anchor_lang::System>"* %0 to %"anchor_lang::prelude::AccountInfo"*, !dbg !1544
  %6 = bitcast %"anchor_lang::prelude::AccountInfo"* %5 to i8*, !dbg !1544
  %7 = bitcast %"anchor_lang::prelude::AccountInfo"* %_3 to i8*, !dbg !1544
  call void @llvm.memcpy.p0i8.p0i8.i64(i8* align 8 %6, i8* align 8 %7, i64 48, i1 false), !dbg !1544
  %8 = getelementptr inbounds %"anchor_lang::prelude::Program<anchor_lang::System>", %"anchor_lang::prelude::Program<anchor_lang::System>"* %0, i32 0, i32 2, !dbg !1544
  %9 = bitcast %"std::option::Option<anchor_lang::prelude::Pubkey>"* %8 to i8*, !dbg !1544
  %10 = bitcast %"std::option::Option<anchor_lang::prelude::Pubkey>"* %_4 to i8*, !dbg !1544
  call void @llvm.memcpy.p0i8.p0i8.i64(i8* align 8 %9, i8* align 1 %10, i64 33, i1 false), !dbg !1544
  ret void, !dbg !1545
}

; anchor_lang::accounts::program::Program<T>::try_from
; Function Attrs: noinline nounwind
define void @"_ZN11anchor_lang8accounts7program16Program$LT$T$GT$8try_from17h0cf1dffaed2d3d77E"(%"std::result::Result<anchor_lang::prelude::Program<anchor_spl::token::Token>, anchor_lang::error::Error>"* noalias nocapture sret(%"std::result::Result<anchor_lang::prelude::Program<anchor_spl::token::Token>, anchor_lang::error::Error>") dereferenceable(120) %0, %"anchor_lang::prelude::AccountInfo"* align 8 dereferenceable(48) %info) unnamed_addr #2 !dbg !1546 {
start:
  %val.dbg.spill = alloca { i64*, i64* }, align 8
  %info.dbg.spill = alloca %"anchor_lang::prelude::AccountInfo"*, align 8
  %_45 = alloca %"std::option::Option<anchor_lang::prelude::Pubkey>", align 1
  %_43 = alloca %"anchor_lang::prelude::AccountInfo", align 8
  %_42 = alloca %"anchor_lang::prelude::Program<anchor_spl::token::Token>", align 8
  %_41 = alloca %"anchor_lang::prelude::Pubkey", align 1
  %programdata_address2 = alloca %"anchor_lang::prelude::Pubkey", align 1
  %val = alloca %"anchor_lang::prelude::UpgradeableLoaderState", align 8
  %_37 = alloca %"std::result::Result<std::convert::Infallible, anchor_lang::error::Error>::Err", align 8
  %residual1 = alloca %"std::result::Result<std::convert::Infallible, anchor_lang::error::Error>::Err", align 8
  %_32 = alloca %"std::result::Result<anchor_lang::prelude::UpgradeableLoaderState, anchor_lang::error::Error>", align 8
  %_31 = alloca %"std::ops::ControlFlow<std::result::Result<std::convert::Infallible, anchor_lang::error::Error>, anchor_lang::prelude::UpgradeableLoaderState>", align 8
  %upgradable_loader_state = alloca %"anchor_lang::prelude::UpgradeableLoaderState", align 8
  %_28 = alloca %"std::result::Result<std::convert::Infallible, anchor_lang::prelude::ProgramError>::Err", align 8
  %residual = alloca %"std::result::Result<std::convert::Infallible, anchor_lang::prelude::ProgramError>::Err", align 8
  %_24 = alloca %"std::result::Result<std::cell::Ref<&mut [u8]>, anchor_lang::prelude::ProgramError>", align 8
  %_23 = alloca %"std::ops::ControlFlow<std::result::Result<std::convert::Infallible, anchor_lang::prelude::ProgramError>, std::cell::Ref<&mut [u8]>>", align 8
  %_22 = alloca { i64*, i64* }, align 8
  %data = alloca { [0 x i8]*, i64 }, align 8
  %programdata_address = alloca %"std::option::Option<anchor_lang::prelude::Pubkey>", align 1
  %_12 = alloca i32, align 4
  %_11 = alloca %"anchor_lang::error::Error", align 8
  %_8 = alloca i32, align 4
  %_7 = alloca %"anchor_lang::error::Error", align 8
  %_6 = alloca %"anchor_lang::prelude::Pubkey", align 1
  %_5 = alloca %"anchor_lang::prelude::Pubkey"*, align 8
  store %"anchor_lang::prelude::AccountInfo"* %info, %"anchor_lang::prelude::AccountInfo"** %info.dbg.spill, align 8
  call void @llvm.dbg.declare(metadata %"anchor_lang::prelude::AccountInfo"** %info.dbg.spill, metadata !1564, metadata !DIExpression()), !dbg !1602
  call void @llvm.dbg.declare(metadata %"std::option::Option<anchor_lang::prelude::Pubkey>"* %programdata_address, metadata !1565, metadata !DIExpression()), !dbg !1603
  call void @llvm.dbg.declare(metadata { [0 x i8]*, i64 }* %data, metadata !1567, metadata !DIExpression()), !dbg !1604
  call void @llvm.dbg.declare(metadata %"std::result::Result<std::convert::Infallible, anchor_lang::prelude::ProgramError>::Err"* %residual, metadata !1569, metadata !DIExpression()), !dbg !1605
  call void @llvm.dbg.declare(metadata %"anchor_lang::prelude::UpgradeableLoaderState"* %upgradable_loader_state, metadata !1573, metadata !DIExpression()), !dbg !1606
  call void @llvm.dbg.declare(metadata %"std::result::Result<std::convert::Infallible, anchor_lang::error::Error>::Err"* %residual1, metadata !1596, metadata !DIExpression()), !dbg !1607
  call void @llvm.dbg.declare(metadata %"anchor_lang::prelude::UpgradeableLoaderState"* %val, metadata !1598, metadata !DIExpression()), !dbg !1608
  call void @llvm.dbg.declare(metadata %"anchor_lang::prelude::Pubkey"* %programdata_address2, metadata !1600, metadata !DIExpression()), !dbg !1609
  %_3 = bitcast %"anchor_lang::prelude::AccountInfo"* %info to %"anchor_lang::prelude::Pubkey"**, !dbg !1610
; call <anchor_spl::token::Token as anchor_lang::Id>::id
  call void @"_ZN60_$LT$anchor_spl..token..Token$u20$as$u20$anchor_lang..Id$GT$2id17hac559913834dceb9E"(%"anchor_lang::prelude::Pubkey"* noalias nocapture sret(%"anchor_lang::prelude::Pubkey") dereferenceable(32) %_6), !dbg !1611
  br label %bb1, !dbg !1611

bb1:                                              ; preds = %start
  store %"anchor_lang::prelude::Pubkey"* %_6, %"anchor_lang::prelude::Pubkey"** %_5, align 8, !dbg !1612
; call core::cmp::impls::<impl core::cmp::PartialEq<&B> for &A>::ne
  %_2 = call zeroext i1 @"_ZN4core3cmp5impls69_$LT$impl$u20$core..cmp..PartialEq$LT$$RF$B$GT$$u20$for$u20$$RF$A$GT$2ne17h3536063d3aa1af69E"(%"anchor_lang::prelude::Pubkey"** align 8 dereferenceable(8) %_3, %"anchor_lang::prelude::Pubkey"** align 8 dereferenceable(8) %_5), !dbg !1610
  br label %bb2, !dbg !1610

bb2:                                              ; preds = %bb1
  br i1 %_2, label %bb3, label %bb5, !dbg !1610

bb5:                                              ; preds = %bb2
  %1 = getelementptr inbounds %"anchor_lang::prelude::AccountInfo", %"anchor_lang::prelude::AccountInfo"* %info, i32 0, i32 7, !dbg !1613
  %2 = load i8, i8* %1, align 2, !dbg !1613, !range !1376
  %_10 = trunc i8 %2 to i1, !dbg !1613
  %_9 = xor i1 %_10, true, !dbg !1614
  br i1 %_9, label %bb6, label %bb7, !dbg !1614

bb3:                                              ; preds = %bb2
  store i32 3008, i32* %_8, align 4, !dbg !1615
  %3 = load i32, i32* %_8, align 4, !dbg !1615, !range !1380
; call <T as core::convert::Into<U>>::into
  call void @"_ZN50_$LT$T$u20$as$u20$core..convert..Into$LT$U$GT$$GT$4into17h72a8f8ceb626b4b4E"(%"anchor_lang::error::Error"* noalias nocapture sret(%"anchor_lang::error::Error") dereferenceable(112) %_7, i32 %3), !dbg !1615
  br label %bb4, !dbg !1615

bb4:                                              ; preds = %bb3
  %4 = bitcast %"std::result::Result<anchor_lang::prelude::Program<anchor_spl::token::Token>, anchor_lang::error::Error>"* %0 to %"std::result::Result<anchor_lang::prelude::Program<anchor_spl::token::Token>, anchor_lang::error::Error>::Err"*, !dbg !1616
  %5 = getelementptr inbounds %"std::result::Result<anchor_lang::prelude::Program<anchor_spl::token::Token>, anchor_lang::error::Error>::Err", %"std::result::Result<anchor_lang::prelude::Program<anchor_spl::token::Token>, anchor_lang::error::Error>::Err"* %4, i32 0, i32 1, !dbg !1616
  %6 = bitcast %"anchor_lang::error::Error"* %5 to i8*, !dbg !1616
  %7 = bitcast %"anchor_lang::error::Error"* %_7 to i8*, !dbg !1616
  call void @llvm.memcpy.p0i8.p0i8.i64(i8* align 8 %6, i8* align 8 %7, i64 112, i1 false), !dbg !1616
  %8 = bitcast %"std::result::Result<anchor_lang::prelude::Program<anchor_spl::token::Token>, anchor_lang::error::Error>"* %0 to i64*, !dbg !1616
  store i64 1, i64* %8, align 8, !dbg !1616
  br label %bb31, !dbg !1617

bb31:                                             ; preds = %bb30, %bb23, %bb16, %bb8, %bb4
  ret void, !dbg !1619

bb7:                                              ; preds = %bb5
  %9 = getelementptr inbounds %"anchor_lang::prelude::AccountInfo", %"anchor_lang::prelude::AccountInfo"* %info, i32 0, i32 3, !dbg !1620
  %_15 = load %"anchor_lang::prelude::Pubkey"*, %"anchor_lang::prelude::Pubkey"** %9, align 8, !dbg !1620, !nonnull !4
; call <solana_program::pubkey::Pubkey as core::cmp::PartialEq>::eq
  %_14 = call zeroext i1 @"_ZN71_$LT$solana_program..pubkey..Pubkey$u20$as$u20$core..cmp..PartialEq$GT$2eq17he38286c0b0d48128E"(%"anchor_lang::prelude::Pubkey"* align 1 dereferenceable(32) %_15, %"anchor_lang::prelude::Pubkey"* align 1 dereferenceable(32) @_ZN14solana_program22bpf_loader_upgradeable2ID17h8c767e29a0f533a6E), !dbg !1620
  br label %bb9, !dbg !1620

bb6:                                              ; preds = %bb5
  store i32 3009, i32* %_12, align 4, !dbg !1621
  %10 = load i32, i32* %_12, align 4, !dbg !1621, !range !1380
; call <T as core::convert::Into<U>>::into
  call void @"_ZN50_$LT$T$u20$as$u20$core..convert..Into$LT$U$GT$$GT$4into17h72a8f8ceb626b4b4E"(%"anchor_lang::error::Error"* noalias nocapture sret(%"anchor_lang::error::Error") dereferenceable(112) %_11, i32 %10), !dbg !1621
  br label %bb8, !dbg !1621

bb8:                                              ; preds = %bb6
  %11 = bitcast %"std::result::Result<anchor_lang::prelude::Program<anchor_spl::token::Token>, anchor_lang::error::Error>"* %0 to %"std::result::Result<anchor_lang::prelude::Program<anchor_spl::token::Token>, anchor_lang::error::Error>::Err"*, !dbg !1622
  %12 = getelementptr inbounds %"std::result::Result<anchor_lang::prelude::Program<anchor_spl::token::Token>, anchor_lang::error::Error>::Err", %"std::result::Result<anchor_lang::prelude::Program<anchor_spl::token::Token>, anchor_lang::error::Error>::Err"* %11, i32 0, i32 1, !dbg !1622
  %13 = bitcast %"anchor_lang::error::Error"* %12 to i8*, !dbg !1622
  %14 = bitcast %"anchor_lang::error::Error"* %_11 to i8*, !dbg !1622
  call void @llvm.memcpy.p0i8.p0i8.i64(i8* align 8 %13, i8* align 8 %14, i64 112, i1 false), !dbg !1622
  %15 = bitcast %"std::result::Result<anchor_lang::prelude::Program<anchor_spl::token::Token>, anchor_lang::error::Error>"* %0 to i64*, !dbg !1622
  store i64 1, i64* %15, align 8, !dbg !1622
  br label %bb31, !dbg !1617

bb9:                                              ; preds = %bb7
  br i1 %_14, label %bb10, label %bb27, !dbg !1620

bb27:                                             ; preds = %bb9
  %16 = bitcast %"std::option::Option<anchor_lang::prelude::Pubkey>"* %programdata_address to i8*, !dbg !1623
  store i8 0, i8* %16, align 1, !dbg !1623
  br label %bb28, !dbg !1624

bb10:                                             ; preds = %bb9
; call solana_program::account_info::AccountInfo::try_borrow_data
  call void @_ZN14solana_program12account_info11AccountInfo15try_borrow_data17hda244f29ae7b540dE(%"std::result::Result<std::cell::Ref<&mut [u8]>, anchor_lang::prelude::ProgramError>"* noalias nocapture sret(%"std::result::Result<std::cell::Ref<&mut [u8]>, anchor_lang::prelude::ProgramError>") dereferenceable(40) %_24, %"anchor_lang::prelude::AccountInfo"* align 8 dereferenceable(48) %info), !dbg !1625
  br label %bb11, !dbg !1625

bb11:                                             ; preds = %bb10
; call <core::result::Result<T,E> as core::ops::try_trait::Try>::branch
  call void @"_ZN79_$LT$core..result..Result$LT$T$C$E$GT$$u20$as$u20$core..ops..try_trait..Try$GT$6branch17hfa16d484a5f61f03E"(%"std::ops::ControlFlow<std::result::Result<std::convert::Infallible, anchor_lang::prelude::ProgramError>, std::cell::Ref<&mut [u8]>>"* noalias nocapture sret(%"std::ops::ControlFlow<std::result::Result<std::convert::Infallible, anchor_lang::prelude::ProgramError>, std::cell::Ref<&mut [u8]>>") dereferenceable(40) %_23, %"std::result::Result<std::cell::Ref<&mut [u8]>, anchor_lang::prelude::ProgramError>"* noalias nocapture dereferenceable(40) %_24), !dbg !1625
  br label %bb12, !dbg !1625

bb12:                                             ; preds = %bb11
  %17 = bitcast %"std::ops::ControlFlow<std::result::Result<std::convert::Infallible, anchor_lang::prelude::ProgramError>, std::cell::Ref<&mut [u8]>>"* %_23 to i64*, !dbg !1625
  %_26 = load i64, i64* %17, align 8, !dbg !1625, !range !320
  switch i64 %_26, label %bb14 [
    i64 0, label %bb13
    i64 1, label %bb15
  ], !dbg !1625

bb14:                                             ; preds = %bb12
  unreachable, !dbg !1625

bb13:                                             ; preds = %bb12
  %18 = bitcast %"std::ops::ControlFlow<std::result::Result<std::convert::Infallible, anchor_lang::prelude::ProgramError>, std::cell::Ref<&mut [u8]>>"* %_23 to %"std::ops::ControlFlow<std::result::Result<std::convert::Infallible, anchor_lang::prelude::ProgramError>, std::cell::Ref<&mut [u8]>>::Continue"*, !dbg !1625
  %19 = getelementptr inbounds %"std::ops::ControlFlow<std::result::Result<std::convert::Infallible, anchor_lang::prelude::ProgramError>, std::cell::Ref<&mut [u8]>>::Continue", %"std::ops::ControlFlow<std::result::Result<std::convert::Infallible, anchor_lang::prelude::ProgramError>, std::cell::Ref<&mut [u8]>>::Continue"* %18, i32 0, i32 1, !dbg !1625
  %20 = getelementptr inbounds { i64*, i64* }, { i64*, i64* }* %19, i32 0, i32 0, !dbg !1625
  %val.0 = load i64*, i64** %20, align 8, !dbg !1625, !nonnull !4
  %21 = getelementptr inbounds { i64*, i64* }, { i64*, i64* }* %19, i32 0, i32 1, !dbg !1625
  %val.1 = load i64*, i64** %21, align 8, !dbg !1625, !nonnull !4
  %22 = getelementptr inbounds { i64*, i64* }, { i64*, i64* }* %val.dbg.spill, i32 0, i32 0, !dbg !1625
  store i64* %val.0, i64** %22, align 8, !dbg !1625
  %23 = getelementptr inbounds { i64*, i64* }, { i64*, i64* }* %val.dbg.spill, i32 0, i32 1, !dbg !1625
  store i64* %val.1, i64** %23, align 8, !dbg !1625
  call void @llvm.dbg.declare(metadata { i64*, i64* }* %val.dbg.spill, metadata !1571, metadata !DIExpression()), !dbg !1626
  %24 = getelementptr inbounds { i64*, i64* }, { i64*, i64* }* %_22, i32 0, i32 0, !dbg !1626
  store i64* %val.0, i64** %24, align 8, !dbg !1626
  %25 = getelementptr inbounds { i64*, i64* }, { i64*, i64* }* %_22, i32 0, i32 1, !dbg !1626
  store i64* %val.1, i64** %25, align 8, !dbg !1626
; call <core::cell::Ref<T> as core::ops::deref::Deref>::deref
  %_19 = call align 8 dereferenceable(16) { [0 x i8]*, i64 }* @"_ZN68_$LT$core..cell..Ref$LT$T$GT$$u20$as$u20$core..ops..deref..Deref$GT$5deref17h99fef659c59935c4E"({ i64*, i64* }* align 8 dereferenceable(16) %_22), !dbg !1627
  br label %bb17, !dbg !1627

bb15:                                             ; preds = %bb12
  %26 = bitcast %"std::ops::ControlFlow<std::result::Result<std::convert::Infallible, anchor_lang::prelude::ProgramError>, std::cell::Ref<&mut [u8]>>"* %_23 to %"std::ops::ControlFlow<std::result::Result<std::convert::Infallible, anchor_lang::prelude::ProgramError>, std::cell::Ref<&mut [u8]>>::Break"*, !dbg !1628
  %27 = getelementptr inbounds %"std::ops::ControlFlow<std::result::Result<std::convert::Infallible, anchor_lang::prelude::ProgramError>, std::cell::Ref<&mut [u8]>>::Break", %"std::ops::ControlFlow<std::result::Result<std::convert::Infallible, anchor_lang::prelude::ProgramError>, std::cell::Ref<&mut [u8]>>::Break"* %26, i32 0, i32 1, !dbg !1628
  %28 = bitcast %"std::result::Result<std::convert::Infallible, anchor_lang::prelude::ProgramError>::Err"* %residual to i8*, !dbg !1628
  %29 = bitcast %"std::result::Result<std::convert::Infallible, anchor_lang::prelude::ProgramError>::Err"* %27 to i8*, !dbg !1628
  call void @llvm.memcpy.p0i8.p0i8.i64(i8* align 8 %28, i8* align 8 %29, i64 32, i1 false), !dbg !1628
  %30 = bitcast %"std::result::Result<std::convert::Infallible, anchor_lang::prelude::ProgramError>::Err"* %_28 to i8*, !dbg !1605
  %31 = bitcast %"std::result::Result<std::convert::Infallible, anchor_lang::prelude::ProgramError>::Err"* %residual to i8*, !dbg !1605
  call void @llvm.memcpy.p0i8.p0i8.i64(i8* align 8 %30, i8* align 8 %31, i64 32, i1 false), !dbg !1605
; call <core::result::Result<T,F> as core::ops::try_trait::FromResidual<core::result::Result<core::convert::Infallible,E>>>::from_residual
  call void @"_ZN153_$LT$core..result..Result$LT$T$C$F$GT$$u20$as$u20$core..ops..try_trait..FromResidual$LT$core..result..Result$LT$core..convert..Infallible$C$E$GT$$GT$$GT$13from_residual17haaf30bc0b53b6773E"(%"std::result::Result<anchor_lang::prelude::Program<anchor_spl::token::Token>, anchor_lang::error::Error>"* noalias nocapture sret(%"std::result::Result<anchor_lang::prelude::Program<anchor_spl::token::Token>, anchor_lang::error::Error>") dereferenceable(120) %0, %"std::result::Result<std::convert::Infallible, anchor_lang::prelude::ProgramError>::Err"* noalias nocapture dereferenceable(32) %_28), !dbg !1629
  br label %bb16, !dbg !1629

bb16:                                             ; preds = %bb15
  br label %bb31, !dbg !1617

bb17:                                             ; preds = %bb13
  %32 = getelementptr inbounds { [0 x i8]*, i64 }, { [0 x i8]*, i64 }* %_19, i32 0, i32 0, !dbg !1627
  %33 = load [0 x i8]*, [0 x i8]** %32, align 8, !dbg !1627, !nonnull !4
  %34 = getelementptr inbounds { [0 x i8]*, i64 }, { [0 x i8]*, i64 }* %_19, i32 0, i32 1, !dbg !1627
  %35 = load i64, i64* %34, align 8, !dbg !1627
  %36 = getelementptr inbounds { [0 x i8]*, i64 }, { [0 x i8]*, i64 }* %data, i32 0, i32 0, !dbg !1627
  store [0 x i8]* %33, [0 x i8]** %36, align 8, !dbg !1627
  %37 = getelementptr inbounds { [0 x i8]*, i64 }, { [0 x i8]*, i64 }* %data, i32 0, i32 1, !dbg !1627
  store i64 %35, i64* %37, align 8, !dbg !1627
; call anchor_lang::bpf_upgradeable_state::<impl anchor_lang::AccountDeserialize for solana_program::bpf_loader_upgradeable::UpgradeableLoaderState>::try_deserialize_unchecked
  call void @"_ZN11anchor_lang21bpf_upgradeable_state124_$LT$impl$u20$anchor_lang..AccountDeserialize$u20$for$u20$solana_program..bpf_loader_upgradeable..UpgradeableLoaderState$GT$25try_deserialize_unchecked17h7d835e82c0832543E"(%"std::result::Result<anchor_lang::prelude::UpgradeableLoaderState, anchor_lang::error::Error>"* noalias nocapture sret(%"std::result::Result<anchor_lang::prelude::UpgradeableLoaderState, anchor_lang::error::Error>") dereferenceable(120) %_32, { [0 x i8]*, i64 }* align 8 dereferenceable(16) %data), !dbg !1630
  br label %bb18, !dbg !1630

bb18:                                             ; preds = %bb17
; call <core::result::Result<T,E> as core::ops::try_trait::Try>::branch
  call void @"_ZN79_$LT$core..result..Result$LT$T$C$E$GT$$u20$as$u20$core..ops..try_trait..Try$GT$6branch17h7648e2f3084052e6E"(%"std::ops::ControlFlow<std::result::Result<std::convert::Infallible, anchor_lang::error::Error>, anchor_lang::prelude::UpgradeableLoaderState>"* noalias nocapture sret(%"std::ops::ControlFlow<std::result::Result<std::convert::Infallible, anchor_lang::error::Error>, anchor_lang::prelude::UpgradeableLoaderState>") dereferenceable(120) %_31, %"std::result::Result<anchor_lang::prelude::UpgradeableLoaderState, anchor_lang::error::Error>"* noalias nocapture dereferenceable(120) %_32), !dbg !1630
  br label %bb19, !dbg !1630

bb19:                                             ; preds = %bb18
  %38 = bitcast %"std::ops::ControlFlow<std::result::Result<std::convert::Infallible, anchor_lang::error::Error>, anchor_lang::prelude::UpgradeableLoaderState>"* %_31 to i64*, !dbg !1630
  %_35 = load i64, i64* %38, align 8, !dbg !1630, !range !320
  switch i64 %_35, label %bb21 [
    i64 0, label %bb20
    i64 1, label %bb22
  ], !dbg !1630

bb21:                                             ; preds = %bb19
  unreachable, !dbg !1630

bb20:                                             ; preds = %bb19
  %39 = bitcast %"std::ops::ControlFlow<std::result::Result<std::convert::Infallible, anchor_lang::error::Error>, anchor_lang::prelude::UpgradeableLoaderState>"* %_31 to %"std::ops::ControlFlow<std::result::Result<std::convert::Infallible, anchor_lang::error::Error>, anchor_lang::prelude::UpgradeableLoaderState>::Continue"*, !dbg !1630
  %40 = getelementptr inbounds %"std::ops::ControlFlow<std::result::Result<std::convert::Infallible, anchor_lang::error::Error>, anchor_lang::prelude::UpgradeableLoaderState>::Continue", %"std::ops::ControlFlow<std::result::Result<std::convert::Infallible, anchor_lang::error::Error>, anchor_lang::prelude::UpgradeableLoaderState>::Continue"* %39, i32 0, i32 1, !dbg !1630
  %41 = bitcast %"anchor_lang::prelude::UpgradeableLoaderState"* %val to i8*, !dbg !1630
  %42 = bitcast %"anchor_lang::prelude::UpgradeableLoaderState"* %40 to i8*, !dbg !1630
  call void @llvm.memcpy.p0i8.p0i8.i64(i8* align 8 %41, i8* align 8 %42, i64 48, i1 false), !dbg !1630
  %43 = bitcast %"anchor_lang::prelude::UpgradeableLoaderState"* %upgradable_loader_state to i8*, !dbg !1608
  %44 = bitcast %"anchor_lang::prelude::UpgradeableLoaderState"* %val to i8*, !dbg !1608
  call void @llvm.memcpy.p0i8.p0i8.i64(i8* align 8 %43, i8* align 8 %44, i64 48, i1 false), !dbg !1608
