; ModuleID = 'solana_frozen_abi.b7720c7d-cgu.0'
source_filename = "solana_frozen_abi.b7720c7d-cgu.0"
target datalayout = "e-m:e-p:64:64-i64:64-n32:64-S128"
target triple = "bpfel"

%"std::sync::atomic::AtomicUsize" = type { i64 }
%"std::string::String" = type { %"std::vec::Vec<u8>" }
%"std::vec::Vec<u8>" = type { { i8*, i64 }, i64 }
%"std::panic::Location" = type { { [0 x i8]*, i64 }, i32, i32 }
%"std::ops::RangeFull" = type {}
%"[closure@std::iter::Iterator::for_each::call<std::string::String, [closure@<std::vec::Vec<std::string::String> as std::vec::spec_extend::SpecExtend<std::string::String, std::iter::Map<std::slice::Iter<&str>, [closure@/home/seaceved/.cargo/registry/src/github.com-1ecc6299db9ec823/solana-frozen-abi-1.9.9/src/abi_digester.rs:141:18: 145:14]>>>::spec_extend::{closure#0}]>::{closure#0}]" = type { %"[closure@<std::vec::Vec<std::string::String> as std::vec::spec_extend::SpecExtend<std::string::String, std::iter::Map<std::slice::Iter<&str>, [closure@/home/seaceved/.cargo/registry/src/github.com-1ecc6299db9ec823/solana-frozen-abi-1.9.9/src/abi_digester.rs:141:18: 145:14]>>>::spec_extend::{closure#0}]" }
%"[closure@<std::vec::Vec<std::string::String> as std::vec::spec_extend::SpecExtend<std::string::String, std::iter::Map<std::slice::Iter<&str>, [closure@/home/seaceved/.cargo/registry/src/github.com-1ecc6299db9ec823/solana-frozen-abi-1.9.9/src/abi_digester.rs:141:18: 145:14]>>>::spec_extend::{closure#0}]" = type { %"std::string::String"*, { i64*, i64 } }
%"[closure@std::iter::adapters::map::map_fold<&&str, std::string::String, (), [closure@/home/seaceved/.cargo/registry/src/github.com-1ecc6299db9ec823/solana-frozen-abi-1.9.9/src/abi_digester.rs:141:18: 145:14], [closure@std::iter::Iterator::for_each::call<std::string::String, [closure@<std::vec::Vec<std::string::String> as std::vec::spec_extend::SpecExtend<std::string::String, std::iter::Map<std::slice::Iter<&str>, [closure@/home/seaceved/.cargo/registry/src/github.com-1ecc6299db9ec823/solana-frozen-abi-1.9.9/src/abi_digester.rs:141:18: 145:14]>>>::spec_extend::{closure#0}]>::{closure#0}]>::{closure#0}]" = type { %"[closure@/home/seaceved/.cargo/registry/src/github.com-1ecc6299db9ec823/solana-frozen-abi-1.9.9/src/abi_digester.rs:141:18: 145:14]", %"[closure@std::iter::Iterator::for_each::call<std::string::String, [closure@<std::vec::Vec<std::string::String> as std::vec::spec_extend::SpecExtend<std::string::String, std::iter::Map<std::slice::Iter<&str>, [closure@/home/seaceved/.cargo/registry/src/github.com-1ecc6299db9ec823/solana-frozen-abi-1.9.9/src/abi_digester.rs:141:18: 145:14]>>>::spec_extend::{closure#0}]>::{closure#0}]" }
%"[closure@/home/seaceved/.cargo/registry/src/github.com-1ecc6299db9ec823/solana-frozen-abi-1.9.9/src/abi_digester.rs:141:18: 145:14]" = type {}
%"[closure@std::str::join_generic_copy<str, u8, std::string::String>::{closure#0}::{closure#0}]" = type {}
%"std::str::CharIndices" = type { i64, { i8*, i8* } }
%"std::str::pattern::SearchStep" = type { i64, [2 x i64] }
%"std::str::pattern::MultiCharEqSearcher<[closure@core::str::<impl str>::trim_end::{closure#0}]>" = type { %"[closure@core::str::<impl str>::trim_end::{closure#0}]", { [0 x i8]*, i64 }, %"std::str::CharIndices" }
%"[closure@core::str::<impl str>::trim_end::{closure#0}]" = type {}
%"std::str::pattern::SearchStep::Reject" = type { [1 x i64], i64, i64 }
%"std::str::pattern::SearchStep::Match" = type { [1 x i64], i64, i64 }
%"std::option::Option<(usize, usize)>" = type { i64, [2 x i64] }
%"std::str::pattern::CharPredicateSearcher<[closure@core::str::<impl str>::trim_end::{closure#0}]>" = type { %"std::str::pattern::MultiCharEqSearcher<[closure@core::str::<impl str>::trim_end::{closure#0}]>" }
%"std::iter::Enumerate<std::slice::IterMut<u8>>" = type { { i8*, i8* }, i64 }
%"[closure@<std::iter::Enumerate<I> as std::iter::Iterator>::fold::enumerate<&mut u8, (), [closure@std::iter::Iterator::for_each::call<(usize, &mut u8), [closure@<sha2::digest::generic_array::GenericArray<u8, sha2::digest::generic_array::typenum::UInt<sha2::digest::generic_array::typenum::UInt<sha2::digest::generic_array::typenum::UInt<sha2::digest::generic_array::typenum::UInt<sha2::digest::generic_array::typenum::UInt<sha2::digest::generic_array::typenum::UInt<sha2::digest::generic_array::typenum::UTerm, sha2::digest::consts::B1>, sha2::digest::consts::B0>, sha2::digest::consts::B0>, sha2::digest::consts::B0>, sha2::digest::consts::B0>, sha2::digest::consts::B0>> as sha2::digest::generic_array::sequence::GenericSequence<u8>>::generate<[closure@sha2::digest::generic_array::impls::<impl std::default::Default for sha2::digest::generic_array::GenericArray<u8, sha2::digest::generic_array::typenum::UInt<sha2::digest::generic_array::typenum::UInt<sha2::digest::generic_array::typenum::UInt<sha2::digest::generic_array::typenum::UInt<sha2::digest::generic_array::typenum::UInt<sha2::digest::generic_array::typenum::UInt<sha2::digest::generic_array::typenum::UTerm, sha2::digest::consts::B1>, sha2::digest::consts::B0>, sha2::digest::consts::B0>, sha2::digest::consts::B0>, sha2::digest::consts::B0>, sha2::digest::consts::B0>>>::default::{closure#0}]>::{closure#0}]>::{closure#0}]>::{closure#0}]" = type { { i8*, i64* }, i64 }
%"sha2::digest::generic_array::GenericArray<u8, sha2::digest::generic_array::typenum::UInt<sha2::digest::generic_array::typenum::UInt<sha2::digest::generic_array::typenum::UInt<sha2::digest::generic_array::typenum::UInt<sha2::digest::generic_array::typenum::UInt<sha2::digest::generic_array::typenum::UInt<sha2::digest::generic_array::typenum::UTerm, sha2::digest::consts::B1>, sha2::digest::consts::B0>, sha2::digest::consts::B0>, sha2::digest::consts::B0>, sha2::digest::consts::B0>, sha2::digest::consts::B0>>" = type { %"sha2::digest::generic_array::GenericArrayImplEven<u8, sha2::digest::generic_array::GenericArrayImplEven<u8, sha2::digest::generic_array::GenericArrayImplEven<u8, sha2::digest::generic_array::GenericArrayImplEven<u8, sha2::digest::generic_array::GenericArrayImplEven<u8, sha2::digest::generic_array::GenericArrayImplOdd<u8, [u8; 0]>>>>>>" }
%"sha2::digest::generic_array::GenericArrayImplEven<u8, sha2::digest::generic_array::GenericArrayImplEven<u8, sha2::digest::generic_array::GenericArrayImplEven<u8, sha2::digest::generic_array::GenericArrayImplEven<u8, sha2::digest::generic_array::GenericArrayImplEven<u8, sha2::digest::generic_array::GenericArrayImplOdd<u8, [u8; 0]>>>>>>" = type { %"sha2::digest::generic_array::GenericArrayImplEven<u8, sha2::digest::generic_array::GenericArrayImplEven<u8, sha2::digest::generic_array::GenericArrayImplEven<u8, sha2::digest::generic_array::GenericArrayImplEven<u8, sha2::digest::generic_array::GenericArrayImplOdd<u8, [u8; 0]>>>>>", %"sha2::digest::generic_array::GenericArrayImplEven<u8, sha2::digest::generic_array::GenericArrayImplEven<u8, sha2::digest::generic_array::GenericArrayImplEven<u8, sha2::digest::generic_array::GenericArrayImplEven<u8, sha2::digest::generic_array::GenericArrayImplOdd<u8, [u8; 0]>>>>>", %"std::marker::PhantomData<u8>" }
%"sha2::digest::generic_array::GenericArrayImplEven<u8, sha2::digest::generic_array::GenericArrayImplEven<u8, sha2::digest::generic_array::GenericArrayImplEven<u8, sha2::digest::generic_array::GenericArrayImplEven<u8, sha2::digest::generic_array::GenericArrayImplOdd<u8, [u8; 0]>>>>>" = type { %"sha2::digest::generic_array::GenericArrayImplEven<u8, sha2::digest::generic_array::GenericArrayImplEven<u8, sha2::digest::generic_array::GenericArrayImplEven<u8, sha2::digest::generic_array::GenericArrayImplOdd<u8, [u8; 0]>>>>", %"sha2::digest::generic_array::GenericArrayImplEven<u8, sha2::digest::generic_array::GenericArrayImplEven<u8, sha2::digest::generic_array::GenericArrayImplEven<u8, sha2::digest::generic_array::GenericArrayImplOdd<u8, [u8; 0]>>>>", %"std::marker::PhantomData<u8>" }
%"sha2::digest::generic_array::GenericArrayImplEven<u8, sha2::digest::generic_array::GenericArrayImplEven<u8, sha2::digest::generic_array::GenericArrayImplEven<u8, sha2::digest::generic_array::GenericArrayImplOdd<u8, [u8; 0]>>>>" = type { %"sha2::digest::generic_array::GenericArrayImplEven<u8, sha2::digest::generic_array::GenericArrayImplEven<u8, sha2::digest::generic_array::GenericArrayImplOdd<u8, [u8; 0]>>>", %"sha2::digest::generic_array::GenericArrayImplEven<u8, sha2::digest::generic_array::GenericArrayImplEven<u8, sha2::digest::generic_array::GenericArrayImplOdd<u8, [u8; 0]>>>", %"std::marker::PhantomData<u8>" }
%"sha2::digest::generic_array::GenericArrayImplEven<u8, sha2::digest::generic_array::GenericArrayImplEven<u8, sha2::digest::generic_array::GenericArrayImplOdd<u8, [u8; 0]>>>" = type { %"sha2::digest::generic_array::GenericArrayImplEven<u8, sha2::digest::generic_array::GenericArrayImplOdd<u8, [u8; 0]>>", %"sha2::digest::generic_array::GenericArrayImplEven<u8, sha2::digest::generic_array::GenericArrayImplOdd<u8, [u8; 0]>>", %"std::marker::PhantomData<u8>" }
%"sha2::digest::generic_array::GenericArrayImplEven<u8, sha2::digest::generic_array::GenericArrayImplOdd<u8, [u8; 0]>>" = type { %"sha2::digest::generic_array::GenericArrayImplOdd<u8, [u8; 0]>", %"sha2::digest::generic_array::GenericArrayImplOdd<u8, [u8; 0]>", %"std::marker::PhantomData<u8>" }
%"sha2::digest::generic_array::GenericArrayImplOdd<u8, [u8; 0]>" = type { [0 x i8], [0 x i8], i8 }
%"std::marker::PhantomData<u8>" = type {}
%"sha2::digest::generic_array::ArrayBuilder<u8, sha2::digest::generic_array::typenum::UInt<sha2::digest::generic_array::typenum::UInt<sha2::digest::generic_array::typenum::UInt<sha2::digest::generic_array::typenum::UInt<sha2::digest::generic_array::typenum::UInt<sha2::digest::generic_array::typenum::UInt<sha2::digest::generic_array::typenum::UTerm, sha2::digest::consts::B1>, sha2::digest::consts::B0>, sha2::digest::consts::B0>, sha2::digest::consts::B0>, sha2::digest::consts::B0>, sha2::digest::consts::B0>>" = type { i64, %"std::mem::MaybeUninit<sha2::digest::generic_array::GenericArray<u8, sha2::digest::generic_array::typenum::UInt<sha2::digest::generic_array::typenum::UInt<sha2::digest::generic_array::typenum::UInt<sha2::digest::generic_array::typenum::UInt<sha2::digest::generic_array::typenum::UInt<sha2::digest::generic_array::typenum::UInt<sha2::digest::generic_array::typenum::UTerm, sha2::digest::consts::B1>, sha2::digest::consts::B0>, sha2::digest::consts::B0>, sha2::digest::consts::B0>, sha2::digest::consts::B0>, sha2::digest::consts::B0>>>" }
%"std::mem::MaybeUninit<sha2::digest::generic_array::GenericArray<u8, sha2::digest::generic_array::typenum::UInt<sha2::digest::generic_array::typenum::UInt<sha2::digest::generic_array::typenum::UInt<sha2::digest::generic_array::typenum::UInt<sha2::digest::generic_array::typenum::UInt<sha2::digest::generic_array::typenum::UInt<sha2::digest::generic_array::typenum::UTerm, sha2::digest::consts::B1>, sha2::digest::consts::B0>, sha2::digest::consts::B0>, sha2::digest::consts::B0>, sha2::digest::consts::B0>, sha2::digest::consts::B0>>>" = type { [32 x i8] }
%"[closure@sha2::digest::generic_array::impls::<impl std::default::Default for sha2::digest::generic_array::GenericArray<u8, sha2::digest::generic_array::typenum::UInt<sha2::digest::generic_array::typenum::UInt<sha2::digest::generic_array::typenum::UInt<sha2::digest::generic_array::typenum::UInt<sha2::digest::generic_array::typenum::UInt<sha2::digest::generic_array::typenum::UInt<sha2::digest::generic_array::typenum::UTerm, sha2::digest::consts::B1>, sha2::digest::consts::B0>, sha2::digest::consts::B0>, sha2::digest::consts::B0>, sha2::digest::consts::B0>, sha2::digest::consts::B0>>>::default::{closure#0}]" = type {}
%"std::vec::Vec<std::string::String>" = type { { i64*, i64 }, i64 }
%"std::option::Option<usize>::Some" = type { [1 x i64], i64 }
%"std::iter::TakeWhile<std::slice::Iter<u8>, [closure@bs58::encode::encode_into<&[u8]>::{closure#0}]>" = type { %"[closure@bs58::encode::encode_into<&[u8]>::{closure#0}]", { i8*, i8* }, i8, [7 x i8] }
%"[closure@bs58::encode::encode_into<&[u8]>::{closure#0}]" = type {}
%"std::option::Option<std::convert::Infallible>::None" = type {}
%"std::mem::ManuallyDrop<sha2::digest::generic_array::GenericArray<u8, sha2::digest::generic_array::typenum::UInt<sha2::digest::generic_array::typenum::UInt<sha2::digest::generic_array::typenum::UInt<sha2::digest::generic_array::typenum::UInt<sha2::digest::generic_array::typenum::UInt<sha2::digest::generic_array::typenum::UInt<sha2::digest::generic_array::typenum::UTerm, sha2::digest::consts::B1>, sha2::digest::consts::B0>, sha2::digest::consts::B0>, sha2::digest::consts::B0>, sha2::digest::consts::B0>, sha2::digest::consts::B0>>>" = type { %"sha2::digest::generic_array::GenericArray<u8, sha2::digest::generic_array::typenum::UInt<sha2::digest::generic_array::typenum::UInt<sha2::digest::generic_array::typenum::UInt<sha2::digest::generic_array::typenum::UInt<sha2::digest::generic_array::typenum::UInt<sha2::digest::generic_array::typenum::UInt<sha2::digest::generic_array::typenum::UTerm, sha2::digest::consts::B1>, sha2::digest::consts::B0>, sha2::digest::consts::B0>, sha2::digest::consts::B0>, sha2::digest::consts::B0>, sha2::digest::consts::B0>>" }
%"std::result::Result<abi_digester::AbiDigester, abi_digester::DigestError>" = type { i64, [6 x i64] }
%"std::result::Result<std::convert::Infallible, abi_digester::DigestError>::Err" = type { %"abi_digester::DigestError" }
%"abi_digester::DigestError" = type { i64, [5 x i64] }
%"std::result::Result<abi_digester::AbiDigester, abi_digester::DigestError>::Err" = type { [1 x i64], %"abi_digester::DigestError" }
%"bs58::encode::Error::BufferTooSmall" = type {}
%"std::result::Result<std::convert::Infallible, bs58::encode::Error>::Err" = type { %"bs58::encode::Error::BufferTooSmall" }
%"std::result::Result<usize, bs58::encode::Error>::Err" = type { [8 x i8], %"bs58::encode::Error::BufferTooSmall" }
%"std::fs::OpenOptions" = type { %"std::sys::sbf::fs::OpenOptions" }
%"std::sys::sbf::fs::OpenOptions" = type {}
%"std::path::Path" = type { %"std::ffi::OsStr" }
%"std::ffi::OsStr" = type { %"std::sys::sbf::os_str::Slice" }
%"std::sys::sbf::os_str::Slice" = type { [0 x i8] }
%"std::result::Result<std::fs::File, std::io::Error>::Err" = type { %"std::io::Error" }
%"std::io::Error" = type { %"std::io::error::Repr" }
%"std::io::error::Repr" = type { i8, [15 x i8] }
%"std::fs::File" = type { %"std::sys::sbf::fs::File" }
%"std::sys::sbf::fs::File" = type { %"std::sys::sbf::Void" }
%"std::sys::sbf::Void" = type { [0 x i8] }
%"std::result::Result<usize, std::io::Error>" = type { i64, [2 x i64] }
%"std::result::Result<(), std::io::Error>" = type { i8, [15 x i8] }
%"std::result::Result<usize, std::io::Error>::Ok" = type { [1 x i64], i64 }
%"std::result::Result<usize, std::io::Error>::Err" = type { [1 x i64], %"std::io::Error" }
%"std::result::Result<(), std::io::Error>::Err" = type { %"std::io::Error" }
%"std::io::error::Custom" = type { { {}*, [3 x i64]* }, i8, [7 x i8] }
%"std::io::error::Repr::Os" = type { [1 x i32], i32 }
%"std::io::error::Repr::Simple" = type { [1 x i8], i8 }
%"std::io::error::Repr::SimpleMessage" = type { [1 x i8], i8, [6 x i8], { [0 x i8]*, i64 }* }
%"std::io::error::Repr::Custom" = type { [1 x i64], %"std::io::error::Custom"* }
%"std::result::Result<std::string::String, std::env::VarError>" = type { i64, [3 x i64] }
%"std::sync::Once" = type { %"std::marker::PhantomData<*const std::sync::once::Waiter>", %"std::sync::atomic::AtomicUsize" }
%"std::marker::PhantomData<*const std::sync::once::Waiter>" = type {}
%"std::option::Option<std::string::String>" = type { {}*, [2 x i64] }
%"std::fmt::Formatter" = type { { i64, i64 }, { i64, i64 }, { {}*, [3 x i64]* }, i32, i32, i8, [7 x i8] }
%"sha2::Sha256" = type { %"sha2::sha256::Engine256" }
%"sha2::sha256::Engine256" = type { i64, %"block_buffer::BlockBuffer<sha2::digest::generic_array::typenum::UInt<sha2::digest::generic_array::typenum::UInt<sha2::digest::generic_array::typenum::UInt<sha2::digest::generic_array::typenum::UInt<sha2::digest::generic_array::typenum::UInt<sha2::digest::generic_array::typenum::UInt<sha2::digest::generic_array::typenum::UInt<sha2::digest::generic_array::typenum::UTerm, sha2::digest::consts::B1>, sha2::digest::consts::B0>, sha2::digest::consts::B0>, sha2::digest::consts::B0>, sha2::digest::consts::B0>, sha2::digest::consts::B0>, sha2::digest::consts::B0>>", [8 x i32] }
%"block_buffer::BlockBuffer<sha2::digest::generic_array::typenum::UInt<sha2::digest::generic_array::typenum::UInt<sha2::digest::generic_array::typenum::UInt<sha2::digest::generic_array::typenum::UInt<sha2::digest::generic_array::typenum::UInt<sha2::digest::generic_array::typenum::UInt<sha2::digest::generic_array::typenum::UInt<sha2::digest::generic_array::typenum::UTerm, sha2::digest::consts::B1>, sha2::digest::consts::B0>, sha2::digest::consts::B0>, sha2::digest::consts::B0>, sha2::digest::consts::B0>, sha2::digest::consts::B0>, sha2::digest::consts::B0>>" = type { i64, %"sha2::digest::generic_array::GenericArray<u8, sha2::digest::generic_array::typenum::UInt<sha2::digest::generic_array::typenum::UInt<sha2::digest::generic_array::typenum::UInt<sha2::digest::generic_array::typenum::UInt<sha2::digest::generic_array::typenum::UInt<sha2::digest::generic_array::typenum::UInt<sha2::digest::generic_array::typenum::UInt<sha2::digest::generic_array::typenum::UTerm, sha2::digest::consts::B1>, sha2::digest::consts::B0>, sha2::digest::consts::B0>, sha2::digest::consts::B0>, sha2::digest::consts::B0>, sha2::digest::consts::B0>, sha2::digest::consts::B0>>" }
%"sha2::digest::generic_array::GenericArray<u8, sha2::digest::generic_array::typenum::UInt<sha2::digest::generic_array::typenum::UInt<sha2::digest::generic_array::typenum::UInt<sha2::digest::generic_array::typenum::UInt<sha2::digest::generic_array::typenum::UInt<sha2::digest::generic_array::typenum::UInt<sha2::digest::generic_array::typenum::UInt<sha2::digest::generic_array::typenum::UTerm, sha2::digest::consts::B1>, sha2::digest::consts::B0>, sha2::digest::consts::B0>, sha2::digest::consts::B0>, sha2::digest::consts::B0>, sha2::digest::consts::B0>, sha2::digest::consts::B0>>" = type { %"sha2::digest::generic_array::GenericArrayImplEven<u8, sha2::digest::generic_array::GenericArrayImplEven<u8, sha2::digest::generic_array::GenericArrayImplEven<u8, sha2::digest::generic_array::GenericArrayImplEven<u8, sha2::digest::generic_array::GenericArrayImplEven<u8, sha2::digest::generic_array::GenericArrayImplEven<u8, sha2::digest::generic_array::GenericArrayImplOdd<u8, [u8; 0]>>>>>>>" }
%"sha2::digest::generic_array::GenericArrayImplEven<u8, sha2::digest::generic_array::GenericArrayImplEven<u8, sha2::digest::generic_array::GenericArrayImplEven<u8, sha2::digest::generic_array::GenericArrayImplEven<u8, sha2::digest::generic_array::GenericArrayImplEven<u8, sha2::digest::generic_array::GenericArrayImplEven<u8, sha2::digest::generic_array::GenericArrayImplOdd<u8, [u8; 0]>>>>>>>" = type { %"sha2::digest::generic_array::GenericArrayImplEven<u8, sha2::digest::generic_array::GenericArrayImplEven<u8, sha2::digest::generic_array::GenericArrayImplEven<u8, sha2::digest::generic_array::GenericArrayImplEven<u8, sha2::digest::generic_array::GenericArrayImplEven<u8, sha2::digest::generic_array::GenericArrayImplOdd<u8, [u8; 0]>>>>>>", %"sha2::digest::generic_array::GenericArrayImplEven<u8, sha2::digest::generic_array::GenericArrayImplEven<u8, sha2::digest::generic_array::GenericArrayImplEven<u8, sha2::digest::generic_array::GenericArrayImplEven<u8, sha2::digest::generic_array::GenericArrayImplEven<u8, sha2::digest::generic_array::GenericArrayImplOdd<u8, [u8; 0]>>>>>>", %"std::marker::PhantomData<u8>" }
%"std::fmt::DebugList" = type { %"core::fmt::builders::DebugInner" }
%"core::fmt::builders::DebugInner" = type { %"std::fmt::Formatter"*, i8, i8, [6 x i8] }
%"std::str::pattern::MultiCharEqPattern<[closure@core::str::<impl str>::trim_end::{closure#0}]>" = type { %"[closure@core::str::<impl str>::trim_end::{closure#0}]" }
%"bs58::Alphabet" = type { [58 x i8], [128 x i8] }
%"std::result::Result<usize, bs58::encode::Error>::Ok" = type { [1 x i64], i64 }
%"bs58::encode::EncodeBuilder<[u8; 32]>" = type { %"bs58::Check::Disabled", %"bs58::Alphabet"*, [32 x i8] }
%"bs58::Check::Disabled" = type {}
%"core::fmt::Opaque" = type {}
%"hash::Hash" = type { [32 x i8] }
%"std::fmt::Arguments" = type { { [0 x { [0 x i8]*, i64 }]*, i64 }, { i64*, i64 }, { [0 x { i8*, i64* }]*, i64 } }
%"std::fmt::rt::v1::Argument" = type { i64, %"std::fmt::rt::v1::FormatSpec" }
%"std::fmt::rt::v1::FormatSpec" = type { { i64, i64 }, { i64, i64 }, i32, i32, i8, [7 x i8] }
%"std::rc::RcBox<std::cell::RefCell<std::vec::Vec<std::string::String>>>" = type { i64, i64, %"std::cell::RefCell<std::vec::Vec<std::string::String>>" }
%"std::cell::RefCell<std::vec::Vec<std::string::String>>" = type { i64, %"std::cell::UnsafeCell<std::vec::Vec<std::string::String>>" }
%"std::cell::UnsafeCell<std::vec::Vec<std::string::String>>" = type { %"std::vec::Vec<std::string::String>" }
%"alloc::sync::ArcInner<std::thread::Inner>" = type { %"std::sync::atomic::AtomicUsize", %"std::sync::atomic::AtomicUsize", %"std::thread::Inner" }
%"std::thread::Inner" = type { { i8*, i64 }, i64, %"std::sys_common::thread_parker::generic::Parker" }
%"std::sys_common::thread_parker::generic::Parker" = type { %"std::sync::atomic::AtomicUsize", %"std::sync::Mutex<()>", %"std::sync::Condvar" }
%"std::sync::Mutex<()>" = type { i8*, %"std::sync::poison::Flag", %"std::cell::UnsafeCell<()>", [7 x i8] }
%"std::sync::poison::Flag" = type { %"std::sync::atomic::AtomicBool" }
%"std::sync::atomic::AtomicBool" = type { i8 }
%"std::cell::UnsafeCell<()>" = type { {} }
%"std::sync::Condvar" = type { %"std::sys_common::condvar::Condvar" }
%"std::sys_common::condvar::Condvar" = type { %"std::sys::sbf::condvar::Condvar"*, %"std::sys_common::condvar::check::SameMutexCheck" }
%"std::sys::sbf::condvar::Condvar" = type {}
%"std::sys_common::condvar::check::SameMutexCheck" = type { %"std::sync::atomic::AtomicUsize" }
%"std::mem::ManuallyDrop<sha2::digest::generic_array::ArrayBuilder<u8, sha2::digest::generic_array::typenum::UInt<sha2::digest::generic_array::typenum::UInt<sha2::digest::generic_array::typenum::UInt<sha2::digest::generic_array::typenum::UInt<sha2::digest::generic_array::typenum::UInt<sha2::digest::generic_array::typenum::UInt<sha2::digest::generic_array::typenum::UTerm, sha2::digest::consts::B1>, sha2::digest::consts::B0>, sha2::digest::consts::B0>, sha2::digest::consts::B0>, sha2::digest::consts::B0>, sha2::digest::consts::B0>>>" = type { %"sha2::digest::generic_array::ArrayBuilder<u8, sha2::digest::generic_array::typenum::UInt<sha2::digest::generic_array::typenum::UInt<sha2::digest::generic_array::typenum::UInt<sha2::digest::generic_array::typenum::UInt<sha2::digest::generic_array::typenum::UInt<sha2::digest::generic_array::typenum::UInt<sha2::digest::generic_array::typenum::UTerm, sha2::digest::consts::B1>, sha2::digest::consts::B0>, sha2::digest::consts::B0>, sha2::digest::consts::B0>, sha2::digest::consts::B0>, sha2::digest::consts::B0>>" }
%"<std::cell::RefCell<T> as std::fmt::Debug>::fmt::BorrowedPlaceholder" = type {}
%"std::env::VarError" = type { {}*, [2 x i64] }
%"std::env::VarError::NotUnicode" = type { %"std::ffi::OsString" }
%"std::ffi::OsString" = type { %"std::sys::sbf::os_str::Buf" }
%"std::sys::sbf::os_str::Buf" = type { %"std::vec::Vec<u8>" }
%"std::cell::BorrowError" = type {}
%"std::cell::BorrowMutError" = type {}
%"std::string::FromUtf8Error" = type { %"std::vec::Vec<u8>", %"std::str::Utf8Error" }
%"std::str::Utf8Error" = type { i64, { i8, i8 }, [6 x i8] }
%"std::mem::MaybeUninit<std::mem::MaybeUninit<sha2::digest::generic_array::GenericArray<u8, sha2::digest::generic_array::typenum::UInt<sha2::digest::generic_array::typenum::UInt<sha2::digest::generic_array::typenum::UInt<sha2::digest::generic_array::typenum::UInt<sha2::digest::generic_array::typenum::UInt<sha2::digest::generic_array::typenum::UInt<sha2::digest::generic_array::typenum::UTerm, sha2::digest::consts::B1>, sha2::digest::consts::B0>, sha2::digest::consts::B0>, sha2::digest::consts::B0>, sha2::digest::consts::B0>, sha2::digest::consts::B0>>>>" = type { [32 x i8] }
%"std::mem::ManuallyDrop<std::mem::MaybeUninit<sha2::digest::generic_array::GenericArray<u8, sha2::digest::generic_array::typenum::UInt<sha2::digest::generic_array::typenum::UInt<sha2::digest::generic_array::typenum::UInt<sha2::digest::generic_array::typenum::UInt<sha2::digest::generic_array::typenum::UInt<sha2::digest::generic_array::typenum::UInt<sha2::digest::generic_array::typenum::UTerm, sha2::digest::consts::B1>, sha2::digest::consts::B0>, sha2::digest::consts::B0>, sha2::digest::consts::B0>, sha2::digest::consts::B0>, sha2::digest::consts::B0>>>>" = type { %"std::mem::MaybeUninit<sha2::digest::generic_array::GenericArray<u8, sha2::digest::generic_array::typenum::UInt<sha2::digest::generic_array::typenum::UInt<sha2::digest::generic_array::typenum::UInt<sha2::digest::generic_array::typenum::UInt<sha2::digest::generic_array::typenum::UInt<sha2::digest::generic_array::typenum::UInt<sha2::digest::generic_array::typenum::UTerm, sha2::digest::consts::B1>, sha2::digest::consts::B0>, sha2::digest::consts::B0>, sha2::digest::consts::B0>, sha2::digest::consts::B0>, sha2::digest::consts::B0>>>" }
%"std::mem::MaybeUninit<std::string::String>" = type { [3 x i64] }
%"std::mem::ManuallyDrop<std::string::String>" = type { %"std::string::String" }
%"std::array::TryFromSliceError" = type { {} }
%"abi_digester::AbiDigester" = type { i64*, i64, %"std::option::Option<std::string::String>", i8, [7 x i8] }
%"abi_digester::DigestError::Node" = type { [1 x i64], { [0 x i8]*, i64 }, %"abi_digester::DigestError"* }
%"abi_digester::DigestError::Leaf" = type { [1 x i64], { [0 x i8]*, i64 }, { [0 x i8]*, i64 }, %"abi_digester::DigestError"* }
%"std::option::Option<std::string::String>::Some" = type { %"std::string::String" }
%"std::ptr::metadata::PtrRepr<[std::string::String]>" = type { [2 x i64] }
%"std::result::Result<std::string::String, std::env::VarError>::Ok" = type { [1 x i64], %"std::string::String" }
%"std::result::Result<std::string::String, std::env::VarError>::Err" = type { [1 x i64], %"std::env::VarError" }
%"std::option::Option<u32>::Some" = type { [1 x i32], i32 }
%"std::str::MatchIndices<char>" = type { %"core::str::iter::MatchIndicesInternal<char>" }
%"core::str::iter::MatchIndicesInternal<char>" = type { %"std::str::pattern::CharSearcher" }
%"std::str::pattern::CharSearcher" = type { { [0 x i8]*, i64 }, i64, i64, i64, i32, [4 x i8] }
%"std::option::Option<(usize, usize)>::Some" = type { [1 x i64], { i64, i64 } }
%"std::option::Option<(usize, &str)>" = type { [1 x i64], {}*, [1 x i64] }
%"[closure@/home/seaceved/.cargo/registry/src/github.com-1ecc6299db9ec823/solana-frozen-abi-1.9.9/src/abi_example.rs:237:30: 237:43]" = type {}
%"std::ops::ControlFlow<std::option::Option<std::convert::Infallible>, usize>::Continue" = type { [1 x i64], i64 }
%"std::sync::atomic::AtomicIsize" = type { i64 }
%"std::sync::atomic::AtomicI8" = type { i8 }
%"std::sync::atomic::AtomicU8" = type { i8 }
%"std::sync::atomic::AtomicI16" = type { i16 }
%"std::sync::atomic::AtomicI32" = type { i32 }
%"std::sync::atomic::AtomicI64" = type { i64 }
%"std::sync::atomic::AtomicU16" = type { i16 }
%"std::sync::atomic::AtomicU32" = type { i32 }
%"std::sync::atomic::AtomicU64" = type { i64 }
%"std::result::Result<std::convert::Infallible, std::alloc::LayoutError>::Err" = type { %"std::alloc::LayoutError" }
%"std::alloc::LayoutError" = type {}
%"std::result::Result<(std::alloc::Layout, usize), std::alloc::LayoutError>" = type { [1 x i64], i64, [1 x i64] }
%"std::ops::ControlFlow<std::result::Result<std::convert::Infallible, std::alloc::LayoutError>, (std::alloc::Layout, usize)>" = type { [1 x i64], i64, [1 x i64] }
%"std::ops::ControlFlow<std::result::Result<std::convert::Infallible, std::alloc::LayoutError>, (std::alloc::Layout, usize)>::Continue" = type { { { i64, i64 }, i64 } }
%"std::ops::ControlFlow<std::result::Result<std::convert::Infallible, std::alloc::LayoutError>, usize>::Continue" = type { [1 x i64], i64 }
%"std::result::Result<(std::alloc::Layout, usize), std::alloc::LayoutError>::Ok" = type { { { i64, i64 }, i64 } }
%"std::result::Result<[u8; 32], std::array::TryFromSliceError>" = type { i8, [32 x i8] }
%"[closure@std::array::<impl std::convert::TryFrom<&[u8]> for [u8; 32]>::try_from::{closure#0}]" = type {}
%"[closure@<std::str::Chars as std::iter::Iterator>::next::{closure#0}]" = type {}
%"std::option::Option<(usize, &str)>::Some" = type { { i64, { [0 x i8]*, i64 } } }
%"[closure@<std::str::Chars as std::iter::DoubleEndedIterator>::next_back::{closure#0}]" = type {}
%"std::result::Result<usize, abi_digester::DigestError>" = type { i64, [6 x i64] }
%"std::result::Result<usize, abi_digester::DigestError>::Err" = type { [1 x i64], %"abi_digester::DigestError" }
%"std::result::Result<usize, abi_digester::DigestError>::Ok" = type { [1 x i64], i64 }
%"std::result::Result<[u8; 32], std::array::TryFromSliceError>::Err" = type { [1 x i8], %"std::array::TryFromSliceError" }
%"std::result::Result<[u8; 32], std::array::TryFromSliceError>::Ok" = type { [1 x i8], [32 x i8] }
%"std::result::Result<std::string::String, std::string::FromUtf8Error>" = type { i64, [5 x i64] }
%"std::result::Result<std::string::String, std::string::FromUtf8Error>::Ok" = type { [1 x i64], %"std::string::String" }
%"std::result::Result<std::string::String, std::string::FromUtf8Error>::Err" = type { [1 x i64], %"std::string::FromUtf8Error" }
%"std::alloc::Global" = type {}
%"std::result::Result<std::convert::Infallible, std::alloc::AllocError>::Err" = type { %"std::alloc::AllocError" }
%"std::alloc::AllocError" = type {}
%"std::result::Result<&str, std::str::Utf8Error>" = type { i64, [2 x i64] }
%"std::result::Result<&str, std::str::Utf8Error>::Err" = type { [1 x i64], %"std::str::Utf8Error" }
%"std::result::Result<(), std::collections::TryReserveError>" = type { i64, [2 x i64] }
%"std::result::Result<(), std::collections::TryReserveError>::Err" = type { [1 x i64], { i64, i64 } }
%"std::result::Result<(), std::collections::TryReserveErrorKind>" = type { i64, [2 x i64] }
%"std::result::Result<(), std::collections::TryReserveErrorKind>::Err" = type { [1 x i64], { i64, i64 } }
%"std::option::Option<(std::ptr::NonNull<u8>, std::alloc::Layout)>" = type { {}*, [2 x i64] }
%"std::option::Option<(std::ptr::NonNull<u8>, std::alloc::Layout)>::Some" = type { { i8*, { i64, i64 } } }
%"std::result::Result<std::ptr::NonNull<[u8]>, std::collections::TryReserveError>" = type { i64, [2 x i64] }
%"std::ops::ControlFlow<std::result::Result<std::convert::Infallible, std::collections::TryReserveError>, std::ptr::NonNull<[u8]>>" = type { i64, [2 x i64] }
%"std::result::Result<usize, std::collections::TryReserveErrorKind>" = type { i64, [2 x i64] }
%"std::ops::ControlFlow<std::result::Result<std::convert::Infallible, std::collections::TryReserveErrorKind>, usize>" = type { i64, [2 x i64] }
%"std::ops::ControlFlow<std::result::Result<std::convert::Infallible, std::collections::TryReserveErrorKind>, usize>::Continue" = type { [1 x i64], i64 }
%"std::ops::ControlFlow<std::result::Result<std::convert::Infallible, std::collections::TryReserveErrorKind>, usize>::Break" = type { [1 x i64], { i64, i64 } }
%"std::ops::ControlFlow<std::result::Result<std::convert::Infallible, std::collections::TryReserveError>, std::ptr::NonNull<[u8]>>::Continue" = type { [1 x i64], { i8*, i64 } }
%"std::ops::ControlFlow<std::result::Result<std::convert::Infallible, std::collections::TryReserveError>, std::ptr::NonNull<[u8]>>::Break" = type { [1 x i64], { i64, i64 } }
%"std::fmt::DebugStruct" = type { %"std::fmt::Formatter"*, i8, i8, [6 x i8] }
%"std::fmt::DebugTuple" = type { %"std::fmt::Formatter"*, i64, i8, i8, [6 x i8] }
%"std::ops::ControlFlow<std::result::Result<std::convert::Infallible, bs58::encode::Error>, usize>::Continue" = type { [1 x i64], i64 }
%"std::ops::ControlFlow<std::result::Result<std::convert::Infallible, bs58::encode::Error>, usize>::Break" = type { [8 x i8], %"std::result::Result<std::convert::Infallible, bs58::encode::Error>::Err" }
%"std::ops::ControlFlow<std::result::Result<std::convert::Infallible, abi_digester::DigestError>, usize>" = type { i64, [6 x i64] }
%"std::ops::ControlFlow<std::result::Result<std::convert::Infallible, abi_digester::DigestError>, usize>::Continue" = type { [1 x i64], i64 }
%"std::ops::ControlFlow<std::result::Result<std::convert::Infallible, abi_digester::DigestError>, usize>::Break" = type { [1 x i64], %"std::result::Result<std::convert::Infallible, abi_digester::DigestError>::Err" }
%"std::ops::ControlFlow<std::result::Result<std::convert::Infallible, abi_digester::DigestError>>" = type { i64, [5 x i64] }
%"std::result::Result<(), abi_digester::DigestError>" = type { i64, [5 x i64] }
%"std::ops::ControlFlow<std::result::Result<std::convert::Infallible, abi_digester::DigestError>>::Continue" = type { {} }
%"std::result::Result<(), abi_digester::DigestError>::Err" = type { %"abi_digester::DigestError" }
%"std::ops::ControlFlow<std::result::Result<std::convert::Infallible, abi_digester::DigestError>>::Break" = type { %"std::result::Result<std::convert::Infallible, abi_digester::DigestError>::Err" }
%"std::result::Result<abi_digester::AbiDigester, abi_digester::DigestError>::Ok" = type { [1 x i64], %"abi_digester::AbiDigester" }
%"hash::Hasher" = type { %"sha2::Sha256" }
%"std::option::Option<std::fmt::Arguments>" = type { {}*, [5 x i64] }
%"std::option::Option<std::fmt::Arguments>::Some" = type { %"std::fmt::Arguments" }
%"std::net::SocketAddr" = type { i32, [7 x i32] }
%"std::net::IpAddr" = type { i8, [19 x i8] }
%"std::net::IpAddr::V4" = type { [1 x i32], i32 }

@alloc667 = private unnamed_addr constant <{ [90 x i8] }> <{ [90 x i8] c"/home/runner/work/bpf-tools/bpf-tools/out/rust/library/core/src/iter/adapters/enumerate.rs" }>, align 1
@alloc668 = private unnamed_addr constant <{ i8*, [16 x i8] }> <{ i8* getelementptr inbounds (<{ [90 x i8] }>, <{ [90 x i8] }>* @alloc667, i32 0, i32 0, i32 0), [16 x i8] c"Z\00\00\00\00\00\00\00k\00\00\00\11\00\00\00" }>, align 8
@str.0 = internal constant [28 x i8] c"attempt to add with overflow"
@alloc674 = private unnamed_addr constant <{ [94 x i8] }> <{ [94 x i8] c"/home/seaceved/.cargo/registry/src/github.com-1ecc6299db9ec823/generic-array-0.14.5/src/lib.rs" }>, align 1
@alloc670 = private unnamed_addr constant <{ i8*, [16 x i8] }> <{ i8* getelementptr inbounds (<{ [94 x i8] }>, <{ [94 x i8] }>* @alloc674, i32 0, i32 0, i32 0), [16 x i8] c"^\00\00\00\00\00\00\00\82\01\00\00\15\00\00\00" }>, align 8
@alloc796 = private unnamed_addr constant <{ [17 x i8] }> <{ [17 x i8] c"capacity overflow" }>, align 1
@alloc672 = private unnamed_addr constant <{ [93 x i8] }> <{ [93 x i8] c"/home/runner/work/bpf-tools/bpf-tools/out/rust/library/alloc/src/vec/spec_from_iter_nested.rs" }>, align 1
@alloc673 = private unnamed_addr constant <{ i8*, [16 x i8] }> <{ i8* getelementptr inbounds (<{ [93 x i8] }>, <{ [93 x i8] }>* @alloc672, i32 0, i32 0, i32 0), [16 x i8] c"]\00\00\00\00\00\00\005\00\00\00\12\00\00\00" }>, align 8
@alloc675 = private unnamed_addr constant <{ i8*, [16 x i8] }> <{ i8* getelementptr inbounds (<{ [94 x i8] }>, <{ [94 x i8] }>* @alloc674, i32 0, i32 0, i32 0), [16 x i8] c"^\00\00\00\00\00\00\00\F1\00\00\00\0F\00\00\00" }>, align 8
@_ZN3log20MAX_LOG_LEVEL_FILTER17h0d1446fd841d7e6dE = external global %"std::sync::atomic::AtomicUsize"
@alloc421 = private unnamed_addr constant <{ [1 x i8] }> <{ [1 x i8] c"#" }>, align 1
@alloc676 = private unnamed_addr constant <{ [72 x i8] }> <{ [72 x i8] c"/home/runner/work/bpf-tools/bpf-tools/out/rust/library/std/src/io/mod.rs" }>, align 1
@alloc677 = private unnamed_addr constant <{ i8*, [16 x i8] }> <{ i8* getelementptr inbounds (<{ [72 x i8] }>, <{ [72 x i8] }>* @alloc676, i32 0, i32 0, i32 0), [16 x i8] c"H\00\00\00\00\00\00\00\02\06\00\00!\00\00\00" }>, align 8
@alloc418 = private unnamed_addr constant <{ [28 x i8] }> <{ [28 x i8] c"failed to write whole buffer" }>, align 1
@alloc419 = private unnamed_addr constant <{ i8*, [8 x i8] }> <{ i8* getelementptr inbounds (<{ [28 x i8] }>, <{ [28 x i8] }>* @alloc418, i32 0, i32 0, i32 0), [8 x i8] c"\1C\00\00\00\00\00\00\00" }>, align 8
@alloc788 = private unnamed_addr constant <{ [87 x i8] }> <{ [87 x i8] c"/home/seaceved/.cargo/registry/src/github.com-1ecc6299db9ec823/bs58-0.4.0/src/encode.rs" }>, align 1
@alloc679 = private unnamed_addr constant <{ i8*, [16 x i8] }> <{ i8* getelementptr inbounds (<{ [87 x i8] }>, <{ [87 x i8] }>* @alloc788, i32 0, i32 0, i32 0), [16 x i8] c"W\00\00\00\00\00\00\00U\01\00\00\1A\00\00\00" }>, align 8
@alloc681 = private unnamed_addr constant <{ i8*, [16 x i8] }> <{ i8* getelementptr inbounds (<{ [87 x i8] }>, <{ [87 x i8] }>* @alloc788, i32 0, i32 0, i32 0), [16 x i8] c"W\00\00\00\00\00\00\00V\01\00\00\0D\00\00\00" }>, align 8
@alloc683 = private unnamed_addr constant <{ i8*, [16 x i8] }> <{ i8* getelementptr inbounds (<{ [87 x i8] }>, <{ [87 x i8] }>* @alloc788, i32 0, i32 0, i32 0), [16 x i8] c"W\00\00\00\00\00\00\00^\01\00\00\0D\00\00\00" }>, align 8
@alloc685 = private unnamed_addr constant <{ i8*, [16 x i8] }> <{ i8* getelementptr inbounds (<{ [87 x i8] }>, <{ [87 x i8] }>* @alloc788, i32 0, i32 0, i32 0), [16 x i8] c"W\00\00\00\00\00\00\00_\01\00\00\0D\00\00\00" }>, align 8
@alloc687 = private unnamed_addr constant <{ i8*, [16 x i8] }> <{ i8* getelementptr inbounds (<{ [87 x i8] }>, <{ [87 x i8] }>* @alloc788, i32 0, i32 0, i32 0), [16 x i8] c"W\00\00\00\00\00\00\00h\01\00\00\09\00\00\00" }>, align 8
@alloc689 = private unnamed_addr constant <{ i8*, [16 x i8] }> <{ i8* getelementptr inbounds (<{ [87 x i8] }>, <{ [87 x i8] }>* @alloc788, i32 0, i32 0, i32 0), [16 x i8] c"W\00\00\00\00\00\00\00i\01\00\00\09\00\00\00" }>, align 8
@alloc691 = private unnamed_addr constant <{ i8*, [16 x i8] }> <{ i8* getelementptr inbounds (<{ [87 x i8] }>, <{ [87 x i8] }>* @alloc788, i32 0, i32 0, i32 0), [16 x i8] c"W\00\00\00\00\00\00\00l\01\00\00\15\00\00\00" }>, align 8
@alloc693 = private unnamed_addr constant <{ i8*, [16 x i8] }> <{ i8* getelementptr inbounds (<{ [87 x i8] }>, <{ [87 x i8] }>* @alloc788, i32 0, i32 0, i32 0), [16 x i8] c"W\00\00\00\00\00\00\00m\01\00\00\10\00\00\00" }>, align 8
@alloc695 = private unnamed_addr constant <{ i8*, [16 x i8] }> <{ i8* getelementptr inbounds (<{ [87 x i8] }>, <{ [87 x i8] }>* @alloc788, i32 0, i32 0, i32 0), [16 x i8] c"W\00\00\00\00\00\00\00p\01\00\00\05\00\00\00" }>, align 8
@alloc416 = private unnamed_addr constant <{ [186 x i8] }> <{ [186 x i8] c"123456789ABCDEFGHJKLMNPQRSTUVWXYZabcdefghijkmnopqrstuvwxyz\FF\FF\FF\FF\FF\FF\FF\FF\FF\FF\FF\FF\FF\FF\FF\FF\FF\FF\FF\FF\FF\FF\FF\FF\FF\FF\FF\FF\FF\FF\FF\FF\FF\FF\FF\FF\FF\FF\FF\FF\FF\FF\FF\FF\FF\FF\FF\FF\FF\00\01\02\03\04\05\06\07\08\FF\FF\FF\FF\FF\FF\FF\09\0A\0B\0C\0D\0E\0F\10\FF\11\12\13\14\15\FF\16\17\18\19\1A\1B\1C\1D\1E\1F \FF\FF\FF\FF\FF\FF!\22#$%&'()*+\FF,-./0123456789\FF\FF\FF\FF\FF" }>, align 1
@alloc697 = private unnamed_addr constant <{ i8*, [16 x i8] }> <{ i8* getelementptr inbounds (<{ [87 x i8] }>, <{ [87 x i8] }>* @alloc788, i32 0, i32 0, i32 0), [16 x i8] c"W\00\00\00\00\00\00\00\E6\00\00\00 \00\00\00" }>, align 8
@alloc699 = private unnamed_addr constant <{ i8*, [16 x i8] }> <{ i8* getelementptr inbounds (<{ [87 x i8] }>, <{ [87 x i8] }>* @alloc788, i32 0, i32 0, i32 0), [16 x i8] c"W\00\00\00\00\00\00\00>\01\00\00'\00\00\00" }>, align 8
@str.1 = internal constant [33 x i8] c"attempt to multiply with overflow"
@alloc700 = private unnamed_addr constant <{ [4 x i8] }> <{ [4 x i8] c"&str" }>, align 1
@alloc701 = private unnamed_addr constant <{ [3 x i8] }> <{ [3 x i8] c"i16" }>, align 1
@alloc702 = private unnamed_addr constant <{ [4 x i8] }> <{ [4 x i8] c"u128" }>, align 1
@alloc703 = private unnamed_addr constant <{ [4 x i8] }> <{ [4 x i8] c"i128" }>, align 1
@alloc704 = private unnamed_addr constant <{ [2 x i8] }> <{ [2 x i8] c"i8" }>, align 1
@alloc705 = private unnamed_addr constant <{ [3 x i8] }> <{ [3 x i8] c"i32" }>, align 1
@alloc706 = private unnamed_addr constant <{ [3 x i8] }> <{ [3 x i8] c"u32" }>, align 1
@alloc707 = private unnamed_addr constant <{ [3 x i8] }> <{ [3 x i8] c"i64" }>, align 1
@alloc708 = private unnamed_addr constant <{ [3 x i8] }> <{ [3 x i8] c"f64" }>, align 1
@alloc709 = private unnamed_addr constant <{ [29 x i8] }> <{ [29 x i8] c"solana_frozen_abi::hash::Hash" }>, align 1
@alloc710 = private unnamed_addr constant <{ [3 x i8] }> <{ [3 x i8] c"f32" }>, align 1
@alloc711 = private unnamed_addr constant <{ [2 x i8] }> <{ [2 x i8] c"u8" }>, align 1
@alloc712 = private unnamed_addr constant <{ [4 x i8] }> <{ [4 x i8] c"bool" }>, align 1
@alloc713 = private unnamed_addr constant <{ [3 x i8] }> <{ [3 x i8] c"u64" }>, align 1
@alloc714 = private unnamed_addr constant <{ [2 x i8] }> <{ [2 x i8] c"()" }>, align 1
@alloc715 = private unnamed_addr constant <{ [4 x i8] }> <{ [4 x i8] c"char" }>, align 1
@alloc716 = private unnamed_addr constant <{ [3 x i8] }> <{ [3 x i8] c"u16" }>, align 1
@vtable.2 = private unnamed_addr constant <{ i8*, [16 x i8], i8*, [0 x i8] }> <{ i8* bitcast (void (%"std::string::String"**)* @"_ZN4core3ptr46drop_in_place$LT$$RF$alloc..string..String$GT$17h4c08c827c8818cd5E" to i8*), [16 x i8] c"\08\00\00\00\00\00\00\00\08\00\00\00\00\00\00\00", i8* bitcast (i1 (%"std::string::String"**, %"std::fmt::Formatter"*)* @"_ZN42_$LT$$RF$T$u20$as$u20$core..fmt..Debug$GT$3fmt17h692bfbc5d975befeE" to i8*), [0 x i8] zeroinitializer }>, align 8, !dbg !0
@alloc720 = private unnamed_addr constant <{ [12 x i8] }> <{ [12 x i8] c"invalid args" }>, align 1
@alloc721 = private unnamed_addr constant <{ [74 x i8] }> <{ [74 x i8] c"/home/runner/work/bpf-tools/bpf-tools/out/rust/library/core/src/fmt/mod.rs" }>, align 1
@alloc722 = private unnamed_addr constant <{ i8*, [16 x i8] }> <{ i8* getelementptr inbounds (<{ [74 x i8] }>, <{ [74 x i8] }>* @alloc721, i32 0, i32 0, i32 0), [16 x i8] c"J\00\00\00\00\00\00\00c\01\00\00\0D\00\00\00" }>, align 8
@alloc723 = private unnamed_addr constant <{ [74 x i8] }> <{ [74 x i8] c"/home/runner/work/bpf-tools/bpf-tools/out/rust/library/core/src/ptr/mod.rs" }>, align 1
@alloc724 = private unnamed_addr constant <{ i8*, [16 x i8] }> <{ i8* getelementptr inbounds (<{ [74 x i8] }>, <{ [74 x i8] }>* @alloc723, i32 0, i32 0, i32 0), [16 x i8] c"J\00\00\00\00\00\00\00\BC\02\00\00\0D\00\00\00" }>, align 8
@alloc725 = private unnamed_addr constant <{ [16 x i8] }> <{ [16 x i8] c"already borrowed" }>, align 1
@alloc726 = private unnamed_addr constant <{ [24 x i8] }> <{ [24 x i8] c"already mutably borrowed" }>, align 1
@alloc731 = private unnamed_addr constant <{ [79 x i8] }> <{ [79 x i8] c"/home/runner/work/bpf-tools/bpf-tools/out/rust/library/core/src/char/methods.rs" }>, align 1
@alloc728 = private unnamed_addr constant <{ i8*, [16 x i8] }> <{ i8* getelementptr inbounds (<{ [79 x i8] }>, <{ [79 x i8] }>* @alloc731, i32 0, i32 0, i32 0), [16 x i8] c"O\00\00\00\00\00\00\00P\06\00\00\16\00\00\00" }>, align 8
@alloc730 = private unnamed_addr constant <{ i8*, [16 x i8] }> <{ i8* getelementptr inbounds (<{ [79 x i8] }>, <{ [79 x i8] }>* @alloc731, i32 0, i32 0, i32 0), [16 x i8] c"O\00\00\00\00\00\00\00j\06\00\00\0A\00\00\00" }>, align 8
@alloc279 = private unnamed_addr constant <{ [18 x i8] }> <{ [18 x i8] c"encode_utf8: need " }>, align 1
@alloc281 = private unnamed_addr constant <{ [19 x i8] }> <{ [19 x i8] c" bytes to encode U+" }>, align 1
@alloc282 = private unnamed_addr constant <{ [21 x i8] }> <{ [21 x i8] c", but the buffer has " }>, align 1
@alloc280 = private unnamed_addr constant <{ i8*, [8 x i8], i8*, [8 x i8], i8*, [8 x i8] }> <{ i8* getelementptr inbounds (<{ [18 x i8] }>, <{ [18 x i8] }>* @alloc279, i32 0, i32 0, i32 0), [8 x i8] c"\12\00\00\00\00\00\00\00", i8* getelementptr inbounds (<{ [19 x i8] }>, <{ [19 x i8] }>* @alloc281, i32 0, i32 0, i32 0), [8 x i8] c"\13\00\00\00\00\00\00\00", i8* getelementptr inbounds (<{ [21 x i8] }>, <{ [21 x i8] }>* @alloc282, i32 0, i32 0, i32 0), [8 x i8] c"\15\00\00\00\00\00\00\00" }>, align 8
@alloc732 = private unnamed_addr constant <{ i8*, [16 x i8] }> <{ i8* getelementptr inbounds (<{ [79 x i8] }>, <{ [79 x i8] }>* @alloc731, i32 0, i32 0, i32 0), [16 x i8] c"O\00\00\00\00\00\00\00c\06\00\00\0E\00\00\00" }>, align 8
@alloc733 = private unnamed_addr constant <{ [41 x i8] }> <{ [41 x i8] c"there is no such thing as a relaxed fence" }>, align 1
@alloc734 = private unnamed_addr constant <{ [78 x i8] }> <{ [78 x i8] c"/home/runner/work/bpf-tools/bpf-tools/out/rust/library/core/src/sync/atomic.rs" }>, align 1
@alloc735 = private unnamed_addr constant <{ i8*, [16 x i8] }> <{ i8* getelementptr inbounds (<{ [78 x i8] }>, <{ [78 x i8] }>* @alloc734, i32 0, i32 0, i32 0), [16 x i8] c"N\00\00\00\00\00\00\00y\0A\00\00\18\00\00\00" }>, align 8
@alloc736 = private unnamed_addr constant <{ [79 x i8] }> <{ [79 x i8] c"/home/runner/work/bpf-tools/bpf-tools/out/rust/library/core/src/alloc/layout.rs" }>, align 1
@alloc737 = private unnamed_addr constant <{ i8*, [16 x i8] }> <{ i8* getelementptr inbounds (<{ [79 x i8] }>, <{ [79 x i8] }>* @alloc736, i32 0, i32 0, i32 0), [16 x i8] c"O\00\00\00\00\00\00\00\10\01\00\009\00\00\00" }>, align 8
@alloc738 = private unnamed_addr constant <{ [76 x i8] }> <{ [76 x i8] c"/home/runner/work/bpf-tools/bpf-tools/out/rust/library/core/src/array/mod.rs" }>, align 1
@alloc739 = private unnamed_addr constant <{ i8*, [16 x i8] }> <{ i8* getelementptr inbounds (<{ [76 x i8] }>, <{ [76 x i8] }>* @alloc738, i32 0, i32 0, i32 0), [16 x i8] c"L\00\00\00\00\00\00\00K\00\00\00\0A\00\00\00" }>, align 8
@alloc740 = private unnamed_addr constant <{ [35 x i8] }> <{ [35 x i8] c"assertion failed: mid <= self.len()" }>, align 1
@alloc743 = private unnamed_addr constant <{ [76 x i8] }> <{ [76 x i8] c"/home/runner/work/bpf-tools/bpf-tools/out/rust/library/core/src/slice/mod.rs" }>, align 1
@alloc742 = private unnamed_addr constant <{ i8*, [16 x i8] }> <{ i8* getelementptr inbounds (<{ [76 x i8] }>, <{ [76 x i8] }>* @alloc743, i32 0, i32 0, i32 0), [16 x i8] c"L\00\00\00\00\00\00\00\FF\05\00\00\09\00\00\00" }>, align 8
@alloc744 = private unnamed_addr constant <{ i8*, [16 x i8] }> <{ i8* getelementptr inbounds (<{ [76 x i8] }>, <{ [76 x i8] }>* @alloc743, i32 0, i32 0, i32 0), [16 x i8] c"L\00\00\00\00\00\00\00\E6\07\00\00\1E\00\00\00" }>, align 8
@alloc745 = private unnamed_addr constant <{ [43 x i8] }> <{ [43 x i8] c"called `Option::unwrap()` on a `None` value" }>, align 1
@vtable.3 = private unnamed_addr constant <{ i8*, [16 x i8], i8*, [0 x i8] }> <{ i8* bitcast (void (%"std::cell::BorrowError"*)* @"_ZN4core3ptr44drop_in_place$LT$core..cell..BorrowError$GT$17h51d0dcdb11f0db42E" to i8*), [16 x i8] c"\00\00\00\00\00\00\00\00\01\00\00\00\00\00\00\00", i8* bitcast (i1 (%"std::cell::BorrowError"*, %"std::fmt::Formatter"*)* @"_ZN60_$LT$core..cell..BorrowError$u20$as$u20$core..fmt..Debug$GT$3fmt17h5edbc33da3a30a49E" to i8*), [0 x i8] zeroinitializer }>, align 8, !dbg !40
@vtable.4 = private unnamed_addr constant <{ i8*, [16 x i8], i8*, [0 x i8] }> <{ i8* bitcast (void (%"std::cell::BorrowMutError"*)* @"_ZN4core3ptr47drop_in_place$LT$core..cell..BorrowMutError$GT$17h207c373b8ab138c6E" to i8*), [16 x i8] c"\00\00\00\00\00\00\00\00\01\00\00\00\00\00\00\00", i8* bitcast (i1 (%"std::cell::BorrowMutError"*, %"std::fmt::Formatter"*)* @"_ZN63_$LT$core..cell..BorrowMutError$u20$as$u20$core..fmt..Debug$GT$3fmt17h8fbce2618a168c02E" to i8*), [0 x i8] zeroinitializer }>, align 8, !dbg !45
@alloc768 = private unnamed_addr constant <{ [43 x i8] }> <{ [43 x i8] c"called `Result::unwrap()` on an `Err` value" }>, align 1
@vtable.5 = private unnamed_addr constant <{ i8*, [16 x i8], i8*, [0 x i8] }> <{ i8* bitcast (void (%"std::array::TryFromSliceError"*)* @"_ZN4core3ptr51drop_in_place$LT$core..array..TryFromSliceError$GT$17h511d10d02188e9dbE" to i8*), [16 x i8] c"\00\00\00\00\00\00\00\00\01\00\00\00\00\00\00\00", i8* bitcast (i1 (%"std::array::TryFromSliceError"*, %"std::fmt::Formatter"*)* @"_ZN67_$LT$core..array..TryFromSliceError$u20$as$u20$core..fmt..Debug$GT$3fmt17hf76d34ae020e321eE" to i8*), [0 x i8] zeroinitializer }>, align 8, !dbg !49
@vtable.6 = private unnamed_addr constant <{ i8*, [16 x i8], i8*, [0 x i8] }> <{ i8* bitcast (void (%"bs58::encode::Error::BufferTooSmall"*)* @"_ZN4core3ptr40drop_in_place$LT$bs58..encode..Error$GT$17h8ce55ccbf565ff9eE" to i8*), [16 x i8] c"\00\00\00\00\00\00\00\00\01\00\00\00\00\00\00\00", i8* bitcast (i1 (%"bs58::encode::Error::BufferTooSmall"*, %"std::fmt::Formatter"*)* @"_ZN56_$LT$bs58..encode..Error$u20$as$u20$core..fmt..Debug$GT$3fmt17h2ec6e84362324d60E" to i8*), [0 x i8] zeroinitializer }>, align 8, !dbg !57
@vtable.7 = private unnamed_addr constant <{ i8*, [16 x i8], i8*, [0 x i8] }> <{ i8* bitcast (void (%"std::io::Error"*)* @"_ZN4core3ptr42drop_in_place$LT$std..io..error..Error$GT$17hf2b798d0e4f9693eE" to i8*), [16 x i8] c"\10\00\00\00\00\00\00\00\08\00\00\00\00\00\00\00", i8* bitcast (i1 (%"std::io::Error"*, %"std::fmt::Formatter"*)* @"_ZN58_$LT$std..io..error..Error$u20$as$u20$core..fmt..Debug$GT$3fmt17ha495cdbaf19f3b15E" to i8*), [0 x i8] zeroinitializer }>, align 8, !dbg !68
@vtable.8 = private unnamed_addr constant <{ i8*, [16 x i8], i8*, [0 x i8] }> <{ i8* bitcast (void (%"std::string::FromUtf8Error"*)* @"_ZN4core3ptr49drop_in_place$LT$alloc..string..FromUtf8Error$GT$17h4d7bfc7c424ebf31E" to i8*), [16 x i8] c"(\00\00\00\00\00\00\00\08\00\00\00\00\00\00\00", i8* bitcast (i1 (%"std::string::FromUtf8Error"*, %"std::fmt::Formatter"*)* @"_ZN65_$LT$alloc..string..FromUtf8Error$u20$as$u20$core..fmt..Debug$GT$3fmt17h31c72279fc0c2e77E" to i8*), [0 x i8] zeroinitializer }>, align 8, !dbg !169
@alloc769 = private unnamed_addr constant <{ [53 x i8] }> <{ [53 x i8] c"attempt to join into collection with len > usize::MAX" }>, align 1
@alloc772 = private unnamed_addr constant <{ [71 x i8] }> <{ [71 x i8] c"/home/runner/work/bpf-tools/bpf-tools/out/rust/library/alloc/src/str.rs" }>, align 1
@alloc771 = private unnamed_addr constant <{ i8*, [16 x i8] }> <{ i8* getelementptr inbounds (<{ [71 x i8] }>, <{ [71 x i8] }>* @alloc772, i32 0, i32 0, i32 0), [16 x i8] c"G\00\00\00\00\00\00\00\AB\00\00\00\0A\00\00\00" }>, align 8
@alloc773 = private unnamed_addr constant <{ i8*, [16 x i8] }> <{ i8* getelementptr inbounds (<{ [71 x i8] }>, <{ [71 x i8] }>* @alloc772, i32 0, i32 0, i32 0), [16 x i8] c"G\00\00\00\00\00\00\00\C9\00\00\00\0A\00\00\00" }>, align 8
@0 = private unnamed_addr constant <{ [16 x i8] }> <{ [16 x i8] c"\01\00\00\00\00\00\00\00\00\00\00\00\00\00\00\00" }>, align 8
@1 = private unnamed_addr constant <{ [16 x i8] }> <{ [16 x i8] c"\08\00\00\00\00\00\00\00\00\00\00\00\00\00\00\00" }>, align 8
@alloc607 = private unnamed_addr constant <{ [0 x i8] }> zeroinitializer, align 8
@alloc774 = private unnamed_addr constant <{ [75 x i8] }> <{ [75 x i8] c"/home/runner/work/bpf-tools/bpf-tools/out/rust/library/alloc/src/raw_vec.rs" }>, align 1
@alloc775 = private unnamed_addr constant <{ i8*, [16 x i8] }> <{ i8* getelementptr inbounds (<{ [75 x i8] }>, <{ [75 x i8] }>* @alloc774, i32 0, i32 0, i32 0), [16 x i8] c"K\00\00\00\00\00\00\00\97\01\00\00\09\00\00\00" }>, align 8
@str.9 = internal constant [25 x i8] c"attempt to divide by zero"
@alloc781 = private unnamed_addr constant <{ [7 x i8] }> <{ [7 x i8] c"RefCell" }>, align 1
@alloc782 = private unnamed_addr constant <{ [5 x i8] }> <{ [5 x i8] c"value" }>, align 1
@vtable.a = private unnamed_addr constant <{ i8*, [16 x i8], i8*, [0 x i8] }> <{ i8* bitcast (void (%"<std::cell::RefCell<T> as std::fmt::Debug>::fmt::BorrowedPlaceholder"*)* @"_ZN4core3ptr111drop_in_place$LT$$LT$core..cell..RefCell$LT$T$GT$$u20$as$u20$core..fmt..Debug$GT$..fmt..BorrowedPlaceholder$GT$17h90977f2bdefc0be1E" to i8*), [16 x i8] c"\00\00\00\00\00\00\00\00\01\00\00\00\00\00\00\00", i8* bitcast (i1 (%"<std::cell::RefCell<T> as std::fmt::Debug>::fmt::BorrowedPlaceholder"*, %"std::fmt::Formatter"*)* @"_ZN127_$LT$$LT$core..cell..RefCell$LT$T$GT$$u20$as$u20$core..fmt..Debug$GT$..fmt..BorrowedPlaceholder$u20$as$u20$core..fmt..Debug$GT$3fmt17h679940a94368e182E" to i8*), [0 x i8] zeroinitializer }>, align 8, !dbg !194
@vtable.b = private unnamed_addr constant <{ i8*, [16 x i8], i8*, [0 x i8] }> <{ i8* bitcast (void ({ i64*, i64* }*)* @"_ZN4core3ptr88drop_in_place$LT$core..cell..Ref$LT$alloc..vec..Vec$LT$alloc..string..String$GT$$GT$$GT$17heb9c11d71712bf0eE" to i8*), [16 x i8] c"\10\00\00\00\00\00\00\00\08\00\00\00\00\00\00\00", i8* bitcast (i1 ({ i64*, i64* }*, %"std::fmt::Formatter"*)* @"_ZN61_$LT$core..cell..Ref$LT$T$GT$$u20$as$u20$core..fmt..Debug$GT$3fmt17hb870f6a1c0165269E" to i8*), [0 x i8] zeroinitializer }>, align 8, !dbg !201
@alloc786 = private unnamed_addr constant <{ [4 x i8] }> <{ [4 x i8] c"Some" }>, align 1
@alloc787 = private unnamed_addr constant <{ [4 x i8] }> <{ [4 x i8] c"None" }>, align 1
@alloc789 = private unnamed_addr constant <{ i8*, [16 x i8] }> <{ i8* getelementptr inbounds (<{ [87 x i8] }>, <{ [87 x i8] }>* @alloc788, i32 0, i32 0, i32 0), [16 x i8] c"W\00\00\00\00\00\00\00Q\00\00\00+\00\00\00" }>, align 8
@alloc790 = private unnamed_addr constant <{ [74 x i8] }> <{ [74 x i8] c"/home/runner/work/bpf-tools/bpf-tools/out/rust/library/alloc/src/string.rs" }>, align 1
@alloc791 = private unnamed_addr constant <{ i8*, [16 x i8] }> <{ i8* getelementptr inbounds (<{ [74 x i8] }>, <{ [74 x i8] }>* @alloc790, i32 0, i32 0, i32 0), [16 x i8] c"J\00\00\00\00\00\00\003\08\00\00\01\00\00\00" }>, align 8
@alloc792 = private unnamed_addr constant <{ [78 x i8] }> <{ [78 x i8] c"/home/runner/work/bpf-tools/bpf-tools/out/rust/library/core/src/str/pattern.rs" }>, align 1
@alloc793 = private unnamed_addr constant <{ i8*, [16 x i8] }> <{ i8* getelementptr inbounds (<{ [78 x i8] }>, <{ [78 x i8] }>* @alloc792, i32 0, i32 0, i32 0), [16 x i8] c"N\00\00\00\00\00\00\00\B0\01\00\00&\00\00\00" }>, align 8
@alloc794 = private unnamed_addr constant <{ [77 x i8] }> <{ [77 x i8] c"/home/runner/work/bpf-tools/bpf-tools/out/rust/library/core/src/slice/iter.rs" }>, align 1
@alloc795 = private unnamed_addr constant <{ i8*, [16 x i8] }> <{ i8* getelementptr inbounds (<{ [77 x i8] }>, <{ [77 x i8] }>* @alloc794, i32 0, i32 0, i32 0), [16 x i8] c"M\00\00\00\00\00\00\00\85\00\00\00\01\00\00\00" }>, align 8
@alloc797 = private unnamed_addr constant <{ [83 x i8] }> <{ [83 x i8] c"/home/runner/work/bpf-tools/bpf-tools/out/rust/library/alloc/src/vec/spec_extend.rs" }>, align 1
@alloc798 = private unnamed_addr constant <{ i8*, [16 x i8] }> <{ i8* getelementptr inbounds (<{ [83 x i8] }>, <{ [83 x i8] }>* @alloc797, i32 0, i32 0, i32 0), [16 x i8] c"S\00\00\00\00\00\00\007\00\00\00\0D\00\00\00" }>, align 8
@alloc800 = private unnamed_addr constant <{ [15 x i8] }> <{ [15 x i8] c"__SerializeWith" }>, align 1
@alloc801 = private unnamed_addr constant <{ [1 x i8] }> <{ [1 x i8] c" " }>, align 1
@alloc343 = private unnamed_addr constant <{ i8*, [8 x i8] }> <{ i8* getelementptr inbounds (<{ [0 x i8] }>, <{ [0 x i8] }>* @alloc607, i32 0, i32 0, i32 0), [8 x i8] zeroinitializer }>, align 8
@alloc236 = private unnamed_addr constant <{ [1 x i8] }> <{ [1 x i8] c"\0A" }>, align 1
@alloc234 = private unnamed_addr constant <{ i8*, [8 x i8], i8*, [8 x i8], i8*, [8 x i8] }> <{ i8* getelementptr inbounds (<{ [0 x i8] }>, <{ [0 x i8] }>* @alloc607, i32 0, i32 0, i32 0), [8 x i8] zeroinitializer, i8* getelementptr inbounds (<{ [0 x i8] }>, <{ [0 x i8] }>* @alloc607, i32 0, i32 0, i32 0), [8 x i8] zeroinitializer, i8* getelementptr inbounds (<{ [1 x i8] }>, <{ [1 x i8] }>* @alloc236, i32 0, i32 0, i32 0), [8 x i8] c"\01\00\00\00\00\00\00\00" }>, align 8
@alloc248 = private unnamed_addr constant <{ [112 x i8] }> <{ [112 x i8] c"\00\00\00\00\00\00\00\00\02\00\00\00\00\00\00\00\00\00\00\00\00\00\00\00\01\00\00\00\00\00\00\00\02\00\00\00\00\00\00\00 \00\00\00\08\00\00\00\03\00\00\00\00\00\00\00\01\00\00\00\00\00\00\00\02\00\00\00\00\00\00\00\00\00\00\00\00\00\00\00\02\00\00\00\00\00\00\00\00\00\00\00\00\00\00\00 \00\00\00\00\00\00\00\03\00\00\00\00\00\00\00" }>, align 8
@alloc654 = private unnamed_addr constant <{ [8 x i8] }> <{ [8 x i8] c"\05\00\00\00\00\00\00\00" }>, align 8
@alloc252 = private unnamed_addr constant <{ [15 x i8] }> <{ [15 x i8] c"updating with: " }>, align 1
@alloc253 = private unnamed_addr constant <{ i8*, [8 x i8] }> <{ i8* getelementptr inbounds (<{ [15 x i8] }>, <{ [15 x i8] }>* @alloc252, i32 0, i32 0, i32 0), [8 x i8] c"\0F\00\00\00\00\00\00\00" }>, align 8
@alloc314 = private unnamed_addr constant <{ [31 x i8] }> <{ [31 x i8] c"solana_frozen_abi::abi_digester" }>, align 1
@alloc845 = private unnamed_addr constant <{ [106 x i8] }> <{ [106 x i8] c"/home/seaceved/.cargo/registry/src/github.com-1ecc6299db9ec823/solana-frozen-abi-1.9.9/src/abi_digester.rs" }>, align 1
@alloc256 = private unnamed_addr constant <{ i8*, [8 x i8], i8*, [8 x i8], i8*, [16 x i8] }> <{ i8* getelementptr inbounds (<{ [31 x i8] }>, <{ [31 x i8] }>* @alloc314, i32 0, i32 0, i32 0), [8 x i8] c"\1F\00\00\00\00\00\00\00", i8* getelementptr inbounds (<{ [31 x i8] }>, <{ [31 x i8] }>* @alloc314, i32 0, i32 0, i32 0), [8 x i8] c"\1F\00\00\00\00\00\00\00", i8* getelementptr inbounds (<{ [106 x i8] }>, <{ [106 x i8] }>* @alloc845, i32 0, i32 0, i32 0), [16 x i8] c"j\00\00\00\00\00\00\00\9A\00\00\00\00\00\00\00" }>, align 8
@alloc803 = private unnamed_addr constant <{ i8*, [16 x i8] }> <{ i8* getelementptr inbounds (<{ [106 x i8] }>, <{ [106 x i8] }>* @alloc845, i32 0, i32 0, i32 0), [16 x i8] c"j\00\00\00\00\00\00\00\9B\00\00\00\1B\00\00\00" }>, align 8
@alloc819 = private unnamed_addr constant <{ [9 x i8] }> <{ [9 x i8] c"primitive" }>, align 1
@alloc291 = private unnamed_addr constant <{ [78 x i8] }> <{ [78 x i8] c"derive AbiEnumVisitor or implement it for the enum, which contains a variant (" }>, align 1
@alloc293 = private unnamed_addr constant <{ [8 x i8] }> <{ [8 x i8] c") named " }>, align 1
@alloc292 = private unnamed_addr constant <{ i8*, [8 x i8], i8*, [8 x i8] }> <{ i8* getelementptr inbounds (<{ [78 x i8] }>, <{ [78 x i8] }>* @alloc291, i32 0, i32 0, i32 0), [8 x i8] c"N\00\00\00\00\00\00\00", i8* getelementptr inbounds (<{ [8 x i8] }>, <{ [8 x i8] }>* @alloc293, i32 0, i32 0, i32 0), [8 x i8] c"\08\00\00\00\00\00\00\00" }>, align 8
@alloc821 = private unnamed_addr constant <{ i8*, [16 x i8] }> <{ i8* getelementptr inbounds (<{ [106 x i8] }>, <{ [106 x i8] }>* @alloc845, i32 0, i32 0, i32 0), [16 x i8] c"j\00\00\00\00\00\00\00\C9\00\00\00\09\00\00\00" }>, align 8
@alloc823 = private unnamed_addr constant <{ i8*, [16 x i8] }> <{ i8* getelementptr inbounds (<{ [106 x i8] }>, <{ [106 x i8] }>* @alloc845, i32 0, i32 0, i32 0), [16 x i8] c"j\00\00\00\00\00\00\00\D0\00\00\00&\00\00\00" }>, align 8
@alloc824 = private unnamed_addr constant <{ [19 x i8] }> <{ [19 x i8] c"SOLANA_ABI_DUMP_DIR" }>, align 1
@alloc825 = private unnamed_addr constant <{ [19 x i8] }> <{ [19 x i8] c"unknown-test-thread" }>, align 1
@alloc324 = private unnamed_addr constant <{ [1 x i8] }> <{ [1 x i8] c"_" }>, align 1
@alloc302 = private unnamed_addr constant <{ [4 x i8] }> <{ [4 x i8] c"main" }>, align 1
@alloc303 = private unnamed_addr constant <{ i8*, [8 x i8] }> <{ i8* getelementptr inbounds (<{ [4 x i8] }>, <{ [4 x i8] }>* @alloc302, i32 0, i32 0, i32 0), [8 x i8] c"\04\00\00\00\00\00\00\00" }>, align 8
@alloc309 = private unnamed_addr constant <{ [123 x i8] }> <{ [123 x i8] c"Bad thread name detected for dumping; Maybe, --test-threads=1? Sorry, SOLANA_ABI_DUMP_DIR doesn't work under 1; increase it" }>, align 1
@alloc310 = private unnamed_addr constant <{ i8*, [8 x i8] }> <{ i8* getelementptr inbounds (<{ [123 x i8] }>, <{ [123 x i8] }>* @alloc309, i32 0, i32 0, i32 0), [8 x i8] c"{\00\00\00\00\00\00\00" }>, align 8
@alloc313 = private unnamed_addr constant <{ i8*, [8 x i8], i8*, [8 x i8], i8*, [16 x i8] }> <{ i8* getelementptr inbounds (<{ [31 x i8] }>, <{ [31 x i8] }>* @alloc314, i32 0, i32 0, i32 0), [8 x i8] c"\1F\00\00\00\00\00\00\00", i8* getelementptr inbounds (<{ [31 x i8] }>, <{ [31 x i8] }>* @alloc314, i32 0, i32 0, i32 0), [8 x i8] c"\1F\00\00\00\00\00\00\00", i8* getelementptr inbounds (<{ [106 x i8] }>, <{ [106 x i8] }>* @alloc845, i32 0, i32 0, i32 0), [16 x i8] c"j\00\00\00\00\00\00\00\DC\00\00\00\00\00\00\00" }>, align 8
@alloc323 = private unnamed_addr constant <{ [1 x i8] }> <{ [1 x i8] c"/" }>, align 1
@alloc322 = private unnamed_addr constant <{ i8*, [8 x i8], i8*, [8 x i8], i8*, [8 x i8] }> <{ i8* getelementptr inbounds (<{ [0 x i8] }>, <{ [0 x i8] }>* @alloc607, i32 0, i32 0, i32 0), [8 x i8] zeroinitializer, i8* getelementptr inbounds (<{ [1 x i8] }>, <{ [1 x i8] }>* @alloc323, i32 0, i32 0, i32 0), [8 x i8] c"\01\00\00\00\00\00\00\00", i8* getelementptr inbounds (<{ [1 x i8] }>, <{ [1 x i8] }>* @alloc324, i32 0, i32 0, i32 0), [8 x i8] c"\01\00\00\00\00\00\00\00" }>, align 8
@alloc828 = private unnamed_addr constant <{ i8*, [16 x i8] }> <{ i8* getelementptr inbounds (<{ [106 x i8] }>, <{ [106 x i8] }>* @alloc845, i32 0, i32 0, i32 0), [16 x i8] c"j\00\00\00\00\00\00\00\E0\00\00\008\00\00\00" }>, align 8
@alloc830 = private unnamed_addr constant <{ i8*, [16 x i8] }> <{ i8* getelementptr inbounds (<{ [106 x i8] }>, <{ [106 x i8] }>* @alloc845, i32 0, i32 0, i32 0), [16 x i8] c"j\00\00\00\00\00\00\00\E1\00\00\00*\00\00\00" }>, align 8
@alloc832 = private unnamed_addr constant <{ i8*, [16 x i8] }> <{ i8* getelementptr inbounds (<{ [106 x i8] }>, <{ [106 x i8] }>* @alloc845, i32 0, i32 0, i32 0), [16 x i8] c"j\00\00\00\00\00\00\00\E2\00\00\000\00\00\00" }>, align 8
@alloc834 = private unnamed_addr constant <{ i8*, [16 x i8] }> <{ i8* getelementptr inbounds (<{ [106 x i8] }>, <{ [106 x i8] }>* @alloc845, i32 0, i32 0, i32 0), [16 x i8] c"j\00\00\00\00\00\00\00\E4\00\00\00\1E\00\00\00" }>, align 8
@alloc444 = private unnamed_addr constant <{ [18 x i8] }> <{ [18 x i8] c"bytes [u8] (len = " }>, align 1
@alloc552 = private unnamed_addr constant <{ [1 x i8] }> <{ [1 x i8] c")" }>, align 1
@alloc445 = private unnamed_addr constant <{ i8*, [8 x i8], i8*, [8 x i8] }> <{ i8* getelementptr inbounds (<{ [18 x i8] }>, <{ [18 x i8] }>* @alloc444, i32 0, i32 0, i32 0), [8 x i8] c"\12\00\00\00\00\00\00\00", i8* getelementptr inbounds (<{ [1 x i8] }>, <{ [1 x i8] }>* @alloc552, i32 0, i32 0, i32 0), [8 x i8] c"\01\00\00\00\00\00\00\00" }>, align 8
@alloc835 = private unnamed_addr constant <{ [6 x i8] }> <{ [6 x i8] c"struct" }>, align 1
@alloc836 = private unnamed_addr constant <{ [6 x i8] }> <{ [6 x i8] c"(unit)" }>, align 1
@alloc837 = private unnamed_addr constant <{ [12 x i8] }> <{ [12 x i8] c"unit_variant" }>, align 1
@alloc548 = private unnamed_addr constant <{ [8 x i8] }> <{ [8 x i8] c"variant(" }>, align 1
@alloc512 = private unnamed_addr constant <{ [2 x i8] }> <{ [2 x i8] c") " }>, align 1
@alloc468 = private unnamed_addr constant <{ [7 x i8] }> <{ [7 x i8] c" (unit)" }>, align 1
@alloc466 = private unnamed_addr constant <{ i8*, [8 x i8], i8*, [8 x i8], i8*, [8 x i8] }> <{ i8* getelementptr inbounds (<{ [8 x i8] }>, <{ [8 x i8] }>* @alloc548, i32 0, i32 0, i32 0), [8 x i8] c"\08\00\00\00\00\00\00\00", i8* getelementptr inbounds (<{ [2 x i8] }>, <{ [2 x i8] }>* @alloc512, i32 0, i32 0, i32 0), [8 x i8] c"\02\00\00\00\00\00\00\00", i8* getelementptr inbounds (<{ [7 x i8] }>, <{ [7 x i8] }>* @alloc468, i32 0, i32 0, i32 0), [8 x i8] c"\07\00\00\00\00\00\00\00" }>, align 8
@alloc839 = private unnamed_addr constant <{ i8*, [16 x i8] }> <{ i8* getelementptr inbounds (<{ [106 x i8] }>, <{ [106 x i8] }>* @alloc845, i32 0, i32 0, i32 0), [16 x i8] c"j\00\00\00\00\00\00\00y\01\00\00\17\00\00\00" }>, align 8
@alloc517 = private unnamed_addr constant <{ [8 x i8] }> <{ [8 x i8] c"\01\00\00\00\00\00\00\00" }>, align 8
@alloc480 = private unnamed_addr constant <{ [68 x i8] }> <{ [68 x i8] c"Exactly 1 seq element is needed to generate the ABI digest precisely" }>, align 1
@alloc481 = private unnamed_addr constant <{ i8*, [8 x i8] }> <{ i8* getelementptr inbounds (<{ [68 x i8] }>, <{ [68 x i8] }>* @alloc480, i32 0, i32 0, i32 0), [8 x i8] c"D\00\00\00\00\00\00\00" }>, align 8
@alloc841 = private unnamed_addr constant <{ i8*, [16 x i8] }> <{ i8* getelementptr inbounds (<{ [106 x i8] }>, <{ [106 x i8] }>* @alloc845, i32 0, i32 0, i32 0), [16 x i8] c"j\00\00\00\00\00\00\00z\01\00\00\09\00\00\00" }>, align 8
@alloc485 = private unnamed_addr constant <{ [16 x i8] }> <{ [16 x i8] c"seq (elements = " }>, align 1
@alloc486 = private unnamed_addr constant <{ i8*, [8 x i8], i8*, [8 x i8] }> <{ i8* getelementptr inbounds (<{ [16 x i8] }>, <{ [16 x i8] }>* @alloc485, i32 0, i32 0, i32 0), [8 x i8] c"\10\00\00\00\00\00\00\00", i8* getelementptr inbounds (<{ [1 x i8] }>, <{ [1 x i8] }>* @alloc552, i32 0, i32 0, i32 0), [8 x i8] c"\01\00\00\00\00\00\00\00" }>, align 8
@alloc491 = private unnamed_addr constant <{ [18 x i8] }> <{ [18 x i8] c"tuple (elements = " }>, align 1
@alloc492 = private unnamed_addr constant <{ i8*, [8 x i8], i8*, [8 x i8] }> <{ i8* getelementptr inbounds (<{ [18 x i8] }>, <{ [18 x i8] }>* @alloc491, i32 0, i32 0, i32 0), [8 x i8] c"\12\00\00\00\00\00\00\00", i8* getelementptr inbounds (<{ [1 x i8] }>, <{ [1 x i8] }>* @alloc552, i32 0, i32 0, i32 0), [8 x i8] c"\01\00\00\00\00\00\00\00" }>, align 8
@alloc537 = private unnamed_addr constant <{ [7 x i8] }> <{ [7 x i8] c"struct " }>, align 1
@alloc551 = private unnamed_addr constant <{ [11 x i8] }> <{ [11 x i8] c" (fields = " }>, align 1
@alloc502 = private unnamed_addr constant <{ [9 x i8] }> <{ [9 x i8] c") (tuple)" }>, align 1
@alloc500 = private unnamed_addr constant <{ i8*, [8 x i8], i8*, [8 x i8], i8*, [8 x i8] }> <{ i8* getelementptr inbounds (<{ [7 x i8] }>, <{ [7 x i8] }>* @alloc537, i32 0, i32 0, i32 0), [8 x i8] c"\07\00\00\00\00\00\00\00", i8* getelementptr inbounds (<{ [11 x i8] }>, <{ [11 x i8] }>* @alloc551, i32 0, i32 0, i32 0), [8 x i8] c"\0B\00\00\00\00\00\00\00", i8* getelementptr inbounds (<{ [9 x i8] }>, <{ [9 x i8] }>* @alloc502, i32 0, i32 0, i32 0), [8 x i8] c"\09\00\00\00\00\00\00\00" }>, align 8
@alloc842 = private unnamed_addr constant <{ [13 x i8] }> <{ [13 x i8] c"tuple_variant" }>, align 1
@alloc511 = private unnamed_addr constant <{ i8*, [8 x i8], i8*, [8 x i8], i8*, [8 x i8], i8*, [8 x i8] }> <{ i8* getelementptr inbounds (<{ [8 x i8] }>, <{ [8 x i8] }>* @alloc548, i32 0, i32 0, i32 0), [8 x i8] c"\08\00\00\00\00\00\00\00", i8* getelementptr inbounds (<{ [2 x i8] }>, <{ [2 x i8] }>* @alloc512, i32 0, i32 0, i32 0), [8 x i8] c"\02\00\00\00\00\00\00\00", i8* getelementptr inbounds (<{ [11 x i8] }>, <{ [11 x i8] }>* @alloc551, i32 0, i32 0, i32 0), [8 x i8] c"\0B\00\00\00\00\00\00\00", i8* getelementptr inbounds (<{ [1 x i8] }>, <{ [1 x i8] }>* @alloc552, i32 0, i32 0, i32 0), [8 x i8] c"\01\00\00\00\00\00\00\00" }>, align 8
@alloc844 = private unnamed_addr constant <{ i8*, [16 x i8] }> <{ i8* getelementptr inbounds (<{ [106 x i8] }>, <{ [106 x i8] }>* @alloc845, i32 0, i32 0, i32 0), [16 x i8] c"j\00\00\00\00\00\00\00\99\01\00\00\17\00\00\00" }>, align 8
@alloc524 = private unnamed_addr constant <{ [66 x i8] }> <{ [66 x i8] c"Exactly 1 map entry is needed to generate the ABI digest precisely" }>, align 1
@alloc525 = private unnamed_addr constant <{ i8*, [8 x i8] }> <{ i8* getelementptr inbounds (<{ [66 x i8] }>, <{ [66 x i8] }>* @alloc524, i32 0, i32 0, i32 0), [8 x i8] c"B\00\00\00\00\00\00\00" }>, align 8
@alloc846 = private unnamed_addr constant <{ i8*, [16 x i8] }> <{ i8* getelementptr inbounds (<{ [106 x i8] }>, <{ [106 x i8] }>* @alloc845, i32 0, i32 0, i32 0), [16 x i8] c"j\00\00\00\00\00\00\00\9A\01\00\00\09\00\00\00" }>, align 8
@alloc529 = private unnamed_addr constant <{ [15 x i8] }> <{ [15 x i8] c"map (entries = " }>, align 1
@alloc530 = private unnamed_addr constant <{ i8*, [8 x i8], i8*, [8 x i8] }> <{ i8* getelementptr inbounds (<{ [15 x i8] }>, <{ [15 x i8] }>* @alloc529, i32 0, i32 0, i32 0), [8 x i8] c"\0F\00\00\00\00\00\00\00", i8* getelementptr inbounds (<{ [1 x i8] }>, <{ [1 x i8] }>* @alloc552, i32 0, i32 0, i32 0), [8 x i8] c"\01\00\00\00\00\00\00\00" }>, align 8
@alloc538 = private unnamed_addr constant <{ i8*, [8 x i8], i8*, [8 x i8], i8*, [8 x i8] }> <{ i8* getelementptr inbounds (<{ [7 x i8] }>, <{ [7 x i8] }>* @alloc537, i32 0, i32 0, i32 0), [8 x i8] c"\07\00\00\00\00\00\00\00", i8* getelementptr inbounds (<{ [11 x i8] }>, <{ [11 x i8] }>* @alloc551, i32 0, i32 0, i32 0), [8 x i8] c"\0B\00\00\00\00\00\00\00", i8* getelementptr inbounds (<{ [1 x i8] }>, <{ [1 x i8] }>* @alloc552, i32 0, i32 0, i32 0), [8 x i8] c"\01\00\00\00\00\00\00\00" }>, align 8
@alloc847 = private unnamed_addr constant <{ [14 x i8] }> <{ [14 x i8] c"struct_variant" }>, align 1
@alloc550 = private unnamed_addr constant <{ [9 x i8] }> <{ [9 x i8] c") struct " }>, align 1
@alloc549 = private unnamed_addr constant <{ i8*, [8 x i8], i8*, [8 x i8], i8*, [8 x i8], i8*, [8 x i8] }> <{ i8* getelementptr inbounds (<{ [8 x i8] }>, <{ [8 x i8] }>* @alloc548, i32 0, i32 0, i32 0), [8 x i8] c"\08\00\00\00\00\00\00\00", i8* getelementptr inbounds (<{ [9 x i8] }>, <{ [9 x i8] }>* @alloc550, i32 0, i32 0, i32 0), [8 x i8] c"\09\00\00\00\00\00\00\00", i8* getelementptr inbounds (<{ [11 x i8] }>, <{ [11 x i8] }>* @alloc551, i32 0, i32 0, i32 0), [8 x i8] c"\0B\00\00\00\00\00\00\00", i8* getelementptr inbounds (<{ [1 x i8] }>, <{ [1 x i8] }>* @alloc552, i32 0, i32 0, i32 0), [8 x i8] c"\01\00\00\00\00\00\00\00" }>, align 8
@alloc664 = private unnamed_addr constant <{ [98 x i8] }> <{ [98 x i8] c"/home/seaceved/.cargo/registry/src/github.com-1ecc6299db9ec823/solana-frozen-abi-1.9.9/src/hash.rs" }>, align 1
@alloc849 = private unnamed_addr constant <{ i8*, [16 x i8] }> <{ i8* getelementptr inbounds (<{ [98 x i8] }>, <{ [98 x i8] }>* @alloc664, i32 0, i32 0, i32 0), [16 x i8] c"b\00\00\00\00\00\00\00\16\00\00\00N\00\00\00" }>, align 8
@alloc850 = private unnamed_addr constant <{ [11 x i8] }> <{ [11 x i8] c"AbiDigester" }>, align 1
@alloc851 = private unnamed_addr constant <{ [10 x i8] }> <{ [10 x i8] c"data_types" }>, align 1
@vtable.c = private unnamed_addr constant <{ i8*, [16 x i8], i8*, [0 x i8] }> <{ i8* bitcast (void (i64***)* @"_ZN4core3ptr117drop_in_place$LT$$RF$alloc..rc..Rc$LT$core..cell..RefCell$LT$alloc..vec..Vec$LT$alloc..string..String$GT$$GT$$GT$$GT$17haacfad27122e73e3E" to i8*), [16 x i8] c"\08\00\00\00\00\00\00\00\08\00\00\00\00\00\00\00", i8* bitcast (i1 (i64***, %"std::fmt::Formatter"*)* @"_ZN42_$LT$$RF$T$u20$as$u20$core..fmt..Debug$GT$3fmt17he879d0d26fd64435E" to i8*), [0 x i8] zeroinitializer }>, align 8, !dbg !242
@alloc855 = private unnamed_addr constant <{ [5 x i8] }> <{ [5 x i8] c"depth" }>, align 1
@vtable.d = private unnamed_addr constant <{ i8*, [16 x i8], i8*, [0 x i8] }> <{ i8* bitcast (void (i64**)* @"_ZN4core3ptr30drop_in_place$LT$$RF$usize$GT$17h7c5d44e2d84971a4E" to i8*), [16 x i8] c"\08\00\00\00\00\00\00\00\08\00\00\00\00\00\00\00", i8* bitcast (i1 (i64**, %"std::fmt::Formatter"*)* @"_ZN42_$LT$$RF$T$u20$as$u20$core..fmt..Debug$GT$3fmt17h3f266abbfae66ec3E" to i8*), [0 x i8] zeroinitializer }>, align 8, !dbg !281
@alloc859 = private unnamed_addr constant <{ [8 x i8] }> <{ [8 x i8] c"for_enum" }>, align 1
@vtable.e = private unnamed_addr constant <{ i8*, [16 x i8], i8*, [0 x i8] }> <{ i8* bitcast (void (i8**)* @"_ZN4core3ptr29drop_in_place$LT$$RF$bool$GT$17h97fe18f4ef5aa432E" to i8*), [16 x i8] c"\08\00\00\00\00\00\00\00\08\00\00\00\00\00\00\00", i8* bitcast (i1 (i8**, %"std::fmt::Formatter"*)* @"_ZN42_$LT$$RF$T$u20$as$u20$core..fmt..Debug$GT$3fmt17h3bf70a878feb4fc2E" to i8*), [0 x i8] zeroinitializer }>, align 8, !dbg !285
@alloc863 = private unnamed_addr constant <{ [12 x i8] }> <{ [12 x i8] c"opaque_scope" }>, align 1
@vtable.f = private unnamed_addr constant <{ i8*, [16 x i8], i8*, [0 x i8] }> <{ i8* bitcast (void (%"std::option::Option<std::string::String>"**)* @"_ZN4core3ptr74drop_in_place$LT$$RF$core..option..Option$LT$alloc..string..String$GT$$GT$17hf3454e964af45a3fE" to i8*), [16 x i8] c"\08\00\00\00\00\00\00\00\08\00\00\00\00\00\00\00", i8* bitcast (i1 (%"std::option::Option<std::string::String>"**, %"std::fmt::Formatter"*)* @"_ZN42_$LT$$RF$T$u20$as$u20$core..fmt..Debug$GT$3fmt17h292397261976eecaE" to i8*), [0 x i8] zeroinitializer }>, align 8, !dbg !290
@alloc867 = private unnamed_addr constant <{ [18 x i8] }> <{ [18 x i8] c"ArithmeticOverflow" }>, align 1
@alloc868 = private unnamed_addr constant <{ [4 x i8] }> <{ [4 x i8] c"Leaf" }>, align 1
@vtable.g = private unnamed_addr constant <{ i8*, [16 x i8], i8*, [0 x i8] }> <{ i8* bitcast (void ({ [0 x i8]*, i64 }**)* @"_ZN4core3ptr32drop_in_place$LT$$RF$$RF$str$GT$17hcc69775e610e8c93E" to i8*), [16 x i8] c"\08\00\00\00\00\00\00\00\08\00\00\00\00\00\00\00", i8* bitcast (i1 ({ [0 x i8]*, i64 }**, %"std::fmt::Formatter"*)* @"_ZN42_$LT$$RF$T$u20$as$u20$core..fmt..Debug$GT$3fmt17h908e7d621ed4209aE" to i8*), [0 x i8] zeroinitializer }>, align 8, !dbg !306
@vtable.h = private unnamed_addr constant <{ i8*, [16 x i8], i8*, [0 x i8] }> <{ i8* bitcast (void (%"abi_digester::DigestError"***)* @"_ZN4core3ptr94drop_in_place$LT$$RF$alloc..boxed..Box$LT$solana_frozen_abi..abi_digester..DigestError$GT$$GT$17h4bef98baffec76b7E" to i8*), [16 x i8] c"\08\00\00\00\00\00\00\00\08\00\00\00\00\00\00\00", i8* bitcast (i1 (%"abi_digester::DigestError"***, %"std::fmt::Formatter"*)* @"_ZN42_$LT$$RF$T$u20$as$u20$core..fmt..Debug$GT$3fmt17h4d099c727820d2a7E" to i8*), [0 x i8] zeroinitializer }>, align 8, !dbg !309
@alloc875 = private unnamed_addr constant <{ [4 x i8] }> <{ [4 x i8] c"Node" }>, align 1
@alloc876 = private unnamed_addr constant <{ [16 x i8] }> <{ [16 x i8] c"NoneIsSerialized" }>, align 1
@alloc604 = private unnamed_addr constant <{ [19 x i8] }> <{ [19 x i8] c"arithmetic overflow" }>, align 1
@alloc605 = private unnamed_addr constant <{ i8*, [8 x i8] }> <{ i8* getelementptr inbounds (<{ [19 x i8] }>, <{ [19 x i8] }>* @alloc604, i32 0, i32 0, i32 0), [8 x i8] c"\13\00\00\00\00\00\00\00" }>, align 8
@alloc619 = private unnamed_addr constant <{ [10 x i8] }> <{ [10 x i8] c"leaf error" }>, align 1
@alloc620 = private unnamed_addr constant <{ i8*, [8 x i8] }> <{ i8* getelementptr inbounds (<{ [10 x i8] }>, <{ [10 x i8] }>* @alloc619, i32 0, i32 0, i32 0), [8 x i8] c"\0A\00\00\00\00\00\00\00" }>, align 8
@alloc614 = private unnamed_addr constant <{ [12 x i8] }> <{ [12 x i8] c"nested error" }>, align 1
@alloc615 = private unnamed_addr constant <{ i8*, [8 x i8] }> <{ i8* getelementptr inbounds (<{ [12 x i8] }>, <{ [12 x i8] }>* @alloc614, i32 0, i32 0, i32 0), [8 x i8] c"\0C\00\00\00\00\00\00\00" }>, align 8
@alloc609 = private unnamed_addr constant <{ [58 x i8] }> <{ [58 x i8] c"Option::None is serialized; no ABI digest for Option::Some" }>, align 1
@alloc610 = private unnamed_addr constant <{ i8*, [8 x i8] }> <{ i8* getelementptr inbounds (<{ [58 x i8] }>, <{ [58 x i8] }>* @alloc609, i32 0, i32 0, i32 0), [8 x i8] c":\00\00\00\00\00\00\00" }>, align 8
@alloc658 = private unnamed_addr constant <{ [23 x i8] }> <{ [23 x i8] c"AbiExample for struct: " }>, align 1
@alloc659 = private unnamed_addr constant <{ i8*, [8 x i8] }> <{ i8* getelementptr inbounds (<{ [23 x i8] }>, <{ [23 x i8] }>* @alloc658, i32 0, i32 0, i32 0), [8 x i8] c"\17\00\00\00\00\00\00\00" }>, align 8
@alloc663 = private unnamed_addr constant <{ [23 x i8] }> <{ [23 x i8] c"solana_frozen_abi::hash" }>, align 1
@alloc662 = private unnamed_addr constant <{ i8*, [8 x i8], i8*, [8 x i8], i8*, [16 x i8] }> <{ i8* getelementptr inbounds (<{ [23 x i8] }>, <{ [23 x i8] }>* @alloc663, i32 0, i32 0, i32 0), [8 x i8] c"\17\00\00\00\00\00\00\00", i8* getelementptr inbounds (<{ [23 x i8] }>, <{ [23 x i8] }>* @alloc663, i32 0, i32 0, i32 0), [8 x i8] c"\17\00\00\00\00\00\00\00", i8* getelementptr inbounds (<{ [98 x i8] }>, <{ [98 x i8] }>* @alloc664, i32 0, i32 0, i32 0), [16 x i8] c"b\00\00\00\00\00\00\00\07\00\00\00\00\00\00\00" }>, align 8

; <alloc::string::String as core::ops::index::Index<core::ops::range::RangeFull>>::index
; Function Attrs: inlinehint nounwind
define internal { [0 x i8]*, i64 } @"_ZN100_$LT$alloc..string..String$u20$as$u20$core..ops..index..Index$LT$core..ops..range..RangeFull$GT$$GT$5index17hb11c15511cccb9d5E"(%"std::string::String"* align 8 dereferenceable(24) %self, %"std::panic::Location"* align 8 dereferenceable(24) %0) unnamed_addr #0 !dbg !385 {
start:
  %_index.dbg.spill = alloca %"std::ops::RangeFull", align 1
  %self.dbg.spill = alloca %"std::string::String"*, align 8
  store %"std::string::String"* %self, %"std::string::String"** %self.dbg.spill, align 8
  call void @llvm.dbg.declare(metadata %"std::string::String"** %self.dbg.spill, metadata !403, metadata !DIExpression()), !dbg !405
  call void @llvm.dbg.declare(metadata %"std::ops::RangeFull"* %_index.dbg.spill, metadata !404, metadata !DIExpression()), !dbg !406
  %_6 = bitcast %"std::string::String"* %self to %"std::vec::Vec<u8>"*, !dbg !407
; call <alloc::vec::Vec<T,A> as core::ops::deref::Deref>::deref
  %1 = call { [0 x i8]*, i64 } @"_ZN72_$LT$alloc..vec..Vec$LT$T$C$A$GT$$u20$as$u20$core..ops..deref..Deref$GT$5deref17h773f7302148d4228E"(%"std::vec::Vec<u8>"* align 8 dereferenceable(24) %_6), !dbg !407
  %_4.0 = extractvalue { [0 x i8]*, i64 } %1, 0, !dbg !407
  %_4.1 = extractvalue { [0 x i8]*, i64 } %1, 1, !dbg !407
  br label %bb1, !dbg !407

bb1:                                              ; preds = %start
; call core::str::converts::from_utf8_unchecked
  %2 = call { [0 x i8]*, i64 } @_ZN4core3str8converts19from_utf8_unchecked17h0508c80351e9aac3E([0 x i8]* nonnull align 1 %_4.0, i64 %_4.1), !dbg !408
  %3 = extractvalue { [0 x i8]*, i64 } %2, 0, !dbg !408
  %4 = extractvalue { [0 x i8]*, i64 } %2, 1, !dbg !408
  br label %bb2, !dbg !408

bb2:                                              ; preds = %bb1
  %5 = insertvalue { [0 x i8]*, i64 } undef, [0 x i8]* %3, 0, !dbg !409
  %6 = insertvalue { [0 x i8]*, i64 } %5, i64 %4, 1, !dbg !409
  ret { [0 x i8]*, i64 } %6, !dbg !409
}

; <core::iter::adapters::map::Map<I,F> as core::iter::traits::iterator::Iterator>::fold
; Function Attrs: nounwind
define void @"_ZN102_$LT$core..iter..adapters..map..Map$LT$I$C$F$GT$$u20$as$u20$core..iter..traits..iterator..Iterator$GT$4fold17hb7435b42613250efE"(i64* nonnull %self.0, i64* %self.1, %"[closure@std::iter::Iterator::for_each::call<std::string::String, [closure@<std::vec::Vec<std::string::String> as std::vec::spec_extend::SpecExtend<std::string::String, std::iter::Map<std::slice::Iter<&str>, [closure@/home/seaceved/.cargo/registry/src/github.com-1ecc6299db9ec823/solana-frozen-abi-1.9.9/src/abi_digester.rs:141:18: 145:14]>>>::spec_extend::{closure#0}]>::{closure#0}]"* noalias nocapture dereferenceable(24) %g) unnamed_addr #1 !dbg !410 {
start:
  %init.dbg.spill = alloca {}, align 1
  %self.dbg.spill = alloca { i64*, i64* }, align 8
  %_8 = alloca %"[closure@std::iter::Iterator::for_each::call<std::string::String, [closure@<std::vec::Vec<std::string::String> as std::vec::spec_extend::SpecExtend<std::string::String, std::iter::Map<std::slice::Iter<&str>, [closure@/home/seaceved/.cargo/registry/src/github.com-1ecc6299db9ec823/solana-frozen-abi-1.9.9/src/abi_digester.rs:141:18: 145:14]>>>::spec_extend::{closure#0}]>::{closure#0}]", align 8
  %_6 = alloca %"[closure@std::iter::adapters::map::map_fold<&&str, std::string::String, (), [closure@/home/seaceved/.cargo/registry/src/github.com-1ecc6299db9ec823/solana-frozen-abi-1.9.9/src/abi_digester.rs:141:18: 145:14], [closure@std::iter::Iterator::for_each::call<std::string::String, [closure@<std::vec::Vec<std::string::String> as std::vec::spec_extend::SpecExtend<std::string::String, std::iter::Map<std::slice::Iter<&str>, [closure@/home/seaceved/.cargo/registry/src/github.com-1ecc6299db9ec823/solana-frozen-abi-1.9.9/src/abi_digester.rs:141:18: 145:14]>>>::spec_extend::{closure#0}]>::{closure#0}]>::{closure#0}]", align 8
  %0 = getelementptr inbounds { i64*, i64* }, { i64*, i64* }* %self.dbg.spill, i32 0, i32 0
  store i64* %self.0, i64** %0, align 8
  %1 = getelementptr inbounds { i64*, i64* }, { i64*, i64* }* %self.dbg.spill, i32 0, i32 1
  store i64* %self.1, i64** %1, align 8
  call void @llvm.dbg.declare(metadata { i64*, i64* }* %self.dbg.spill, metadata !467, metadata !DIExpression()), !dbg !474
  call void @llvm.dbg.declare(metadata {}* %init.dbg.spill, metadata !468, metadata !DIExpression()), !dbg !475
  call void @llvm.dbg.declare(metadata %"[closure@std::iter::Iterator::for_each::call<std::string::String, [closure@<std::vec::Vec<std::string::String> as std::vec::spec_extend::SpecExtend<std::string::String, std::iter::Map<std::slice::Iter<&str>, [closure@/home/seaceved/.cargo/registry/src/github.com-1ecc6299db9ec823/solana-frozen-abi-1.9.9/src/abi_digester.rs:141:18: 145:14]>>>::spec_extend::{closure#0}]>::{closure#0}]"* %g, metadata !469, metadata !DIExpression()), !dbg !476
  %2 = bitcast %"[closure@std::iter::Iterator::for_each::call<std::string::String, [closure@<std::vec::Vec<std::string::String> as std::vec::spec_extend::SpecExtend<std::string::String, std::iter::Map<std::slice::Iter<&str>, [closure@/home/seaceved/.cargo/registry/src/github.com-1ecc6299db9ec823/solana-frozen-abi-1.9.9/src/abi_digester.rs:141:18: 145:14]>>>::spec_extend::{closure#0}]>::{closure#0}]"* %_8 to i8*, !dbg !477
  %3 = bitcast %"[closure@std::iter::Iterator::for_each::call<std::string::String, [closure@<std::vec::Vec<std::string::String> as std::vec::spec_extend::SpecExtend<std::string::String, std::iter::Map<std::slice::Iter<&str>, [closure@/home/seaceved/.cargo/registry/src/github.com-1ecc6299db9ec823/solana-frozen-abi-1.9.9/src/abi_digester.rs:141:18: 145:14]>>>::spec_extend::{closure#0}]>::{closure#0}]"* %g to i8*, !dbg !477
  call void @llvm.memcpy.p0i8.p0i8.i64(i8* align 8 %2, i8* align 8 %3, i64 24, i1 false), !dbg !477
; call core::iter::adapters::map::map_fold
  call void @_ZN4core4iter8adapters3map8map_fold17hde224735bca7f7b5E(%"[closure@std::iter::adapters::map::map_fold<&&str, std::string::String, (), [closure@/home/seaceved/.cargo/registry/src/github.com-1ecc6299db9ec823/solana-frozen-abi-1.9.9/src/abi_digester.rs:141:18: 145:14], [closure@std::iter::Iterator::for_each::call<std::string::String, [closure@<std::vec::Vec<std::string::String> as std::vec::spec_extend::SpecExtend<std::string::String, std::iter::Map<std::slice::Iter<&str>, [closure@/home/seaceved/.cargo/registry/src/github.com-1ecc6299db9ec823/solana-frozen-abi-1.9.9/src/abi_digester.rs:141:18: 145:14]>>>::spec_extend::{closure#0}]>::{closure#0}]>::{closure#0}]"* noalias nocapture sret(%"[closure@std::iter::adapters::map::map_fold<&&str, std::string::String, (), [closure@/home/seaceved/.cargo/registry/src/github.com-1ecc6299db9ec823/solana-frozen-abi-1.9.9/src/abi_digester.rs:141:18: 145:14], [closure@std::iter::Iterator::for_each::call<std::string::String, [closure@<std::vec::Vec<std::string::String> as std::vec::spec_extend::SpecExtend<std::string::String, std::iter::Map<std::slice::Iter<&str>, [closure@/home/seaceved/.cargo/registry/src/github.com-1ecc6299db9ec823/solana-frozen-abi-1.9.9/src/abi_digester.rs:141:18: 145:14]>>>::spec_extend::{closure#0}]>::{closure#0}]>::{closure#0}]") dereferenceable(24) %_6, %"[closure@std::iter::Iterator::for_each::call<std::string::String, [closure@<std::vec::Vec<std::string::String> as std::vec::spec_extend::SpecExtend<std::string::String, std::iter::Map<std::slice::Iter<&str>, [closure@/home/seaceved/.cargo/registry/src/github.com-1ecc6299db9ec823/solana-frozen-abi-1.9.9/src/abi_digester.rs:141:18: 145:14]>>>::spec_extend::{closure#0}]>::{closure#0}]"* noalias nocapture dereferenceable(24) %_8), !dbg !478
  br label %bb1, !dbg !478

bb1:                                              ; preds = %start
; call core::iter::traits::iterator::Iterator::fold
  call void @_ZN4core4iter6traits8iterator8Iterator4fold17h94ea0b615b3c6063E(i64* nonnull %self.0, i64* %self.1, %"[closure@std::iter::adapters::map::map_fold<&&str, std::string::String, (), [closure@/home/seaceved/.cargo/registry/src/github.com-1ecc6299db9ec823/solana-frozen-abi-1.9.9/src/abi_digester.rs:141:18: 145:14], [closure@std::iter::Iterator::for_each::call<std::string::String, [closure@<std::vec::Vec<std::string::String> as std::vec::spec_extend::SpecExtend<std::string::String, std::iter::Map<std::slice::Iter<&str>, [closure@/home/seaceved/.cargo/registry/src/github.com-1ecc6299db9ec823/solana-frozen-abi-1.9.9/src/abi_digester.rs:141:18: 145:14]>>>::spec_extend::{closure#0}]>::{closure#0}]>::{closure#0}]"* noalias nocapture dereferenceable(24) %_6), !dbg !479
  br label %bb2, !dbg !479

bb2:                                              ; preds = %bb1
  ret void, !dbg !480
}

; <core::iter::adapters::map::Map<I,F> as core::iter::traits::iterator::Iterator>::try_fold
; Function Attrs: nounwind
define { i64, i64 } @"_ZN102_$LT$core..iter..adapters..map..Map$LT$I$C$F$GT$$u20$as$u20$core..iter..traits..iterator..Iterator$GT$8try_fold17h7c397faa5706a7c0E"({ i64*, i64* }* align 8 dereferenceable(16) %self, i64 %init) unnamed_addr #1 !dbg !481 {
start:
  %g.dbg.spill = alloca {}, align 1
  %init.dbg.spill = alloca i64, align 8
  %self.dbg.spill = alloca { i64*, i64* }*, align 8
  store { i64*, i64* }* %self, { i64*, i64* }** %self.dbg.spill, align 8
  call void @llvm.dbg.declare(metadata { i64*, i64* }** %self.dbg.spill, metadata !521, metadata !DIExpression()), !dbg !529
  store i64 %init, i64* %init.dbg.spill, align 8
  call void @llvm.dbg.declare(metadata i64* %init.dbg.spill, metadata !522, metadata !DIExpression()), !dbg !530
  call void @llvm.dbg.declare(metadata {}* %g.dbg.spill, metadata !523, metadata !DIExpression()), !dbg !531
  %_8 = bitcast { i64*, i64* }* %self to %"[closure@std::str::join_generic_copy<str, u8, std::string::String>::{closure#0}::{closure#0}]"*, !dbg !532
; call core::iter::adapters::map::map_try_fold
  %_6 = call nonnull align 1 i8* @_ZN4core4iter8adapters3map12map_try_fold17h49fba9ba32521b8aE(%"[closure@std::str::join_generic_copy<str, u8, std::string::String>::{closure#0}::{closure#0}]"* nonnull align 1 %_8), !dbg !533
  br label %bb1, !dbg !533

bb1:                                              ; preds = %start
; call core::iter::traits::iterator::Iterator::try_fold
  %0 = call { i64, i64 } @_ZN4core4iter6traits8iterator8Iterator8try_fold17h152ea9d204c38417E({ i64*, i64* }* align 8 dereferenceable(16) %self, i64 %init, i8* nonnull align 1 %_6), !dbg !534
  %1 = extractvalue { i64, i64 } %0, 0, !dbg !534
  %2 = extractvalue { i64, i64 } %0, 1, !dbg !534
  br label %bb2, !dbg !534

bb2:                                              ; preds = %bb1
  %3 = insertvalue { i64, i64 } undef, i64 %1, 0, !dbg !535
  %4 = insertvalue { i64, i64 } %3, i64 %2, 1, !dbg !535
  ret { i64, i64 } %4, !dbg !535
}

; <core::iter::adapters::map::Map<I,F> as core::iter::traits::iterator::Iterator>::size_hint
; Function Attrs: inlinehint nounwind
define void @"_ZN102_$LT$core..iter..adapters..map..Map$LT$I$C$F$GT$$u20$as$u20$core..iter..traits..iterator..Iterator$GT$9size_hint17h7acd7754171c52bbE"({ i64, { i64, i64 } }* noalias nocapture sret({ i64, { i64, i64 } }) dereferenceable(24) %0, { i64*, i64* }* align 8 dereferenceable(16) %self) unnamed_addr #0 !dbg !536 {
start:
  %self.dbg.spill = alloca { i64*, i64* }*, align 8
  store { i64*, i64* }* %self, { i64*, i64* }** %self.dbg.spill, align 8
  call void @llvm.dbg.declare(metadata { i64*, i64* }** %self.dbg.spill, metadata !545, metadata !DIExpression()), !dbg !547
; call <core::slice::iter::Iter<T> as core::iter::traits::iterator::Iterator>::size_hint
  call void @"_ZN91_$LT$core..slice..iter..Iter$LT$T$GT$$u20$as$u20$core..iter..traits..iterator..Iterator$GT$9size_hint17hc9ac7a838c25e05aE"({ i64, { i64, i64 } }* noalias nocapture sret({ i64, { i64, i64 } }) dereferenceable(24) %0, { i64*, i64* }* align 8 dereferenceable(16) %self), !dbg !548
  br label %bb1, !dbg !548

bb1:                                              ; preds = %start
  ret void, !dbg !549
}

; <core::str::iter::CharIndices as core::iter::traits::double_ended::DoubleEndedIterator>::next_back
; Function Attrs: inlinehint nounwind
define internal { i64, i32 } @"_ZN102_$LT$core..str..iter..CharIndices$u20$as$u20$core..iter..traits..double_ended..DoubleEndedIterator$GT$9next_back17he7090f93a4ebc568E"(%"std::str::CharIndices"* align 8 dereferenceable(24) %0) unnamed_addr #0 !dbg !550 {
start:
  %_4 = alloca i64*, align 8
  %self = alloca %"std::str::CharIndices"*, align 8
  store %"std::str::CharIndices"* %0, %"std::str::CharIndices"** %self, align 8
  call void @llvm.dbg.declare(metadata %"std::str::CharIndices"** %self, metadata !595, metadata !DIExpression()), !dbg !596
  %1 = load %"std::str::CharIndices"*, %"std::str::CharIndices"** %self, align 8, !dbg !597, !nonnull !4
  %_3 = getelementptr inbounds %"std::str::CharIndices", %"std::str::CharIndices"* %1, i32 0, i32 1, !dbg !597
; call <core::str::iter::Chars as core::iter::traits::double_ended::DoubleEndedIterator>::next_back
  %_2 = call i32 @"_ZN96_$LT$core..str..iter..Chars$u20$as$u20$core..iter..traits..double_ended..DoubleEndedIterator$GT$9next_back17he4adcc301dfcd780E"({ i8*, i8* }* align 8 dereferenceable(16) %_3), !dbg !597, !range !598
  br label %bb1, !dbg !597

bb1:                                              ; preds = %start
  %2 = bitcast i64** %_4 to %"std::str::CharIndices"***, !dbg !599
  store %"std::str::CharIndices"** %self, %"std::str::CharIndices"*** %2, align 8, !dbg !599
  %3 = load i64*, i64** %_4, align 8, !dbg !597, !nonnull !4
; call core::option::Option<T>::map
  %4 = call { i64, i32 } @"_ZN4core6option15Option$LT$T$GT$3map17hd30e8830b993b3e7E"(i32 %_2, i64* align 8 dereferenceable(8) %3), !dbg !597
  %5 = extractvalue { i64, i32 } %4, 0, !dbg !597
  %6 = extractvalue { i64, i32 } %4, 1, !dbg !597
  br label %bb2, !dbg !597

bb2:                                              ; preds = %bb1
  %7 = insertvalue { i64, i32 } undef, i64 %5, 0, !dbg !600
  %8 = insertvalue { i64, i32 } %7, i32 %6, 1, !dbg !600
  ret { i64, i32 } %8, !dbg !600
}

; <core::str::iter::CharIndices as core::iter::traits::double_ended::DoubleEndedIterator>::next_back::{{closure}}
; Function Attrs: inlinehint nounwind
define { i64, i32 } @"_ZN102_$LT$core..str..iter..CharIndices$u20$as$u20$core..iter..traits..double_ended..DoubleEndedIterator$GT$9next_back28_$u7b$$u7b$closure$u7d$$u7d$17h321c08785a4ce213E"(i64* align 8 dereferenceable(8) %_1, i32 %ch) unnamed_addr #0 !dbg !601 {
start:
  %_1.dbg.spill.i.i = alloca i8*, align 8
  %diff.dbg.spill.i = alloca i64, align 8
  %0 = alloca i64, align 8
  %size.dbg.spill.i = alloca i64, align 8
  %start.dbg.spill.i = alloca i8*, align 8
  %self.dbg.spill.i = alloca { i8*, i8* }*, align 8
  %1 = alloca i64, align 8
  %index.dbg.spill = alloca i64, align 8
  %ch.dbg.spill = alloca i32, align 4
  %_1.dbg.spill = alloca i64*, align 8
  %2 = alloca { i64, i32 }, align 8
  store i64* %_1, i64** %_1.dbg.spill, align 8
  %3 = bitcast i64** %_1.dbg.spill to %"std::str::CharIndices"***
  %4 = load %"std::str::CharIndices"**, %"std::str::CharIndices"*** %3, align 8, !nonnull !4
  call void @llvm.dbg.declare(metadata i64** %_1.dbg.spill, metadata !611, metadata !DIExpression(DW_OP_deref)), !dbg !614
  store i32 %ch, i32* %ch.dbg.spill, align 4
  call void @llvm.dbg.declare(metadata i32* %ch.dbg.spill, metadata !610, metadata !DIExpression()), !dbg !615
  %5 = bitcast i64* %_1 to %"std::str::CharIndices"**, !dbg !616
  %6 = bitcast i64* %_1 to %"std::str::CharIndices"**, !dbg !616
  %7 = bitcast i64* %_1 to %"std::str::CharIndices"**, !dbg !616
  %8 = load %"std::str::CharIndices"*, %"std::str::CharIndices"** %7, align 8, !dbg !616, !nonnull !4
  %9 = bitcast %"std::str::CharIndices"* %8 to i64*, !dbg !616
  %_4 = load i64, i64* %9, align 8, !dbg !616
  %10 = bitcast i64* %_1 to %"std::str::CharIndices"**, !dbg !617
  %11 = bitcast i64* %_1 to %"std::str::CharIndices"**, !dbg !617
  %12 = load %"std::str::CharIndices"*, %"std::str::CharIndices"** %11, align 8, !dbg !617, !nonnull !4
  %_6 = getelementptr inbounds %"std::str::CharIndices", %"std::str::CharIndices"* %12, i32 0, i32 1, !dbg !617
  store { i8*, i8* }* %_6, { i8*, i8* }** %self.dbg.spill.i, align 8
  call void @llvm.dbg.declare(metadata { i8*, i8* }** %self.dbg.spill.i, metadata !618, metadata !DIExpression()) #14, !dbg !632
  %13 = bitcast { i8*, i8* }* %_6 to i8**, !dbg !634
  %start1.i = load i8*, i8** %13, align 8, !dbg !634, !nonnull !4
  store i8* %start1.i, i8** %start.dbg.spill.i, align 8, !dbg !634
  call void @llvm.dbg.declare(metadata i8** %start.dbg.spill.i, metadata !626, metadata !DIExpression()) #14, !dbg !635
; call core::ptr::non_null::NonNull<T>::as_ptr
  %_5.i = call i8* @"_ZN4core3ptr8non_null16NonNull$LT$T$GT$6as_ptr17he9f4ac41c8ef8b16E"(i8* nonnull %start1.i) #14, !dbg !635
  store i8* %_5.i, i8** %_1.dbg.spill.i.i, align 8
  call void @llvm.dbg.declare(metadata i8** %_1.dbg.spill.i.i, metadata !636, metadata !DIExpression()) #14, !dbg !642
  store i64 1, i64* %size.dbg.spill.i, align 8, !dbg !635
  call void @llvm.dbg.declare(metadata i64* %size.dbg.spill.i, metadata !628, metadata !DIExpression()) #14, !dbg !644
  %14 = getelementptr inbounds { i8*, i8* }, { i8*, i8* }* %_6, i32 0, i32 1, !dbg !644
  %_15.i = load i8*, i8** %14, align 8, !dbg !644
  %_14.i = ptrtoint i8* %_15.i to i64, !dbg !644
; call core::ptr::non_null::NonNull<T>::as_ptr
  %_17.i = call i8* @"_ZN4core3ptr8non_null16NonNull$LT$T$GT$6as_ptr17he9f4ac41c8ef8b16E"(i8* nonnull %start1.i) #14, !dbg !644
  %_16.i = ptrtoint i8* %_17.i to i64, !dbg !644
  %15 = sub nuw i64 %_14.i, %_16.i, !dbg !644
  store i64 %15, i64* %0, align 8, !dbg !644
  %diff.i = load i64, i64* %0, align 8, !dbg !644
  store i64 %diff.i, i64* %diff.dbg.spill.i, align 8, !dbg !644
  call void @llvm.dbg.declare(metadata i64* %diff.dbg.spill.i, metadata !630, metadata !DIExpression()) #14, !dbg !645
  store i64 %diff.i, i64* %1, align 8, !dbg !645
  %16 = load i64, i64* %1, align 8, !dbg !646
  br label %bb1, !dbg !617

bb1:                                              ; preds = %start
  %index = add i64 %_4, %16, !dbg !616
  store i64 %index, i64* %index.dbg.spill, align 8, !dbg !616
  call void @llvm.dbg.declare(metadata i64* %index.dbg.spill, metadata !612, metadata !DIExpression()), !dbg !647
  %17 = bitcast { i64, i32 }* %2 to i64*, !dbg !648
  store i64 %index, i64* %17, align 8, !dbg !648
  %18 = getelementptr inbounds { i64, i32 }, { i64, i32 }* %2, i32 0, i32 1, !dbg !648
  store i32 %ch, i32* %18, align 8, !dbg !648
  %19 = getelementptr inbounds { i64, i32 }, { i64, i32 }* %2, i32 0, i32 0, !dbg !649
  %20 = load i64, i64* %19, align 8, !dbg !649
  %21 = getelementptr inbounds { i64, i32 }, { i64, i32 }* %2, i32 0, i32 1, !dbg !649
  %22 = load i32, i32* %21, align 8, !dbg !649, !range !650
  %23 = insertvalue { i64, i32 } undef, i64 %20, 0, !dbg !649
  %24 = insertvalue { i64, i32 } %23, i32 %22, 1, !dbg !649
  ret { i64, i32 } %24, !dbg !649
}

; <core::str::pattern::MultiCharEqSearcher<C> as core::str::pattern::ReverseSearcher>::next_back
; Function Attrs: inlinehint nounwind
define void @"_ZN104_$LT$core..str..pattern..MultiCharEqSearcher$LT$C$GT$$u20$as$u20$core..str..pattern..ReverseSearcher$GT$9next_back17h40d1574a4ac4df3bE"(%"std::str::pattern::SearchStep"* noalias nocapture sret(%"std::str::pattern::SearchStep") dereferenceable(24) %0, %"std::str::pattern::MultiCharEqSearcher<[closure@core::str::<impl str>::trim_end::{closure#0}]>"* align 8 dereferenceable(40) %self) unnamed_addr #0 !dbg !651 {
start:
  %_1.dbg.spill.i.i1 = alloca i8*, align 8
  %diff.dbg.spill.i2 = alloca i64, align 8
  %1 = alloca i64, align 8
  %size.dbg.spill.i3 = alloca i64, align 8
  %start.dbg.spill.i4 = alloca i8*, align 8
  %self.dbg.spill.i5 = alloca { i8*, i8* }*, align 8
  %2 = alloca i64, align 8
  %_1.dbg.spill.i.i = alloca i8*, align 8
  %diff.dbg.spill.i = alloca i64, align 8
  %3 = alloca i64, align 8
  %size.dbg.spill.i = alloca i64, align 8
  %start.dbg.spill.i = alloca i8*, align 8
  %self.dbg.spill.i = alloca { i8*, i8* }*, align 8
  %4 = alloca i64, align 8
  %char_len.dbg.spill = alloca i64, align 8
  %len.dbg.spill = alloca i64, align 8
  %c.dbg.spill = alloca i32, align 4
  %i.dbg.spill = alloca i64, align 8
  %pre_len.dbg.spill = alloca i64, align 8
  %s.dbg.spill = alloca %"std::str::CharIndices"*, align 8
  %self.dbg.spill = alloca %"std::str::pattern::MultiCharEqSearcher<[closure@core::str::<impl str>::trim_end::{closure#0}]>"*, align 8
  %_5 = alloca { i64, i32 }, align 8
  store %"std::str::pattern::MultiCharEqSearcher<[closure@core::str::<impl str>::trim_end::{closure#0}]>"* %self, %"std::str::pattern::MultiCharEqSearcher<[closure@core::str::<impl str>::trim_end::{closure#0}]>"** %self.dbg.spill, align 8
  call void @llvm.dbg.declare(metadata %"std::str::pattern::MultiCharEqSearcher<[closure@core::str::<impl str>::trim_end::{closure#0}]>"** %self.dbg.spill, metadata !686, metadata !DIExpression()), !dbg !698
  %s = getelementptr inbounds %"std::str::pattern::MultiCharEqSearcher<[closure@core::str::<impl str>::trim_end::{closure#0}]>", %"std::str::pattern::MultiCharEqSearcher<[closure@core::str::<impl str>::trim_end::{closure#0}]>"* %self, i32 0, i32 2, !dbg !699
  store %"std::str::CharIndices"* %s, %"std::str::CharIndices"** %s.dbg.spill, align 8, !dbg !699
  call void @llvm.dbg.declare(metadata %"std::str::CharIndices"** %s.dbg.spill, metadata !687, metadata !DIExpression()), !dbg !700
  %_4 = getelementptr inbounds %"std::str::CharIndices", %"std::str::CharIndices"* %s, i32 0, i32 1, !dbg !701
  store { i8*, i8* }* %_4, { i8*, i8* }** %self.dbg.spill.i, align 8
  call void @llvm.dbg.declare(metadata { i8*, i8* }** %self.dbg.spill.i, metadata !618, metadata !DIExpression()) #14, !dbg !702
  %5 = bitcast { i8*, i8* }* %_4 to i8**, !dbg !704
  %start1.i = load i8*, i8** %5, align 8, !dbg !704, !nonnull !4
  store i8* %start1.i, i8** %start.dbg.spill.i, align 8, !dbg !704
  call void @llvm.dbg.declare(metadata i8** %start.dbg.spill.i, metadata !626, metadata !DIExpression()) #14, !dbg !705
; call core::ptr::non_null::NonNull<T>::as_ptr
  %_5.i = call i8* @"_ZN4core3ptr8non_null16NonNull$LT$T$GT$6as_ptr17he9f4ac41c8ef8b16E"(i8* nonnull %start1.i) #14, !dbg !705
  store i8* %_5.i, i8** %_1.dbg.spill.i.i, align 8
  call void @llvm.dbg.declare(metadata i8** %_1.dbg.spill.i.i, metadata !636, metadata !DIExpression()) #14, !dbg !706
  store i64 1, i64* %size.dbg.spill.i, align 8, !dbg !705
  call void @llvm.dbg.declare(metadata i64* %size.dbg.spill.i, metadata !628, metadata !DIExpression()) #14, !dbg !708
  %6 = getelementptr inbounds { i8*, i8* }, { i8*, i8* }* %_4, i32 0, i32 1, !dbg !708
  %_15.i = load i8*, i8** %6, align 8, !dbg !708
  %_14.i = ptrtoint i8* %_15.i to i64, !dbg !708
; call core::ptr::non_null::NonNull<T>::as_ptr
  %_17.i = call i8* @"_ZN4core3ptr8non_null16NonNull$LT$T$GT$6as_ptr17he9f4ac41c8ef8b16E"(i8* nonnull %start1.i) #14, !dbg !708
  %_16.i = ptrtoint i8* %_17.i to i64, !dbg !708
  %7 = sub nuw i64 %_14.i, %_16.i, !dbg !708
  store i64 %7, i64* %3, align 8, !dbg !708
  %diff.i = load i64, i64* %3, align 8, !dbg !708
  store i64 %diff.i, i64* %diff.dbg.spill.i, align 8, !dbg !708
  call void @llvm.dbg.declare(metadata i64* %diff.dbg.spill.i, metadata !630, metadata !DIExpression()) #14, !dbg !709
  store i64 %diff.i, i64* %4, align 8, !dbg !709
  %8 = load i64, i64* %4, align 8, !dbg !710
  store i64 %8, i64* %pre_len.dbg.spill, align 8, !dbg !701
  call void @llvm.dbg.declare(metadata i64* %pre_len.dbg.spill, metadata !689, metadata !DIExpression()), !dbg !711
  br label %bb1, !dbg !701

bb1:                                              ; preds = %start
; call <core::str::iter::CharIndices as core::iter::traits::double_ended::DoubleEndedIterator>::next_back
  %9 = call { i64, i32 } @"_ZN102_$LT$core..str..iter..CharIndices$u20$as$u20$core..iter..traits..double_ended..DoubleEndedIterator$GT$9next_back17he7090f93a4ebc568E"(%"std::str::CharIndices"* align 8 dereferenceable(24) %s), !dbg !712
  store { i64, i32 } %9, { i64, i32 }* %_5, align 8, !dbg !712
  br label %bb2, !dbg !712

bb2:                                              ; preds = %bb1
  %10 = getelementptr inbounds { i64, i32 }, { i64, i32 }* %_5, i32 0, i32 1, !dbg !713
  %11 = load i32, i32* %10, align 8, !dbg !713, !range !598
  %12 = sub i32 %11, 1114112, !dbg !713
  %13 = icmp eq i32 %12, 0, !dbg !713
  %_7 = select i1 %13, i64 0, i64 1, !dbg !713
  %14 = icmp eq i64 %_7, 1, !dbg !713
  br i1 %14, label %bb3, label %bb8, !dbg !713

bb3:                                              ; preds = %bb2
  %15 = bitcast { i64, i32 }* %_5 to i64*, !dbg !714
  %i = load i64, i64* %15, align 8, !dbg !714
  store i64 %i, i64* %i.dbg.spill, align 8, !dbg !714
  call void @llvm.dbg.declare(metadata i64* %i.dbg.spill, metadata !691, metadata !DIExpression()), !dbg !715
  %16 = getelementptr inbounds { i64, i32 }, { i64, i32 }* %_5, i32 0, i32 1, !dbg !716
  %c = load i32, i32* %16, align 8, !dbg !716, !range !650
  store i32 %c, i32* %c.dbg.spill, align 4, !dbg !716
  call void @llvm.dbg.declare(metadata i32* %c.dbg.spill, metadata !693, metadata !DIExpression()), !dbg !717
  %_11 = getelementptr inbounds %"std::str::CharIndices", %"std::str::CharIndices"* %s, i32 0, i32 1, !dbg !718
  store { i8*, i8* }* %_11, { i8*, i8* }** %self.dbg.spill.i5, align 8
  call void @llvm.dbg.declare(metadata { i8*, i8* }** %self.dbg.spill.i5, metadata !618, metadata !DIExpression()) #14, !dbg !719
  %17 = bitcast { i8*, i8* }* %_11 to i8**, !dbg !721
  %start1.i6 = load i8*, i8** %17, align 8, !dbg !721, !nonnull !4
  store i8* %start1.i6, i8** %start.dbg.spill.i4, align 8, !dbg !721
  call void @llvm.dbg.declare(metadata i8** %start.dbg.spill.i4, metadata !626, metadata !DIExpression()) #14, !dbg !722
; call core::ptr::non_null::NonNull<T>::as_ptr
  %_5.i7 = call i8* @"_ZN4core3ptr8non_null16NonNull$LT$T$GT$6as_ptr17he9f4ac41c8ef8b16E"(i8* nonnull %start1.i6) #14, !dbg !722
  store i8* %_5.i7, i8** %_1.dbg.spill.i.i1, align 8
  call void @llvm.dbg.declare(metadata i8** %_1.dbg.spill.i.i1, metadata !636, metadata !DIExpression()) #14, !dbg !723
  store i64 1, i64* %size.dbg.spill.i3, align 8, !dbg !722
  call void @llvm.dbg.declare(metadata i64* %size.dbg.spill.i3, metadata !628, metadata !DIExpression()) #14, !dbg !725
  %18 = getelementptr inbounds { i8*, i8* }, { i8*, i8* }* %_11, i32 0, i32 1, !dbg !725
  %_15.i8 = load i8*, i8** %18, align 8, !dbg !725
  %_14.i9 = ptrtoint i8* %_15.i8 to i64, !dbg !725
; call core::ptr::non_null::NonNull<T>::as_ptr
  %_17.i10 = call i8* @"_ZN4core3ptr8non_null16NonNull$LT$T$GT$6as_ptr17he9f4ac41c8ef8b16E"(i8* nonnull %start1.i6) #14, !dbg !725
  %_16.i11 = ptrtoint i8* %_17.i10 to i64, !dbg !725
  %19 = sub nuw i64 %_14.i9, %_16.i11, !dbg !725
  store i64 %19, i64* %1, align 8, !dbg !725
  %diff.i12 = load i64, i64* %1, align 8, !dbg !725
  store i64 %diff.i12, i64* %diff.dbg.spill.i2, align 8, !dbg !725
  call void @llvm.dbg.declare(metadata i64* %diff.dbg.spill.i2, metadata !630, metadata !DIExpression()) #14, !dbg !726
  store i64 %diff.i12, i64* %2, align 8, !dbg !726
  %20 = load i64, i64* %2, align 8, !dbg !727
  store i64 %20, i64* %len.dbg.spill, align 8, !dbg !718
  call void @llvm.dbg.declare(metadata i64* %len.dbg.spill, metadata !694, metadata !DIExpression()), !dbg !728
  br label %bb4, !dbg !718

bb8:                                              ; preds = %bb2
  %21 = bitcast %"std::str::pattern::SearchStep"* %0 to i64*, !dbg !729
  store i64 2, i64* %21, align 8, !dbg !729
  br label %bb10, !dbg !730

bb10:                                             ; preds = %bb9, %bb8
  ret void, !dbg !730

bb4:                                              ; preds = %bb3
  %char_len = sub i64 %8, %20, !dbg !731
  store i64 %char_len, i64* %char_len.dbg.spill, align 8, !dbg !731
  call void @llvm.dbg.declare(metadata i64* %char_len.dbg.spill, metadata !696, metadata !DIExpression()), !dbg !732
  %_16 = bitcast %"std::str::pattern::MultiCharEqSearcher<[closure@core::str::<impl str>::trim_end::{closure#0}]>"* %self to %"[closure@core::str::<impl str>::trim_end::{closure#0}]"*, !dbg !733
; call <F as core::str::pattern::MultiCharEq>::matches
  %_15 = call zeroext i1 @"_ZN53_$LT$F$u20$as$u20$core..str..pattern..MultiCharEq$GT$7matches17h310ea493f119a851E"(%"[closure@core::str::<impl str>::trim_end::{closure#0}]"* nonnull align 1 %_16, i32 %c), !dbg !733
  br label %bb5, !dbg !733

bb5:                                              ; preds = %bb4
  br i1 %_15, label %bb6, label %bb7, !dbg !733

bb7:                                              ; preds = %bb5
  %_23 = add i64 %i, %char_len, !dbg !734
  %22 = bitcast %"std::str::pattern::SearchStep"* %0 to %"std::str::pattern::SearchStep::Reject"*, !dbg !735
  %23 = getelementptr inbounds %"std::str::pattern::SearchStep::Reject", %"std::str::pattern::SearchStep::Reject"* %22, i32 0, i32 1, !dbg !735
  store i64 %i, i64* %23, align 8, !dbg !735
  %24 = bitcast %"std::str::pattern::SearchStep"* %0 to %"std::str::pattern::SearchStep::Reject"*, !dbg !735
  %25 = getelementptr inbounds %"std::str::pattern::SearchStep::Reject", %"std::str::pattern::SearchStep::Reject"* %24, i32 0, i32 2, !dbg !735
  store i64 %_23, i64* %25, align 8, !dbg !735
  %26 = bitcast %"std::str::pattern::SearchStep"* %0 to i64*, !dbg !735
  store i64 1, i64* %26, align 8, !dbg !735
  br label %bb9, !dbg !736

bb6:                                              ; preds = %bb5
  %_19 = add i64 %i, %char_len, !dbg !737
  %27 = bitcast %"std::str::pattern::SearchStep"* %0 to %"std::str::pattern::SearchStep::Match"*, !dbg !738
  %28 = getelementptr inbounds %"std::str::pattern::SearchStep::Match", %"std::str::pattern::SearchStep::Match"* %27, i32 0, i32 1, !dbg !738
  store i64 %i, i64* %28, align 8, !dbg !738
  %29 = bitcast %"std::str::pattern::SearchStep"* %0 to %"std::str::pattern::SearchStep::Match"*, !dbg !738
  %30 = getelementptr inbounds %"std::str::pattern::SearchStep::Match", %"std::str::pattern::SearchStep::Match"* %29, i32 0, i32 2, !dbg !738
  store i64 %_19, i64* %30, align 8, !dbg !738
  %31 = bitcast %"std::str::pattern::SearchStep"* %0 to i64*, !dbg !738
  store i64 0, i64* %31, align 8, !dbg !738
  br label %bb9, !dbg !739

bb9:                                              ; preds = %bb7, %bb6
  br label %bb10, !dbg !730
}

; <core::ops::range::Range<usize> as core::slice::index::SliceIndex<[T]>>::get
; Function Attrs: inlinehint nounwind
define { i8*, i64 } @"_ZN106_$LT$core..ops..range..Range$LT$usize$GT$$u20$as$u20$core..slice..index..SliceIndex$LT$$u5b$T$u5d$$GT$$GT$3get17h7616a699b6c84a96E"(i64 %self.0, i64 %self.1, [0 x i8]* nonnull align 1 %slice.0, i64 %slice.1) unnamed_addr #0 !dbg !740 {
start:
  %slice.dbg.spill = alloca { [0 x i8]*, i64 }, align 8
  %self.dbg.spill = alloca { i64, i64 }, align 8
  %_3 = alloca i8, align 1
  %0 = alloca { i8*, i64 }, align 8
  %1 = getelementptr inbounds { i64, i64 }, { i64, i64 }* %self.dbg.spill, i32 0, i32 0
  store i64 %self.0, i64* %1, align 8
  %2 = getelementptr inbounds { i64, i64 }, { i64, i64 }* %self.dbg.spill, i32 0, i32 1
  store i64 %self.1, i64* %2, align 8
  call void @llvm.dbg.declare(metadata { i64, i64 }* %self.dbg.spill, metadata !769, metadata !DIExpression()), !dbg !771
  %3 = getelementptr inbounds { [0 x i8]*, i64 }, { [0 x i8]*, i64 }* %slice.dbg.spill, i32 0, i32 0
  store [0 x i8]* %slice.0, [0 x i8]** %3, align 8
  %4 = getelementptr inbounds { [0 x i8]*, i64 }, { [0 x i8]*, i64 }* %slice.dbg.spill, i32 0, i32 1
  store i64 %slice.1, i64* %4, align 8
  call void @llvm.dbg.declare(metadata { [0 x i8]*, i64 }* %slice.dbg.spill, metadata !770, metadata !DIExpression()), !dbg !772
  %_4 = icmp ugt i64 %self.0, %self.1, !dbg !773
  br i1 %_4, label %bb1, label %bb2, !dbg !773

bb2:                                              ; preds = %start
  %_7 = icmp ugt i64 %self.1, %slice.1, !dbg !774
  %5 = zext i1 %_7 to i8, !dbg !773
  store i8 %5, i8* %_3, align 1, !dbg !773
  br label %bb3, !dbg !773

bb1:                                              ; preds = %start
  store i8 1, i8* %_3, align 1, !dbg !773
  br label %bb3, !dbg !773

bb3:                                              ; preds = %bb2, %bb1
  %6 = load i8, i8* %_3, align 1, !dbg !773, !range !775
  %7 = trunc i8 %6 to i1, !dbg !773
  br i1 %7, label %bb4, label %bb5, !dbg !773

bb5:                                              ; preds = %bb3
; call <core::ops::range::Range<usize> as core::slice::index::SliceIndex<[T]>>::get_unchecked
  %8 = call { [0 x i8]*, i64 } @"_ZN106_$LT$core..ops..range..Range$LT$usize$GT$$u20$as$u20$core..slice..index..SliceIndex$LT$$u5b$T$u5d$$GT$$GT$13get_unchecked17h836b4846e0eda774E"(i64 %self.0, i64 %self.1, [0 x i8]* %slice.0, i64 %slice.1), !dbg !776
  %_13.0 = extractvalue { [0 x i8]*, i64 } %8, 0, !dbg !776
  %_13.1 = extractvalue { [0 x i8]*, i64 } %8, 1, !dbg !776
  br label %bb6, !dbg !776

bb4:                                              ; preds = %bb3
  %9 = bitcast { i8*, i64 }* %0 to {}**, !dbg !777
  store {}* null, {}** %9, align 8, !dbg !777
  br label %bb7, !dbg !778

bb7:                                              ; preds = %bb6, %bb4
  %10 = getelementptr inbounds { i8*, i64 }, { i8*, i64 }* %0, i32 0, i32 0, !dbg !779
  %11 = load i8*, i8** %10, align 8, !dbg !779
  %12 = getelementptr inbounds { i8*, i64 }, { i8*, i64 }* %0, i32 0, i32 1, !dbg !779
  %13 = load i64, i64* %12, align 8, !dbg !779
  %14 = insertvalue { i8*, i64 } undef, i8* %11, 0, !dbg !779
  %15 = insertvalue { i8*, i64 } %14, i64 %13, 1, !dbg !779
  ret { i8*, i64 } %15, !dbg !779

bb6:                                              ; preds = %bb5
  %16 = bitcast { i8*, i64 }* %0 to { [0 x i8]*, i64 }*, !dbg !780
  %17 = getelementptr inbounds { [0 x i8]*, i64 }, { [0 x i8]*, i64 }* %16, i32 0, i32 0, !dbg !780
  store [0 x i8]* %_13.0, [0 x i8]** %17, align 8, !dbg !780
  %18 = getelementptr inbounds { [0 x i8]*, i64 }, { [0 x i8]*, i64 }* %16, i32 0, i32 1, !dbg !780
  store i64 %_13.1, i64* %18, align 8, !dbg !780
  br label %bb7, !dbg !778
}

; <core::slice::iter::Iter<T> as core::iter::traits::double_ended::DoubleEndedIterator>::next_back
; Function Attrs: inlinehint nounwind
define align 1 dereferenceable_or_null(1) i8* @"_ZN106_$LT$core..slice..iter..Iter$LT$T$GT$$u20$as$u20$core..iter..traits..double_ended..DoubleEndedIterator$GT$9next_back17h9b2e0480d0382b0bE"({ i8*, i8* }* align 8 dereferenceable(16) %self) unnamed_addr #0 !dbg !781 {
start:
  %0 = alloca i8*, align 8
  %count.dbg.spill.i.i = alloca i64, align 8
  %self.dbg.spill.i.i = alloca i8*, align 8
  %offset.dbg.spill.i = alloca i64, align 8
  %self.dbg.spill.i = alloca { i8*, i8* }*, align 8
  %1 = alloca i8*, align 8
  %self.dbg.spill = alloca { i8*, i8* }*, align 8
  %2 = alloca i8*, align 8
  store { i8*, i8* }* %self, { i8*, i8* }** %self.dbg.spill, align 8
  call void @llvm.dbg.declare(metadata { i8*, i8* }** %self.dbg.spill, metadata !797, metadata !DIExpression()), !dbg !798
  %3 = bitcast { i8*, i8* }* %self to i8**, !dbg !799
  %_6 = load i8*, i8** %3, align 8, !dbg !799, !nonnull !4
; call core::ptr::non_null::NonNull<T>::as_ptr
  %_5 = call i8* @"_ZN4core3ptr8non_null16NonNull$LT$T$GT$6as_ptr17he9f4ac41c8ef8b16E"(i8* nonnull %_6), !dbg !799
  br label %bb1, !dbg !799

bb1:                                              ; preds = %start
; call core::ptr::mut_ptr::<impl *mut T>::is_null
  %_4 = call zeroext i1 @"_ZN4core3ptr7mut_ptr31_$LT$impl$u20$$BP$mut$u20$T$GT$7is_null17h81f020dc74f116d2E"(i8* %_5), !dbg !799
  br label %bb2, !dbg !799

bb2:                                              ; preds = %bb1
  %_3 = xor i1 %_4, true, !dbg !800
  call void @llvm.assume(i1 %_3), !dbg !801
  br label %bb3, !dbg !801

bb3:                                              ; preds = %bb2
  br label %bb4, !dbg !802

bb4:                                              ; preds = %bb3
  %4 = icmp eq i64 1, 0, !dbg !802
  br i1 %4, label %bb8, label %bb5, !dbg !802

bb8:                                              ; preds = %bb4
  br label %bb9, !dbg !803

bb5:                                              ; preds = %bb4
  %5 = getelementptr inbounds { i8*, i8* }, { i8*, i8* }* %self, i32 0, i32 1, !dbg !804
  %_11 = load i8*, i8** %5, align 8, !dbg !804
; call core::ptr::const_ptr::<impl *const T>::is_null
  %_10 = call zeroext i1 @"_ZN4core3ptr9const_ptr33_$LT$impl$u20$$BP$const$u20$T$GT$7is_null17hab0bc388f22a5caeE"(i8* %_11), !dbg !804
  br label %bb6, !dbg !804

bb6:                                              ; preds = %bb5
  %_9 = xor i1 %_10, true, !dbg !805
  call void @llvm.assume(i1 %_9), !dbg !806
  br label %bb7, !dbg !806

bb7:                                              ; preds = %bb6
  br label %bb9, !dbg !803

bb9:                                              ; preds = %bb8, %bb7
  %6 = bitcast { i8*, i8* }* %self to i8**, !dbg !807
  %_15 = load i8*, i8** %6, align 8, !dbg !807, !nonnull !4
; call core::ptr::non_null::NonNull<T>::as_ptr
  %_14 = call i8* @"_ZN4core3ptr8non_null16NonNull$LT$T$GT$6as_ptr17he9f4ac41c8ef8b16E"(i8* nonnull %_15), !dbg !807
  br label %bb10, !dbg !807

bb10:                                             ; preds = %bb9
  %7 = getelementptr inbounds { i8*, i8* }, { i8*, i8* }* %self, i32 0, i32 1, !dbg !807
  %_16 = load i8*, i8** %7, align 8, !dbg !807
  %_12 = icmp eq i8* %_14, %_16, !dbg !807
  br i1 %_12, label %bb11, label %bb12, !dbg !807

bb12:                                             ; preds = %bb10
  store { i8*, i8* }* %self, { i8*, i8* }** %self.dbg.spill.i, align 8
  call void @llvm.dbg.declare(metadata { i8*, i8* }** %self.dbg.spill.i, metadata !808, metadata !DIExpression()), !dbg !814
  store i64 1, i64* %offset.dbg.spill.i, align 8
  call void @llvm.dbg.declare(metadata i64* %offset.dbg.spill.i, metadata !813, metadata !DIExpression()), !dbg !816
  %8 = getelementptr inbounds { i8*, i8* }, { i8*, i8* }* %self, i32 0, i32 1, !dbg !817
  %_12.i = load i8*, i8** %8, align 8, !dbg !817
  store i8* %_12.i, i8** %self.dbg.spill.i.i, align 8
  call void @llvm.dbg.declare(metadata i8** %self.dbg.spill.i.i, metadata !818, metadata !DIExpression()), !dbg !827
  store i64 -1, i64* %count.dbg.spill.i.i, align 8
  call void @llvm.dbg.declare(metadata i64* %count.dbg.spill.i.i, metadata !826, metadata !DIExpression()), !dbg !829
  %9 = getelementptr inbounds i8, i8* %_12.i, i64 -1, !dbg !830
  store i8* %9, i8** %0, align 8, !dbg !830
  %10 = load i8*, i8** %0, align 8, !dbg !830
  %11 = getelementptr inbounds { i8*, i8* }, { i8*, i8* }* %self, i32 0, i32 1, !dbg !831
  store i8* %10, i8** %11, align 8, !dbg !831
  %12 = getelementptr inbounds { i8*, i8* }, { i8*, i8* }* %self, i32 0, i32 1, !dbg !832
  %13 = load i8*, i8** %12, align 8, !dbg !832
  store i8* %13, i8** %1, align 8, !dbg !832
  %14 = load i8*, i8** %1, align 8, !dbg !833
  br label %bb13, !dbg !834

bb11:                                             ; preds = %bb10
  %15 = bitcast i8** %2 to {}**, !dbg !835
  store {}* null, {}** %15, align 8, !dbg !835
  br label %bb14, !dbg !836

bb14:                                             ; preds = %bb13, %bb11
  %16 = load i8*, i8** %2, align 8, !dbg !837
  ret i8* %16, !dbg !837

bb13:                                             ; preds = %bb12
  store i8* %14, i8** %2, align 8, !dbg !838
  br label %bb14, !dbg !836
}

; <core::str::pattern::CharPredicateSearcher<F> as core::str::pattern::ReverseSearcher>::next_reject_back
; Function Attrs: inlinehint nounwind
define void @"_ZN106_$LT$core..str..pattern..CharPredicateSearcher$LT$F$GT$$u20$as$u20$core..str..pattern..ReverseSearcher$GT$16next_reject_back17h89539669099a9affE"(%"std::option::Option<(usize, usize)>"* noalias nocapture sret(%"std::option::Option<(usize, usize)>") dereferenceable(24) %0, %"std::str::pattern::CharPredicateSearcher<[closure@core::str::<impl str>::trim_end::{closure#0}]>"* align 8 dereferenceable(40) %self) unnamed_addr #0 !dbg !839 {
start:
  %self.dbg.spill = alloca %"std::str::pattern::CharPredicateSearcher<[closure@core::str::<impl str>::trim_end::{closure#0}]>"*, align 8
  store %"std::str::pattern::CharPredicateSearcher<[closure@core::str::<impl str>::trim_end::{closure#0}]>"* %self, %"std::str::pattern::CharPredicateSearcher<[closure@core::str::<impl str>::trim_end::{closure#0}]>"** %self.dbg.spill, align 8
  call void @llvm.dbg.declare(metadata %"std::str::pattern::CharPredicateSearcher<[closure@core::str::<impl str>::trim_end::{closure#0}]>"** %self.dbg.spill, metadata !866, metadata !DIExpression()), !dbg !867
  %_2 = bitcast %"std::str::pattern::CharPredicateSearcher<[closure@core::str::<impl str>::trim_end::{closure#0}]>"* %self to %"std::str::pattern::MultiCharEqSearcher<[closure@core::str::<impl str>::trim_end::{closure#0}]>"*, !dbg !868
; call core::str::pattern::ReverseSearcher::next_reject_back
  call void @_ZN4core3str7pattern15ReverseSearcher16next_reject_back17h239ab5bbd63e797cE(%"std::option::Option<(usize, usize)>"* noalias nocapture sret(%"std::option::Option<(usize, usize)>") dereferenceable(24) %0, %"std::str::pattern::MultiCharEqSearcher<[closure@core::str::<impl str>::trim_end::{closure#0}]>"* align 8 dereferenceable(40) %_2), !dbg !868
  br label %bb1, !dbg !868

bb1:                                              ; preds = %start
  ret void, !dbg !869
}

; <core::iter::adapters::filter::Filter<I,P> as core::iter::traits::iterator::Iterator>::fold
; Function Attrs: inlinehint nounwind
define void @"_ZN108_$LT$core..iter..adapters..filter..Filter$LT$I$C$P$GT$$u20$as$u20$core..iter..traits..iterator..Iterator$GT$4fold17h131a13ee618b945dE"(i8* nonnull %self.0, i8* %self.1, i64* align 8 dereferenceable(24) %fold) unnamed_addr #0 !dbg !870 {
start:
  %fold.dbg.spill = alloca i64*, align 8
  %init.dbg.spill = alloca {}, align 1
  %self.dbg.spill = alloca { i8*, i8* }, align 8
  %0 = getelementptr inbounds { i8*, i8* }, { i8*, i8* }* %self.dbg.spill, i32 0, i32 0
  store i8* %self.0, i8** %0, align 8
  %1 = getelementptr inbounds { i8*, i8* }, { i8*, i8* }* %self.dbg.spill, i32 0, i32 1
  store i8* %self.1, i8** %1, align 8
  call void @llvm.dbg.declare(metadata { i8*, i8* }* %self.dbg.spill, metadata !896, metadata !DIExpression()), !dbg !901
  call void @llvm.dbg.declare(metadata {}* %init.dbg.spill, metadata !897, metadata !DIExpression()), !dbg !902
  store i64* %fold, i64** %fold.dbg.spill, align 8
  call void @llvm.dbg.declare(metadata i64** %fold.dbg.spill, metadata !898, metadata !DIExpression()), !dbg !903
; call core::iter::adapters::filter::filter_fold
  %_6 = call align 8 dereferenceable(24) i64* @_ZN4core4iter8adapters6filter11filter_fold17h0342d651f3fbe722E(i64* align 8 dereferenceable(24) %fold), !dbg !904
  br label %bb1, !dbg !904

bb1:                                              ; preds = %start
; call core::iter::traits::iterator::Iterator::fold
  call void @_ZN4core4iter6traits8iterator8Iterator4fold17h2cb8c5ee7ae6ebbcE(i8* nonnull %self.0, i8* %self.1, i64* align 8 dereferenceable(24) %_6), !dbg !905
  br label %bb2, !dbg !905

bb2:                                              ; preds = %bb1
  ret void, !dbg !906
}

; <core::iter::adapters::filter::Filter<I,P> as core::iter::traits::iterator::Iterator>::size_hint
; Function Attrs: inlinehint nounwind
define void @"_ZN108_$LT$core..iter..adapters..filter..Filter$LT$I$C$P$GT$$u20$as$u20$core..iter..traits..iterator..Iterator$GT$9size_hint17hd3024b3e3a717388E"({ i64, { i64, i64 } }* noalias nocapture sret({ i64, { i64, i64 } }) dereferenceable(24) %0, { i8*, i8* }* align 8 dereferenceable(16) %self) unnamed_addr #0 !dbg !907 {
start:
  %upper.dbg.spill = alloca { i64, i64 }, align 8
  %self.dbg.spill = alloca { i8*, i8* }*, align 8
  %_3 = alloca { i64, { i64, i64 } }, align 8
  store { i8*, i8* }* %self, { i8*, i8* }** %self.dbg.spill, align 8
  call void @llvm.dbg.declare(metadata { i8*, i8* }** %self.dbg.spill, metadata !912, metadata !DIExpression()), !dbg !915
; call <core::str::iter::Chars as core::iter::traits::iterator::Iterator>::size_hint
  call void @"_ZN81_$LT$core..str..iter..Chars$u20$as$u20$core..iter..traits..iterator..Iterator$GT$9size_hint17hbeffe0a4c0a566f2E"({ i64, { i64, i64 } }* noalias nocapture sret({ i64, { i64, i64 } }) dereferenceable(24) %_3, { i8*, i8* }* align 8 dereferenceable(16) %self), !dbg !916
  br label %bb1, !dbg !916

bb1:                                              ; preds = %start
  %1 = getelementptr inbounds { i64, { i64, i64 } }, { i64, { i64, i64 } }* %_3, i32 0, i32 1, !dbg !917
  %2 = getelementptr inbounds { i64, i64 }, { i64, i64 }* %1, i32 0, i32 0, !dbg !917
  %upper.0 = load i64, i64* %2, align 8, !dbg !917, !range !918
  %3 = getelementptr inbounds { i64, i64 }, { i64, i64 }* %1, i32 0, i32 1, !dbg !917
  %upper.1 = load i64, i64* %3, align 8, !dbg !917
  %4 = getelementptr inbounds { i64, i64 }, { i64, i64 }* %upper.dbg.spill, i32 0, i32 0, !dbg !917
  store i64 %upper.0, i64* %4, align 8, !dbg !917
  %5 = getelementptr inbounds { i64, i64 }, { i64, i64 }* %upper.dbg.spill, i32 0, i32 1, !dbg !917
  store i64 %upper.1, i64* %5, align 8, !dbg !917
  call void @llvm.dbg.declare(metadata { i64, i64 }* %upper.dbg.spill, metadata !913, metadata !DIExpression()), !dbg !919
  %6 = bitcast { i64, { i64, i64 } }* %0 to i64*, !dbg !920
  store i64 0, i64* %6, align 8, !dbg !920
  %7 = getelementptr inbounds { i64, { i64, i64 } }, { i64, { i64, i64 } }* %0, i32 0, i32 1, !dbg !920
  %8 = getelementptr inbounds { i64, i64 }, { i64, i64 }* %7, i32 0, i32 0, !dbg !920
  store i64 %upper.0, i64* %8, align 8, !dbg !920
  %9 = getelementptr inbounds { i64, i64 }, { i64, i64 }* %7, i32 0, i32 1, !dbg !920
  store i64 %upper.1, i64* %9, align 8, !dbg !920
  ret void, !dbg !921
}

; <core::iter::adapters::enumerate::Enumerate<I> as core::iter::traits::iterator::Iterator>::fold
; Function Attrs: inlinehint nounwind
define void @"_ZN110_$LT$core..iter..adapters..enumerate..Enumerate$LT$I$GT$$u20$as$u20$core..iter..traits..iterator..Iterator$GT$4fold17hb5c118ec4bdc132cE"(%"std::iter::Enumerate<std::slice::IterMut<u8>>"* noalias nocapture dereferenceable(24) %self, i8* nonnull align 1 %fold.0, i64* align 8 dereferenceable(8) %fold.1) unnamed_addr #0 !dbg !922 {
start:
  %fold.dbg.spill = alloca { i8*, i64* }, align 8
  %init.dbg.spill = alloca {}, align 1
  %_6 = alloca %"[closure@<std::iter::Enumerate<I> as std::iter::Iterator>::fold::enumerate<&mut u8, (), [closure@std::iter::Iterator::for_each::call<(usize, &mut u8), [closure@<sha2::digest::generic_array::GenericArray<u8, sha2::digest::generic_array::typenum::UInt<sha2::digest::generic_array::typenum::UInt<sha2::digest::generic_array::typenum::UInt<sha2::digest::generic_array::typenum::UInt<sha2::digest::generic_array::typenum::UInt<sha2::digest::generic_array::typenum::UInt<sha2::digest::generic_array::typenum::UTerm, sha2::digest::consts::B1>, sha2::digest::consts::B0>, sha2::digest::consts::B0>, sha2::digest::consts::B0>, sha2::digest::consts::B0>, sha2::digest::consts::B0>> as sha2::digest::generic_array::sequence::GenericSequence<u8>>::generate<[closure@sha2::digest::generic_array::impls::<impl std::default::Default for sha2::digest::generic_array::GenericArray<u8, sha2::digest::generic_array::typenum::UInt<sha2::digest::generic_array::typenum::UInt<sha2::digest::generic_array::typenum::UInt<sha2::digest::generic_array::typenum::UInt<sha2::digest::generic_array::typenum::UInt<sha2::digest::generic_array::typenum::UInt<sha2::digest::generic_array::typenum::UTerm, sha2::digest::consts::B1>, sha2::digest::consts::B0>, sha2::digest::consts::B0>, sha2::digest::consts::B0>, sha2::digest::consts::B0>, sha2::digest::consts::B0>>>::default::{closure#0}]>::{closure#0}]>::{closure#0}]>::{closure#0}]", align 8
  call void @llvm.dbg.declare(metadata %"std::iter::Enumerate<std::slice::IterMut<u8>>"* %self, metadata !960, metadata !DIExpression()), !dbg !965
  call void @llvm.dbg.declare(metadata {}* %init.dbg.spill, metadata !961, metadata !DIExpression()), !dbg !966
  %0 = getelementptr inbounds { i8*, i64* }, { i8*, i64* }* %fold.dbg.spill, i32 0, i32 0
  store i8* %fold.0, i8** %0, align 8
  %1 = getelementptr inbounds { i8*, i64* }, { i8*, i64* }* %fold.dbg.spill, i32 0, i32 1
  store i64* %fold.1, i64** %1, align 8
  call void @llvm.dbg.declare(metadata { i8*, i64* }* %fold.dbg.spill, metadata !962, metadata !DIExpression()), !dbg !967
  %2 = bitcast %"std::iter::Enumerate<std::slice::IterMut<u8>>"* %self to { i8*, i8* }*, !dbg !968
  %3 = getelementptr inbounds { i8*, i8* }, { i8*, i8* }* %2, i32 0, i32 0, !dbg !968
  %_4.0 = load i8*, i8** %3, align 8, !dbg !968, !nonnull !4
  %4 = getelementptr inbounds { i8*, i8* }, { i8*, i8* }* %2, i32 0, i32 1, !dbg !968
  %_4.1 = load i8*, i8** %4, align 8, !dbg !968
  %5 = getelementptr inbounds %"std::iter::Enumerate<std::slice::IterMut<u8>>", %"std::iter::Enumerate<std::slice::IterMut<u8>>"* %self, i32 0, i32 1, !dbg !969
  %_7 = load i64, i64* %5, align 8, !dbg !969
; call <core::iter::adapters::enumerate::Enumerate<I> as core::iter::traits::iterator::Iterator>::fold::enumerate
  call void @"_ZN110_$LT$core..iter..adapters..enumerate..Enumerate$LT$I$GT$$u20$as$u20$core..iter..traits..iterator..Iterator$GT$4fold9enumerate17h0664a7be071fc52aE"(%"[closure@<std::iter::Enumerate<I> as std::iter::Iterator>::fold::enumerate<&mut u8, (), [closure@std::iter::Iterator::for_each::call<(usize, &mut u8), [closure@<sha2::digest::generic_array::GenericArray<u8, sha2::digest::generic_array::typenum::UInt<sha2::digest::generic_array::typenum::UInt<sha2::digest::generic_array::typenum::UInt<sha2::digest::generic_array::typenum::UInt<sha2::digest::generic_array::typenum::UInt<sha2::digest::generic_array::typenum::UInt<sha2::digest::generic_array::typenum::UTerm, sha2::digest::consts::B1>, sha2::digest::consts::B0>, sha2::digest::consts::B0>, sha2::digest::consts::B0>, sha2::digest::consts::B0>, sha2::digest::consts::B0>> as sha2::digest::generic_array::sequence::GenericSequence<u8>>::generate<[closure@sha2::digest::generic_array::impls::<impl std::default::Default for sha2::digest::generic_array::GenericArray<u8, sha2::digest::generic_array::typenum::UInt<sha2::digest::generic_array::typenum::UInt<sha2::digest::generic_array::typenum::UInt<sha2::digest::generic_array::typenum::UInt<sha2::digest::generic_array::typenum::UInt<sha2::digest::generic_array::typenum::UInt<sha2::digest::generic_array::typenum::UTerm, sha2::digest::consts::B1>, sha2::digest::consts::B0>, sha2::digest::consts::B0>, sha2::digest::consts::B0>, sha2::digest::consts::B0>, sha2::digest::consts::B0>>>::default::{closure#0}]>::{closure#0}]>::{closure#0}]>::{closure#0}]"* noalias nocapture sret(%"[closure@<std::iter::Enumerate<I> as std::iter::Iterator>::fold::enumerate<&mut u8, (), [closure@std::iter::Iterator::for_each::call<(usize, &mut u8), [closure@<sha2::digest::generic_array::GenericArray<u8, sha2::digest::generic_array::typenum::UInt<sha2::digest::generic_array::typenum::UInt<sha2::digest::generic_array::typenum::UInt<sha2::digest::generic_array::typenum::UInt<sha2::digest::generic_array::typenum::UInt<sha2::digest::generic_array::typenum::UInt<sha2::digest::generic_array::typenum::UTerm, sha2::digest::consts::B1>, sha2::digest::consts::B0>, sha2::digest::consts::B0>, sha2::digest::consts::B0>, sha2::digest::consts::B0>, sha2::digest::consts::B0>> as sha2::digest::generic_array::sequence::GenericSequence<u8>>::generate<[closure@sha2::digest::generic_array::impls::<impl std::default::Default for sha2::digest::generic_array::GenericArray<u8, sha2::digest::generic_array::typenum::UInt<sha2::digest::generic_array::typenum::UInt<sha2::digest::generic_array::typenum::UInt<sha2::digest::generic_array::typenum::UInt<sha2::digest::generic_array::typenum::UInt<sha2::digest::generic_array::typenum::UInt<sha2::digest::generic_array::typenum::UTerm, sha2::digest::consts::B1>, sha2::digest::consts::B0>, sha2::digest::consts::B0>, sha2::digest::consts::B0>, sha2::digest::consts::B0>, sha2::digest::consts::B0>>>::default::{closure#0}]>::{closure#0}]>::{closure#0}]>::{closure#0}]") dereferenceable(24) %_6, i64 %_7, i8* nonnull align 1 %fold.0, i64* align 8 dereferenceable(8) %fold.1), !dbg !970
  br label %bb1, !dbg !970

bb1:                                              ; preds = %start
; call core::iter::traits::iterator::Iterator::fold
  call void @_ZN4core4iter6traits8iterator8Iterator4fold17h22faa0ff5a878f1aE(i8* nonnull %_4.0, i8* %_4.1, %"[closure@<std::iter::Enumerate<I> as std::iter::Iterator>::fold::enumerate<&mut u8, (), [closure@std::iter::Iterator::for_each::call<(usize, &mut u8), [closure@<sha2::digest::generic_array::GenericArray<u8, sha2::digest::generic_array::typenum::UInt<sha2::digest::generic_array::typenum::UInt<sha2::digest::generic_array::typenum::UInt<sha2::digest::generic_array::typenum::UInt<sha2::digest::generic_array::typenum::UInt<sha2::digest::generic_array::typenum::UInt<sha2::digest::generic_array::typenum::UTerm, sha2::digest::consts::B1>, sha2::digest::consts::B0>, sha2::digest::consts::B0>, sha2::digest::consts::B0>, sha2::digest::consts::B0>, sha2::digest::consts::B0>> as sha2::digest::generic_array::sequence::GenericSequence<u8>>::generate<[closure@sha2::digest::generic_array::impls::<impl std::default::Default for sha2::digest::generic_array::GenericArray<u8, sha2::digest::generic_array::typenum::UInt<sha2::digest::generic_array::typenum::UInt<sha2::digest::generic_array::typenum::UInt<sha2::digest::generic_array::typenum::UInt<sha2::digest::generic_array::typenum::UInt<sha2::digest::generic_array::typenum::UInt<sha2::digest::generic_array::typenum::UTerm, sha2::digest::consts::B1>, sha2::digest::consts::B0>, sha2::digest::consts::B0>, sha2::digest::consts::B0>, sha2::digest::consts::B0>, sha2::digest::consts::B0>>>::default::{closure#0}]>::{closure#0}]>::{closure#0}]>::{closure#0}]"* noalias nocapture dereferenceable(24) %_6), !dbg !968
  br label %bb2, !dbg !968

bb2:                                              ; preds = %bb1
  ret void, !dbg !971
}

; <core::iter::adapters::enumerate::Enumerate<I> as core::iter::traits::iterator::Iterator>::fold::enumerate
; Function Attrs: inlinehint nounwind
define void @"_ZN110_$LT$core..iter..adapters..enumerate..Enumerate$LT$I$GT$$u20$as$u20$core..iter..traits..iterator..Iterator$GT$4fold9enumerate17h0664a7be071fc52aE"(%"[closure@<std::iter::Enumerate<I> as std::iter::Iterator>::fold::enumerate<&mut u8, (), [closure@std::iter::Iterator::for_each::call<(usize, &mut u8), [closure@<sha2::digest::generic_array::GenericArray<u8, sha2::digest::generic_array::typenum::UInt<sha2::digest::generic_array::typenum::UInt<sha2::digest::generic_array::typenum::UInt<sha2::digest::generic_array::typenum::UInt<sha2::digest::generic_array::typenum::UInt<sha2::digest::generic_array::typenum::UInt<sha2::digest::generic_array::typenum::UTerm, sha2::digest::consts::B1>, sha2::digest::consts::B0>, sha2::digest::consts::B0>, sha2::digest::consts::B0>, sha2::digest::consts::B0>, sha2::digest::consts::B0>> as sha2::digest::generic_array::sequence::GenericSequence<u8>>::generate<[closure@sha2::digest::generic_array::impls::<impl std::default::Default for sha2::digest::generic_array::GenericArray<u8, sha2::digest::generic_array::typenum::UInt<sha2::digest::generic_array::typenum::UInt<sha2::digest::generic_array::typenum::UInt<sha2::digest::generic_array::typenum::UInt<sha2::digest::generic_array::typenum::UInt<sha2::digest::generic_array::typenum::UInt<sha2::digest::generic_array::typenum::UTerm, sha2::digest::consts::B1>, sha2::digest::consts::B0>, sha2::digest::consts::B0>, sha2::digest::consts::B0>, sha2::digest::consts::B0>, sha2::digest::consts::B0>>>::default::{closure#0}]>::{closure#0}]>::{closure#0}]>::{closure#0}]"* noalias nocapture sret(%"[closure@<std::iter::Enumerate<I> as std::iter::Iterator>::fold::enumerate<&mut u8, (), [closure@std::iter::Iterator::for_each::call<(usize, &mut u8), [closure@<sha2::digest::generic_array::GenericArray<u8, sha2::digest::generic_array::typenum::UInt<sha2::digest::generic_array::typenum::UInt<sha2::digest::generic_array::typenum::UInt<sha2::digest::generic_array::typenum::UInt<sha2::digest::generic_array::typenum::UInt<sha2::digest::generic_array::typenum::UInt<sha2::digest::generic_array::typenum::UTerm, sha2::digest::consts::B1>, sha2::digest::consts::B0>, sha2::digest::consts::B0>, sha2::digest::consts::B0>, sha2::digest::consts::B0>, sha2::digest::consts::B0>> as sha2::digest::generic_array::sequence::GenericSequence<u8>>::generate<[closure@sha2::digest::generic_array::impls::<impl std::default::Default for sha2::digest::generic_array::GenericArray<u8, sha2::digest::generic_array::typenum::UInt<sha2::digest::generic_array::typenum::UInt<sha2::digest::generic_array::typenum::UInt<sha2::digest::generic_array::typenum::UInt<sha2::digest::generic_array::typenum::UInt<sha2::digest::generic_array::typenum::UInt<sha2::digest::generic_array::typenum::UTerm, sha2::digest::consts::B1>, sha2::digest::consts::B0>, sha2::digest::consts::B0>, sha2::digest::consts::B0>, sha2::digest::consts::B0>, sha2::digest::consts::B0>>>::default::{closure#0}]>::{closure#0}]>::{closure#0}]>::{closure#0}]") dereferenceable(24) %0, i64 %count, i8* nonnull align 1 %fold.0, i64* align 8 dereferenceable(8) %fold.1) unnamed_addr #0 !dbg !972 {
start:
  %fold.dbg.spill = alloca { i8*, i64* }, align 8
  %count.dbg.spill = alloca i64, align 8
  store i64 %count, i64* %count.dbg.spill, align 8
  call void @llvm.dbg.declare(metadata i64* %count.dbg.spill, metadata !982, metadata !DIExpression()), !dbg !986
  %1 = getelementptr inbounds { i8*, i64* }, { i8*, i64* }* %fold.dbg.spill, i32 0, i32 0
  store i8* %fold.0, i8** %1, align 8
  %2 = getelementptr inbounds { i8*, i64* }, { i8*, i64* }* %fold.dbg.spill, i32 0, i32 1
  store i64* %fold.1, i64** %2, align 8
  call void @llvm.dbg.declare(metadata { i8*, i64* }* %fold.dbg.spill, metadata !983, metadata !DIExpression()), !dbg !987
  %3 = bitcast %"[closure@<std::iter::Enumerate<I> as std::iter::Iterator>::fold::enumerate<&mut u8, (), [closure@std::iter::Iterator::for_each::call<(usize, &mut u8), [closure@<sha2::digest::generic_array::GenericArray<u8, sha2::digest::generic_array::typenum::UInt<sha2::digest::generic_array::typenum::UInt<sha2::digest::generic_array::typenum::UInt<sha2::digest::generic_array::typenum::UInt<sha2::digest::generic_array::typenum::UInt<sha2::digest::generic_array::typenum::UInt<sha2::digest::generic_array::typenum::UTerm, sha2::digest::consts::B1>, sha2::digest::consts::B0>, sha2::digest::consts::B0>, sha2::digest::consts::B0>, sha2::digest::consts::B0>, sha2::digest::consts::B0>> as sha2::digest::generic_array::sequence::GenericSequence<u8>>::generate<[closure@sha2::digest::generic_array::impls::<impl std::default::Default for sha2::digest::generic_array::GenericArray<u8, sha2::digest::generic_array::typenum::UInt<sha2::digest::generic_array::typenum::UInt<sha2::digest::generic_array::typenum::UInt<sha2::digest::generic_array::typenum::UInt<sha2::digest::generic_array::typenum::UInt<sha2::digest::generic_array::typenum::UInt<sha2::digest::generic_array::typenum::UTerm, sha2::digest::consts::B1>, sha2::digest::consts::B0>, sha2::digest::consts::B0>, sha2::digest::consts::B0>, sha2::digest::consts::B0>, sha2::digest::consts::B0>>>::default::{closure#0}]>::{closure#0}]>::{closure#0}]>::{closure#0}]"* %0 to { i8*, i64* }*, !dbg !988
  %4 = getelementptr inbounds { i8*, i64* }, { i8*, i64* }* %3, i32 0, i32 0, !dbg !988
  store i8* %fold.0, i8** %4, align 8, !dbg !988
  %5 = getelementptr inbounds { i8*, i64* }, { i8*, i64* }* %3, i32 0, i32 1, !dbg !988
  store i64* %fold.1, i64** %5, align 8, !dbg !988
  %6 = getelementptr inbounds %"[closure@<std::iter::Enumerate<I> as std::iter::Iterator>::fold::enumerate<&mut u8, (), [closure@std::iter::Iterator::for_each::call<(usize, &mut u8), [closure@<sha2::digest::generic_array::GenericArray<u8, sha2::digest::generic_array::typenum::UInt<sha2::digest::generic_array::typenum::UInt<sha2::digest::generic_array::typenum::UInt<sha2::digest::generic_array::typenum::UInt<sha2::digest::generic_array::typenum::UInt<sha2::digest::generic_array::typenum::UInt<sha2::digest::generic_array::typenum::UTerm, sha2::digest::consts::B1>, sha2::digest::consts::B0>, sha2::digest::consts::B0>, sha2::digest::consts::B0>, sha2::digest::consts::B0>, sha2::digest::consts::B0>> as sha2::digest::generic_array::sequence::GenericSequence<u8>>::generate<[closure@sha2::digest::generic_array::impls::<impl std::default::Default for sha2::digest::generic_array::GenericArray<u8, sha2::digest::generic_array::typenum::UInt<sha2::digest::generic_array::typenum::UInt<sha2::digest::generic_array::typenum::UInt<sha2::digest::generic_array::typenum::UInt<sha2::digest::generic_array::typenum::UInt<sha2::digest::generic_array::typenum::UInt<sha2::digest::generic_array::typenum::UTerm, sha2::digest::consts::B1>, sha2::digest::consts::B0>, sha2::digest::consts::B0>, sha2::digest::consts::B0>, sha2::digest::consts::B0>, sha2::digest::consts::B0>>>::default::{closure#0}]>::{closure#0}]>::{closure#0}]>::{closure#0}]", %"[closure@<std::iter::Enumerate<I> as std::iter::Iterator>::fold::enumerate<&mut u8, (), [closure@std::iter::Iterator::for_each::call<(usize, &mut u8), [closure@<sha2::digest::generic_array::GenericArray<u8, sha2::digest::generic_array::typenum::UInt<sha2::digest::generic_array::typenum::UInt<sha2::digest::generic_array::typenum::UInt<sha2::digest::generic_array::typenum::UInt<sha2::digest::generic_array::typenum::UInt<sha2::digest::generic_array::typenum::UInt<sha2::digest::generic_array::typenum::UTerm, sha2::digest::consts::B1>, sha2::digest::consts::B0>, sha2::digest::consts::B0>, sha2::digest::consts::B0>, sha2::digest::consts::B0>, sha2::digest::consts::B0>> as sha2::digest::generic_array::sequence::GenericSequence<u8>>::generate<[closure@sha2::digest::generic_array::impls::<impl std::default::Default for sha2::digest::generic_array::GenericArray<u8, sha2::digest::generic_array::typenum::UInt<sha2::digest::generic_array::typenum::UInt<sha2::digest::generic_array::typenum::UInt<sha2::digest::generic_array::typenum::UInt<sha2::digest::generic_array::typenum::UInt<sha2::digest::generic_array::typenum::UInt<sha2::digest::generic_array::typenum::UTerm, sha2::digest::consts::B1>, sha2::digest::consts::B0>, sha2::digest::consts::B0>, sha2::digest::consts::B0>, sha2::digest::consts::B0>, sha2::digest::consts::B0>>>::default::{closure#0}]>::{closure#0}]>::{closure#0}]>::{closure#0}]"* %0, i32 0, i32 1, !dbg !988
  store i64 %count, i64* %6, align 8, !dbg !988
  ret void, !dbg !989
}

; <core::iter::adapters::enumerate::Enumerate<I> as core::iter::traits::iterator::Iterator>::fold::enumerate::{{closure}}
; Function Attrs: inlinehint nounwind
define void @"_ZN110_$LT$core..iter..adapters..enumerate..Enumerate$LT$I$GT$$u20$as$u20$core..iter..traits..iterator..Iterator$GT$4fold9enumerate28_$u7b$$u7b$closure$u7d$$u7d$17h923ae03579a210b6E"(%"[closure@<std::iter::Enumerate<I> as std::iter::Iterator>::fold::enumerate<&mut u8, (), [closure@std::iter::Iterator::for_each::call<(usize, &mut u8), [closure@<sha2::digest::generic_array::GenericArray<u8, sha2::digest::generic_array::typenum::UInt<sha2::digest::generic_array::typenum::UInt<sha2::digest::generic_array::typenum::UInt<sha2::digest::generic_array::typenum::UInt<sha2::digest::generic_array::typenum::UInt<sha2::digest::generic_array::typenum::UInt<sha2::digest::generic_array::typenum::UTerm, sha2::digest::consts::B1>, sha2::digest::consts::B0>, sha2::digest::consts::B0>, sha2::digest::consts::B0>, sha2::digest::consts::B0>, sha2::digest::consts::B0>> as sha2::digest::generic_array::sequence::GenericSequence<u8>>::generate<[closure@sha2::digest::generic_array::impls::<impl std::default::Default for sha2::digest::generic_array::GenericArray<u8, sha2::digest::generic_array::typenum::UInt<sha2::digest::generic_array::typenum::UInt<sha2::digest::generic_array::typenum::UInt<sha2::digest::generic_array::typenum::UInt<sha2::digest::generic_array::typenum::UInt<sha2::digest::generic_array::typenum::UInt<sha2::digest::generic_array::typenum::UTerm, sha2::digest::consts::B1>, sha2::digest::consts::B0>, sha2::digest::consts::B0>, sha2::digest::consts::B0>, sha2::digest::consts::B0>, sha2::digest::consts::B0>>>::default::{closure#0}]>::{closure#0}]>::{closure#0}]>::{closure#0}]"* align 8 dereferenceable(24) %_1, i8* align 1 dereferenceable(1) %item) unnamed_addr #0 !dbg !990 {
start:
  %item.dbg.spill = alloca i8*, align 8
  %acc.dbg.spill1 = alloca {}, align 1
  %_1.dbg.spill = alloca %"[closure@<std::iter::Enumerate<I> as std::iter::Iterator>::fold::enumerate<&mut u8, (), [closure@std::iter::Iterator::for_each::call<(usize, &mut u8), [closure@<sha2::digest::generic_array::GenericArray<u8, sha2::digest::generic_array::typenum::UInt<sha2::digest::generic_array::typenum::UInt<sha2::digest::generic_array::typenum::UInt<sha2::digest::generic_array::typenum::UInt<sha2::digest::generic_array::typenum::UInt<sha2::digest::generic_array::typenum::UInt<sha2::digest::generic_array::typenum::UTerm, sha2::digest::consts::B1>, sha2::digest::consts::B0>, sha2::digest::consts::B0>, sha2::digest::consts::B0>, sha2::digest::consts::B0>, sha2::digest::consts::B0>> as sha2::digest::generic_array::sequence::GenericSequence<u8>>::generate<[closure@sha2::digest::generic_array::impls::<impl std::default::Default for sha2::digest::generic_array::GenericArray<u8, sha2::digest::generic_array::typenum::UInt<sha2::digest::generic_array::typenum::UInt<sha2::digest::generic_array::typenum::UInt<sha2::digest::generic_array::typenum::UInt<sha2::digest::generic_array::typenum::UInt<sha2::digest::generic_array::typenum::UInt<sha2::digest::generic_array::typenum::UTerm, sha2::digest::consts::B1>, sha2::digest::consts::B0>, sha2::digest::consts::B0>, sha2::digest::consts::B0>, sha2::digest::consts::B0>, sha2::digest::consts::B0>>>::default::{closure#0}]>::{closure#0}]>::{closure#0}]>::{closure#0}]"*, align 8
  %acc.dbg.spill = alloca {}, align 1
  %_7 = alloca { i64, i8* }, align 8
  %_5 = alloca { i64, i8* }, align 8
  call void @llvm.dbg.declare(metadata {}* %acc.dbg.spill, metadata !999, metadata !DIExpression()), !dbg !1001
  store %"[closure@<std::iter::Enumerate<I> as std::iter::Iterator>::fold::enumerate<&mut u8, (), [closure@std::iter::Iterator::for_each::call<(usize, &mut u8), [closure@<sha2::digest::generic_array::GenericArray<u8, sha2::digest::generic_array::typenum::UInt<sha2::digest::generic_array::typenum::UInt<sha2::digest::generic_array::typenum::UInt<sha2::digest::generic_array::typenum::UInt<sha2::digest::generic_array::typenum::UInt<sha2::digest::generic_array::typenum::UInt<sha2::digest::generic_array::typenum::UTerm, sha2::digest::consts::B1>, sha2::digest::consts::B0>, sha2::digest::consts::B0>, sha2::digest::consts::B0>, sha2::digest::consts::B0>, sha2::digest::consts::B0>> as sha2::digest::generic_array::sequence::GenericSequence<u8>>::generate<[closure@sha2::digest::generic_array::impls::<impl std::default::Default for sha2::digest::generic_array::GenericArray<u8, sha2::digest::generic_array::typenum::UInt<sha2::digest::generic_array::typenum::UInt<sha2::digest::generic_array::typenum::UInt<sha2::digest::generic_array::typenum::UInt<sha2::digest::generic_array::typenum::UInt<sha2::digest::generic_array::typenum::UInt<sha2::digest::generic_array::typenum::UTerm, sha2::digest::consts::B1>, sha2::digest::consts::B0>, sha2::digest::consts::B0>, sha2::digest::consts::B0>, sha2::digest::consts::B0>, sha2::digest::consts::B0>>>::default::{closure#0}]>::{closure#0}]>::{closure#0}]>::{closure#0}]"* %_1, %"[closure@<std::iter::Enumerate<I> as std::iter::Iterator>::fold::enumerate<&mut u8, (), [closure@std::iter::Iterator::for_each::call<(usize, &mut u8), [closure@<sha2::digest::generic_array::GenericArray<u8, sha2::digest::generic_array::typenum::UInt<sha2::digest::generic_array::typenum::UInt<sha2::digest::generic_array::typenum::UInt<sha2::digest::generic_array::typenum::UInt<sha2::digest::generic_array::typenum::UInt<sha2::digest::generic_array::typenum::UInt<sha2::digest::generic_array::typenum::UTerm, sha2::digest::consts::B1>, sha2::digest::consts::B0>, sha2::digest::consts::B0>, sha2::digest::consts::B0>, sha2::digest::consts::B0>, sha2::digest::consts::B0>> as sha2::digest::generic_array::sequence::GenericSequence<u8>>::generate<[closure@sha2::digest::generic_array::impls::<impl std::default::Default for sha2::digest::generic_array::GenericArray<u8, sha2::digest::generic_array::typenum::UInt<sha2::digest::generic_array::typenum::UInt<sha2::digest::generic_array::typenum::UInt<sha2::digest::generic_array::typenum::UInt<sha2::digest::generic_array::typenum::UInt<sha2::digest::generic_array::typenum::UInt<sha2::digest::generic_array::typenum::UTerm, sha2::digest::consts::B1>, sha2::digest::consts::B0>, sha2::digest::consts::B0>, sha2::digest::consts::B0>, sha2::digest::consts::B0>, sha2::digest::consts::B0>>>::default::{closure#0}]>::{closure#0}]>::{closure#0}]>::{closure#0}]"** %_1.dbg.spill, align 8
  %0 = load %"[closure@<std::iter::Enumerate<I> as std::iter::Iterator>::fold::enumerate<&mut u8, (), [closure@std::iter::Iterator::for_each::call<(usize, &mut u8), [closure@<sha2::digest::generic_array::GenericArray<u8, sha2::digest::generic_array::typenum::UInt<sha2::digest::generic_array::typenum::UInt<sha2::digest::generic_array::typenum::UInt<sha2::digest::generic_array::typenum::UInt<sha2::digest::generic_array::typenum::UInt<sha2::digest::generic_array::typenum::UInt<sha2::digest::generic_array::typenum::UTerm, sha2::digest::consts::B1>, sha2::digest::consts::B0>, sha2::digest::consts::B0>, sha2::digest::consts::B0>, sha2::digest::consts::B0>, sha2::digest::consts::B0>> as sha2::digest::generic_array::sequence::GenericSequence<u8>>::generate<[closure@sha2::digest::generic_array::impls::<impl std::default::Default for sha2::digest::generic_array::GenericArray<u8, sha2::digest::generic_array::typenum::UInt<sha2::digest::generic_array::typenum::UInt<sha2::digest::generic_array::typenum::UInt<sha2::digest::generic_array::typenum::UInt<sha2::digest::generic_array::typenum::UInt<sha2::digest::generic_array::typenum::UInt<sha2::digest::generic_array::typenum::UTerm, sha2::digest::consts::B1>, sha2::digest::consts::B0>, sha2::digest::consts::B0>, sha2::digest::consts::B0>, sha2::digest::consts::B0>, sha2::digest::consts::B0>>>::default::{closure#0}]>::{closure#0}]>::{closure#0}]>::{closure#0}]"*, %"[closure@<std::iter::Enumerate<I> as std::iter::Iterator>::fold::enumerate<&mut u8, (), [closure@std::iter::Iterator::for_each::call<(usize, &mut u8), [closure@<sha2::digest::generic_array::GenericArray<u8, sha2::digest::generic_array::typenum::UInt<sha2::digest::generic_array::typenum::UInt<sha2::digest::generic_array::typenum::UInt<sha2::digest::generic_array::typenum::UInt<sha2::digest::generic_array::typenum::UInt<sha2::digest::generic_array::typenum::UInt<sha2::digest::generic_array::typenum::UTerm, sha2::digest::consts::B1>, sha2::digest::consts::B0>, sha2::digest::consts::B0>, sha2::digest::consts::B0>, sha2::digest::consts::B0>, sha2::digest::consts::B0>> as sha2::digest::generic_array::sequence::GenericSequence<u8>>::generate<[closure@sha2::digest::generic_array::impls::<impl std::default::Default for sha2::digest::generic_array::GenericArray<u8, sha2::digest::generic_array::typenum::UInt<sha2::digest::generic_array::typenum::UInt<sha2::digest::generic_array::typenum::UInt<sha2::digest::generic_array::typenum::UInt<sha2::digest::generic_array::typenum::UInt<sha2::digest::generic_array::typenum::UInt<sha2::digest::generic_array::typenum::UTerm, sha2::digest::consts::B1>, sha2::digest::consts::B0>, sha2::digest::consts::B0>, sha2::digest::consts::B0>, sha2::digest::consts::B0>, sha2::digest::consts::B0>>>::default::{closure#0}]>::{closure#0}]>::{closure#0}]>::{closure#0}]"** %_1.dbg.spill, align 8, !nonnull !4
  %1 = bitcast %"[closure@<std::iter::Enumerate<I> as std::iter::Iterator>::fold::enumerate<&mut u8, (), [closure@std::iter::Iterator::for_each::call<(usize, &mut u8), [closure@<sha2::digest::generic_array::GenericArray<u8, sha2::digest::generic_array::typenum::UInt<sha2::digest::generic_array::typenum::UInt<sha2::digest::generic_array::typenum::UInt<sha2::digest::generic_array::typenum::UInt<sha2::digest::generic_array::typenum::UInt<sha2::digest::generic_array::typenum::UInt<sha2::digest::generic_array::typenum::UTerm, sha2::digest::consts::B1>, sha2::digest::consts::B0>, sha2::digest::consts::B0>, sha2::digest::consts::B0>, sha2::digest::consts::B0>, sha2::digest::consts::B0>> as sha2::digest::generic_array::sequence::GenericSequence<u8>>::generate<[closure@sha2::digest::generic_array::impls::<impl std::default::Default for sha2::digest::generic_array::GenericArray<u8, sha2::digest::generic_array::typenum::UInt<sha2::digest::generic_array::typenum::UInt<sha2::digest::generic_array::typenum::UInt<sha2::digest::generic_array::typenum::UInt<sha2::digest::generic_array::typenum::UInt<sha2::digest::generic_array::typenum::UInt<sha2::digest::generic_array::typenum::UTerm, sha2::digest::consts::B1>, sha2::digest::consts::B0>, sha2::digest::consts::B0>, sha2::digest::consts::B0>, sha2::digest::consts::B0>, sha2::digest::consts::B0>>>::default::{closure#0}]>::{closure#0}]>::{closure#0}]>::{closure#0}]"* %0 to { i8*, i64* }*
  call void @llvm.dbg.declare(metadata %"[closure@<std::iter::Enumerate<I> as std::iter::Iterator>::fold::enumerate<&mut u8, (), [closure@std::iter::Iterator::for_each::call<(usize, &mut u8), [closure@<sha2::digest::generic_array::GenericArray<u8, sha2::digest::generic_array::typenum::UInt<sha2::digest::generic_array::typenum::UInt<sha2::digest::generic_array::typenum::UInt<sha2::digest::generic_array::typenum::UInt<sha2::digest::generic_array::typenum::UInt<sha2::digest::generic_array::typenum::UInt<sha2::digest::generic_array::typenum::UTerm, sha2::digest::consts::B1>, sha2::digest::consts::B0>, sha2::digest::consts::B0>, sha2::digest::consts::B0>, sha2::digest::consts::B0>, sha2::digest::consts::B0>> as sha2::digest::generic_array::sequence::GenericSequence<u8>>::generate<[closure@sha2::digest::generic_array::impls::<impl std::default::Default for sha2::digest::generic_array::GenericArray<u8, sha2::digest::generic_array::typenum::UInt<sha2::digest::generic_array::typenum::UInt<sha2::digest::generic_array::typenum::UInt<sha2::digest::generic_array::typenum::UInt<sha2::digest::generic_array::typenum::UInt<sha2::digest::generic_array::typenum::UInt<sha2::digest::generic_array::typenum::UTerm, sha2::digest::consts::B1>, sha2::digest::consts::B0>, sha2::digest::consts::B0>, sha2::digest::consts::B0>, sha2::digest::consts::B0>, sha2::digest::consts::B0>>>::default::{closure#0}]>::{closure#0}]>::{closure#0}]>::{closure#0}]"** %_1.dbg.spill, metadata !997, metadata !DIExpression(DW_OP_deref)), !dbg !1002
  %2 = load %"[closure@<std::iter::Enumerate<I> as std::iter::Iterator>::fold::enumerate<&mut u8, (), [closure@std::iter::Iterator::for_each::call<(usize, &mut u8), [closure@<sha2::digest::generic_array::GenericArray<u8, sha2::digest::generic_array::typenum::UInt<sha2::digest::generic_array::typenum::UInt<sha2::digest::generic_array::typenum::UInt<sha2::digest::generic_array::typenum::UInt<sha2::digest::generic_array::typenum::UInt<sha2::digest::generic_array::typenum::UInt<sha2::digest::generic_array::typenum::UTerm, sha2::digest::consts::B1>, sha2::digest::consts::B0>, sha2::digest::consts::B0>, sha2::digest::consts::B0>, sha2::digest::consts::B0>, sha2::digest::consts::B0>> as sha2::digest::generic_array::sequence::GenericSequence<u8>>::generate<[closure@sha2::digest::generic_array::impls::<impl std::default::Default for sha2::digest::generic_array::GenericArray<u8, sha2::digest::generic_array::typenum::UInt<sha2::digest::generic_array::typenum::UInt<sha2::digest::generic_array::typenum::UInt<sha2::digest::generic_array::typenum::UInt<sha2::digest::generic_array::typenum::UInt<sha2::digest::generic_array::typenum::UInt<sha2::digest::generic_array::typenum::UTerm, sha2::digest::consts::B1>, sha2::digest::consts::B0>, sha2::digest::consts::B0>, sha2::digest::consts::B0>, sha2::digest::consts::B0>, sha2::digest::consts::B0>>>::default::{closure#0}]>::{closure#0}]>::{closure#0}]>::{closure#0}]"*, %"[closure@<std::iter::Enumerate<I> as std::iter::Iterator>::fold::enumerate<&mut u8, (), [closure@std::iter::Iterator::for_each::call<(usize, &mut u8), [closure@<sha2::digest::generic_array::GenericArray<u8, sha2::digest::generic_array::typenum::UInt<sha2::digest::generic_array::typenum::UInt<sha2::digest::generic_array::typenum::UInt<sha2::digest::generic_array::typenum::UInt<sha2::digest::generic_array::typenum::UInt<sha2::digest::generic_array::typenum::UInt<sha2::digest::generic_array::typenum::UTerm, sha2::digest::consts::B1>, sha2::digest::consts::B0>, sha2::digest::consts::B0>, sha2::digest::consts::B0>, sha2::digest::consts::B0>, sha2::digest::consts::B0>> as sha2::digest::generic_array::sequence::GenericSequence<u8>>::generate<[closure@sha2::digest::generic_array::impls::<impl std::default::Default for sha2::digest::generic_array::GenericArray<u8, sha2::digest::generic_array::typenum::UInt<sha2::digest::generic_array::typenum::UInt<sha2::digest::generic_array::typenum::UInt<sha2::digest::generic_array::typenum::UInt<sha2::digest::generic_array::typenum::UInt<sha2::digest::generic_array::typenum::UInt<sha2::digest::generic_array::typenum::UTerm, sha2::digest::consts::B1>, sha2::digest::consts::B0>, sha2::digest::consts::B0>, sha2::digest::consts::B0>, sha2::digest::consts::B0>, sha2::digest::consts::B0>>>::default::{closure#0}]>::{closure#0}]>::{closure#0}]>::{closure#0}]"** %_1.dbg.spill, align 8, !nonnull !4
  %3 = getelementptr inbounds %"[closure@<std::iter::Enumerate<I> as std::iter::Iterator>::fold::enumerate<&mut u8, (), [closure@std::iter::Iterator::for_each::call<(usize, &mut u8), [closure@<sha2::digest::generic_array::GenericArray<u8, sha2::digest::generic_array::typenum::UInt<sha2::digest::generic_array::typenum::UInt<sha2::digest::generic_array::typenum::UInt<sha2::digest::generic_array::typenum::UInt<sha2::digest::generic_array::typenum::UInt<sha2::digest::generic_array::typenum::UInt<sha2::digest::generic_array::typenum::UTerm, sha2::digest::consts::B1>, sha2::digest::consts::B0>, sha2::digest::consts::B0>, sha2::digest::consts::B0>, sha2::digest::consts::B0>, sha2::digest::consts::B0>> as sha2::digest::generic_array::sequence::GenericSequence<u8>>::generate<[closure@sha2::digest::generic_array::impls::<impl std::default::Default for sha2::digest::generic_array::GenericArray<u8, sha2::digest::generic_array::typenum::UInt<sha2::digest::generic_array::typenum::UInt<sha2::digest::generic_array::typenum::UInt<sha2::digest::generic_array::typenum::UInt<sha2::digest::generic_array::typenum::UInt<sha2::digest::generic_array::typenum::UInt<sha2::digest::generic_array::typenum::UTerm, sha2::digest::consts::B1>, sha2::digest::consts::B0>, sha2::digest::consts::B0>, sha2::digest::consts::B0>, sha2::digest::consts::B0>, sha2::digest::consts::B0>>>::default::{closure#0}]>::{closure#0}]>::{closure#0}]>::{closure#0}]", %"[closure@<std::iter::Enumerate<I> as std::iter::Iterator>::fold::enumerate<&mut u8, (), [closure@std::iter::Iterator::for_each::call<(usize, &mut u8), [closure@<sha2::digest::generic_array::GenericArray<u8, sha2::digest::generic_array::typenum::UInt<sha2::digest::generic_array::typenum::UInt<sha2::digest::generic_array::typenum::UInt<sha2::digest::generic_array::typenum::UInt<sha2::digest::generic_array::typenum::UInt<sha2::digest::generic_array::typenum::UInt<sha2::digest::generic_array::typenum::UTerm, sha2::digest::consts::B1>, sha2::digest::consts::B0>, sha2::digest::consts::B0>, sha2::digest::consts::B0>, sha2::digest::consts::B0>, sha2::digest::consts::B0>> as sha2::digest::generic_array::sequence::GenericSequence<u8>>::generate<[closure@sha2::digest::generic_array::impls::<impl std::default::Default for sha2::digest::generic_array::GenericArray<u8, sha2::digest::generic_array::typenum::UInt<sha2::digest::generic_array::typenum::UInt<sha2::digest::generic_array::typenum::UInt<sha2::digest::generic_array::typenum::UInt<sha2::digest::generic_array::typenum::UInt<sha2::digest::generic_array::typenum::UInt<sha2::digest::generic_array::typenum::UTerm, sha2::digest::consts::B1>, sha2::digest::consts::B0>, sha2::digest::consts::B0>, sha2::digest::consts::B0>, sha2::digest::consts::B0>, sha2::digest::consts::B0>>>::default::{closure#0}]>::{closure#0}]>::{closure#0}]>::{closure#0}]"* %2, i32 0, i32 1
  call void @llvm.dbg.declare(metadata %"[closure@<std::iter::Enumerate<I> as std::iter::Iterator>::fold::enumerate<&mut u8, (), [closure@std::iter::Iterator::for_each::call<(usize, &mut u8), [closure@<sha2::digest::generic_array::GenericArray<u8, sha2::digest::generic_array::typenum::UInt<sha2::digest::generic_array::typenum::UInt<sha2::digest::generic_array::typenum::UInt<sha2::digest::generic_array::typenum::UInt<sha2::digest::generic_array::typenum::UInt<sha2::digest::generic_array::typenum::UInt<sha2::digest::generic_array::typenum::UTerm, sha2::digest::consts::B1>, sha2::digest::consts::B0>, sha2::digest::consts::B0>, sha2::digest::consts::B0>, sha2::digest::consts::B0>, sha2::digest::consts::B0>> as sha2::digest::generic_array::sequence::GenericSequence<u8>>::generate<[closure@sha2::digest::generic_array::impls::<impl std::default::Default for sha2::digest::generic_array::GenericArray<u8, sha2::digest::generic_array::typenum::UInt<sha2::digest::generic_array::typenum::UInt<sha2::digest::generic_array::typenum::UInt<sha2::digest::generic_array::typenum::UInt<sha2::digest::generic_array::typenum::UInt<sha2::digest::generic_array::typenum::UInt<sha2::digest::generic_array::typenum::UTerm, sha2::digest::consts::B1>, sha2::digest::consts::B0>, sha2::digest::consts::B0>, sha2::digest::consts::B0>, sha2::digest::consts::B0>, sha2::digest::consts::B0>>>::default::{closure#0}]>::{closure#0}]>::{closure#0}]>::{closure#0}]"** %_1.dbg.spill, metadata !998, metadata !DIExpression(DW_OP_deref, DW_OP_plus_uconst, 16)), !dbg !1003
  call void @llvm.dbg.declare(metadata {}* %acc.dbg.spill1, metadata !995, metadata !DIExpression()), !dbg !1004
  store i8* %item, i8** %item.dbg.spill, align 8
  call void @llvm.dbg.declare(metadata i8** %item.dbg.spill, metadata !996, metadata !DIExpression()), !dbg !1005
  %_4 = bitcast %"[closure@<std::iter::Enumerate<I> as std::iter::Iterator>::fold::enumerate<&mut u8, (), [closure@std::iter::Iterator::for_each::call<(usize, &mut u8), [closure@<sha2::digest::generic_array::GenericArray<u8, sha2::digest::generic_array::typenum::UInt<sha2::digest::generic_array::typenum::UInt<sha2::digest::generic_array::typenum::UInt<sha2::digest::generic_array::typenum::UInt<sha2::digest::generic_array::typenum::UInt<sha2::digest::generic_array::typenum::UInt<sha2::digest::generic_array::typenum::UTerm, sha2::digest::consts::B1>, sha2::digest::consts::B0>, sha2::digest::consts::B0>, sha2::digest::consts::B0>, sha2::digest::consts::B0>, sha2::digest::consts::B0>> as sha2::digest::generic_array::sequence::GenericSequence<u8>>::generate<[closure@sha2::digest::generic_array::impls::<impl std::default::Default for sha2::digest::generic_array::GenericArray<u8, sha2::digest::generic_array::typenum::UInt<sha2::digest::generic_array::typenum::UInt<sha2::digest::generic_array::typenum::UInt<sha2::digest::generic_array::typenum::UInt<sha2::digest::generic_array::typenum::UInt<sha2::digest::generic_array::typenum::UInt<sha2::digest::generic_array::typenum::UTerm, sha2::digest::consts::B1>, sha2::digest::consts::B0>, sha2::digest::consts::B0>, sha2::digest::consts::B0>, sha2::digest::consts::B0>, sha2::digest::consts::B0>>>::default::{closure#0}]>::{closure#0}]>::{closure#0}]>::{closure#0}]"* %_1 to { i8*, i64* }*, !dbg !1006
  %4 = getelementptr inbounds %"[closure@<std::iter::Enumerate<I> as std::iter::Iterator>::fold::enumerate<&mut u8, (), [closure@std::iter::Iterator::for_each::call<(usize, &mut u8), [closure@<sha2::digest::generic_array::GenericArray<u8, sha2::digest::generic_array::typenum::UInt<sha2::digest::generic_array::typenum::UInt<sha2::digest::generic_array::typenum::UInt<sha2::digest::generic_array::typenum::UInt<sha2::digest::generic_array::typenum::UInt<sha2::digest::generic_array::typenum::UInt<sha2::digest::generic_array::typenum::UTerm, sha2::digest::consts::B1>, sha2::digest::consts::B0>, sha2::digest::consts::B0>, sha2::digest::consts::B0>, sha2::digest::consts::B0>, sha2::digest::consts::B0>> as sha2::digest::generic_array::sequence::GenericSequence<u8>>::generate<[closure@sha2::digest::generic_array::impls::<impl std::default::Default for sha2::digest::generic_array::GenericArray<u8, sha2::digest::generic_array::typenum::UInt<sha2::digest::generic_array::typenum::UInt<sha2::digest::generic_array::typenum::UInt<sha2::digest::generic_array::typenum::UInt<sha2::digest::generic_array::typenum::UInt<sha2::digest::generic_array::typenum::UInt<sha2::digest::generic_array::typenum::UTerm, sha2::digest::consts::B1>, sha2::digest::consts::B0>, sha2::digest::consts::B0>, sha2::digest::consts::B0>, sha2::digest::consts::B0>, sha2::digest::consts::B0>>>::default::{closure#0}]>::{closure#0}]>::{closure#0}]>::{closure#0}]", %"[closure@<std::iter::Enumerate<I> as std::iter::Iterator>::fold::enumerate<&mut u8, (), [closure@std::iter::Iterator::for_each::call<(usize, &mut u8), [closure@<sha2::digest::generic_array::GenericArray<u8, sha2::digest::generic_array::typenum::UInt<sha2::digest::generic_array::typenum::UInt<sha2::digest::generic_array::typenum::UInt<sha2::digest::generic_array::typenum::UInt<sha2::digest::generic_array::typenum::UInt<sha2::digest::generic_array::typenum::UInt<sha2::digest::generic_array::typenum::UTerm, sha2::digest::consts::B1>, sha2::digest::consts::B0>, sha2::digest::consts::B0>, sha2::digest::consts::B0>, sha2::digest::consts::B0>, sha2::digest::consts::B0>> as sha2::digest::generic_array::sequence::GenericSequence<u8>>::generate<[closure@sha2::digest::generic_array::impls::<impl std::default::Default for sha2::digest::generic_array::GenericArray<u8, sha2::digest::generic_array::typenum::UInt<sha2::digest::generic_array::typenum::UInt<sha2::digest::generic_array::typenum::UInt<sha2::digest::generic_array::typenum::UInt<sha2::digest::generic_array::typenum::UInt<sha2::digest::generic_array::typenum::UInt<sha2::digest::generic_array::typenum::UTerm, sha2::digest::consts::B1>, sha2::digest::consts::B0>, sha2::digest::consts::B0>, sha2::digest::consts::B0>, sha2::digest::consts::B0>, sha2::digest::consts::B0>>>::default::{closure#0}]>::{closure#0}]>::{closure#0}]>::{closure#0}]"* %_1, i32 0, i32 1, !dbg !1007
  %_8 = load i64, i64* %4, align 8, !dbg !1007
  %5 = bitcast { i64, i8* }* %_7 to i64*, !dbg !1008
  store i64 %_8, i64* %5, align 8, !dbg !1008
  %6 = getelementptr inbounds { i64, i8* }, { i64, i8* }* %_7, i32 0, i32 1, !dbg !1008
  store i8* %item, i8** %6, align 8, !dbg !1008
  %7 = bitcast { i64, i8* }* %_5 to {}*, !dbg !1006
  %8 = getelementptr inbounds { i64, i8* }, { i64, i8* }* %_7, i32 0, i32 0, !dbg !1006
  %9 = load i64, i64* %8, align 8, !dbg !1006
  %10 = getelementptr inbounds { i64, i8* }, { i64, i8* }* %_7, i32 0, i32 1, !dbg !1006
  %11 = load i8*, i8** %10, align 8, !dbg !1006, !nonnull !4
  %12 = getelementptr inbounds { i64, i8* }, { i64, i8* }* %_5, i32 0, i32 0, !dbg !1006
  store i64 %9, i64* %12, align 8, !dbg !1006
  %13 = getelementptr inbounds { i64, i8* }, { i64, i8* }* %_5, i32 0, i32 1, !dbg !1006
  store i8* %11, i8** %13, align 8, !dbg !1006
  %14 = getelementptr inbounds { i64, i8* }, { i64, i8* }* %_5, i32 0, i32 0, !dbg !1006
  %15 = load i64, i64* %14, align 8, !dbg !1006
  %16 = getelementptr inbounds { i64, i8* }, { i64, i8* }* %_5, i32 0, i32 1, !dbg !1006
  %17 = load i8*, i8** %16, align 8, !dbg !1006, !nonnull !4
; call core::iter::traits::iterator::Iterator::for_each::call::{{closure}}
  call void @"_ZN4core4iter6traits8iterator8Iterator8for_each4call28_$u7b$$u7b$closure$u7d$$u7d$17h24583c57232ef560E"({ i8*, i64* }* align 8 dereferenceable(16) %_4, i64 %15, i8* align 1 dereferenceable(1) %17), !dbg !1006
  br label %bb1, !dbg !1006

bb1:                                              ; preds = %start
  %18 = getelementptr inbounds %"[closure@<std::iter::Enumerate<I> as std::iter::Iterator>::fold::enumerate<&mut u8, (), [closure@std::iter::Iterator::for_each::call<(usize, &mut u8), [closure@<sha2::digest::generic_array::GenericArray<u8, sha2::digest::generic_array::typenum::UInt<sha2::digest::generic_array::typenum::UInt<sha2::digest::generic_array::typenum::UInt<sha2::digest::generic_array::typenum::UInt<sha2::digest::generic_array::typenum::UInt<sha2::digest::generic_array::typenum::UInt<sha2::digest::generic_array::typenum::UTerm, sha2::digest::consts::B1>, sha2::digest::consts::B0>, sha2::digest::consts::B0>, sha2::digest::consts::B0>, sha2::digest::consts::B0>, sha2::digest::consts::B0>> as sha2::digest::generic_array::sequence::GenericSequence<u8>>::generate<[closure@sha2::digest::generic_array::impls::<impl std::default::Default for sha2::digest::generic_array::GenericArray<u8, sha2::digest::generic_array::typenum::UInt<sha2::digest::generic_array::typenum::UInt<sha2::digest::generic_array::typenum::UInt<sha2::digest::generic_array::typenum::UInt<sha2::digest::generic_array::typenum::UInt<sha2::digest::generic_array::typenum::UInt<sha2::digest::generic_array::typenum::UTerm, sha2::digest::consts::B1>, sha2::digest::consts::B0>, sha2::digest::consts::B0>, sha2::digest::consts::B0>, sha2::digest::consts::B0>, sha2::digest::consts::B0>>>::default::{closure#0}]>::{closure#0}]>::{closure#0}]>::{closure#0}]", %"[closure@<std::iter::Enumerate<I> as std::iter::Iterator>::fold::enumerate<&mut u8, (), [closure@std::iter::Iterator::for_each::call<(usize, &mut u8), [closure@<sha2::digest::generic_array::GenericArray<u8, sha2::digest::generic_array::typenum::UInt<sha2::digest::generic_array::typenum::UInt<sha2::digest::generic_array::typenum::UInt<sha2::digest::generic_array::typenum::UInt<sha2::digest::generic_array::typenum::UInt<sha2::digest::generic_array::typenum::UInt<sha2::digest::generic_array::typenum::UTerm, sha2::digest::consts::B1>, sha2::digest::consts::B0>, sha2::digest::consts::B0>, sha2::digest::consts::B0>, sha2::digest::consts::B0>, sha2::digest::consts::B0>> as sha2::digest::generic_array::sequence::GenericSequence<u8>>::generate<[closure@sha2::digest::generic_array::impls::<impl std::default::Default for sha2::digest::generic_array::GenericArray<u8, sha2::digest::generic_array::typenum::UInt<sha2::digest::generic_array::typenum::UInt<sha2::digest::generic_array::typenum::UInt<sha2::digest::generic_array::typenum::UInt<sha2::digest::generic_array::typenum::UInt<sha2::digest::generic_array::typenum::UInt<sha2::digest::generic_array::typenum::UTerm, sha2::digest::consts::B1>, sha2::digest::consts::B0>, sha2::digest::consts::B0>, sha2::digest::consts::B0>, sha2::digest::consts::B0>, sha2::digest::consts::B0>>>::default::{closure#0}]>::{closure#0}]>::{closure#0}]>::{closure#0}]"* %_1, i32 0, i32 1, !dbg !1009
  %19 = load i64, i64* %18, align 8, !dbg !1009
  %20 = call { i64, i1 } @llvm.uadd.with.overflow.i64(i64 %19, i64 1), !dbg !1009
  %_10.0 = extractvalue { i64, i1 } %20, 0, !dbg !1009
  %_10.1 = extractvalue { i64, i1 } %20, 1, !dbg !1009
  %21 = call i1 @llvm.expect.i1(i1 %_10.1, i1 false), !dbg !1009
  br i1 %21, label %panic, label %bb2, !dbg !1009

bb2:                                              ; preds = %bb1
  %22 = getelementptr inbounds %"[closure@<std::iter::Enumerate<I> as std::iter::Iterator>::fold::enumerate<&mut u8, (), [closure@std::iter::Iterator::for_each::call<(usize, &mut u8), [closure@<sha2::digest::generic_array::GenericArray<u8, sha2::digest::generic_array::typenum::UInt<sha2::digest::generic_array::typenum::UInt<sha2::digest::generic_array::typenum::UInt<sha2::digest::generic_array::typenum::UInt<sha2::digest::generic_array::typenum::UInt<sha2::digest::generic_array::typenum::UInt<sha2::digest::generic_array::typenum::UTerm, sha2::digest::consts::B1>, sha2::digest::consts::B0>, sha2::digest::consts::B0>, sha2::digest::consts::B0>, sha2::digest::consts::B0>, sha2::digest::consts::B0>> as sha2::digest::generic_array::sequence::GenericSequence<u8>>::generate<[closure@sha2::digest::generic_array::impls::<impl std::default::Default for sha2::digest::generic_array::GenericArray<u8, sha2::digest::generic_array::typenum::UInt<sha2::digest::generic_array::typenum::UInt<sha2::digest::generic_array::typenum::UInt<sha2::digest::generic_array::typenum::UInt<sha2::digest::generic_array::typenum::UInt<sha2::digest::generic_array::typenum::UInt<sha2::digest::generic_array::typenum::UTerm, sha2::digest::consts::B1>, sha2::digest::consts::B0>, sha2::digest::consts::B0>, sha2::digest::consts::B0>, sha2::digest::consts::B0>, sha2::digest::consts::B0>>>::default::{closure#0}]>::{closure#0}]>::{closure#0}]>::{closure#0}]", %"[closure@<std::iter::Enumerate<I> as std::iter::Iterator>::fold::enumerate<&mut u8, (), [closure@std::iter::Iterator::for_each::call<(usize, &mut u8), [closure@<sha2::digest::generic_array::GenericArray<u8, sha2::digest::generic_array::typenum::UInt<sha2::digest::generic_array::typenum::UInt<sha2::digest::generic_array::typenum::UInt<sha2::digest::generic_array::typenum::UInt<sha2::digest::generic_array::typenum::UInt<sha2::digest::generic_array::typenum::UInt<sha2::digest::generic_array::typenum::UTerm, sha2::digest::consts::B1>, sha2::digest::consts::B0>, sha2::digest::consts::B0>, sha2::digest::consts::B0>, sha2::digest::consts::B0>, sha2::digest::consts::B0>> as sha2::digest::generic_array::sequence::GenericSequence<u8>>::generate<[closure@sha2::digest::generic_array::impls::<impl std::default::Default for sha2::digest::generic_array::GenericArray<u8, sha2::digest::generic_array::typenum::UInt<sha2::digest::generic_array::typenum::UInt<sha2::digest::generic_array::typenum::UInt<sha2::digest::generic_array::typenum::UInt<sha2::digest::generic_array::typenum::UInt<sha2::digest::generic_array::typenum::UInt<sha2::digest::generic_array::typenum::UTerm, sha2::digest::consts::B1>, sha2::digest::consts::B0>, sha2::digest::consts::B0>, sha2::digest::consts::B0>, sha2::digest::consts::B0>, sha2::digest::consts::B0>>>::default::{closure#0}]>::{closure#0}]>::{closure#0}]>::{closure#0}]"* %_1, i32 0, i32 1, !dbg !1009
  store i64 %_10.0, i64* %22, align 8, !dbg !1009
  ret void, !dbg !1010

panic:                                            ; preds = %bb1
; call core::panicking::panic
  call void @_ZN4core9panicking5panic17h560e3e4b7752857aE([0 x i8]* nonnull align 1 bitcast ([28 x i8]* @str.0 to [0 x i8]*), i64 28, %"std::panic::Location"* align 8 dereferenceable(24) bitcast (<{ i8*, [16 x i8] }>* @alloc668 to %"std::panic::Location"*)), !dbg !1009
  unreachable, !dbg !1009
}

; <generic_array::GenericArray<T,N> as generic_array::sequence::GenericSequence<T>>::generate
; Function Attrs: nounwind
define void @"_ZN110_$LT$generic_array..GenericArray$LT$T$C$N$GT$$u20$as$u20$generic_array..sequence..GenericSequence$LT$T$GT$$GT$8generate17hd26175bcb45d54b9E"(%"sha2::digest::generic_array::GenericArray<u8, sha2::digest::generic_array::typenum::UInt<sha2::digest::generic_array::typenum::UInt<sha2::digest::generic_array::typenum::UInt<sha2::digest::generic_array::typenum::UInt<sha2::digest::generic_array::typenum::UInt<sha2::digest::generic_array::typenum::UInt<sha2::digest::generic_array::typenum::UTerm, sha2::digest::consts::B1>, sha2::digest::consts::B0>, sha2::digest::consts::B0>, sha2::digest::consts::B0>, sha2::digest::consts::B0>, sha2::digest::consts::B0>>"* noalias nocapture sret(%"sha2::digest::generic_array::GenericArray<u8, sha2::digest::generic_array::typenum::UInt<sha2::digest::generic_array::typenum::UInt<sha2::digest::generic_array::typenum::UInt<sha2::digest::generic_array::typenum::UInt<sha2::digest::generic_array::typenum::UInt<sha2::digest::generic_array::typenum::UInt<sha2::digest::generic_array::typenum::UTerm, sha2::digest::consts::B1>, sha2::digest::consts::B0>, sha2::digest::consts::B0>, sha2::digest::consts::B0>, sha2::digest::consts::B0>, sha2::digest::consts::B0>>") dereferenceable(32) %0) unnamed_addr #1 !dbg !1011 {
start:
  %destination_iter.dbg.spill = alloca { i8*, i8* }, align 8
  %_13 = alloca %"sha2::digest::generic_array::ArrayBuilder<u8, sha2::digest::generic_array::typenum::UInt<sha2::digest::generic_array::typenum::UInt<sha2::digest::generic_array::typenum::UInt<sha2::digest::generic_array::typenum::UInt<sha2::digest::generic_array::typenum::UInt<sha2::digest::generic_array::typenum::UInt<sha2::digest::generic_array::typenum::UTerm, sha2::digest::consts::B1>, sha2::digest::consts::B0>, sha2::digest::consts::B0>, sha2::digest::consts::B0>, sha2::digest::consts::B0>, sha2::digest::consts::B0>>", align 8
  %_10 = alloca { i8*, i64* }, align 8
  %_8 = alloca %"std::iter::Enumerate<std::slice::IterMut<u8>>", align 8
  %_5 = alloca { { i8*, i8* }, i64* }, align 8
  %position = alloca i64*, align 8
  %destination = alloca %"sha2::digest::generic_array::ArrayBuilder<u8, sha2::digest::generic_array::typenum::UInt<sha2::digest::generic_array::typenum::UInt<sha2::digest::generic_array::typenum::UInt<sha2::digest::generic_array::typenum::UInt<sha2::digest::generic_array::typenum::UInt<sha2::digest::generic_array::typenum::UInt<sha2::digest::generic_array::typenum::UTerm, sha2::digest::consts::B1>, sha2::digest::consts::B0>, sha2::digest::consts::B0>, sha2::digest::consts::B0>, sha2::digest::consts::B0>, sha2::digest::consts::B0>>", align 8
  %f = alloca %"[closure@sha2::digest::generic_array::impls::<impl std::default::Default for sha2::digest::generic_array::GenericArray<u8, sha2::digest::generic_array::typenum::UInt<sha2::digest::generic_array::typenum::UInt<sha2::digest::generic_array::typenum::UInt<sha2::digest::generic_array::typenum::UInt<sha2::digest::generic_array::typenum::UInt<sha2::digest::generic_array::typenum::UInt<sha2::digest::generic_array::typenum::UTerm, sha2::digest::consts::B1>, sha2::digest::consts::B0>, sha2::digest::consts::B0>, sha2::digest::consts::B0>, sha2::digest::consts::B0>, sha2::digest::consts::B0>>>::default::{closure#0}]", align 1
  call void @llvm.dbg.declare(metadata %"[closure@sha2::digest::generic_array::impls::<impl std::default::Default for sha2::digest::generic_array::GenericArray<u8, sha2::digest::generic_array::typenum::UInt<sha2::digest::generic_array::typenum::UInt<sha2::digest::generic_array::typenum::UInt<sha2::digest::generic_array::typenum::UInt<sha2::digest::generic_array::typenum::UInt<sha2::digest::generic_array::typenum::UInt<sha2::digest::generic_array::typenum::UTerm, sha2::digest::consts::B1>, sha2::digest::consts::B0>, sha2::digest::consts::B0>, sha2::digest::consts::B0>, sha2::digest::consts::B0>, sha2::digest::consts::B0>>>::default::{closure#0}]"* %f, metadata !1110, metadata !DIExpression()), !dbg !1136
  call void @llvm.dbg.declare(metadata %"sha2::digest::generic_array::ArrayBuilder<u8, sha2::digest::generic_array::typenum::UInt<sha2::digest::generic_array::typenum::UInt<sha2::digest::generic_array::typenum::UInt<sha2::digest::generic_array::typenum::UInt<sha2::digest::generic_array::typenum::UInt<sha2::digest::generic_array::typenum::UInt<sha2::digest::generic_array::typenum::UTerm, sha2::digest::consts::B1>, sha2::digest::consts::B0>, sha2::digest::consts::B0>, sha2::digest::consts::B0>, sha2::digest::consts::B0>, sha2::digest::consts::B0>>"* %destination, metadata !1111, metadata !DIExpression()), !dbg !1137
  call void @llvm.dbg.declare(metadata i64** %position, metadata !1133, metadata !DIExpression()), !dbg !1138
; call generic_array::ArrayBuilder<T,N>::new
  call void @"_ZN13generic_array25ArrayBuilder$LT$T$C$N$GT$3new17h0bdf0df789f7a8d6E"(%"sha2::digest::generic_array::ArrayBuilder<u8, sha2::digest::generic_array::typenum::UInt<sha2::digest::generic_array::typenum::UInt<sha2::digest::generic_array::typenum::UInt<sha2::digest::generic_array::typenum::UInt<sha2::digest::generic_array::typenum::UInt<sha2::digest::generic_array::typenum::UInt<sha2::digest::generic_array::typenum::UTerm, sha2::digest::consts::B1>, sha2::digest::consts::B0>, sha2::digest::consts::B0>, sha2::digest::consts::B0>, sha2::digest::consts::B0>, sha2::digest::consts::B0>>"* noalias nocapture sret(%"sha2::digest::generic_array::ArrayBuilder<u8, sha2::digest::generic_array::typenum::UInt<sha2::digest::generic_array::typenum::UInt<sha2::digest::generic_array::typenum::UInt<sha2::digest::generic_array::typenum::UInt<sha2::digest::generic_array::typenum::UInt<sha2::digest::generic_array::typenum::UInt<sha2::digest::generic_array::typenum::UTerm, sha2::digest::consts::B1>, sha2::digest::consts::B0>, sha2::digest::consts::B0>, sha2::digest::consts::B0>, sha2::digest::consts::B0>, sha2::digest::consts::B0>>") dereferenceable(40) %destination), !dbg !1139
  br label %bb1, !dbg !1139

bb1:                                              ; preds = %start
; call generic_array::ArrayBuilder<T,N>::iter_position
  call void @"_ZN13generic_array25ArrayBuilder$LT$T$C$N$GT$13iter_position17h0baa45da24a2f699E"({ { i8*, i8* }, i64* }* noalias nocapture sret({ { i8*, i8* }, i64* }) dereferenceable(24) %_5, %"sha2::digest::generic_array::ArrayBuilder<u8, sha2::digest::generic_array::typenum::UInt<sha2::digest::generic_array::typenum::UInt<sha2::digest::generic_array::typenum::UInt<sha2::digest::generic_array::typenum::UInt<sha2::digest::generic_array::typenum::UInt<sha2::digest::generic_array::typenum::UInt<sha2::digest::generic_array::typenum::UTerm, sha2::digest::consts::B1>, sha2::digest::consts::B0>, sha2::digest::consts::B0>, sha2::digest::consts::B0>, sha2::digest::consts::B0>, sha2::digest::consts::B0>>"* align 8 dereferenceable(40) %destination), !dbg !1140
  br label %bb2, !dbg !1140

bb2:                                              ; preds = %bb1
  %1 = bitcast { { i8*, i8* }, i64* }* %_5 to { i8*, i8* }*, !dbg !1141
  %2 = getelementptr inbounds { i8*, i8* }, { i8*, i8* }* %1, i32 0, i32 0, !dbg !1141
  %destination_iter.0 = load i8*, i8** %2, align 8, !dbg !1141, !nonnull !4
  %3 = getelementptr inbounds { i8*, i8* }, { i8*, i8* }* %1, i32 0, i32 1, !dbg !1141
  %destination_iter.1 = load i8*, i8** %3, align 8, !dbg !1141
  %4 = getelementptr inbounds { i8*, i8* }, { i8*, i8* }* %destination_iter.dbg.spill, i32 0, i32 0, !dbg !1141
  store i8* %destination_iter.0, i8** %4, align 8, !dbg !1141
  %5 = getelementptr inbounds { i8*, i8* }, { i8*, i8* }* %destination_iter.dbg.spill, i32 0, i32 1, !dbg !1141
  store i8* %destination_iter.1, i8** %5, align 8, !dbg !1141
  call void @llvm.dbg.declare(metadata { i8*, i8* }* %destination_iter.dbg.spill, metadata !1131, metadata !DIExpression()), !dbg !1142
  %6 = getelementptr inbounds { { i8*, i8* }, i64* }, { { i8*, i8* }, i64* }* %_5, i32 0, i32 1, !dbg !1143
  %7 = load i64*, i64** %6, align 8, !dbg !1143, !nonnull !4
  store i64* %7, i64** %position, align 8, !dbg !1143
; call core::iter::traits::iterator::Iterator::enumerate
  call void @_ZN4core4iter6traits8iterator8Iterator9enumerate17hdafc22ae5ded0caaE(%"std::iter::Enumerate<std::slice::IterMut<u8>>"* noalias nocapture sret(%"std::iter::Enumerate<std::slice::IterMut<u8>>") dereferenceable(24) %_8, i8* nonnull %destination_iter.0, i8* %destination_iter.1), !dbg !1144
  br label %bb3, !dbg !1144

bb3:                                              ; preds = %bb2
  %8 = bitcast { i8*, i64* }* %_10 to %"[closure@sha2::digest::generic_array::impls::<impl std::default::Default for sha2::digest::generic_array::GenericArray<u8, sha2::digest::generic_array::typenum::UInt<sha2::digest::generic_array::typenum::UInt<sha2::digest::generic_array::typenum::UInt<sha2::digest::generic_array::typenum::UInt<sha2::digest::generic_array::typenum::UInt<sha2::digest::generic_array::typenum::UInt<sha2::digest::generic_array::typenum::UTerm, sha2::digest::consts::B1>, sha2::digest::consts::B0>, sha2::digest::consts::B0>, sha2::digest::consts::B0>, sha2::digest::consts::B0>, sha2::digest::consts::B0>>>::default::{closure#0}]"**, !dbg !1145
  store %"[closure@sha2::digest::generic_array::impls::<impl std::default::Default for sha2::digest::generic_array::GenericArray<u8, sha2::digest::generic_array::typenum::UInt<sha2::digest::generic_array::typenum::UInt<sha2::digest::generic_array::typenum::UInt<sha2::digest::generic_array::typenum::UInt<sha2::digest::generic_array::typenum::UInt<sha2::digest::generic_array::typenum::UInt<sha2::digest::generic_array::typenum::UTerm, sha2::digest::consts::B1>, sha2::digest::consts::B0>, sha2::digest::consts::B0>, sha2::digest::consts::B0>, sha2::digest::consts::B0>, sha2::digest::consts::B0>>>::default::{closure#0}]"* %f, %"[closure@sha2::digest::generic_array::impls::<impl std::default::Default for sha2::digest::generic_array::GenericArray<u8, sha2::digest::generic_array::typenum::UInt<sha2::digest::generic_array::typenum::UInt<sha2::digest::generic_array::typenum::UInt<sha2::digest::generic_array::typenum::UInt<sha2::digest::generic_array::typenum::UInt<sha2::digest::generic_array::typenum::UInt<sha2::digest::generic_array::typenum::UTerm, sha2::digest::consts::B1>, sha2::digest::consts::B0>, sha2::digest::consts::B0>, sha2::digest::consts::B0>, sha2::digest::consts::B0>, sha2::digest::consts::B0>>>::default::{closure#0}]"** %8, align 8, !dbg !1145
  %9 = getelementptr inbounds { i8*, i64* }, { i8*, i64* }* %_10, i32 0, i32 1, !dbg !1145
  %10 = bitcast i64** %9 to i64***, !dbg !1145
  store i64** %position, i64*** %10, align 8, !dbg !1145
  %11 = getelementptr inbounds { i8*, i64* }, { i8*, i64* }* %_10, i32 0, i32 0, !dbg !1144
  %12 = load i8*, i8** %11, align 8, !dbg !1144, !nonnull !4
  %13 = getelementptr inbounds { i8*, i64* }, { i8*, i64* }* %_10, i32 0, i32 1, !dbg !1144
  %14 = load i64*, i64** %13, align 8, !dbg !1144, !nonnull !4
; call core::iter::traits::iterator::Iterator::for_each
  call void @_ZN4core4iter6traits8iterator8Iterator8for_each17h74d25e7f147440dbE(%"std::iter::Enumerate<std::slice::IterMut<u8>>"* noalias nocapture dereferenceable(24) %_8, i8* nonnull align 1 %12, i64* align 8 dereferenceable(8) %14), !dbg !1144
  br label %bb4, !dbg !1144

bb4:                                              ; preds = %bb3
  %15 = bitcast %"sha2::digest::generic_array::ArrayBuilder<u8, sha2::digest::generic_array::typenum::UInt<sha2::digest::generic_array::typenum::UInt<sha2::digest::generic_array::typenum::UInt<sha2::digest::generic_array::typenum::UInt<sha2::digest::generic_array::typenum::UInt<sha2::digest::generic_array::typenum::UInt<sha2::digest::generic_array::typenum::UTerm, sha2::digest::consts::B1>, sha2::digest::consts::B0>, sha2::digest::consts::B0>, sha2::digest::consts::B0>, sha2::digest::consts::B0>, sha2::digest::consts::B0>>"* %_13 to i8*, !dbg !1146
  %16 = bitcast %"sha2::digest::generic_array::ArrayBuilder<u8, sha2::digest::generic_array::typenum::UInt<sha2::digest::generic_array::typenum::UInt<sha2::digest::generic_array::typenum::UInt<sha2::digest::generic_array::typenum::UInt<sha2::digest::generic_array::typenum::UInt<sha2::digest::generic_array::typenum::UInt<sha2::digest::generic_array::typenum::UTerm, sha2::digest::consts::B1>, sha2::digest::consts::B0>, sha2::digest::consts::B0>, sha2::digest::consts::B0>, sha2::digest::consts::B0>, sha2::digest::consts::B0>>"* %destination to i8*, !dbg !1146
  call void @llvm.memcpy.p0i8.p0i8.i64(i8* align 8 %15, i8* align 8 %16, i64 40, i1 false), !dbg !1146
; call generic_array::ArrayBuilder<T,N>::into_inner
  call void @"_ZN13generic_array25ArrayBuilder$LT$T$C$N$GT$10into_inner17h3395ce8f1575f538E"(%"sha2::digest::generic_array::GenericArray<u8, sha2::digest::generic_array::typenum::UInt<sha2::digest::generic_array::typenum::UInt<sha2::digest::generic_array::typenum::UInt<sha2::digest::generic_array::typenum::UInt<sha2::digest::generic_array::typenum::UInt<sha2::digest::generic_array::typenum::UInt<sha2::digest::generic_array::typenum::UTerm, sha2::digest::consts::B1>, sha2::digest::consts::B0>, sha2::digest::consts::B0>, sha2::digest::consts::B0>, sha2::digest::consts::B0>, sha2::digest::consts::B0>>"* noalias nocapture sret(%"sha2::digest::generic_array::GenericArray<u8, sha2::digest::generic_array::typenum::UInt<sha2::digest::generic_array::typenum::UInt<sha2::digest::generic_array::typenum::UInt<sha2::digest::generic_array::typenum::UInt<sha2::digest::generic_array::typenum::UInt<sha2::digest::generic_array::typenum::UInt<sha2::digest::generic_array::typenum::UTerm, sha2::digest::consts::B1>, sha2::digest::consts::B0>, sha2::digest::consts::B0>, sha2::digest::consts::B0>, sha2::digest::consts::B0>, sha2::digest::consts::B0>>") dereferenceable(32) %0, %"sha2::digest::generic_array::ArrayBuilder<u8, sha2::digest::generic_array::typenum::UInt<sha2::digest::generic_array::typenum::UInt<sha2::digest::generic_array::typenum::UInt<sha2::digest::generic_array::typenum::UInt<sha2::digest::generic_array::typenum::UInt<sha2::digest::generic_array::typenum::UInt<sha2::digest::generic_array::typenum::UTerm, sha2::digest::consts::B1>, sha2::digest::consts::B0>, sha2::digest::consts::B0>, sha2::digest::consts::B0>, sha2::digest::consts::B0>, sha2::digest::consts::B0>>"* noalias nocapture dereferenceable(40) %_13), !dbg !1146
  br label %bb5, !dbg !1146

bb5:                                              ; preds = %bb4
  br label %bb6, !dbg !1147

bb6:                                              ; preds = %bb5
  ret void, !dbg !1148
}

; <generic_array::GenericArray<T,N> as generic_array::sequence::GenericSequence<T>>::generate::{{closure}}
; Function Attrs: inlinehint nounwind
define void @"_ZN110_$LT$generic_array..GenericArray$LT$T$C$N$GT$$u20$as$u20$generic_array..sequence..GenericSequence$LT$T$GT$$GT$8generate28_$u7b$$u7b$closure$u7d$$u7d$17h06688da497b4d391E"({ i8*, i64* }* align 8 dereferenceable(16) %_1, i64 %_2.0, i8* align 1 dereferenceable(1) %_2.1) unnamed_addr #0 !dbg !1149 {
start:
  %dst.dbg.spill = alloca i8*, align 8
  %i.dbg.spill = alloca i64, align 8
  %_2.dbg.spill = alloca { i64, i8* }, align 8
  %_1.dbg.spill = alloca { i8*, i64* }*, align 8
  %_9 = alloca i64, align 8
  store { i8*, i64* }* %_1, { i8*, i64* }** %_1.dbg.spill, align 8
  %0 = load { i8*, i64* }*, { i8*, i64* }** %_1.dbg.spill, align 8, !nonnull !4
  %1 = bitcast { i8*, i64* }* %0 to %"[closure@sha2::digest::generic_array::impls::<impl std::default::Default for sha2::digest::generic_array::GenericArray<u8, sha2::digest::generic_array::typenum::UInt<sha2::digest::generic_array::typenum::UInt<sha2::digest::generic_array::typenum::UInt<sha2::digest::generic_array::typenum::UInt<sha2::digest::generic_array::typenum::UInt<sha2::digest::generic_array::typenum::UInt<sha2::digest::generic_array::typenum::UTerm, sha2::digest::consts::B1>, sha2::digest::consts::B0>, sha2::digest::consts::B0>, sha2::digest::consts::B0>, sha2::digest::consts::B0>, sha2::digest::consts::B0>>>::default::{closure#0}]"**
  %2 = load %"[closure@sha2::digest::generic_array::impls::<impl std::default::Default for sha2::digest::generic_array::GenericArray<u8, sha2::digest::generic_array::typenum::UInt<sha2::digest::generic_array::typenum::UInt<sha2::digest::generic_array::typenum::UInt<sha2::digest::generic_array::typenum::UInt<sha2::digest::generic_array::typenum::UInt<sha2::digest::generic_array::typenum::UInt<sha2::digest::generic_array::typenum::UTerm, sha2::digest::consts::B1>, sha2::digest::consts::B0>, sha2::digest::consts::B0>, sha2::digest::consts::B0>, sha2::digest::consts::B0>, sha2::digest::consts::B0>>>::default::{closure#0}]"*, %"[closure@sha2::digest::generic_array::impls::<impl std::default::Default for sha2::digest::generic_array::GenericArray<u8, sha2::digest::generic_array::typenum::UInt<sha2::digest::generic_array::typenum::UInt<sha2::digest::generic_array::typenum::UInt<sha2::digest::generic_array::typenum::UInt<sha2::digest::generic_array::typenum::UInt<sha2::digest::generic_array::typenum::UInt<sha2::digest::generic_array::typenum::UTerm, sha2::digest::consts::B1>, sha2::digest::consts::B0>, sha2::digest::consts::B0>, sha2::digest::consts::B0>, sha2::digest::consts::B0>, sha2::digest::consts::B0>>>::default::{closure#0}]"** %1, align 8, !nonnull !4
  call void @llvm.dbg.declare(metadata { i8*, i64* }** %_1.dbg.spill, metadata !1158, metadata !DIExpression(DW_OP_deref, DW_OP_deref)), !dbg !1164
  %3 = load { i8*, i64* }*, { i8*, i64* }** %_1.dbg.spill, align 8, !nonnull !4
  %4 = getelementptr inbounds { i8*, i64* }, { i8*, i64* }* %3, i32 0, i32 1
  %5 = bitcast i64** %4 to i64***
  %6 = load i64**, i64*** %5, align 8, !nonnull !4
  call void @llvm.dbg.declare(metadata { i8*, i64* }** %_1.dbg.spill, metadata !1159, metadata !DIExpression(DW_OP_deref, DW_OP_plus_uconst, 8, DW_OP_deref)), !dbg !1165
  %7 = getelementptr inbounds { i64, i8* }, { i64, i8* }* %_2.dbg.spill, i32 0, i32 0
  store i64 %_2.0, i64* %7, align 8
  %8 = getelementptr inbounds { i64, i8* }, { i64, i8* }* %_2.dbg.spill, i32 0, i32 1
  store i8* %_2.1, i8** %8, align 8
  call void @llvm.dbg.declare(metadata { i64, i8* }* %_2.dbg.spill, metadata !1163, metadata !DIExpression()), !dbg !1166
  store i64 %_2.0, i64* %i.dbg.spill, align 8, !dbg !1167
  call void @llvm.dbg.declare(metadata i64* %i.dbg.spill, metadata !1160, metadata !DIExpression()), !dbg !1168
  store i8* %_2.1, i8** %dst.dbg.spill, align 8, !dbg !1169
  call void @llvm.dbg.declare(metadata i8** %dst.dbg.spill, metadata !1162, metadata !DIExpression()), !dbg !1170
  %9 = bitcast { i8*, i64* }* %_1 to %"[closure@sha2::digest::generic_array::impls::<impl std::default::Default for sha2::digest::generic_array::GenericArray<u8, sha2::digest::generic_array::typenum::UInt<sha2::digest::generic_array::typenum::UInt<sha2::digest::generic_array::typenum::UInt<sha2::digest::generic_array::typenum::UInt<sha2::digest::generic_array::typenum::UInt<sha2::digest::generic_array::typenum::UInt<sha2::digest::generic_array::typenum::UTerm, sha2::digest::consts::B1>, sha2::digest::consts::B0>, sha2::digest::consts::B0>, sha2::digest::consts::B0>, sha2::digest::consts::B0>, sha2::digest::consts::B0>>>::default::{closure#0}]"**, !dbg !1171
  %_8 = load %"[closure@sha2::digest::generic_array::impls::<impl std::default::Default for sha2::digest::generic_array::GenericArray<u8, sha2::digest::generic_array::typenum::UInt<sha2::digest::generic_array::typenum::UInt<sha2::digest::generic_array::typenum::UInt<sha2::digest::generic_array::typenum::UInt<sha2::digest::generic_array::typenum::UInt<sha2::digest::generic_array::typenum::UInt<sha2::digest::generic_array::typenum::UTerm, sha2::digest::consts::B1>, sha2::digest::consts::B0>, sha2::digest::consts::B0>, sha2::digest::consts::B0>, sha2::digest::consts::B0>, sha2::digest::consts::B0>>>::default::{closure#0}]"*, %"[closure@sha2::digest::generic_array::impls::<impl std::default::Default for sha2::digest::generic_array::GenericArray<u8, sha2::digest::generic_array::typenum::UInt<sha2::digest::generic_array::typenum::UInt<sha2::digest::generic_array::typenum::UInt<sha2::digest::generic_array::typenum::UInt<sha2::digest::generic_array::typenum::UInt<sha2::digest::generic_array::typenum::UInt<sha2::digest::generic_array::typenum::UTerm, sha2::digest::consts::B1>, sha2::digest::consts::B0>, sha2::digest::consts::B0>, sha2::digest::consts::B0>, sha2::digest::consts::B0>, sha2::digest::consts::B0>>>::default::{closure#0}]"** %9, align 8, !dbg !1171, !nonnull !4
  store i64 %_2.0, i64* %_9, align 8, !dbg !1171
  %10 = load i64, i64* %_9, align 8, !dbg !1171
; call generic_array::impls::<impl core::default::Default for generic_array::GenericArray<T,N>>::default::{{closure}}
  %_7 = call i8 @"_ZN13generic_array5impls93_$LT$impl$u20$core..default..Default$u20$for$u20$generic_array..GenericArray$LT$T$C$N$GT$$GT$7default28_$u7b$$u7b$closure$u7d$$u7d$17hcc693060998f2c79E"(%"[closure@sha2::digest::generic_array::impls::<impl std::default::Default for sha2::digest::generic_array::GenericArray<u8, sha2::digest::generic_array::typenum::UInt<sha2::digest::generic_array::typenum::UInt<sha2::digest::generic_array::typenum::UInt<sha2::digest::generic_array::typenum::UInt<sha2::digest::generic_array::typenum::UInt<sha2::digest::generic_array::typenum::UInt<sha2::digest::generic_array::typenum::UTerm, sha2::digest::consts::B1>, sha2::digest::consts::B0>, sha2::digest::consts::B0>, sha2::digest::consts::B0>, sha2::digest::consts::B0>, sha2::digest::consts::B0>>>::default::{closure#0}]"* nonnull align 1 %_8, i64 %10), !dbg !1171
  br label %bb1, !dbg !1171

bb1:                                              ; preds = %start
; call core::ptr::write
  call void @_ZN4core3ptr5write17h6b21c4fb4186ca32E(i8* %_2.1, i8 %_7), !dbg !1172
  br label %bb2, !dbg !1172

bb2:                                              ; preds = %bb1
  %11 = getelementptr inbounds { i8*, i64* }, { i8*, i64* }* %_1, i32 0, i32 1, !dbg !1173
  %12 = bitcast i64** %11 to i64***, !dbg !1173
  %13 = load i64**, i64*** %12, align 8, !dbg !1173, !nonnull !4
  %14 = load i64*, i64** %13, align 8, !dbg !1173, !nonnull !4
  %15 = load i64, i64* %14, align 8, !dbg !1173
  %16 = call { i64, i1 } @llvm.uadd.with.overflow.i64(i64 %15, i64 1), !dbg !1173
  %_11.0 = extractvalue { i64, i1 } %16, 0, !dbg !1173
  %_11.1 = extractvalue { i64, i1 } %16, 1, !dbg !1173
  %17 = call i1 @llvm.expect.i1(i1 %_11.1, i1 false), !dbg !1173
  br i1 %17, label %panic, label %bb3, !dbg !1173

bb3:                                              ; preds = %bb2
  %18 = getelementptr inbounds { i8*, i64* }, { i8*, i64* }* %_1, i32 0, i32 1, !dbg !1173
  %19 = bitcast i64** %18 to i64***, !dbg !1173
  %20 = load i64**, i64*** %19, align 8, !dbg !1173, !nonnull !4
  %21 = load i64*, i64** %20, align 8, !dbg !1173, !nonnull !4
  store i64 %_11.0, i64* %21, align 8, !dbg !1173
  ret void, !dbg !1174

panic:                                            ; preds = %bb2
; call core::panicking::panic
  call void @_ZN4core9panicking5panic17h560e3e4b7752857aE([0 x i8]* nonnull align 1 bitcast ([28 x i8]* @str.0 to [0 x i8]*), i64 28, %"std::panic::Location"* align 8 dereferenceable(24) bitcast (<{ i8*, [16 x i8] }>* @alloc670 to %"std::panic::Location"*)), !dbg !1173
  unreachable, !dbg !1173
}

; <alloc::vec::Vec<T> as alloc::vec::spec_from_iter_nested::SpecFromIterNested<T,I>>::from_iter
; Function Attrs: nounwind
define void @"_ZN111_$LT$alloc..vec..Vec$LT$T$GT$$u20$as$u20$alloc..vec..spec_from_iter_nested..SpecFromIterNested$LT$T$C$I$GT$$GT$9from_iter17hf55ce76343809f50E"(%"std::vec::Vec<std::string::String>"* noalias nocapture sret(%"std::vec::Vec<std::string::String>") dereferenceable(24) %vector, i64* nonnull %0, i64* %1) unnamed_addr #1 !dbg !1175 {
start:
  %upper.dbg.spill = alloca i64, align 8
  %_2 = alloca { i64, { i64, i64 } }, align 8
  %iterator = alloca { i64*, i64* }, align 8
  %2 = getelementptr inbounds { i64*, i64* }, { i64*, i64* }* %iterator, i32 0, i32 0
  store i64* %0, i64** %2, align 8
  %3 = getelementptr inbounds { i64*, i64* }, { i64*, i64* }* %iterator, i32 0, i32 1
  store i64* %1, i64** %3, align 8
  call void @llvm.dbg.declare(metadata %"std::vec::Vec<std::string::String>"* %vector, metadata !1183, metadata !DIExpression()), !dbg !1189
  call void @llvm.dbg.declare(metadata { i64*, i64* }* %iterator, metadata !1182, metadata !DIExpression()), !dbg !1190
; call <core::iter::adapters::map::Map<I,F> as core::iter::traits::iterator::Iterator>::size_hint
  call void @"_ZN102_$LT$core..iter..adapters..map..Map$LT$I$C$F$GT$$u20$as$u20$core..iter..traits..iterator..Iterator$GT$9size_hint17h7acd7754171c52bbE"({ i64, { i64, i64 } }* noalias nocapture sret({ i64, { i64, i64 } }) dereferenceable(24) %_2, { i64*, i64* }* align 8 dereferenceable(16) %iterator), !dbg !1191
  br label %bb1, !dbg !1191

bb1:                                              ; preds = %start
  %4 = getelementptr inbounds { i64, { i64, i64 } }, { i64, { i64, i64 } }* %_2, i32 0, i32 1, !dbg !1191
  %5 = bitcast { i64, i64 }* %4 to i64*, !dbg !1191
  %_4 = load i64, i64* %5, align 8, !dbg !1191, !range !918
  %6 = icmp eq i64 %_4, 1, !dbg !1192
  br i1 %6, label %bb3, label %bb2, !dbg !1192

bb3:                                              ; preds = %bb1
  %7 = getelementptr inbounds { i64, { i64, i64 } }, { i64, { i64, i64 } }* %_2, i32 0, i32 1, !dbg !1193
  %8 = bitcast { i64, i64 }* %7 to %"std::option::Option<usize>::Some"*, !dbg !1193
  %9 = getelementptr inbounds %"std::option::Option<usize>::Some", %"std::option::Option<usize>::Some"* %8, i32 0, i32 1, !dbg !1193
  %upper = load i64, i64* %9, align 8, !dbg !1193
  store i64 %upper, i64* %upper.dbg.spill, align 8, !dbg !1193
  call void @llvm.dbg.declare(metadata i64* %upper.dbg.spill, metadata !1185, metadata !DIExpression()), !dbg !1194
; call alloc::vec::Vec<T>::with_capacity
  call void @"_ZN5alloc3vec12Vec$LT$T$GT$13with_capacity17h7a7c042faa35a92dE"(%"std::vec::Vec<std::string::String>"* noalias nocapture sret(%"std::vec::Vec<std::string::String>") dereferenceable(24) %vector, i64 %upper), !dbg !1195
  br label %bb4, !dbg !1195

bb2:                                              ; preds = %bb1
; call core::panicking::panic
  call void @_ZN4core9panicking5panic17h560e3e4b7752857aE([0 x i8]* nonnull align 1 bitcast (<{ [17 x i8] }>* @alloc796 to [0 x i8]*), i64 17, %"std::panic::Location"* align 8 dereferenceable(24) bitcast (<{ i8*, [16 x i8] }>* @alloc673 to %"std::panic::Location"*)), !dbg !1196
  unreachable, !dbg !1196

bb4:                                              ; preds = %bb3
  %10 = getelementptr inbounds { i64*, i64* }, { i64*, i64* }* %iterator, i32 0, i32 0, !dbg !1197
  %_9.0 = load i64*, i64** %10, align 8, !dbg !1197, !nonnull !4
  %11 = getelementptr inbounds { i64*, i64* }, { i64*, i64* }* %iterator, i32 0, i32 1, !dbg !1197
  %_9.1 = load i64*, i64** %11, align 8, !dbg !1197
; call <alloc::vec::Vec<T,A> as alloc::vec::spec_extend::SpecExtend<T,I>>::spec_extend
  call void @"_ZN97_$LT$alloc..vec..Vec$LT$T$C$A$GT$$u20$as$u20$alloc..vec..spec_extend..SpecExtend$LT$T$C$I$GT$$GT$11spec_extend17hfeb148e32bacad7cE"(%"std::vec::Vec<std::string::String>"* align 8 dereferenceable(24) %vector, i64* nonnull %_9.0, i64* %_9.1), !dbg !1198
  br label %bb5, !dbg !1198

bb5:                                              ; preds = %bb4
  ret void, !dbg !1199
}

; <core::iter::adapters::take_while::TakeWhile<I,P> as core::iter::traits::iterator::Iterator>::next
; Function Attrs: inlinehint nounwind
define align 1 dereferenceable_or_null(1) i8* @"_ZN115_$LT$core..iter..adapters..take_while..TakeWhile$LT$I$C$P$GT$$u20$as$u20$core..iter..traits..iterator..Iterator$GT$4next17h44aa5fbcd5f6eb80E"(%"std::iter::TakeWhile<std::slice::Iter<u8>, [closure@bs58::encode::encode_into<&[u8]>::{closure#0}]>"* align 8 dereferenceable(24) %self) unnamed_addr #0 !dbg !1200 {
start:
  %val.dbg.spill = alloca i8*, align 8
  %residual.dbg.spill = alloca %"std::option::Option<std::convert::Infallible>::None", align 1
  %self.dbg.spill = alloca %"std::iter::TakeWhile<std::slice::Iter<u8>, [closure@bs58::encode::encode_into<&[u8]>::{closure#0}]>"*, align 8
  %_17 = alloca i8, align 1
  %_13 = alloca i64*, align 8
  %_4 = alloca i8*, align 8
  %x = alloca i8*, align 8
  %0 = alloca i8*, align 8
  store %"std::iter::TakeWhile<std::slice::Iter<u8>, [closure@bs58::encode::encode_into<&[u8]>::{closure#0}]>"* %self, %"std::iter::TakeWhile<std::slice::Iter<u8>, [closure@bs58::encode::encode_into<&[u8]>::{closure#0}]>"** %self.dbg.spill, align 8
  call void @llvm.dbg.declare(metadata %"std::iter::TakeWhile<std::slice::Iter<u8>, [closure@bs58::encode::encode_into<&[u8]>::{closure#0}]>"** %self.dbg.spill, metadata !1218, metadata !DIExpression()), !dbg !1237
  call void @llvm.dbg.declare(metadata i8** %x, metadata !1219, metadata !DIExpression()), !dbg !1238
  call void @llvm.dbg.declare(metadata %"std::option::Option<std::convert::Infallible>::None"* %residual.dbg.spill, metadata !1221, metadata !DIExpression()), !dbg !1239
  store i8 0, i8* %_17, align 1, !dbg !1240
  %1 = getelementptr inbounds %"std::iter::TakeWhile<std::slice::Iter<u8>, [closure@bs58::encode::encode_into<&[u8]>::{closure#0}]>", %"std::iter::TakeWhile<std::slice::Iter<u8>, [closure@bs58::encode::encode_into<&[u8]>::{closure#0}]>"* %self, i32 0, i32 2, !dbg !1240
  %2 = load i8, i8* %1, align 8, !dbg !1240, !range !775
  %_2 = trunc i8 %2 to i1, !dbg !1240
  br i1 %_2, label %bb1, label %bb2, !dbg !1240

bb2:                                              ; preds = %start
  %_6 = bitcast %"std::iter::TakeWhile<std::slice::Iter<u8>, [closure@bs58::encode::encode_into<&[u8]>::{closure#0}]>"* %self to { i8*, i8* }*, !dbg !1241
; call <core::slice::iter::Iter<T> as core::iter::traits::iterator::Iterator>::next
  %_5 = call align 1 dereferenceable_or_null(1) i8* @"_ZN91_$LT$core..slice..iter..Iter$LT$T$GT$$u20$as$u20$core..iter..traits..iterator..Iterator$GT$4next17hc77c1daee05be341E"({ i8*, i8* }* align 8 dereferenceable(16) %_6), !dbg !1241
  br label %bb3, !dbg !1241

bb1:                                              ; preds = %start
  %3 = bitcast i8** %0 to {}**, !dbg !1242
  store {}* null, {}** %3, align 8, !dbg !1242
  br label %bb14, !dbg !1243

bb14:                                             ; preds = %bb13, %bb1
  br label %bb15, !dbg !1244

bb3:                                              ; preds = %bb2
; call <core::option::Option<T> as core::ops::try_trait::Try>::branch
  %4 = call align 1 dereferenceable_or_null(1) i8* @"_ZN75_$LT$core..option..Option$LT$T$GT$$u20$as$u20$core..ops..try_trait..Try$GT$6branch17hdebb28c4145155a6E"(i8* align 1 dereferenceable_or_null(1) %_5), !dbg !1241
  store i8* %4, i8** %_4, align 8, !dbg !1241
  br label %bb4, !dbg !1241

bb4:                                              ; preds = %bb3
  %5 = bitcast i8** %_4 to {}**, !dbg !1241
  %6 = load {}*, {}** %5, align 8, !dbg !1241
  %7 = icmp eq {}* %6, null, !dbg !1241
  %_7 = select i1 %7, i64 1, i64 0, !dbg !1241
  switch i64 %_7, label %bb6 [
    i64 0, label %bb5
    i64 1, label %bb7
  ], !dbg !1241

bb6:                                              ; preds = %bb4
  unreachable, !dbg !1241

bb5:                                              ; preds = %bb4
  %val = load i8*, i8** %_4, align 8, !dbg !1241, !nonnull !4
  store i8* %val, i8** %val.dbg.spill, align 8, !dbg !1241
  call void @llvm.dbg.declare(metadata i8** %val.dbg.spill, metadata !1235, metadata !DIExpression()), !dbg !1245
  store i8 1, i8* %_17, align 1, !dbg !1245
  store i8* %val, i8** %x, align 8, !dbg !1245
  %_12 = bitcast %"std::iter::TakeWhile<std::slice::Iter<u8>, [closure@bs58::encode::encode_into<&[u8]>::{closure#0}]>"* %self to %"[closure@bs58::encode::encode_into<&[u8]>::{closure#0}]"*, !dbg !1246
  %8 = bitcast i64** %_13 to i8***, !dbg !1246
  store i8** %x, i8*** %8, align 8, !dbg !1246
  %9 = load i64*, i64** %_13, align 8, !dbg !1246, !nonnull !4
  %10 = bitcast i64* %9 to i8**, !dbg !1246
; call bs58::encode::encode_into::{{closure}}
  %_11 = call zeroext i1 @"_ZN4bs586encode11encode_into28_$u7b$$u7b$closure$u7d$$u7d$17h7352b4156c3f49bfE"(%"[closure@bs58::encode::encode_into<&[u8]>::{closure#0}]"* nonnull align 1 %_12, i8** align 8 dereferenceable(8) %10), !dbg !1246
  br label %bb9, !dbg !1246

bb7:                                              ; preds = %bb4
; call <core::option::Option<T> as core::ops::try_trait::FromResidual>::from_residual
  %11 = call align 1 dereferenceable_or_null(1) i8* @"_ZN84_$LT$core..option..Option$LT$T$GT$$u20$as$u20$core..ops..try_trait..FromResidual$GT$13from_residual17h1c988e6f638a3d96E"(), !dbg !1247
  store i8* %11, i8** %0, align 8, !dbg !1247
  br label %bb8, !dbg !1247

bb8:                                              ; preds = %bb7
  store i8 0, i8* %_17, align 1, !dbg !1248
  br label %bb15, !dbg !1244

bb15:                                             ; preds = %bb14, %bb8
  %12 = load i8*, i8** %0, align 8, !dbg !1244
  ret i8* %12, !dbg !1244

bb9:                                              ; preds = %bb5
  br i1 %_11, label %bb10, label %bb11, !dbg !1246

bb11:                                             ; preds = %bb9
  %13 = getelementptr inbounds %"std::iter::TakeWhile<std::slice::Iter<u8>, [closure@bs58::encode::encode_into<&[u8]>::{closure#0}]>", %"std::iter::TakeWhile<std::slice::Iter<u8>, [closure@bs58::encode::encode_into<&[u8]>::{closure#0}]>"* %self, i32 0, i32 2, !dbg !1249
  store i8 1, i8* %13, align 8, !dbg !1249
  %14 = bitcast i8** %0 to {}**, !dbg !1250
  store {}* null, {}** %14, align 8, !dbg !1250
  br label %bb12, !dbg !1251

bb10:                                             ; preds = %bb9
  store i8 0, i8* %_17, align 1, !dbg !1252
  %_16 = load i8*, i8** %x, align 8, !dbg !1252, !nonnull !4
  store i8* %_16, i8** %0, align 8, !dbg !1253
  br label %bb12, !dbg !1251

bb12:                                             ; preds = %bb11, %bb10
  %15 = load i8, i8* %_17, align 1, !dbg !1248, !range !775
  %16 = trunc i8 %15 to i1, !dbg !1248
  br i1 %16, label %bb16, label %bb13, !dbg !1248

bb13:                                             ; preds = %bb16, %bb12
  store i8 0, i8* %_17, align 1, !dbg !1248
  br label %bb14, !dbg !1243

bb16:                                             ; preds = %bb12
  br label %bb13, !dbg !1248
}

; <alloc::vec::Vec<T,A> as alloc::vec::spec_extend::SpecExtend<&T,core::slice::iter::Iter<T>>>::spec_extend
; Function Attrs: nounwind
define void @"_ZN132_$LT$alloc..vec..Vec$LT$T$C$A$GT$$u20$as$u20$alloc..vec..spec_extend..SpecExtend$LT$$RF$T$C$core..slice..iter..Iter$LT$T$GT$$GT$$GT$11spec_extend17h96b0b4e54d8e5281E"(%"std::vec::Vec<u8>"* align 8 dereferenceable(24) %self, i8* nonnull %0, i8* %1) unnamed_addr #1 !dbg !1254 {
start:
  %slice.dbg.spill = alloca { [0 x i8]*, i64 }, align 8
  %self.dbg.spill = alloca %"std::vec::Vec<u8>"*, align 8
  %iterator = alloca { i8*, i8* }, align 8
  %2 = getelementptr inbounds { i8*, i8* }, { i8*, i8* }* %iterator, i32 0, i32 0
  store i8* %0, i8** %2, align 8
  %3 = getelementptr inbounds { i8*, i8* }, { i8*, i8* }* %iterator, i32 0, i32 1
  store i8* %1, i8** %3, align 8
  store %"std::vec::Vec<u8>"* %self, %"std::vec::Vec<u8>"** %self.dbg.spill, align 8
  call void @llvm.dbg.declare(metadata %"std::vec::Vec<u8>"** %self.dbg.spill, metadata !1261, metadata !DIExpression()), !dbg !1265
  call void @llvm.dbg.declare(metadata { i8*, i8* }* %iterator, metadata !1262, metadata !DIExpression()), !dbg !1266
; call core::slice::iter::Iter<T>::as_slice
  %4 = call { [0 x i8]*, i64 } @"_ZN4core5slice4iter13Iter$LT$T$GT$8as_slice17hb344edd9106a2d39E"({ i8*, i8* }* align 8 dereferenceable(16) %iterator), !dbg !1267
  %slice.0 = extractvalue { [0 x i8]*, i64 } %4, 0, !dbg !1267
  %slice.1 = extractvalue { [0 x i8]*, i64 } %4, 1, !dbg !1267
  %5 = getelementptr inbounds { [0 x i8]*, i64 }, { [0 x i8]*, i64 }* %slice.dbg.spill, i32 0, i32 0, !dbg !1267
  store [0 x i8]* %slice.0, [0 x i8]** %5, align 8, !dbg !1267
  %6 = getelementptr inbounds { [0 x i8]*, i64 }, { [0 x i8]*, i64 }* %slice.dbg.spill, i32 0, i32 1, !dbg !1267
  store i64 %slice.1, i64* %6, align 8, !dbg !1267
  call void @llvm.dbg.declare(metadata { [0 x i8]*, i64 }* %slice.dbg.spill, metadata !1263, metadata !DIExpression()), !dbg !1268
  br label %bb1, !dbg !1267

bb1:                                              ; preds = %start
; call alloc::vec::Vec<T,A>::append_elements
  call void @"_ZN5alloc3vec16Vec$LT$T$C$A$GT$15append_elements17h26d632d40e167de8E"(%"std::vec::Vec<u8>"* align 8 dereferenceable(24) %self, [0 x i8]* %slice.0, i64 %slice.1), !dbg !1269
  br label %bb2, !dbg !1269

bb2:                                              ; preds = %bb1
  ret void, !dbg !1270
}

; generic_array::ArrayBuilder<T,N>::into_inner
; Function Attrs: inlinehint nounwind
define void @"_ZN13generic_array25ArrayBuilder$LT$T$C$N$GT$10into_inner17h3395ce8f1575f538E"(%"sha2::digest::generic_array::GenericArray<u8, sha2::digest::generic_array::typenum::UInt<sha2::digest::generic_array::typenum::UInt<sha2::digest::generic_array::typenum::UInt<sha2::digest::generic_array::typenum::UInt<sha2::digest::generic_array::typenum::UInt<sha2::digest::generic_array::typenum::UInt<sha2::digest::generic_array::typenum::UTerm, sha2::digest::consts::B1>, sha2::digest::consts::B0>, sha2::digest::consts::B0>, sha2::digest::consts::B0>, sha2::digest::consts::B0>, sha2::digest::consts::B0>>"* noalias nocapture sret(%"sha2::digest::generic_array::GenericArray<u8, sha2::digest::generic_array::typenum::UInt<sha2::digest::generic_array::typenum::UInt<sha2::digest::generic_array::typenum::UInt<sha2::digest::generic_array::typenum::UInt<sha2::digest::generic_array::typenum::UInt<sha2::digest::generic_array::typenum::UInt<sha2::digest::generic_array::typenum::UTerm, sha2::digest::consts::B1>, sha2::digest::consts::B0>, sha2::digest::consts::B0>, sha2::digest::consts::B0>, sha2::digest::consts::B0>, sha2::digest::consts::B0>>") dereferenceable(32) %0, %"sha2::digest::generic_array::ArrayBuilder<u8, sha2::digest::generic_array::typenum::UInt<sha2::digest::generic_array::typenum::UInt<sha2::digest::generic_array::typenum::UInt<sha2::digest::generic_array::typenum::UInt<sha2::digest::generic_array::typenum::UInt<sha2::digest::generic_array::typenum::UInt<sha2::digest::generic_array::typenum::UTerm, sha2::digest::consts::B1>, sha2::digest::consts::B0>, sha2::digest::consts::B0>, sha2::digest::consts::B0>, sha2::digest::consts::B0>, sha2::digest::consts::B0>>"* noalias nocapture dereferenceable(40) %self) unnamed_addr #0 !dbg !1271 {
start:
  %_3.i = alloca %"std::mem::ManuallyDrop<sha2::digest::generic_array::GenericArray<u8, sha2::digest::generic_array::typenum::UInt<sha2::digest::generic_array::typenum::UInt<sha2::digest::generic_array::typenum::UInt<sha2::digest::generic_array::typenum::UInt<sha2::digest::generic_array::typenum::UInt<sha2::digest::generic_array::typenum::UInt<sha2::digest::generic_array::typenum::UTerm, sha2::digest::consts::B1>, sha2::digest::consts::B0>, sha2::digest::consts::B0>, sha2::digest::consts::B0>, sha2::digest::consts::B0>, sha2::digest::consts::B0>>>", align 1
  %_7 = alloca %"std::mem::MaybeUninit<sha2::digest::generic_array::GenericArray<u8, sha2::digest::generic_array::typenum::UInt<sha2::digest::generic_array::typenum::UInt<sha2::digest::generic_array::typenum::UInt<sha2::digest::generic_array::typenum::UInt<sha2::digest::generic_array::typenum::UInt<sha2::digest::generic_array::typenum::UInt<sha2::digest::generic_array::typenum::UTerm, sha2::digest::consts::B1>, sha2::digest::consts::B0>, sha2::digest::consts::B0>, sha2::digest::consts::B0>, sha2::digest::consts::B0>, sha2::digest::consts::B0>>>", align 1
  %_6 = alloca %"sha2::digest::generic_array::ArrayBuilder<u8, sha2::digest::generic_array::typenum::UInt<sha2::digest::generic_array::typenum::UInt<sha2::digest::generic_array::typenum::UInt<sha2::digest::generic_array::typenum::UInt<sha2::digest::generic_array::typenum::UInt<sha2::digest::generic_array::typenum::UInt<sha2::digest::generic_array::typenum::UTerm, sha2::digest::consts::B1>, sha2::digest::consts::B0>, sha2::digest::consts::B0>, sha2::digest::consts::B0>, sha2::digest::consts::B0>, sha2::digest::consts::B0>>", align 8
  %array = alloca %"std::mem::MaybeUninit<sha2::digest::generic_array::GenericArray<u8, sha2::digest::generic_array::typenum::UInt<sha2::digest::generic_array::typenum::UInt<sha2::digest::generic_array::typenum::UInt<sha2::digest::generic_array::typenum::UInt<sha2::digest::generic_array::typenum::UInt<sha2::digest::generic_array::typenum::UInt<sha2::digest::generic_array::typenum::UTerm, sha2::digest::consts::B1>, sha2::digest::consts::B0>, sha2::digest::consts::B0>, sha2::digest::consts::B0>, sha2::digest::consts::B0>, sha2::digest::consts::B0>>>", align 1
  call void @llvm.dbg.declare(metadata %"sha2::digest::generic_array::ArrayBuilder<u8, sha2::digest::generic_array::typenum::UInt<sha2::digest::generic_array::typenum::UInt<sha2::digest::generic_array::typenum::UInt<sha2::digest::generic_array::typenum::UInt<sha2::digest::generic_array::typenum::UInt<sha2::digest::generic_array::typenum::UInt<sha2::digest::generic_array::typenum::UTerm, sha2::digest::consts::B1>, sha2::digest::consts::B0>, sha2::digest::consts::B0>, sha2::digest::consts::B0>, sha2::digest::consts::B0>, sha2::digest::consts::B0>>"* %self, metadata !1275, metadata !DIExpression()), !dbg !1278
  call void @llvm.dbg.declare(metadata %"std::mem::MaybeUninit<sha2::digest::generic_array::GenericArray<u8, sha2::digest::generic_array::typenum::UInt<sha2::digest::generic_array::typenum::UInt<sha2::digest::generic_array::typenum::UInt<sha2::digest::generic_array::typenum::UInt<sha2::digest::generic_array::typenum::UInt<sha2::digest::generic_array::typenum::UInt<sha2::digest::generic_array::typenum::UTerm, sha2::digest::consts::B1>, sha2::digest::consts::B0>, sha2::digest::consts::B0>, sha2::digest::consts::B0>, sha2::digest::consts::B0>, sha2::digest::consts::B0>>>"* %array, metadata !1276, metadata !DIExpression()), !dbg !1279
  %_4 = getelementptr inbounds %"sha2::digest::generic_array::ArrayBuilder<u8, sha2::digest::generic_array::typenum::UInt<sha2::digest::generic_array::typenum::UInt<sha2::digest::generic_array::typenum::UInt<sha2::digest::generic_array::typenum::UInt<sha2::digest::generic_array::typenum::UInt<sha2::digest::generic_array::typenum::UInt<sha2::digest::generic_array::typenum::UTerm, sha2::digest::consts::B1>, sha2::digest::consts::B0>, sha2::digest::consts::B0>, sha2::digest::consts::B0>, sha2::digest::consts::B0>, sha2::digest::consts::B0>>", %"sha2::digest::generic_array::ArrayBuilder<u8, sha2::digest::generic_array::typenum::UInt<sha2::digest::generic_array::typenum::UInt<sha2::digest::generic_array::typenum::UInt<sha2::digest::generic_array::typenum::UInt<sha2::digest::generic_array::typenum::UInt<sha2::digest::generic_array::typenum::UInt<sha2::digest::generic_array::typenum::UTerm, sha2::digest::consts::B1>, sha2::digest::consts::B0>, sha2::digest::consts::B0>, sha2::digest::consts::B0>, sha2::digest::consts::B0>, sha2::digest::consts::B0>>"* %self, i32 0, i32 1, !dbg !1280
; call core::ptr::read
  call void @_ZN4core3ptr4read17hea87752fc9735257E(%"std::mem::MaybeUninit<sha2::digest::generic_array::GenericArray<u8, sha2::digest::generic_array::typenum::UInt<sha2::digest::generic_array::typenum::UInt<sha2::digest::generic_array::typenum::UInt<sha2::digest::generic_array::typenum::UInt<sha2::digest::generic_array::typenum::UInt<sha2::digest::generic_array::typenum::UInt<sha2::digest::generic_array::typenum::UTerm, sha2::digest::consts::B1>, sha2::digest::consts::B0>, sha2::digest::consts::B0>, sha2::digest::consts::B0>, sha2::digest::consts::B0>, sha2::digest::consts::B0>>>"* noalias nocapture sret(%"std::mem::MaybeUninit<sha2::digest::generic_array::GenericArray<u8, sha2::digest::generic_array::typenum::UInt<sha2::digest::generic_array::typenum::UInt<sha2::digest::generic_array::typenum::UInt<sha2::digest::generic_array::typenum::UInt<sha2::digest::generic_array::typenum::UInt<sha2::digest::generic_array::typenum::UInt<sha2::digest::generic_array::typenum::UTerm, sha2::digest::consts::B1>, sha2::digest::consts::B0>, sha2::digest::consts::B0>, sha2::digest::consts::B0>, sha2::digest::consts::B0>, sha2::digest::consts::B0>>>") dereferenceable(32) %array, %"std::mem::MaybeUninit<sha2::digest::generic_array::GenericArray<u8, sha2::digest::generic_array::typenum::UInt<sha2::digest::generic_array::typenum::UInt<sha2::digest::generic_array::typenum::UInt<sha2::digest::generic_array::typenum::UInt<sha2::digest::generic_array::typenum::UInt<sha2::digest::generic_array::typenum::UInt<sha2::digest::generic_array::typenum::UTerm, sha2::digest::consts::B1>, sha2::digest::consts::B0>, sha2::digest::consts::B0>, sha2::digest::consts::B0>, sha2::digest::consts::B0>, sha2::digest::consts::B0>>>"* %_4), !dbg !1281
  br label %bb1, !dbg !1281

bb1:                                              ; preds = %start
  %1 = bitcast %"sha2::digest::generic_array::ArrayBuilder<u8, sha2::digest::generic_array::typenum::UInt<sha2::digest::generic_array::typenum::UInt<sha2::digest::generic_array::typenum::UInt<sha2::digest::generic_array::typenum::UInt<sha2::digest::generic_array::typenum::UInt<sha2::digest::generic_array::typenum::UInt<sha2::digest::generic_array::typenum::UTerm, sha2::digest::consts::B1>, sha2::digest::consts::B0>, sha2::digest::consts::B0>, sha2::digest::consts::B0>, sha2::digest::consts::B0>, sha2::digest::consts::B0>>"* %_6 to i8*, !dbg !1282
  %2 = bitcast %"sha2::digest::generic_array::ArrayBuilder<u8, sha2::digest::generic_array::typenum::UInt<sha2::digest::generic_array::typenum::UInt<sha2::digest::generic_array::typenum::UInt<sha2::digest::generic_array::typenum::UInt<sha2::digest::generic_array::typenum::UInt<sha2::digest::generic_array::typenum::UInt<sha2::digest::generic_array::typenum::UTerm, sha2::digest::consts::B1>, sha2::digest::consts::B0>, sha2::digest::consts::B0>, sha2::digest::consts::B0>, sha2::digest::consts::B0>, sha2::digest::consts::B0>>"* %self to i8*, !dbg !1282
  call void @llvm.memcpy.p0i8.p0i8.i64(i8* align 8 %1, i8* align 8 %2, i64 40, i1 false), !dbg !1282
; call core::mem::forget
  call void @_ZN4core3mem6forget17he820f94cd50cd875E(%"sha2::digest::generic_array::ArrayBuilder<u8, sha2::digest::generic_array::typenum::UInt<sha2::digest::generic_array::typenum::UInt<sha2::digest::generic_array::typenum::UInt<sha2::digest::generic_array::typenum::UInt<sha2::digest::generic_array::typenum::UInt<sha2::digest::generic_array::typenum::UInt<sha2::digest::generic_array::typenum::UTerm, sha2::digest::consts::B1>, sha2::digest::consts::B0>, sha2::digest::consts::B0>, sha2::digest::consts::B0>, sha2::digest::consts::B0>, sha2::digest::consts::B0>>"* noalias nocapture dereferenceable(40) %_6), !dbg !1283
  br label %bb2, !dbg !1283

bb2:                                              ; preds = %bb1
  %3 = bitcast %"std::mem::MaybeUninit<sha2::digest::generic_array::GenericArray<u8, sha2::digest::generic_array::typenum::UInt<sha2::digest::generic_array::typenum::UInt<sha2::digest::generic_array::typenum::UInt<sha2::digest::generic_array::typenum::UInt<sha2::digest::generic_array::typenum::UInt<sha2::digest::generic_array::typenum::UInt<sha2::digest::generic_array::typenum::UTerm, sha2::digest::consts::B1>, sha2::digest::consts::B0>, sha2::digest::consts::B0>, sha2::digest::consts::B0>, sha2::digest::consts::B0>, sha2::digest::consts::B0>>>"* %_7 to i8*, !dbg !1284
  %4 = bitcast %"std::mem::MaybeUninit<sha2::digest::generic_array::GenericArray<u8, sha2::digest::generic_array::typenum::UInt<sha2::digest::generic_array::typenum::UInt<sha2::digest::generic_array::typenum::UInt<sha2::digest::generic_array::typenum::UInt<sha2::digest::generic_array::typenum::UInt<sha2::digest::generic_array::typenum::UInt<sha2::digest::generic_array::typenum::UTerm, sha2::digest::consts::B1>, sha2::digest::consts::B0>, sha2::digest::consts::B0>, sha2::digest::consts::B0>, sha2::digest::consts::B0>, sha2::digest::consts::B0>>>"* %array to i8*, !dbg !1284
  call void @llvm.memcpy.p0i8.p0i8.i64(i8* align 1 %3, i8* align 1 %4, i64 32, i1 false), !dbg !1284
  call void @llvm.experimental.noalias.scope.decl(metadata !1285), !dbg !1284
  call void @llvm.experimental.noalias.scope.decl(metadata !1288), !dbg !1284
  call void @llvm.dbg.declare(metadata %"std::mem::MaybeUninit<sha2::digest::generic_array::GenericArray<u8, sha2::digest::generic_array::typenum::UInt<sha2::digest::generic_array::typenum::UInt<sha2::digest::generic_array::typenum::UInt<sha2::digest::generic_array::typenum::UInt<sha2::digest::generic_array::typenum::UInt<sha2::digest::generic_array::typenum::UInt<sha2::digest::generic_array::typenum::UTerm, sha2::digest::consts::B1>, sha2::digest::consts::B0>, sha2::digest::consts::B0>, sha2::digest::consts::B0>, sha2::digest::consts::B0>, sha2::digest::consts::B0>>>"* %_7, metadata !1290, metadata !DIExpression()) #14, !dbg !1296
  %5 = bitcast %"std::mem::MaybeUninit<sha2::digest::generic_array::GenericArray<u8, sha2::digest::generic_array::typenum::UInt<sha2::digest::generic_array::typenum::UInt<sha2::digest::generic_array::typenum::UInt<sha2::digest::generic_array::typenum::UInt<sha2::digest::generic_array::typenum::UInt<sha2::digest::generic_array::typenum::UInt<sha2::digest::generic_array::typenum::UTerm, sha2::digest::consts::B1>, sha2::digest::consts::B0>, sha2::digest::consts::B0>, sha2::digest::consts::B0>, sha2::digest::consts::B0>, sha2::digest::consts::B0>>>"* %_7 to %"std::mem::ManuallyDrop<sha2::digest::generic_array::GenericArray<u8, sha2::digest::generic_array::typenum::UInt<sha2::digest::generic_array::typenum::UInt<sha2::digest::generic_array::typenum::UInt<sha2::digest::generic_array::typenum::UInt<sha2::digest::generic_array::typenum::UInt<sha2::digest::generic_array::typenum::UInt<sha2::digest::generic_array::typenum::UTerm, sha2::digest::consts::B1>, sha2::digest::consts::B0>, sha2::digest::consts::B0>, sha2::digest::consts::B0>, sha2::digest::consts::B0>, sha2::digest::consts::B0>>>"*, !dbg !1298
  %6 = bitcast %"std::mem::ManuallyDrop<sha2::digest::generic_array::GenericArray<u8, sha2::digest::generic_array::typenum::UInt<sha2::digest::generic_array::typenum::UInt<sha2::digest::generic_array::typenum::UInt<sha2::digest::generic_array::typenum::UInt<sha2::digest::generic_array::typenum::UInt<sha2::digest::generic_array::typenum::UInt<sha2::digest::generic_array::typenum::UTerm, sha2::digest::consts::B1>, sha2::digest::consts::B0>, sha2::digest::consts::B0>, sha2::digest::consts::B0>, sha2::digest::consts::B0>, sha2::digest::consts::B0>>>"* %_3.i to i8*, !dbg !1298
  %7 = bitcast %"std::mem::ManuallyDrop<sha2::digest::generic_array::GenericArray<u8, sha2::digest::generic_array::typenum::UInt<sha2::digest::generic_array::typenum::UInt<sha2::digest::generic_array::typenum::UInt<sha2::digest::generic_array::typenum::UInt<sha2::digest::generic_array::typenum::UInt<sha2::digest::generic_array::typenum::UInt<sha2::digest::generic_array::typenum::UTerm, sha2::digest::consts::B1>, sha2::digest::consts::B0>, sha2::digest::consts::B0>, sha2::digest::consts::B0>, sha2::digest::consts::B0>, sha2::digest::consts::B0>>>"* %5 to i8*, !dbg !1298
  call void @llvm.memcpy.p0i8.p0i8.i64(i8* align 1 %6, i8* align 1 %7, i64 32, i1 false) #14, !dbg !1298, !noalias !1285
  call void @llvm.experimental.noalias.scope.decl(metadata !1299) #14, !dbg !1302
  call void @llvm.experimental.noalias.scope.decl(metadata !1303) #14, !dbg !1302
  call void @llvm.dbg.declare(metadata %"std::mem::ManuallyDrop<sha2::digest::generic_array::GenericArray<u8, sha2::digest::generic_array::typenum::UInt<sha2::digest::generic_array::typenum::UInt<sha2::digest::generic_array::typenum::UInt<sha2::digest::generic_array::typenum::UInt<sha2::digest::generic_array::typenum::UInt<sha2::digest::generic_array::typenum::UInt<sha2::digest::generic_array::typenum::UTerm, sha2::digest::consts::B1>, sha2::digest::consts::B0>, sha2::digest::consts::B0>, sha2::digest::consts::B0>, sha2::digest::consts::B0>, sha2::digest::consts::B0>>>"* %_3.i, metadata !1305, metadata !DIExpression()) #14, !dbg !1311
  %8 = bitcast %"std::mem::ManuallyDrop<sha2::digest::generic_array::GenericArray<u8, sha2::digest::generic_array::typenum::UInt<sha2::digest::generic_array::typenum::UInt<sha2::digest::generic_array::typenum::UInt<sha2::digest::generic_array::typenum::UInt<sha2::digest::generic_array::typenum::UInt<sha2::digest::generic_array::typenum::UInt<sha2::digest::generic_array::typenum::UTerm, sha2::digest::consts::B1>, sha2::digest::consts::B0>, sha2::digest::consts::B0>, sha2::digest::consts::B0>, sha2::digest::consts::B0>, sha2::digest::consts::B0>>>"* %_3.i to %"sha2::digest::generic_array::GenericArray<u8, sha2::digest::generic_array::typenum::UInt<sha2::digest::generic_array::typenum::UInt<sha2::digest::generic_array::typenum::UInt<sha2::digest::generic_array::typenum::UInt<sha2::digest::generic_array::typenum::UInt<sha2::digest::generic_array::typenum::UInt<sha2::digest::generic_array::typenum::UTerm, sha2::digest::consts::B1>, sha2::digest::consts::B0>, sha2::digest::consts::B0>, sha2::digest::consts::B0>, sha2::digest::consts::B0>, sha2::digest::consts::B0>>"*, !dbg !1313
  %9 = bitcast %"sha2::digest::generic_array::GenericArray<u8, sha2::digest::generic_array::typenum::UInt<sha2::digest::generic_array::typenum::UInt<sha2::digest::generic_array::typenum::UInt<sha2::digest::generic_array::typenum::UInt<sha2::digest::generic_array::typenum::UInt<sha2::digest::generic_array::typenum::UInt<sha2::digest::generic_array::typenum::UTerm, sha2::digest::consts::B1>, sha2::digest::consts::B0>, sha2::digest::consts::B0>, sha2::digest::consts::B0>, sha2::digest::consts::B0>, sha2::digest::consts::B0>>"* %0 to i8*, !dbg !1313
  %10 = bitcast %"sha2::digest::generic_array::GenericArray<u8, sha2::digest::generic_array::typenum::UInt<sha2::digest::generic_array::typenum::UInt<sha2::digest::generic_array::typenum::UInt<sha2::digest::generic_array::typenum::UInt<sha2::digest::generic_array::typenum::UInt<sha2::digest::generic_array::typenum::UInt<sha2::digest::generic_array::typenum::UTerm, sha2::digest::consts::B1>, sha2::digest::consts::B0>, sha2::digest::consts::B0>, sha2::digest::consts::B0>, sha2::digest::consts::B0>, sha2::digest::consts::B0>>"* %8 to i8*, !dbg !1313
  call void @llvm.memcpy.p0i8.p0i8.i64(i8* align 1 %9, i8* align 1 %10, i64 32, i1 false) #14, !dbg !1313, !alias.scope !1314, !noalias !1288
  br label %bb3, !dbg !1284

bb3:                                              ; preds = %bb2
  ret void, !dbg !1315
}

; generic_array::ArrayBuilder<T,N>::iter_position
; Function Attrs: inlinehint nounwind
define void @"_ZN13generic_array25ArrayBuilder$LT$T$C$N$GT$13iter_position17h0baa45da24a2f699E"({ { i8*, i8* }, i64* }* noalias nocapture sret({ { i8*, i8* }, i64* }) dereferenceable(24) %0, %"sha2::digest::generic_array::ArrayBuilder<u8, sha2::digest::generic_array::typenum::UInt<sha2::digest::generic_array::typenum::UInt<sha2::digest::generic_array::typenum::UInt<sha2::digest::generic_array::typenum::UInt<sha2::digest::generic_array::typenum::UInt<sha2::digest::generic_array::typenum::UInt<sha2::digest::generic_array::typenum::UTerm, sha2::digest::consts::B1>, sha2::digest::consts::B0>, sha2::digest::consts::B0>, sha2::digest::consts::B0>, sha2::digest::consts::B0>, sha2::digest::consts::B0>>"* align 8 dereferenceable(40) %self) unnamed_addr #0 !dbg !1316 {
start:
  %self.dbg.spill.i1 = alloca %"sha2::digest::generic_array::GenericArray<u8, sha2::digest::generic_array::typenum::UInt<sha2::digest::generic_array::typenum::UInt<sha2::digest::generic_array::typenum::UInt<sha2::digest::generic_array::typenum::UInt<sha2::digest::generic_array::typenum::UInt<sha2::digest::generic_array::typenum::UInt<sha2::digest::generic_array::typenum::UTerm, sha2::digest::consts::B1>, sha2::digest::consts::B0>, sha2::digest::consts::B0>, sha2::digest::consts::B0>, sha2::digest::consts::B0>, sha2::digest::consts::B0>>"*, align 8
  %self.dbg.spill.i = alloca %"std::mem::MaybeUninit<sha2::digest::generic_array::GenericArray<u8, sha2::digest::generic_array::typenum::UInt<sha2::digest::generic_array::typenum::UInt<sha2::digest::generic_array::typenum::UInt<sha2::digest::generic_array::typenum::UInt<sha2::digest::generic_array::typenum::UInt<sha2::digest::generic_array::typenum::UInt<sha2::digest::generic_array::typenum::UTerm, sha2::digest::consts::B1>, sha2::digest::consts::B0>, sha2::digest::consts::B0>, sha2::digest::consts::B0>, sha2::digest::consts::B0>, sha2::digest::consts::B0>>>"*, align 8
  %self.dbg.spill = alloca %"sha2::digest::generic_array::ArrayBuilder<u8, sha2::digest::generic_array::typenum::UInt<sha2::digest::generic_array::typenum::UInt<sha2::digest::generic_array::typenum::UInt<sha2::digest::generic_array::typenum::UInt<sha2::digest::generic_array::typenum::UInt<sha2::digest::generic_array::typenum::UInt<sha2::digest::generic_array::typenum::UTerm, sha2::digest::consts::B1>, sha2::digest::consts::B0>, sha2::digest::consts::B0>, sha2::digest::consts::B0>, sha2::digest::consts::B0>, sha2::digest::consts::B0>>"*, align 8
  store %"sha2::digest::generic_array::ArrayBuilder<u8, sha2::digest::generic_array::typenum::UInt<sha2::digest::generic_array::typenum::UInt<sha2::digest::generic_array::typenum::UInt<sha2::digest::generic_array::typenum::UInt<sha2::digest::generic_array::typenum::UInt<sha2::digest::generic_array::typenum::UInt<sha2::digest::generic_array::typenum::UTerm, sha2::digest::consts::B1>, sha2::digest::consts::B0>, sha2::digest::consts::B0>, sha2::digest::consts::B0>, sha2::digest::consts::B0>, sha2::digest::consts::B0>>"* %self, %"sha2::digest::generic_array::ArrayBuilder<u8, sha2::digest::generic_array::typenum::UInt<sha2::digest::generic_array::typenum::UInt<sha2::digest::generic_array::typenum::UInt<sha2::digest::generic_array::typenum::UInt<sha2::digest::generic_array::typenum::UInt<sha2::digest::generic_array::typenum::UInt<sha2::digest::generic_array::typenum::UTerm, sha2::digest::consts::B1>, sha2::digest::consts::B0>, sha2::digest::consts::B0>, sha2::digest::consts::B0>, sha2::digest::consts::B0>, sha2::digest::consts::B0>>"** %self.dbg.spill, align 8
  call void @llvm.dbg.declare(metadata %"sha2::digest::generic_array::ArrayBuilder<u8, sha2::digest::generic_array::typenum::UInt<sha2::digest::generic_array::typenum::UInt<sha2::digest::generic_array::typenum::UInt<sha2::digest::generic_array::typenum::UInt<sha2::digest::generic_array::typenum::UInt<sha2::digest::generic_array::typenum::UInt<sha2::digest::generic_array::typenum::UTerm, sha2::digest::consts::B1>, sha2::digest::consts::B0>, sha2::digest::consts::B0>, sha2::digest::consts::B0>, sha2::digest::consts::B0>, sha2::digest::consts::B0>>"** %self.dbg.spill, metadata !1325, metadata !DIExpression()), !dbg !1326
  %_8 = getelementptr inbounds %"sha2::digest::generic_array::ArrayBuilder<u8, sha2::digest::generic_array::typenum::UInt<sha2::digest::generic_array::typenum::UInt<sha2::digest::generic_array::typenum::UInt<sha2::digest::generic_array::typenum::UInt<sha2::digest::generic_array::typenum::UInt<sha2::digest::generic_array::typenum::UInt<sha2::digest::generic_array::typenum::UTerm, sha2::digest::consts::B1>, sha2::digest::consts::B0>, sha2::digest::consts::B0>, sha2::digest::consts::B0>, sha2::digest::consts::B0>, sha2::digest::consts::B0>>", %"sha2::digest::generic_array::ArrayBuilder<u8, sha2::digest::generic_array::typenum::UInt<sha2::digest::generic_array::typenum::UInt<sha2::digest::generic_array::typenum::UInt<sha2::digest::generic_array::typenum::UInt<sha2::digest::generic_array::typenum::UInt<sha2::digest::generic_array::typenum::UInt<sha2::digest::generic_array::typenum::UTerm, sha2::digest::consts::B1>, sha2::digest::consts::B0>, sha2::digest::consts::B0>, sha2::digest::consts::B0>, sha2::digest::consts::B0>, sha2::digest::consts::B0>>"* %self, i32 0, i32 1, !dbg !1327
  store %"std::mem::MaybeUninit<sha2::digest::generic_array::GenericArray<u8, sha2::digest::generic_array::typenum::UInt<sha2::digest::generic_array::typenum::UInt<sha2::digest::generic_array::typenum::UInt<sha2::digest::generic_array::typenum::UInt<sha2::digest::generic_array::typenum::UInt<sha2::digest::generic_array::typenum::UInt<sha2::digest::generic_array::typenum::UTerm, sha2::digest::consts::B1>, sha2::digest::consts::B0>, sha2::digest::consts::B0>, sha2::digest::consts::B0>, sha2::digest::consts::B0>, sha2::digest::consts::B0>>>"* %_8, %"std::mem::MaybeUninit<sha2::digest::generic_array::GenericArray<u8, sha2::digest::generic_array::typenum::UInt<sha2::digest::generic_array::typenum::UInt<sha2::digest::generic_array::typenum::UInt<sha2::digest::generic_array::typenum::UInt<sha2::digest::generic_array::typenum::UInt<sha2::digest::generic_array::typenum::UInt<sha2::digest::generic_array::typenum::UTerm, sha2::digest::consts::B1>, sha2::digest::consts::B0>, sha2::digest::consts::B0>, sha2::digest::consts::B0>, sha2::digest::consts::B0>, sha2::digest::consts::B0>>>"** %self.dbg.spill.i, align 8
  call void @llvm.dbg.declare(metadata %"std::mem::MaybeUninit<sha2::digest::generic_array::GenericArray<u8, sha2::digest::generic_array::typenum::UInt<sha2::digest::generic_array::typenum::UInt<sha2::digest::generic_array::typenum::UInt<sha2::digest::generic_array::typenum::UInt<sha2::digest::generic_array::typenum::UInt<sha2::digest::generic_array::typenum::UInt<sha2::digest::generic_array::typenum::UTerm, sha2::digest::consts::B1>, sha2::digest::consts::B0>, sha2::digest::consts::B0>, sha2::digest::consts::B0>, sha2::digest::consts::B0>, sha2::digest::consts::B0>>>"** %self.dbg.spill.i, metadata !1328, metadata !DIExpression()), !dbg !1335
  %1 = bitcast %"std::mem::MaybeUninit<sha2::digest::generic_array::GenericArray<u8, sha2::digest::generic_array::typenum::UInt<sha2::digest::generic_array::typenum::UInt<sha2::digest::generic_array::typenum::UInt<sha2::digest::generic_array::typenum::UInt<sha2::digest::generic_array::typenum::UInt<sha2::digest::generic_array::typenum::UInt<sha2::digest::generic_array::typenum::UTerm, sha2::digest::consts::B1>, sha2::digest::consts::B0>, sha2::digest::consts::B0>, sha2::digest::consts::B0>, sha2::digest::consts::B0>, sha2::digest::consts::B0>>>"* %_8 to %"sha2::digest::generic_array::GenericArray<u8, sha2::digest::generic_array::typenum::UInt<sha2::digest::generic_array::typenum::UInt<sha2::digest::generic_array::typenum::UInt<sha2::digest::generic_array::typenum::UInt<sha2::digest::generic_array::typenum::UInt<sha2::digest::generic_array::typenum::UInt<sha2::digest::generic_array::typenum::UTerm, sha2::digest::consts::B1>, sha2::digest::consts::B0>, sha2::digest::consts::B0>, sha2::digest::consts::B0>, sha2::digest::consts::B0>, sha2::digest::consts::B0>>"*, !dbg !1337
  br label %bb1, !dbg !1327

bb1:                                              ; preds = %start
  store %"sha2::digest::generic_array::GenericArray<u8, sha2::digest::generic_array::typenum::UInt<sha2::digest::generic_array::typenum::UInt<sha2::digest::generic_array::typenum::UInt<sha2::digest::generic_array::typenum::UInt<sha2::digest::generic_array::typenum::UInt<sha2::digest::generic_array::typenum::UInt<sha2::digest::generic_array::typenum::UTerm, sha2::digest::consts::B1>, sha2::digest::consts::B0>, sha2::digest::consts::B0>, sha2::digest::consts::B0>, sha2::digest::consts::B0>, sha2::digest::consts::B0>>"* %1, %"sha2::digest::generic_array::GenericArray<u8, sha2::digest::generic_array::typenum::UInt<sha2::digest::generic_array::typenum::UInt<sha2::digest::generic_array::typenum::UInt<sha2::digest::generic_array::typenum::UInt<sha2::digest::generic_array::typenum::UInt<sha2::digest::generic_array::typenum::UInt<sha2::digest::generic_array::typenum::UTerm, sha2::digest::consts::B1>, sha2::digest::consts::B0>, sha2::digest::consts::B0>, sha2::digest::consts::B0>, sha2::digest::consts::B0>, sha2::digest::consts::B0>>"** %self.dbg.spill.i1, align 8
  call void @llvm.dbg.declare(metadata %"sha2::digest::generic_array::GenericArray<u8, sha2::digest::generic_array::typenum::UInt<sha2::digest::generic_array::typenum::UInt<sha2::digest::generic_array::typenum::UInt<sha2::digest::generic_array::typenum::UInt<sha2::digest::generic_array::typenum::UInt<sha2::digest::generic_array::typenum::UInt<sha2::digest::generic_array::typenum::UTerm, sha2::digest::consts::B1>, sha2::digest::consts::B0>, sha2::digest::consts::B0>, sha2::digest::consts::B0>, sha2::digest::consts::B0>, sha2::digest::consts::B0>>"** %self.dbg.spill.i1, metadata !1338, metadata !DIExpression()) #14, !dbg !1349
  %_5.i = bitcast %"sha2::digest::generic_array::GenericArray<u8, sha2::digest::generic_array::typenum::UInt<sha2::digest::generic_array::typenum::UInt<sha2::digest::generic_array::typenum::UInt<sha2::digest::generic_array::typenum::UInt<sha2::digest::generic_array::typenum::UInt<sha2::digest::generic_array::typenum::UInt<sha2::digest::generic_array::typenum::UTerm, sha2::digest::consts::B1>, sha2::digest::consts::B0>, sha2::digest::consts::B0>, sha2::digest::consts::B0>, sha2::digest::consts::B0>, sha2::digest::consts::B0>>"* %1 to i8*, !dbg !1351
; call core::slice::raw::from_raw_parts_mut
  %2 = call { [0 x i8]*, i64 } @_ZN4core5slice3raw18from_raw_parts_mut17h067154b95b2046f0E(i8* %_5.i, i64 32) #14, !dbg !1352
  %_4.0.i = extractvalue { [0 x i8]*, i64 } %2, 0, !dbg !1352
  %_4.1.i = extractvalue { [0 x i8]*, i64 } %2, 1, !dbg !1352
  %_4.0 = extractvalue { [0 x i8]*, i64 } %2, 0, !dbg !1353
  %_4.1 = extractvalue { [0 x i8]*, i64 } %2, 1, !dbg !1353
  br label %bb2, !dbg !1353

bb2:                                              ; preds = %bb1
; call core::slice::<impl [T]>::iter_mut
  %3 = call { i8*, i8* } @"_ZN4core5slice29_$LT$impl$u20$$u5b$T$u5d$$GT$8iter_mut17hb34eb39318f0adbcE"([0 x i8]* nonnull align 1 %_4.0, i64 %_4.1), !dbg !1353
  %_2.0 = extractvalue { i8*, i8* } %3, 0, !dbg !1353
  %_2.1 = extractvalue { i8*, i8* } %3, 1, !dbg !1353
  br label %bb3, !dbg !1353

bb3:                                              ; preds = %bb2
  %_10 = bitcast %"sha2::digest::generic_array::ArrayBuilder<u8, sha2::digest::generic_array::typenum::UInt<sha2::digest::generic_array::typenum::UInt<sha2::digest::generic_array::typenum::UInt<sha2::digest::generic_array::typenum::UInt<sha2::digest::generic_array::typenum::UInt<sha2::digest::generic_array::typenum::UInt<sha2::digest::generic_array::typenum::UTerm, sha2::digest::consts::B1>, sha2::digest::consts::B0>, sha2::digest::consts::B0>, sha2::digest::consts::B0>, sha2::digest::consts::B0>, sha2::digest::consts::B0>>"* %self to i64*, !dbg !1354
  %4 = bitcast { { i8*, i8* }, i64* }* %0 to { i8*, i8* }*, !dbg !1355
  %5 = getelementptr inbounds { i8*, i8* }, { i8*, i8* }* %4, i32 0, i32 0, !dbg !1355
  store i8* %_2.0, i8** %5, align 8, !dbg !1355
  %6 = getelementptr inbounds { i8*, i8* }, { i8*, i8* }* %4, i32 0, i32 1, !dbg !1355
  store i8* %_2.1, i8** %6, align 8, !dbg !1355
  %7 = getelementptr inbounds { { i8*, i8* }, i64* }, { { i8*, i8* }, i64* }* %0, i32 0, i32 1, !dbg !1355
  store i64* %_10, i64** %7, align 8, !dbg !1355
  ret void, !dbg !1356
}

; generic_array::ArrayBuilder<T,N>::new
; Function Attrs: inlinehint nounwind
define void @"_ZN13generic_array25ArrayBuilder$LT$T$C$N$GT$3new17h0bdf0df789f7a8d6E"(%"sha2::digest::generic_array::ArrayBuilder<u8, sha2::digest::generic_array::typenum::UInt<sha2::digest::generic_array::typenum::UInt<sha2::digest::generic_array::typenum::UInt<sha2::digest::generic_array::typenum::UInt<sha2::digest::generic_array::typenum::UInt<sha2::digest::generic_array::typenum::UInt<sha2::digest::generic_array::typenum::UTerm, sha2::digest::consts::B1>, sha2::digest::consts::B0>, sha2::digest::consts::B0>, sha2::digest::consts::B0>, sha2::digest::consts::B0>, sha2::digest::consts::B0>>"* noalias nocapture sret(%"sha2::digest::generic_array::ArrayBuilder<u8, sha2::digest::generic_array::typenum::UInt<sha2::digest::generic_array::typenum::UInt<sha2::digest::generic_array::typenum::UInt<sha2::digest::generic_array::typenum::UInt<sha2::digest::generic_array::typenum::UInt<sha2::digest::generic_array::typenum::UInt<sha2::digest::generic_array::typenum::UTerm, sha2::digest::consts::B1>, sha2::digest::consts::B0>, sha2::digest::consts::B0>, sha2::digest::consts::B0>, sha2::digest::consts::B0>, sha2::digest::consts::B0>>") dereferenceable(40) %0) unnamed_addr #0 !dbg !1357 {
start:
  %_1 = alloca %"std::mem::MaybeUninit<sha2::digest::generic_array::GenericArray<u8, sha2::digest::generic_array::typenum::UInt<sha2::digest::generic_array::typenum::UInt<sha2::digest::generic_array::typenum::UInt<sha2::digest::generic_array::typenum::UInt<sha2::digest::generic_array::typenum::UInt<sha2::digest::generic_array::typenum::UInt<sha2::digest::generic_array::typenum::UTerm, sha2::digest::consts::B1>, sha2::digest::consts::B0>, sha2::digest::consts::B0>, sha2::digest::consts::B0>, sha2::digest::consts::B0>, sha2::digest::consts::B0>>>", align 1
  call void @llvm.experimental.noalias.scope.decl(metadata !1360), !dbg !1363
  %1 = bitcast %"std::mem::MaybeUninit<sha2::digest::generic_array::GenericArray<u8, sha2::digest::generic_array::typenum::UInt<sha2::digest::generic_array::typenum::UInt<sha2::digest::generic_array::typenum::UInt<sha2::digest::generic_array::typenum::UInt<sha2::digest::generic_array::typenum::UInt<sha2::digest::generic_array::typenum::UInt<sha2::digest::generic_array::typenum::UTerm, sha2::digest::consts::B1>, sha2::digest::consts::B0>, sha2::digest::consts::B0>, sha2::digest::consts::B0>, sha2::digest::consts::B0>, sha2::digest::consts::B0>>>"* %_1 to {}*, !dbg !1364
  br label %bb1, !dbg !1363

bb1:                                              ; preds = %start
  %2 = getelementptr inbounds %"sha2::digest::generic_array::ArrayBuilder<u8, sha2::digest::generic_array::typenum::UInt<sha2::digest::generic_array::typenum::UInt<sha2::digest::generic_array::typenum::UInt<sha2::digest::generic_array::typenum::UInt<sha2::digest::generic_array::typenum::UInt<sha2::digest::generic_array::typenum::UInt<sha2::digest::generic_array::typenum::UTerm, sha2::digest::consts::B1>, sha2::digest::consts::B0>, sha2::digest::consts::B0>, sha2::digest::consts::B0>, sha2::digest::consts::B0>, sha2::digest::consts::B0>>", %"sha2::digest::generic_array::ArrayBuilder<u8, sha2::digest::generic_array::typenum::UInt<sha2::digest::generic_array::typenum::UInt<sha2::digest::generic_array::typenum::UInt<sha2::digest::generic_array::typenum::UInt<sha2::digest::generic_array::typenum::UInt<sha2::digest::generic_array::typenum::UInt<sha2::digest::generic_array::typenum::UTerm, sha2::digest::consts::B1>, sha2::digest::consts::B0>, sha2::digest::consts::B0>, sha2::digest::consts::B0>, sha2::digest::consts::B0>, sha2::digest::consts::B0>>"* %0, i32 0, i32 1, !dbg !1369
  %3 = bitcast %"std::mem::MaybeUninit<sha2::digest::generic_array::GenericArray<u8, sha2::digest::generic_array::typenum::UInt<sha2::digest::generic_array::typenum::UInt<sha2::digest::generic_array::typenum::UInt<sha2::digest::generic_array::typenum::UInt<sha2::digest::generic_array::typenum::UInt<sha2::digest::generic_array::typenum::UInt<sha2::digest::generic_array::typenum::UTerm, sha2::digest::consts::B1>, sha2::digest::consts::B0>, sha2::digest::consts::B0>, sha2::digest::consts::B0>, sha2::digest::consts::B0>, sha2::digest::consts::B0>>>"* %2 to i8*, !dbg !1369
  %4 = bitcast %"std::mem::MaybeUninit<sha2::digest::generic_array::GenericArray<u8, sha2::digest::generic_array::typenum::UInt<sha2::digest::generic_array::typenum::UInt<sha2::digest::generic_array::typenum::UInt<sha2::digest::generic_array::typenum::UInt<sha2::digest::generic_array::typenum::UInt<sha2::digest::generic_array::typenum::UInt<sha2::digest::generic_array::typenum::UTerm, sha2::digest::consts::B1>, sha2::digest::consts::B0>, sha2::digest::consts::B0>, sha2::digest::consts::B0>, sha2::digest::consts::B0>, sha2::digest::consts::B0>>>"* %_1 to i8*, !dbg !1369
  call void @llvm.memcpy.p0i8.p0i8.i64(i8* align 8 %3, i8* align 1 %4, i64 32, i1 false), !dbg !1369
  %5 = bitcast %"sha2::digest::generic_array::ArrayBuilder<u8, sha2::digest::generic_array::typenum::UInt<sha2::digest::generic_array::typenum::UInt<sha2::digest::generic_array::typenum::UInt<sha2::digest::generic_array::typenum::UInt<sha2::digest::generic_array::typenum::UInt<sha2::digest::generic_array::typenum::UInt<sha2::digest::generic_array::typenum::UTerm, sha2::digest::consts::B1>, sha2::digest::consts::B0>, sha2::digest::consts::B0>, sha2::digest::consts::B0>, sha2::digest::consts::B0>, sha2::digest::consts::B0>>"* %0 to i64*, !dbg !1369
  store i64 0, i64* %5, align 8, !dbg !1369
  ret void, !dbg !1370
}

; generic_array::GenericArray<T,N>::as_slice
; Function Attrs: inlinehint nounwind
define { [0 x i8]*, i64 } @"_ZN13generic_array25GenericArray$LT$T$C$N$GT$8as_slice17h57b85df6b11598a3E"(%"sha2::digest::generic_array::GenericArray<u8, sha2::digest::generic_array::typenum::UInt<sha2::digest::generic_array::typenum::UInt<sha2::digest::generic_array::typenum::UInt<sha2::digest::generic_array::typenum::UInt<sha2::digest::generic_array::typenum::UInt<sha2::digest::generic_array::typenum::UInt<sha2::digest::generic_array::typenum::UTerm, sha2::digest::consts::B1>, sha2::digest::consts::B0>, sha2::digest::consts::B0>, sha2::digest::consts::B0>, sha2::digest::consts::B0>, sha2::digest::consts::B0>>"* align 1 dereferenceable(32) %self) unnamed_addr #0 !dbg !1371 {
start:
  %self.dbg.spill.i = alloca %"sha2::digest::generic_array::GenericArray<u8, sha2::digest::generic_array::typenum::UInt<sha2::digest::generic_array::typenum::UInt<sha2::digest::generic_array::typenum::UInt<sha2::digest::generic_array::typenum::UInt<sha2::digest::generic_array::typenum::UInt<sha2::digest::generic_array::typenum::UInt<sha2::digest::generic_array::typenum::UTerm, sha2::digest::consts::B1>, sha2::digest::consts::B0>, sha2::digest::consts::B0>, sha2::digest::consts::B0>, sha2::digest::consts::B0>, sha2::digest::consts::B0>>"*, align 8
  %self.dbg.spill = alloca %"sha2::digest::generic_array::GenericArray<u8, sha2::digest::generic_array::typenum::UInt<sha2::digest::generic_array::typenum::UInt<sha2::digest::generic_array::typenum::UInt<sha2::digest::generic_array::typenum::UInt<sha2::digest::generic_array::typenum::UInt<sha2::digest::generic_array::typenum::UInt<sha2::digest::generic_array::typenum::UTerm, sha2::digest::consts::B1>, sha2::digest::consts::B0>, sha2::digest::consts::B0>, sha2::digest::consts::B0>, sha2::digest::consts::B0>, sha2::digest::consts::B0>>"*, align 8
  store %"sha2::digest::generic_array::GenericArray<u8, sha2::digest::generic_array::typenum::UInt<sha2::digest::generic_array::typenum::UInt<sha2::digest::generic_array::typenum::UInt<sha2::digest::generic_array::typenum::UInt<sha2::digest::generic_array::typenum::UInt<sha2::digest::generic_array::typenum::UInt<sha2::digest::generic_array::typenum::UTerm, sha2::digest::consts::B1>, sha2::digest::consts::B0>, sha2::digest::consts::B0>, sha2::digest::consts::B0>, sha2::digest::consts::B0>, sha2::digest::consts::B0>>"* %self, %"sha2::digest::generic_array::GenericArray<u8, sha2::digest::generic_array::typenum::UInt<sha2::digest::generic_array::typenum::UInt<sha2::digest::generic_array::typenum::UInt<sha2::digest::generic_array::typenum::UInt<sha2::digest::generic_array::typenum::UInt<sha2::digest::generic_array::typenum::UInt<sha2::digest::generic_array::typenum::UTerm, sha2::digest::consts::B1>, sha2::digest::consts::B0>, sha2::digest::consts::B0>, sha2::digest::consts::B0>, sha2::digest::consts::B0>, sha2::digest::consts::B0>>"** %self.dbg.spill, align 8
  call void @llvm.dbg.declare(metadata %"sha2::digest::generic_array::GenericArray<u8, sha2::digest::generic_array::typenum::UInt<sha2::digest::generic_array::typenum::UInt<sha2::digest::generic_array::typenum::UInt<sha2::digest::generic_array::typenum::UInt<sha2::digest::generic_array::typenum::UInt<sha2::digest::generic_array::typenum::UInt<sha2::digest::generic_array::typenum::UTerm, sha2::digest::consts::B1>, sha2::digest::consts::B0>, sha2::digest::consts::B0>, sha2::digest::consts::B0>, sha2::digest::consts::B0>, sha2::digest::consts::B0>>"** %self.dbg.spill, metadata !1376, metadata !DIExpression()), !dbg !1377
  store %"sha2::digest::generic_array::GenericArray<u8, sha2::digest::generic_array::typenum::UInt<sha2::digest::generic_array::typenum::UInt<sha2::digest::generic_array::typenum::UInt<sha2::digest::generic_array::typenum::UInt<sha2::digest::generic_array::typenum::UInt<sha2::digest::generic_array::typenum::UInt<sha2::digest::generic_array::typenum::UTerm, sha2::digest::consts::B1>, sha2::digest::consts::B0>, sha2::digest::consts::B0>, sha2::digest::consts::B0>, sha2::digest::consts::B0>, sha2::digest::consts::B0>>"* %self, %"sha2::digest::generic_array::GenericArray<u8, sha2::digest::generic_array::typenum::UInt<sha2::digest::generic_array::typenum::UInt<sha2::digest::generic_array::typenum::UInt<sha2::digest::generic_array::typenum::UInt<sha2::digest::generic_array::typenum::UInt<sha2::digest::generic_array::typenum::UInt<sha2::digest::generic_array::typenum::UTerm, sha2::digest::consts::B1>, sha2::digest::consts::B0>, sha2::digest::consts::B0>, sha2::digest::consts::B0>, sha2::digest::consts::B0>, sha2::digest::consts::B0>>"** %self.dbg.spill.i, align 8
  call void @llvm.dbg.declare(metadata %"sha2::digest::generic_array::GenericArray<u8, sha2::digest::generic_array::typenum::UInt<sha2::digest::generic_array::typenum::UInt<sha2::digest::generic_array::typenum::UInt<sha2::digest::generic_array::typenum::UInt<sha2::digest::generic_array::typenum::UInt<sha2::digest::generic_array::typenum::UInt<sha2::digest::generic_array::typenum::UTerm, sha2::digest::consts::B1>, sha2::digest::consts::B0>, sha2::digest::consts::B0>, sha2::digest::consts::B0>, sha2::digest::consts::B0>, sha2::digest::consts::B0>>"** %self.dbg.spill.i, metadata !1378, metadata !DIExpression()) #14, !dbg !1382
  %_2.i = bitcast %"sha2::digest::generic_array::GenericArray<u8, sha2::digest::generic_array::typenum::UInt<sha2::digest::generic_array::typenum::UInt<sha2::digest::generic_array::typenum::UInt<sha2::digest::generic_array::typenum::UInt<sha2::digest::generic_array::typenum::UInt<sha2::digest::generic_array::typenum::UInt<sha2::digest::generic_array::typenum::UTerm, sha2::digest::consts::B1>, sha2::digest::consts::B0>, sha2::digest::consts::B0>, sha2::digest::consts::B0>, sha2::digest::consts::B0>, sha2::digest::consts::B0>>"* %self to i8*, !dbg !1384
; call core::slice::raw::from_raw_parts
  %0 = call { [0 x i8]*, i64 } @_ZN4core5slice3raw14from_raw_parts17hce436f669b04616cE(i8* %_2.i, i64 32) #14, !dbg !1385
