; ModuleID = 'spl_associated_token_account.475ee66f-cgu.0'
source_filename = "spl_associated_token_account.475ee66f-cgu.0"
target datalayout = "e-m:e-p:64:64-i64:64-n32:64-S128"
target triple = "bpfel"

%"std::fmt::Arguments" = type { { [0 x { [0 x i8]*, i64 }]*, i64 }, { i64*, i64 }, { [0 x { i8*, i64* }]*, i64 } }
%"std::panic::Location" = type { { [0 x i8]*, i64 }, i32, i32 }
%"std::rc::RcBox<std::cell::RefCell<&mut u64>>" = type { i64, i64, { i64, i64* } }
%"std::rc::RcBox<std::cell::RefCell<&mut [u8]>>" = type { i64, i64, %"std::cell::RefCell<&mut [u8]>" }
%"std::cell::RefCell<&mut [u8]>" = type { i64, { i8*, i64 } }
%"solana_program::account_info::AccountInfo" = type { %"solana_program::pubkey::Pubkey"*, i64*, i64*, %"solana_program::pubkey::Pubkey"*, i64, i8, i8, i8, [5 x i8] }
%"solana_program::pubkey::Pubkey" = type { [32 x i8] }
%"std::alloc::Global" = type {}
%"std::result::Result<std::convert::Infallible, std::alloc::AllocError>::Err" = type { %"std::alloc::AllocError" }
%"std::alloc::AllocError" = type {}
%"std::string::String" = type { %"std::vec::Vec<u8>" }
%"std::vec::Vec<u8>" = type { { i8*, i64 }, i64 }
%"std::ops::ControlFlow<std::result::Result<std::convert::Infallible, solana_program::program_error::ProgramError>, solana_program::instruction::Instruction>" = type { i64, [10 x i64] }
%"std::result::Result<solana_program::instruction::Instruction, solana_program::program_error::ProgramError>" = type { i64, [10 x i64] }
%"solana_program::program_error::ProgramError" = type { i32, [7 x i32] }
%"std::result::Result<std::convert::Infallible, solana_program::program_error::ProgramError>::Err" = type { %"solana_program::program_error::ProgramError" }
%"solana_program::instruction::Instruction" = type { %"std::vec::Vec<solana_program::instruction::AccountMeta>", %"std::vec::Vec<u8>", %"solana_program::pubkey::Pubkey" }
%"std::vec::Vec<solana_program::instruction::AccountMeta>" = type { { i8*, i64 }, i64 }
%"std::result::Result<solana_program::instruction::Instruction, solana_program::program_error::ProgramError>::Ok" = type { [1 x i64], %"solana_program::instruction::Instruction" }
%"std::ops::ControlFlow<std::result::Result<std::convert::Infallible, solana_program::program_error::ProgramError>, solana_program::instruction::Instruction>::Continue" = type { [1 x i64], %"solana_program::instruction::Instruction" }
%"std::result::Result<solana_program::instruction::Instruction, solana_program::program_error::ProgramError>::Err" = type { [1 x i64], %"solana_program::program_error::ProgramError" }
%"std::ops::ControlFlow<std::result::Result<std::convert::Infallible, solana_program::program_error::ProgramError>, solana_program::instruction::Instruction>::Break" = type { [1 x i64], %"std::result::Result<std::convert::Infallible, solana_program::program_error::ProgramError>::Err" }
%"std::result::Result<(), solana_program::program_error::ProgramError>" = type { i32, [7 x i32] }
%"solana_program::rent::Rent" = type { i64, double, i8, [7 x i8] }
%"std::ops::ControlFlow<std::result::Result<std::convert::Infallible, solana_program::program_error::ProgramError>>" = type { i32, [7 x i32] }
%"std::result::Result<solana_program::rent::Rent, solana_program::program_error::ProgramError>" = type { i64, [4 x i64] }
%"std::ops::ControlFlow<std::result::Result<std::convert::Infallible, solana_program::program_error::ProgramError>, solana_program::rent::Rent>" = type { i64, [4 x i64] }
%"std::result::Result<&solana_program::account_info::AccountInfo, solana_program::program_error::ProgramError>" = type { i64, [4 x i64] }
%"std::ops::ControlFlow<std::result::Result<std::convert::Infallible, solana_program::program_error::ProgramError>, &solana_program::account_info::AccountInfo>" = type { i64, [4 x i64] }
%"std::ops::ControlFlow<std::result::Result<std::convert::Infallible, solana_program::program_error::ProgramError>, &solana_program::account_info::AccountInfo>::Continue" = type { [1 x i64], %"solana_program::account_info::AccountInfo"* }
%"std::ops::ControlFlow<std::result::Result<std::convert::Infallible, solana_program::program_error::ProgramError>, &solana_program::account_info::AccountInfo>::Break" = type { [1 x i64], %"std::result::Result<std::convert::Infallible, solana_program::program_error::ProgramError>::Err" }
%"std::result::Result<(), solana_program::program_error::ProgramError>::Err" = type { %"solana_program::program_error::ProgramError" }
%"std::ops::ControlFlow<std::result::Result<std::convert::Infallible, solana_program::program_error::ProgramError>, solana_program::rent::Rent>::Continue" = type { [1 x i64], %"solana_program::rent::Rent" }
%"std::ops::ControlFlow<std::result::Result<std::convert::Infallible, solana_program::program_error::ProgramError>, solana_program::rent::Rent>::Break" = type { [1 x i64], %"std::result::Result<std::convert::Infallible, solana_program::program_error::ProgramError>::Err" }
%"std::ops::ControlFlow<std::result::Result<std::convert::Infallible, solana_program::program_error::ProgramError>>::Break" = type { %"std::result::Result<std::convert::Infallible, solana_program::program_error::ProgramError>::Err" }
%"solana_program::instruction::AccountMeta" = type { %"solana_program::pubkey::Pubkey", i8, i8 }
%"std::fmt::Formatter" = type { { i64, i64 }, { i64, i64 }, { {}*, [3 x i64]* }, i32, i32, i8, [7 x i8] }

@alloc42 = private unnamed_addr constant <{ [12 x i8] }> <{ [12 x i8] c"invalid args" }>, align 1
@alloc43 = private unnamed_addr constant <{ [74 x i8] }> <{ [74 x i8] c"/home/runner/work/bpf-tools/bpf-tools/out/rust/library/core/src/fmt/mod.rs" }>, align 1
@alloc44 = private unnamed_addr constant <{ i8*, [16 x i8] }> <{ i8* getelementptr inbounds (<{ [74 x i8] }>, <{ [74 x i8] }>* @alloc43, i32 0, i32 0, i32 0), [16 x i8] c"J\00\00\00\00\00\00\00c\01\00\00\0D\00\00\00" }>, align 8
@alloc30 = private unnamed_addr constant <{ [0 x i8] }> zeroinitializer, align 1
@alloc45 = private unnamed_addr constant <{ [56 x i8] }> <{ [56 x i8] c"Error: Associated address does not match seed derivation" }>, align 1
@alloc17 = private unnamed_addr constant <{ [9 x i8] }> <{ [9 x i8] c"Transfer " }>, align 1
@alloc19 = private unnamed_addr constant <{ [41 x i8] }> <{ [41 x i8] c" lamports to the associated token account" }>, align 1
@alloc18 = private unnamed_addr constant <{ i8*, [8 x i8], i8*, [8 x i8] }> <{ i8* getelementptr inbounds (<{ [9 x i8] }>, <{ [9 x i8] }>* @alloc17, i32 0, i32 0, i32 0), [8 x i8] c"\09\00\00\00\00\00\00\00", i8* getelementptr inbounds (<{ [41 x i8] }>, <{ [41 x i8] }>* @alloc19, i32 0, i32 0, i32 0), [8 x i8] c")\00\00\00\00\00\00\00" }>, align 8
@alloc46 = private unnamed_addr constant <{ [47 x i8] }> <{ [47 x i8] c"Allocate space for the associated token account" }>, align 1
@alloc47 = private unnamed_addr constant <{ [60 x i8] }> <{ [60 x i8] c"Assign the associated token account to the SPL Token program" }>, align 1
@alloc48 = private unnamed_addr constant <{ [39 x i8] }> <{ [39 x i8] c"Initialize the associated token account" }>, align 1
@_ZN28spl_associated_token_account2ID17h17ec760e971ebda0E = constant <{ [32 x i8] }> <{ [32 x i8] c"\8C\97%\8FN$\89\F1\BB=\10)\14\8E\0D\83\0BZ\13\99\DA\FF\10\84\04\8E{\D8\DB\E9\F8Y" }>, align 1, !dbg !0

; solana_program::log::sol_log
; Function Attrs: inlinehint nounwind
define internal void @_ZN14solana_program3log7sol_log17h4d8401486258f67dE([0 x i8]* nonnull align 1 %message.0, i64 %message.1) unnamed_addr #0 !dbg !36 {
start:
  %message.dbg.spill = alloca { [0 x i8]*, i64 }, align 8
  %0 = getelementptr inbounds { [0 x i8]*, i64 }, { [0 x i8]*, i64 }* %message.dbg.spill, i32 0, i32 0
  store [0 x i8]* %message.0, [0 x i8]** %0, align 8
  %1 = getelementptr inbounds { [0 x i8]*, i64 }, { [0 x i8]*, i64 }* %message.dbg.spill, i32 0, i32 1
  store i64 %message.1, i64* %1, align 8
  call void @llvm.dbg.declare(metadata { [0 x i8]*, i64 }* %message.dbg.spill, metadata !48, metadata !DIExpression()), !dbg !49
; call core::str::<impl str>::as_ptr
  %_3 = call i8* @"_ZN4core3str21_$LT$impl$u20$str$GT$6as_ptr17h3f8482c0f278dd16E"([0 x i8]* nonnull align 1 %message.0, i64 %message.1), !dbg !50
  br label %bb1, !dbg !50

bb1:                                              ; preds = %start
; call core::str::<impl str>::len
  %_6 = call i64 @"_ZN4core3str21_$LT$impl$u20$str$GT$3len17hbd828f1393980aa5E"([0 x i8]* nonnull align 1 %message.0, i64 %message.1), !dbg !51
  br label %bb2, !dbg !51

bb2:                                              ; preds = %bb1
  call void @sol_log_(i8* %_3, i64 %_6), !dbg !52
  br label %bb3, !dbg !52

bb3:                                              ; preds = %bb2
  ret void, !dbg !53
}

; core::fmt::Arguments::new_v1
; Function Attrs: inlinehint nounwind
define internal void @_ZN4core3fmt9Arguments6new_v117hb6c89b68d17ccadaE(%"std::fmt::Arguments"* noalias nocapture sret(%"std::fmt::Arguments") dereferenceable(48) %0, [0 x { [0 x i8]*, i64 }]* nonnull align 8 %pieces.0, i64 %pieces.1, [0 x { i8*, i64* }]* nonnull align 8 %args.0, i64 %args.1) unnamed_addr #0 !dbg !54 {
start:
  %args.dbg.spill = alloca { [0 x { i8*, i64* }]*, i64 }, align 8
  %pieces.dbg.spill = alloca { [0 x { [0 x i8]*, i64 }]*, i64 }, align 8
  %_16 = alloca { i64*, i64 }, align 8
  %_3 = alloca i8, align 1
  %1 = getelementptr inbounds { [0 x { [0 x i8]*, i64 }]*, i64 }, { [0 x { [0 x i8]*, i64 }]*, i64 }* %pieces.dbg.spill, i32 0, i32 0
  store [0 x { [0 x i8]*, i64 }]* %pieces.0, [0 x { [0 x i8]*, i64 }]** %1, align 8
  %2 = getelementptr inbounds { [0 x { [0 x i8]*, i64 }]*, i64 }, { [0 x { [0 x i8]*, i64 }]*, i64 }* %pieces.dbg.spill, i32 0, i32 1
  store i64 %pieces.1, i64* %2, align 8
  call void @llvm.dbg.declare(metadata { [0 x { [0 x i8]*, i64 }]*, i64 }* %pieces.dbg.spill, metadata !161, metadata !DIExpression()), !dbg !163
  %3 = getelementptr inbounds { [0 x { i8*, i64* }]*, i64 }, { [0 x { i8*, i64* }]*, i64 }* %args.dbg.spill, i32 0, i32 0
  store [0 x { i8*, i64* }]* %args.0, [0 x { i8*, i64* }]** %3, align 8
  %4 = getelementptr inbounds { [0 x { i8*, i64* }]*, i64 }, { [0 x { i8*, i64* }]*, i64 }* %args.dbg.spill, i32 0, i32 1
  store i64 %args.1, i64* %4, align 8
  call void @llvm.dbg.declare(metadata { [0 x { i8*, i64* }]*, i64 }* %args.dbg.spill, metadata !162, metadata !DIExpression()), !dbg !164
  %_4 = icmp ult i64 %pieces.1, %args.1, !dbg !165
  br i1 %_4, label %bb1, label %bb2, !dbg !165

bb2:                                              ; preds = %start
  %_12 = add i64 %args.1, 1, !dbg !166
  %_9 = icmp ugt i64 %pieces.1, %_12, !dbg !167
  %5 = zext i1 %_9 to i8, !dbg !165
  store i8 %5, i8* %_3, align 1, !dbg !165
  br label %bb3, !dbg !165

bb1:                                              ; preds = %start
  store i8 1, i8* %_3, align 1, !dbg !165
  br label %bb3, !dbg !165

bb3:                                              ; preds = %bb2, %bb1
  %6 = load i8, i8* %_3, align 1, !dbg !165, !range !168
  %7 = trunc i8 %6 to i1, !dbg !165
  br i1 %7, label %bb4, label %bb5, !dbg !165

bb5:                                              ; preds = %bb3
  %8 = bitcast { i64*, i64 }* %_16 to {}**, !dbg !169
  store {}* null, {}** %8, align 8, !dbg !169
  %9 = bitcast %"std::fmt::Arguments"* %0 to { [0 x { [0 x i8]*, i64 }]*, i64 }*, !dbg !170
  %10 = getelementptr inbounds { [0 x { [0 x i8]*, i64 }]*, i64 }, { [0 x { [0 x i8]*, i64 }]*, i64 }* %9, i32 0, i32 0, !dbg !170
  store [0 x { [0 x i8]*, i64 }]* %pieces.0, [0 x { [0 x i8]*, i64 }]** %10, align 8, !dbg !170
  %11 = getelementptr inbounds { [0 x { [0 x i8]*, i64 }]*, i64 }, { [0 x { [0 x i8]*, i64 }]*, i64 }* %9, i32 0, i32 1, !dbg !170
  store i64 %pieces.1, i64* %11, align 8, !dbg !170
  %12 = getelementptr inbounds %"std::fmt::Arguments", %"std::fmt::Arguments"* %0, i32 0, i32 1, !dbg !170
  %13 = getelementptr inbounds { i64*, i64 }, { i64*, i64 }* %_16, i32 0, i32 0, !dbg !170
  %14 = load i64*, i64** %13, align 8, !dbg !170
  %15 = getelementptr inbounds { i64*, i64 }, { i64*, i64 }* %_16, i32 0, i32 1, !dbg !170
  %16 = load i64, i64* %15, align 8, !dbg !170
  %17 = getelementptr inbounds { i64*, i64 }, { i64*, i64 }* %12, i32 0, i32 0, !dbg !170
  store i64* %14, i64** %17, align 8, !dbg !170
  %18 = getelementptr inbounds { i64*, i64 }, { i64*, i64 }* %12, i32 0, i32 1, !dbg !170
  store i64 %16, i64* %18, align 8, !dbg !170
  %19 = getelementptr inbounds %"std::fmt::Arguments", %"std::fmt::Arguments"* %0, i32 0, i32 2, !dbg !170
  %20 = getelementptr inbounds { [0 x { i8*, i64* }]*, i64 }, { [0 x { i8*, i64* }]*, i64 }* %19, i32 0, i32 0, !dbg !170
  store [0 x { i8*, i64* }]* %args.0, [0 x { i8*, i64* }]** %20, align 8, !dbg !170
  %21 = getelementptr inbounds { [0 x { i8*, i64* }]*, i64 }, { [0 x { i8*, i64* }]*, i64 }* %19, i32 0, i32 1, !dbg !170
  store i64 %args.1, i64* %21, align 8, !dbg !170
  ret void, !dbg !171

bb4:                                              ; preds = %bb3
; call core::panicking::panic
  call void @_ZN4core9panicking5panic17h560e3e4b7752857aE([0 x i8]* nonnull align 1 bitcast (<{ [12 x i8] }>* @alloc42 to [0 x i8]*), i64 12, %"std::panic::Location"* align 8 dereferenceable(24) bitcast (<{ i8*, [16 x i8] }>* @alloc44 to %"std::panic::Location"*)), !dbg !172
  unreachable, !dbg !172
}

; core::mem::size_of_val
; Function Attrs: inlinehint nounwind
define i64 @_ZN4core3mem11size_of_val17h05543f343bfd00a1E(%"std::rc::RcBox<std::cell::RefCell<&mut u64>>"* align 8 dereferenceable(32) %val) unnamed_addr #0 !dbg !173 {
start:
  %0 = alloca i64, align 8
  %val.dbg.spill = alloca %"std::rc::RcBox<std::cell::RefCell<&mut u64>>"*, align 8
  store %"std::rc::RcBox<std::cell::RefCell<&mut u64>>"* %val, %"std::rc::RcBox<std::cell::RefCell<&mut u64>>"** %val.dbg.spill, align 8
  call void @llvm.dbg.declare(metadata %"std::rc::RcBox<std::cell::RefCell<&mut u64>>"** %val.dbg.spill, metadata !215, metadata !DIExpression()), !dbg !218
  store i64 32, i64* %0, align 8, !dbg !219
  %1 = load i64, i64* %0, align 8, !dbg !219
  br label %bb1, !dbg !219

bb1:                                              ; preds = %start
  ret i64 %1, !dbg !220
}

; core::mem::size_of_val
; Function Attrs: inlinehint nounwind
define i64 @_ZN4core3mem11size_of_val17hf4b782f835e2bb73E(%"std::rc::RcBox<std::cell::RefCell<&mut [u8]>>"* align 8 dereferenceable(40) %val) unnamed_addr #0 !dbg !221 {
start:
  %0 = alloca i64, align 8
  %val.dbg.spill = alloca %"std::rc::RcBox<std::cell::RefCell<&mut [u8]>>"*, align 8
  store %"std::rc::RcBox<std::cell::RefCell<&mut [u8]>>"* %val, %"std::rc::RcBox<std::cell::RefCell<&mut [u8]>>"** %val.dbg.spill, align 8
  call void @llvm.dbg.declare(metadata %"std::rc::RcBox<std::cell::RefCell<&mut [u8]>>"** %val.dbg.spill, metadata !246, metadata !DIExpression()), !dbg !249
  store i64 40, i64* %0, align 8, !dbg !250
  %1 = load i64, i64* %0, align 8, !dbg !250
  br label %bb1, !dbg !250

bb1:                                              ; preds = %start
  ret i64 %1, !dbg !251
}

; core::mem::align_of_val
; Function Attrs: inlinehint nounwind
define i64 @_ZN4core3mem12align_of_val17h30bd2dba6b90f67bE(%"std::rc::RcBox<std::cell::RefCell<&mut u64>>"* align 8 dereferenceable(32) %val) unnamed_addr #0 !dbg !252 {
start:
  %0 = alloca i64, align 8
  %val.dbg.spill = alloca %"std::rc::RcBox<std::cell::RefCell<&mut u64>>"*, align 8
  store %"std::rc::RcBox<std::cell::RefCell<&mut u64>>"* %val, %"std::rc::RcBox<std::cell::RefCell<&mut u64>>"** %val.dbg.spill, align 8
  call void @llvm.dbg.declare(metadata %"std::rc::RcBox<std::cell::RefCell<&mut u64>>"** %val.dbg.spill, metadata !254, metadata !DIExpression()), !dbg !255
  store i64 8, i64* %0, align 8, !dbg !256
  %1 = load i64, i64* %0, align 8, !dbg !256
  br label %bb1, !dbg !256

bb1:                                              ; preds = %start
  ret i64 %1, !dbg !257
}

; core::mem::align_of_val
; Function Attrs: inlinehint nounwind
define i64 @_ZN4core3mem12align_of_val17h48dff9debcb17a25E(%"std::rc::RcBox<std::cell::RefCell<&mut [u8]>>"* align 8 dereferenceable(40) %val) unnamed_addr #0 !dbg !258 {
start:
  %0 = alloca i64, align 8
  %val.dbg.spill = alloca %"std::rc::RcBox<std::cell::RefCell<&mut [u8]>>"*, align 8
  store %"std::rc::RcBox<std::cell::RefCell<&mut [u8]>>"* %val, %"std::rc::RcBox<std::cell::RefCell<&mut [u8]>>"** %val.dbg.spill, align 8
  call void @llvm.dbg.declare(metadata %"std::rc::RcBox<std::cell::RefCell<&mut [u8]>>"** %val.dbg.spill, metadata !260, metadata !DIExpression()), !dbg !261
  store i64 8, i64* %0, align 8, !dbg !262
  %1 = load i64, i64* %0, align 8, !dbg !262
  br label %bb1, !dbg !262

bb1:                                              ; preds = %start
  ret i64 %1, !dbg !263
}

; core::num::nonzero::NonZeroUsize::new_unchecked
; Function Attrs: inlinehint nounwind
define internal i64 @_ZN4core3num7nonzero12NonZeroUsize13new_unchecked17h9f7845adbea48e67E(i64 %n) unnamed_addr #0 !dbg !264 {
start:
  %n.dbg.spill = alloca i64, align 8
  %0 = alloca i64, align 8
  store i64 %n, i64* %n.dbg.spill, align 8
  call void @llvm.dbg.declare(metadata i64* %n.dbg.spill, metadata !274, metadata !DIExpression()), !dbg !275
  store i64 %n, i64* %0, align 8, !dbg !276
  %1 = load i64, i64* %0, align 8, !dbg !277, !range !278
  ret i64 %1, !dbg !277
}

; core::num::nonzero::NonZeroUsize::get
; Function Attrs: inlinehint nounwind
define internal i64 @_ZN4core3num7nonzero12NonZeroUsize3get17he7245872a99bcb8eE(i64 %self) unnamed_addr #0 !dbg !279 {
start:
  %self.dbg.spill = alloca i64, align 8
  store i64 %self, i64* %self.dbg.spill, align 8
  call void @llvm.dbg.declare(metadata i64* %self.dbg.spill, metadata !283, metadata !DIExpression()), !dbg !284
  ret i64 %self, !dbg !285
}

; core::ptr::drop_in_place<solana_program::account_info::AccountInfo>
; Function Attrs: nounwind
define void @"_ZN4core3ptr62drop_in_place$LT$solana_program..account_info..AccountInfo$GT$17h10233615d59e7eedE"(%"solana_program::account_info::AccountInfo"* %_1) unnamed_addr #1 !dbg !286 {
start:
  %_1.dbg.spill = alloca %"solana_program::account_info::AccountInfo"*, align 8
  store %"solana_program::account_info::AccountInfo"* %_1, %"solana_program::account_info::AccountInfo"** %_1.dbg.spill, align 8
  call void @llvm.dbg.declare(metadata %"solana_program::account_info::AccountInfo"** %_1.dbg.spill, metadata !326, metadata !DIExpression()), !dbg !329
  %0 = getelementptr inbounds %"solana_program::account_info::AccountInfo", %"solana_program::account_info::AccountInfo"* %_1, i32 0, i32 1, !dbg !329
; call core::ptr::drop_in_place<alloc::rc::Rc<core::cell::RefCell<&mut u64>>>
  call void @"_ZN4core3ptr84drop_in_place$LT$alloc..rc..Rc$LT$core..cell..RefCell$LT$$RF$mut$u20$u64$GT$$GT$$GT$17ha78771d45a843dc7E"(i64** %0), !dbg !329
  br label %bb2, !dbg !329

bb2:                                              ; preds = %start
  %1 = getelementptr inbounds %"solana_program::account_info::AccountInfo", %"solana_program::account_info::AccountInfo"* %_1, i32 0, i32 2, !dbg !329
; call core::ptr::drop_in_place<alloc::rc::Rc<core::cell::RefCell<&mut [u8]>>>
  call void @"_ZN4core3ptr93drop_in_place$LT$alloc..rc..Rc$LT$core..cell..RefCell$LT$$RF$mut$u20$$u5b$u8$u5d$$GT$$GT$$GT$17h05bdc81e15688d2fE"(i64** %1), !dbg !329
  br label %bb1, !dbg !329

bb1:                                              ; preds = %bb2
  ret void, !dbg !329
}

; core::ptr::drop_in_place<[solana_program::account_info::AccountInfo; 2]>
; Function Attrs: nounwind
define void @"_ZN4core3ptr83drop_in_place$LT$$u5b$solana_program..account_info..AccountInfo$u3b$$u20$2$u5d$$GT$17he42a488fc4b213bcE"([2 x %"solana_program::account_info::AccountInfo"]* %_1) unnamed_addr #1 !dbg !330 {
start:
  %_1.dbg.spill = alloca [2 x %"solana_program::account_info::AccountInfo"]*, align 8
  %_9 = alloca %"solana_program::account_info::AccountInfo"*, align 8
  %_4 = alloca i64, align 8
  store [2 x %"solana_program::account_info::AccountInfo"]* %_1, [2 x %"solana_program::account_info::AccountInfo"]** %_1.dbg.spill, align 8
  call void @llvm.dbg.declare(metadata [2 x %"solana_program::account_info::AccountInfo"]** %_1.dbg.spill, metadata !338, metadata !DIExpression()), !dbg !341
  br i1 false, label %bb4, label %bb7, !dbg !341

bb4:                                              ; preds = %start
  store i64 0, i64* %_4, align 8, !dbg !341
  br label %bb3, !dbg !341

bb7:                                              ; preds = %start
  %0 = bitcast [2 x %"solana_program::account_info::AccountInfo"]* %_1 to %"solana_program::account_info::AccountInfo"*, !dbg !341
  store %"solana_program::account_info::AccountInfo"* %0, %"solana_program::account_info::AccountInfo"** %_9, align 8, !dbg !341
  %1 = load %"solana_program::account_info::AccountInfo"*, %"solana_program::account_info::AccountInfo"** %_9, align 8, !dbg !341
  %_10 = getelementptr inbounds %"solana_program::account_info::AccountInfo", %"solana_program::account_info::AccountInfo"* %1, i64 2, !dbg !341
  br label %bb6, !dbg !341

bb6:                                              ; preds = %bb5, %bb7
  %2 = load %"solana_program::account_info::AccountInfo"*, %"solana_program::account_info::AccountInfo"** %_9, align 8, !dbg !341
  %_14 = icmp eq %"solana_program::account_info::AccountInfo"* %2, %_10, !dbg !341
  br i1 %_14, label %bb1, label %bb5, !dbg !341

bb5:                                              ; preds = %bb6
  %_13 = load %"solana_program::account_info::AccountInfo"*, %"solana_program::account_info::AccountInfo"** %_9, align 8, !dbg !341
  %3 = load %"solana_program::account_info::AccountInfo"*, %"solana_program::account_info::AccountInfo"** %_9, align 8, !dbg !341
  %4 = getelementptr inbounds %"solana_program::account_info::AccountInfo", %"solana_program::account_info::AccountInfo"* %3, i64 1, !dbg !341
  store %"solana_program::account_info::AccountInfo"* %4, %"solana_program::account_info::AccountInfo"** %_9, align 8, !dbg !341
; call core::ptr::drop_in_place<solana_program::account_info::AccountInfo>
  call void @"_ZN4core3ptr62drop_in_place$LT$solana_program..account_info..AccountInfo$GT$17h10233615d59e7eedE"(%"solana_program::account_info::AccountInfo"* %_13), !dbg !341
  br label %bb6, !dbg !341

bb1:                                              ; preds = %bb3, %bb6
  ret void, !dbg !341

bb3:                                              ; preds = %bb2, %bb4
  %5 = load i64, i64* %_4, align 8, !dbg !341
  %_8 = icmp eq i64 %5, 2, !dbg !341
  br i1 %_8, label %bb1, label %bb2, !dbg !341

bb2:                                              ; preds = %bb3
  %6 = load i64, i64* %_4, align 8, !dbg !341
  %_7 = getelementptr inbounds [2 x %"solana_program::account_info::AccountInfo"], [2 x %"solana_program::account_info::AccountInfo"]* %_1, i64 0, i64 %6, !dbg !341
  %7 = load i64, i64* %_4, align 8, !dbg !341
  %8 = add i64 %7, 1, !dbg !341
  store i64 %8, i64* %_4, align 8, !dbg !341
; call core::ptr::drop_in_place<solana_program::account_info::AccountInfo>
  call void @"_ZN4core3ptr62drop_in_place$LT$solana_program..account_info..AccountInfo$GT$17h10233615d59e7eedE"(%"solana_program::account_info::AccountInfo"* %_7), !dbg !341
  br label %bb3, !dbg !341
}

; core::ptr::drop_in_place<[solana_program::account_info::AccountInfo; 3]>
; Function Attrs: nounwind
define void @"_ZN4core3ptr83drop_in_place$LT$$u5b$solana_program..account_info..AccountInfo$u3b$$u20$3$u5d$$GT$17h2da496a9fe420cbbE"([3 x %"solana_program::account_info::AccountInfo"]* %_1) unnamed_addr #1 !dbg !342 {
start:
  %_1.dbg.spill = alloca [3 x %"solana_program::account_info::AccountInfo"]*, align 8
  %_9 = alloca %"solana_program::account_info::AccountInfo"*, align 8
  %_4 = alloca i64, align 8
  store [3 x %"solana_program::account_info::AccountInfo"]* %_1, [3 x %"solana_program::account_info::AccountInfo"]** %_1.dbg.spill, align 8
  call void @llvm.dbg.declare(metadata [3 x %"solana_program::account_info::AccountInfo"]** %_1.dbg.spill, metadata !348, metadata !DIExpression()), !dbg !351
  br i1 false, label %bb4, label %bb7, !dbg !351

bb4:                                              ; preds = %start
  store i64 0, i64* %_4, align 8, !dbg !351
  br label %bb3, !dbg !351

bb7:                                              ; preds = %start
  %0 = bitcast [3 x %"solana_program::account_info::AccountInfo"]* %_1 to %"solana_program::account_info::AccountInfo"*, !dbg !351
  store %"solana_program::account_info::AccountInfo"* %0, %"solana_program::account_info::AccountInfo"** %_9, align 8, !dbg !351
  %1 = load %"solana_program::account_info::AccountInfo"*, %"solana_program::account_info::AccountInfo"** %_9, align 8, !dbg !351
  %_10 = getelementptr inbounds %"solana_program::account_info::AccountInfo", %"solana_program::account_info::AccountInfo"* %1, i64 3, !dbg !351
  br label %bb6, !dbg !351

bb6:                                              ; preds = %bb5, %bb7
  %2 = load %"solana_program::account_info::AccountInfo"*, %"solana_program::account_info::AccountInfo"** %_9, align 8, !dbg !351
  %_14 = icmp eq %"solana_program::account_info::AccountInfo"* %2, %_10, !dbg !351
  br i1 %_14, label %bb1, label %bb5, !dbg !351

bb5:                                              ; preds = %bb6
  %_13 = load %"solana_program::account_info::AccountInfo"*, %"solana_program::account_info::AccountInfo"** %_9, align 8, !dbg !351
  %3 = load %"solana_program::account_info::AccountInfo"*, %"solana_program::account_info::AccountInfo"** %_9, align 8, !dbg !351
  %4 = getelementptr inbounds %"solana_program::account_info::AccountInfo", %"solana_program::account_info::AccountInfo"* %3, i64 1, !dbg !351
  store %"solana_program::account_info::AccountInfo"* %4, %"solana_program::account_info::AccountInfo"** %_9, align 8, !dbg !351
; call core::ptr::drop_in_place<solana_program::account_info::AccountInfo>
  call void @"_ZN4core3ptr62drop_in_place$LT$solana_program..account_info..AccountInfo$GT$17h10233615d59e7eedE"(%"solana_program::account_info::AccountInfo"* %_13), !dbg !351
  br label %bb6, !dbg !351

bb1:                                              ; preds = %bb3, %bb6
  ret void, !dbg !351

bb3:                                              ; preds = %bb2, %bb4
  %5 = load i64, i64* %_4, align 8, !dbg !351
  %_8 = icmp eq i64 %5, 3, !dbg !351
  br i1 %_8, label %bb1, label %bb2, !dbg !351

bb2:                                              ; preds = %bb3
  %6 = load i64, i64* %_4, align 8, !dbg !351
  %_7 = getelementptr inbounds [3 x %"solana_program::account_info::AccountInfo"], [3 x %"solana_program::account_info::AccountInfo"]* %_1, i64 0, i64 %6, !dbg !351
  %7 = load i64, i64* %_4, align 8, !dbg !351
  %8 = add i64 %7, 1, !dbg !351
  store i64 %8, i64* %_4, align 8, !dbg !351
; call core::ptr::drop_in_place<solana_program::account_info::AccountInfo>
  call void @"_ZN4core3ptr62drop_in_place$LT$solana_program..account_info..AccountInfo$GT$17h10233615d59e7eedE"(%"solana_program::account_info::AccountInfo"* %_7), !dbg !351
  br label %bb3, !dbg !351
}

; core::ptr::drop_in_place<[solana_program::account_info::AccountInfo; 5]>
; Function Attrs: nounwind
define void @"_ZN4core3ptr83drop_in_place$LT$$u5b$solana_program..account_info..AccountInfo$u3b$$u20$5$u5d$$GT$17he0260c0930f58f8dE"([5 x %"solana_program::account_info::AccountInfo"]* %_1) unnamed_addr #1 !dbg !352 {
start:
  %_1.dbg.spill = alloca [5 x %"solana_program::account_info::AccountInfo"]*, align 8
  %_9 = alloca %"solana_program::account_info::AccountInfo"*, align 8
  %_4 = alloca i64, align 8
  store [5 x %"solana_program::account_info::AccountInfo"]* %_1, [5 x %"solana_program::account_info::AccountInfo"]** %_1.dbg.spill, align 8
  call void @llvm.dbg.declare(metadata [5 x %"solana_program::account_info::AccountInfo"]** %_1.dbg.spill, metadata !360, metadata !DIExpression()), !dbg !363
  br i1 false, label %bb4, label %bb7, !dbg !363

bb4:                                              ; preds = %start
  store i64 0, i64* %_4, align 8, !dbg !363
  br label %bb3, !dbg !363

bb7:                                              ; preds = %start
  %0 = bitcast [5 x %"solana_program::account_info::AccountInfo"]* %_1 to %"solana_program::account_info::AccountInfo"*, !dbg !363
  store %"solana_program::account_info::AccountInfo"* %0, %"solana_program::account_info::AccountInfo"** %_9, align 8, !dbg !363
  %1 = load %"solana_program::account_info::AccountInfo"*, %"solana_program::account_info::AccountInfo"** %_9, align 8, !dbg !363
  %_10 = getelementptr inbounds %"solana_program::account_info::AccountInfo", %"solana_program::account_info::AccountInfo"* %1, i64 5, !dbg !363
  br label %bb6, !dbg !363

bb6:                                              ; preds = %bb5, %bb7
  %2 = load %"solana_program::account_info::AccountInfo"*, %"solana_program::account_info::AccountInfo"** %_9, align 8, !dbg !363
  %_14 = icmp eq %"solana_program::account_info::AccountInfo"* %2, %_10, !dbg !363
  br i1 %_14, label %bb1, label %bb5, !dbg !363

bb5:                                              ; preds = %bb6
  %_13 = load %"solana_program::account_info::AccountInfo"*, %"solana_program::account_info::AccountInfo"** %_9, align 8, !dbg !363
  %3 = load %"solana_program::account_info::AccountInfo"*, %"solana_program::account_info::AccountInfo"** %_9, align 8, !dbg !363
  %4 = getelementptr inbounds %"solana_program::account_info::AccountInfo", %"solana_program::account_info::AccountInfo"* %3, i64 1, !dbg !363
  store %"solana_program::account_info::AccountInfo"* %4, %"solana_program::account_info::AccountInfo"** %_9, align 8, !dbg !363
; call core::ptr::drop_in_place<solana_program::account_info::AccountInfo>
  call void @"_ZN4core3ptr62drop_in_place$LT$solana_program..account_info..AccountInfo$GT$17h10233615d59e7eedE"(%"solana_program::account_info::AccountInfo"* %_13), !dbg !363
  br label %bb6, !dbg !363

bb1:                                              ; preds = %bb3, %bb6
  ret void, !dbg !363

bb3:                                              ; preds = %bb2, %bb4
  %5 = load i64, i64* %_4, align 8, !dbg !363
  %_8 = icmp eq i64 %5, 5, !dbg !363
  br i1 %_8, label %bb1, label %bb2, !dbg !363

bb2:                                              ; preds = %bb3
  %6 = load i64, i64* %_4, align 8, !dbg !363
  %_7 = getelementptr inbounds [5 x %"solana_program::account_info::AccountInfo"], [5 x %"solana_program::account_info::AccountInfo"]* %_1, i64 0, i64 %6, !dbg !363
  %7 = load i64, i64* %_4, align 8, !dbg !363
  %8 = add i64 %7, 1, !dbg !363
  store i64 %8, i64* %_4, align 8, !dbg !363
; call core::ptr::drop_in_place<solana_program::account_info::AccountInfo>
  call void @"_ZN4core3ptr62drop_in_place$LT$solana_program..account_info..AccountInfo$GT$17h10233615d59e7eedE"(%"solana_program::account_info::AccountInfo"* %_7), !dbg !363
  br label %bb3, !dbg !363
}

; core::ptr::drop_in_place<alloc::rc::Rc<core::cell::RefCell<&mut u64>>>
; Function Attrs: nounwind
define void @"_ZN4core3ptr84drop_in_place$LT$alloc..rc..Rc$LT$core..cell..RefCell$LT$$RF$mut$u20$u64$GT$$GT$$GT$17ha78771d45a843dc7E"(i64** %_1) unnamed_addr #1 !dbg !364 {
start:
  %_1.dbg.spill = alloca i64**, align 8
  store i64** %_1, i64*** %_1.dbg.spill, align 8
  call void @llvm.dbg.declare(metadata i64*** %_1.dbg.spill, metadata !369, metadata !DIExpression()), !dbg !372
; call <alloc::rc::Rc<T> as core::ops::drop::Drop>::drop
  call void @"_ZN64_$LT$alloc..rc..Rc$LT$T$GT$$u20$as$u20$core..ops..drop..Drop$GT$4drop17h1ef059a0cb1016f9E"(i64** align 8 dereferenceable(8) %_1), !dbg !372
  br label %bb1, !dbg !372

bb1:                                              ; preds = %start
  ret void, !dbg !372
}

; core::ptr::non_null::NonNull<T>::cast
; Function Attrs: inlinehint nounwind
define nonnull i8* @"_ZN4core3ptr8non_null16NonNull$LT$T$GT$4cast17h61290d8d78e2d207E"(i64* nonnull %self) unnamed_addr #0 !dbg !373 {
start:
  %self.dbg.spill = alloca i64*, align 8
  store i64* %self, i64** %self.dbg.spill, align 8
  call void @llvm.dbg.declare(metadata i64** %self.dbg.spill, metadata !383, metadata !DIExpression()), !dbg !386
; call core::ptr::non_null::NonNull<T>::as_ptr
  %_3 = call %"std::rc::RcBox<std::cell::RefCell<&mut u64>>"* @"_ZN4core3ptr8non_null16NonNull$LT$T$GT$6as_ptr17h1afb809caeed42d2E"(i64* nonnull %self), !dbg !387
  br label %bb1, !dbg !387

bb1:                                              ; preds = %start
  %_2 = bitcast %"std::rc::RcBox<std::cell::RefCell<&mut u64>>"* %_3 to i8*, !dbg !387
; call core::ptr::non_null::NonNull<T>::new_unchecked
  %0 = call nonnull i8* @"_ZN4core3ptr8non_null16NonNull$LT$T$GT$13new_unchecked17h084e3c4e09f2f47aE"(i8* %_2), !dbg !388
  br label %bb2, !dbg !388

bb2:                                              ; preds = %bb1
  ret i8* %0, !dbg !389
}

; core::ptr::non_null::NonNull<T>::cast
; Function Attrs: inlinehint nounwind
define nonnull i8* @"_ZN4core3ptr8non_null16NonNull$LT$T$GT$4cast17h8fc04eef3cfa594dE"(i64* nonnull %self) unnamed_addr #0 !dbg !390 {
start:
  %self.dbg.spill = alloca i64*, align 8
  store i64* %self, i64** %self.dbg.spill, align 8
  call void @llvm.dbg.declare(metadata i64** %self.dbg.spill, metadata !394, metadata !DIExpression()), !dbg !396
; call core::ptr::non_null::NonNull<T>::as_ptr
  %_3 = call %"std::rc::RcBox<std::cell::RefCell<&mut [u8]>>"* @"_ZN4core3ptr8non_null16NonNull$LT$T$GT$6as_ptr17h0b66173b9da55845E"(i64* nonnull %self), !dbg !397
  br label %bb1, !dbg !397

bb1:                                              ; preds = %start
  %_2 = bitcast %"std::rc::RcBox<std::cell::RefCell<&mut [u8]>>"* %_3 to i8*, !dbg !397
; call core::ptr::non_null::NonNull<T>::new_unchecked
  %0 = call nonnull i8* @"_ZN4core3ptr8non_null16NonNull$LT$T$GT$13new_unchecked17h084e3c4e09f2f47aE"(i8* %_2), !dbg !398
  br label %bb2, !dbg !398

bb2:                                              ; preds = %bb1
  ret i8* %0, !dbg !399
}

; core::ptr::drop_in_place<alloc::rc::Rc<core::cell::RefCell<&mut [u8]>>>
; Function Attrs: nounwind
define void @"_ZN4core3ptr93drop_in_place$LT$alloc..rc..Rc$LT$core..cell..RefCell$LT$$RF$mut$u20$$u5b$u8$u5d$$GT$$GT$$GT$17h05bdc81e15688d2fE"(i64** %_1) unnamed_addr #1 !dbg !400 {
start:
  %_1.dbg.spill = alloca i64**, align 8
  store i64** %_1, i64*** %_1.dbg.spill, align 8
  call void @llvm.dbg.declare(metadata i64*** %_1.dbg.spill, metadata !405, metadata !DIExpression()), !dbg !408
; call <alloc::rc::Rc<T> as core::ops::drop::Drop>::drop
  call void @"_ZN64_$LT$alloc..rc..Rc$LT$T$GT$$u20$as$u20$core..ops..drop..Drop$GT$4drop17hda8257b871f78805E"(i64** align 8 dereferenceable(8) %_1), !dbg !408
  br label %bb1, !dbg !408

bb1:                                              ; preds = %start
  ret void, !dbg !408
}

; core::str::<impl str>::len
; Function Attrs: inlinehint nounwind
define internal i64 @"_ZN4core3str21_$LT$impl$u20$str$GT$3len17hbd828f1393980aa5E"([0 x i8]* nonnull align 1 %self.0, i64 %self.1) unnamed_addr #0 !dbg !409 {
start:
  %0 = alloca { [0 x i8]*, i64 }, align 8
  %self.dbg.spill.i = alloca { [0 x i8]*, i64 }, align 8
  %self.dbg.spill = alloca { [0 x i8]*, i64 }, align 8
  %1 = getelementptr inbounds { [0 x i8]*, i64 }, { [0 x i8]*, i64 }* %self.dbg.spill, i32 0, i32 0
  store [0 x i8]* %self.0, [0 x i8]** %1, align 8
  %2 = getelementptr inbounds { [0 x i8]*, i64 }, { [0 x i8]*, i64 }* %self.dbg.spill, i32 0, i32 1
  store i64 %self.1, i64* %2, align 8
  call void @llvm.dbg.declare(metadata { [0 x i8]*, i64 }* %self.dbg.spill, metadata !416, metadata !DIExpression()), !dbg !417
  %3 = getelementptr inbounds { [0 x i8]*, i64 }, { [0 x i8]*, i64 }* %self.dbg.spill.i, i32 0, i32 0
  store [0 x i8]* %self.0, [0 x i8]** %3, align 8
  %4 = getelementptr inbounds { [0 x i8]*, i64 }, { [0 x i8]*, i64 }* %self.dbg.spill.i, i32 0, i32 1
  store i64 %self.1, i64* %4, align 8
  call void @llvm.dbg.declare(metadata { [0 x i8]*, i64 }* %self.dbg.spill.i, metadata !418, metadata !DIExpression()), !dbg !427
  %5 = getelementptr inbounds { [0 x i8]*, i64 }, { [0 x i8]*, i64 }* %0, i32 0, i32 0, !dbg !429
  store [0 x i8]* %self.0, [0 x i8]** %5, align 8, !dbg !429
  %6 = getelementptr inbounds { [0 x i8]*, i64 }, { [0 x i8]*, i64 }* %0, i32 0, i32 1, !dbg !429
  store i64 %self.1, i64* %6, align 8, !dbg !429
  %7 = getelementptr inbounds { [0 x i8]*, i64 }, { [0 x i8]*, i64 }* %0, i32 0, i32 0, !dbg !429
  %8 = load [0 x i8]*, [0 x i8]** %7, align 8, !dbg !429, !nonnull !14
  %9 = getelementptr inbounds { [0 x i8]*, i64 }, { [0 x i8]*, i64 }* %0, i32 0, i32 1, !dbg !429
  %10 = load i64, i64* %9, align 8, !dbg !429
  %11 = insertvalue { [0 x i8]*, i64 } undef, [0 x i8]* %8, 0, !dbg !430
  %12 = insertvalue { [0 x i8]*, i64 } %11, i64 %10, 1, !dbg !430
  %_3.0 = extractvalue { [0 x i8]*, i64 } %12, 0, !dbg !431
  %_3.1 = extractvalue { [0 x i8]*, i64 } %12, 1, !dbg !431
  br label %bb1, !dbg !431

bb1:                                              ; preds = %start
  ret i64 %_3.1, !dbg !432
}

; core::str::<impl str>::as_ptr
; Function Attrs: inlinehint nounwind
define internal i8* @"_ZN4core3str21_$LT$impl$u20$str$GT$6as_ptr17h3f8482c0f278dd16E"([0 x i8]* nonnull align 1 %self.0, i64 %self.1) unnamed_addr #0 !dbg !433 {
start:
  %self.dbg.spill = alloca { [0 x i8]*, i64 }, align 8
  %0 = getelementptr inbounds { [0 x i8]*, i64 }, { [0 x i8]*, i64 }* %self.dbg.spill, i32 0, i32 0
  store [0 x i8]* %self.0, [0 x i8]** %0, align 8
  %1 = getelementptr inbounds { [0 x i8]*, i64 }, { [0 x i8]*, i64 }* %self.dbg.spill, i32 0, i32 1
  store i64 %self.1, i64* %1, align 8
  call void @llvm.dbg.declare(metadata { [0 x i8]*, i64 }* %self.dbg.spill, metadata !437, metadata !DIExpression()), !dbg !438
  %2 = bitcast [0 x i8]* %self.0 to i8*, !dbg !439
  ret i8* %2, !dbg !440
}

; core::str::converts::from_utf8_unchecked
; Function Attrs: inlinehint nounwind
define internal { [0 x i8]*, i64 } @_ZN4core3str8converts19from_utf8_unchecked17hbc928ea3cf4b1972E([0 x i8]* nonnull align 1 %v.0, i64 %v.1) unnamed_addr #0 !dbg !441 {
start:
  %0 = alloca { [0 x i8]*, i64 }, align 8
  %v.dbg.spill = alloca { [0 x i8]*, i64 }, align 8
  %1 = getelementptr inbounds { [0 x i8]*, i64 }, { [0 x i8]*, i64 }* %v.dbg.spill, i32 0, i32 0
  store [0 x i8]* %v.0, [0 x i8]** %1, align 8
  %2 = getelementptr inbounds { [0 x i8]*, i64 }, { [0 x i8]*, i64 }* %v.dbg.spill, i32 0, i32 1
  store i64 %v.1, i64* %2, align 8
  call void @llvm.dbg.declare(metadata { [0 x i8]*, i64 }* %v.dbg.spill, metadata !447, metadata !DIExpression()), !dbg !448
  %3 = getelementptr inbounds { [0 x i8]*, i64 }, { [0 x i8]*, i64 }* %0, i32 0, i32 0, !dbg !449
  store [0 x i8]* %v.0, [0 x i8]** %3, align 8, !dbg !449
  %4 = getelementptr inbounds { [0 x i8]*, i64 }, { [0 x i8]*, i64 }* %0, i32 0, i32 1, !dbg !449
  store i64 %v.1, i64* %4, align 8, !dbg !449
  %5 = getelementptr inbounds { [0 x i8]*, i64 }, { [0 x i8]*, i64 }* %0, i32 0, i32 0, !dbg !449
  %6 = load [0 x i8]*, [0 x i8]** %5, align 8, !dbg !449, !nonnull !14
  %7 = getelementptr inbounds { [0 x i8]*, i64 }, { [0 x i8]*, i64 }* %0, i32 0, i32 1, !dbg !449
  %8 = load i64, i64* %7, align 8, !dbg !449
  br label %bb1, !dbg !449

bb1:                                              ; preds = %start
  %9 = insertvalue { [0 x i8]*, i64 } undef, [0 x i8]* %6, 0, !dbg !450
  %10 = insertvalue { [0 x i8]*, i64 } %9, i64 %8, 1, !dbg !450
  ret { [0 x i8]*, i64 } %10, !dbg !450
}

; core::alloc::layout::Layout::from_size_align_unchecked
; Function Attrs: inlinehint nounwind
define internal { i64, i64 } @_ZN4core5alloc6layout6Layout25from_size_align_unchecked17h2537ed472a10668eE(i64 %size, i64 %align) unnamed_addr #0 !dbg !451 {
start:
  %align.dbg.spill = alloca i64, align 8
  %size.dbg.spill = alloca i64, align 8
  %0 = alloca { i64, i64 }, align 8
  store i64 %size, i64* %size.dbg.spill, align 8
  call void @llvm.dbg.declare(metadata i64* %size.dbg.spill, metadata !462, metadata !DIExpression()), !dbg !464
  store i64 %align, i64* %align.dbg.spill, align 8
  call void @llvm.dbg.declare(metadata i64* %align.dbg.spill, metadata !463, metadata !DIExpression()), !dbg !465
; call core::num::nonzero::NonZeroUsize::new_unchecked
  %_4 = call i64 @_ZN4core3num7nonzero12NonZeroUsize13new_unchecked17h9f7845adbea48e67E(i64 %align), !dbg !466, !range !278
  br label %bb1, !dbg !466

bb1:                                              ; preds = %start
  %1 = bitcast { i64, i64 }* %0 to i64*, !dbg !467
  store i64 %size, i64* %1, align 8, !dbg !467
  %2 = getelementptr inbounds { i64, i64 }, { i64, i64 }* %0, i32 0, i32 1, !dbg !467
  store i64 %_4, i64* %2, align 8, !dbg !467
  %3 = getelementptr inbounds { i64, i64 }, { i64, i64 }* %0, i32 0, i32 0, !dbg !468
  %4 = load i64, i64* %3, align 8, !dbg !468
  %5 = getelementptr inbounds { i64, i64 }, { i64, i64 }* %0, i32 0, i32 1, !dbg !468
  %6 = load i64, i64* %5, align 8, !dbg !468, !range !278
  %7 = insertvalue { i64, i64 } undef, i64 %4, 0, !dbg !468
  %8 = insertvalue { i64, i64 } %7, i64 %6, 1, !dbg !468
  ret { i64, i64 } %8, !dbg !468
}

; core::alloc::layout::Layout::size
; Function Attrs: inlinehint nounwind
define internal i64 @_ZN4core5alloc6layout6Layout4size17h00cb0d58d5742e6aE({ i64, i64 }* align 8 dereferenceable(16) %self) unnamed_addr #0 !dbg !469 {
start:
  %self.dbg.spill = alloca { i64, i64 }*, align 8
  store { i64, i64 }* %self, { i64, i64 }** %self.dbg.spill, align 8
  call void @llvm.dbg.declare(metadata { i64, i64 }** %self.dbg.spill, metadata !474, metadata !DIExpression()), !dbg !475
  %0 = bitcast { i64, i64 }* %self to i64*, !dbg !476
  %1 = load i64, i64* %0, align 8, !dbg !476
  ret i64 %1, !dbg !477
}

; core::alloc::layout::Layout::align
; Function Attrs: inlinehint nounwind
define internal i64 @_ZN4core5alloc6layout6Layout5align17h3f04d24bdbb1a133E({ i64, i64 }* align 8 dereferenceable(16) %self) unnamed_addr #0 !dbg !478 {
start:
  %self.dbg.spill = alloca { i64, i64 }*, align 8
  store { i64, i64 }* %self, { i64, i64 }** %self.dbg.spill, align 8
  call void @llvm.dbg.declare(metadata { i64, i64 }** %self.dbg.spill, metadata !480, metadata !DIExpression()), !dbg !481
  %0 = getelementptr inbounds { i64, i64 }, { i64, i64 }* %self, i32 0, i32 1, !dbg !482
  %_2 = load i64, i64* %0, align 8, !dbg !482, !range !278
; call core::num::nonzero::NonZeroUsize::get
  %1 = call i64 @_ZN4core3num7nonzero12NonZeroUsize3get17he7245872a99bcb8eE(i64 %_2), !dbg !482
  br label %bb1, !dbg !482

bb1:                                              ; preds = %start
  ret i64 %1, !dbg !483
}

; core::alloc::layout::Layout::dangling
; Function Attrs: inlinehint nounwind
define internal nonnull i8* @_ZN4core5alloc6layout6Layout8dangling17h98e3341a10e22ee0E({ i64, i64 }* align 8 dereferenceable(16) %self) unnamed_addr #0 !dbg !484 {
start:
  %self.dbg.spill = alloca { i64, i64 }*, align 8
  store { i64, i64 }* %self, { i64, i64 }** %self.dbg.spill, align 8
  call void @llvm.dbg.declare(metadata { i64, i64 }** %self.dbg.spill, metadata !488, metadata !DIExpression()), !dbg !489
; call core::alloc::layout::Layout::align
  %_3 = call i64 @_ZN4core5alloc6layout6Layout5align17h3f04d24bdbb1a133E({ i64, i64 }* align 8 dereferenceable(16) %self), !dbg !490
  br label %bb1, !dbg !490

bb1:                                              ; preds = %start
  %_2 = inttoptr i64 %_3 to i8*, !dbg !490
; call core::ptr::non_null::NonNull<T>::new_unchecked
  %0 = call nonnull i8* @"_ZN4core3ptr8non_null16NonNull$LT$T$GT$13new_unchecked17h084e3c4e09f2f47aE"(i8* %_2), !dbg !491
  br label %bb2, !dbg !491

bb2:                                              ; preds = %bb1
  ret i8* %0, !dbg !492
}

; core::alloc::layout::Layout::for_value
; Function Attrs: inlinehint nounwind
define { i64, i64 } @_ZN4core5alloc6layout6Layout9for_value17h41801a0e0fe7e5afE(%"std::rc::RcBox<std::cell::RefCell<&mut [u8]>>"* align 8 dereferenceable(40) %t) unnamed_addr #0 !dbg !493 {
start:
  %align.dbg.spill = alloca i64, align 8
  %size.dbg.spill = alloca i64, align 8
  %t.dbg.spill = alloca %"std::rc::RcBox<std::cell::RefCell<&mut [u8]>>"*, align 8
  %_4 = alloca { i64, i64 }, align 8
  store %"std::rc::RcBox<std::cell::RefCell<&mut [u8]>>"* %t, %"std::rc::RcBox<std::cell::RefCell<&mut [u8]>>"** %t.dbg.spill, align 8
  call void @llvm.dbg.declare(metadata %"std::rc::RcBox<std::cell::RefCell<&mut [u8]>>"** %t.dbg.spill, metadata !497, metadata !DIExpression()), !dbg !501
; call core::mem::size_of_val
  %_5 = call i64 @_ZN4core3mem11size_of_val17hf4b782f835e2bb73E(%"std::rc::RcBox<std::cell::RefCell<&mut [u8]>>"* align 8 dereferenceable(40) %t), !dbg !502
  br label %bb1, !dbg !502

bb1:                                              ; preds = %start
; call core::mem::align_of_val
  %_7 = call i64 @_ZN4core3mem12align_of_val17h48dff9debcb17a25E(%"std::rc::RcBox<std::cell::RefCell<&mut [u8]>>"* align 8 dereferenceable(40) %t), !dbg !503
  br label %bb2, !dbg !503

bb2:                                              ; preds = %bb1
  %0 = bitcast { i64, i64 }* %_4 to i64*, !dbg !504
  store i64 %_5, i64* %0, align 8, !dbg !504
  %1 = getelementptr inbounds { i64, i64 }, { i64, i64 }* %_4, i32 0, i32 1, !dbg !504
  store i64 %_7, i64* %1, align 8, !dbg !504
  %2 = bitcast { i64, i64 }* %_4 to i64*, !dbg !505
  %size = load i64, i64* %2, align 8, !dbg !505
  store i64 %size, i64* %size.dbg.spill, align 8, !dbg !505
  call void @llvm.dbg.declare(metadata i64* %size.dbg.spill, metadata !498, metadata !DIExpression()), !dbg !506
  %3 = getelementptr inbounds { i64, i64 }, { i64, i64 }* %_4, i32 0, i32 1, !dbg !507
  %align = load i64, i64* %3, align 8, !dbg !507
  store i64 %align, i64* %align.dbg.spill, align 8, !dbg !507
  call void @llvm.dbg.declare(metadata i64* %align.dbg.spill, metadata !500, metadata !DIExpression()), !dbg !508
; call core::alloc::layout::Layout::from_size_align_unchecked
  %4 = call { i64, i64 } @_ZN4core5alloc6layout6Layout25from_size_align_unchecked17h2537ed472a10668eE(i64 %size, i64 %align), !dbg !509
  %5 = extractvalue { i64, i64 } %4, 0, !dbg !509
  %6 = extractvalue { i64, i64 } %4, 1, !dbg !509
  br label %bb3, !dbg !509

bb3:                                              ; preds = %bb2
  %7 = insertvalue { i64, i64 } undef, i64 %5, 0, !dbg !510
  %8 = insertvalue { i64, i64 } %7, i64 %6, 1, !dbg !510
  ret { i64, i64 } %8, !dbg !510
}

; core::alloc::layout::Layout::for_value
; Function Attrs: inlinehint nounwind
define { i64, i64 } @_ZN4core5alloc6layout6Layout9for_value17ha4d5ad40d0571d99E(%"std::rc::RcBox<std::cell::RefCell<&mut u64>>"* align 8 dereferenceable(32) %t) unnamed_addr #0 !dbg !511 {
start:
  %align.dbg.spill = alloca i64, align 8
  %size.dbg.spill = alloca i64, align 8
  %t.dbg.spill = alloca %"std::rc::RcBox<std::cell::RefCell<&mut u64>>"*, align 8
  %_4 = alloca { i64, i64 }, align 8
  store %"std::rc::RcBox<std::cell::RefCell<&mut u64>>"* %t, %"std::rc::RcBox<std::cell::RefCell<&mut u64>>"** %t.dbg.spill, align 8
  call void @llvm.dbg.declare(metadata %"std::rc::RcBox<std::cell::RefCell<&mut u64>>"** %t.dbg.spill, metadata !515, metadata !DIExpression()), !dbg !519
; call core::mem::size_of_val
  %_5 = call i64 @_ZN4core3mem11size_of_val17h05543f343bfd00a1E(%"std::rc::RcBox<std::cell::RefCell<&mut u64>>"* align 8 dereferenceable(32) %t), !dbg !520
  br label %bb1, !dbg !520

bb1:                                              ; preds = %start
; call core::mem::align_of_val
  %_7 = call i64 @_ZN4core3mem12align_of_val17h30bd2dba6b90f67bE(%"std::rc::RcBox<std::cell::RefCell<&mut u64>>"* align 8 dereferenceable(32) %t), !dbg !521
  br label %bb2, !dbg !521

bb2:                                              ; preds = %bb1
  %0 = bitcast { i64, i64 }* %_4 to i64*, !dbg !522
  store i64 %_5, i64* %0, align 8, !dbg !522
  %1 = getelementptr inbounds { i64, i64 }, { i64, i64 }* %_4, i32 0, i32 1, !dbg !522
  store i64 %_7, i64* %1, align 8, !dbg !522
  %2 = bitcast { i64, i64 }* %_4 to i64*, !dbg !523
  %size = load i64, i64* %2, align 8, !dbg !523
  store i64 %size, i64* %size.dbg.spill, align 8, !dbg !523
  call void @llvm.dbg.declare(metadata i64* %size.dbg.spill, metadata !516, metadata !DIExpression()), !dbg !524
  %3 = getelementptr inbounds { i64, i64 }, { i64, i64 }* %_4, i32 0, i32 1, !dbg !525
  %align = load i64, i64* %3, align 8, !dbg !525
  store i64 %align, i64* %align.dbg.spill, align 8, !dbg !525
  call void @llvm.dbg.declare(metadata i64* %align.dbg.spill, metadata !518, metadata !DIExpression()), !dbg !526
; call core::alloc::layout::Layout::from_size_align_unchecked
  %4 = call { i64, i64 } @_ZN4core5alloc6layout6Layout25from_size_align_unchecked17h2537ed472a10668eE(i64 %size, i64 %align), !dbg !527
  %5 = extractvalue { i64, i64 } %4, 0, !dbg !527
  %6 = extractvalue { i64, i64 } %4, 1, !dbg !527
  br label %bb3, !dbg !527

bb3:                                              ; preds = %bb2
  %7 = insertvalue { i64, i64 } undef, i64 %5, 0, !dbg !528
  %8 = insertvalue { i64, i64 } %7, i64 %6, 1, !dbg !528
  ret { i64, i64 } %8, !dbg !528
}

; core::clone::impls::<impl core::clone::Clone for u64>::clone
; Function Attrs: inlinehint nounwind
define internal i64 @"_ZN4core5clone5impls52_$LT$impl$u20$core..clone..Clone$u20$for$u20$u64$GT$5clone17h84dda90b874ac1b3E"(i64* align 8 dereferenceable(8) %self) unnamed_addr #0 !dbg !529 {
start:
  %self.dbg.spill = alloca i64*, align 8
  store i64* %self, i64** %self.dbg.spill, align 8
  call void @llvm.dbg.declare(metadata i64** %self.dbg.spill, metadata !538, metadata !DIExpression()), !dbg !539
  %0 = load i64, i64* %self, align 8, !dbg !540
  ret i64 %0, !dbg !541
}

; core::clone::impls::<impl core::clone::Clone for bool>::clone
; Function Attrs: inlinehint nounwind
define internal zeroext i1 @"_ZN4core5clone5impls53_$LT$impl$u20$core..clone..Clone$u20$for$u20$bool$GT$5clone17hc26a1d181c9115dfE"(i8* align 1 dereferenceable(1) %self) unnamed_addr #0 !dbg !542 {
start:
  %self.dbg.spill = alloca i8*, align 8
  store i8* %self, i8** %self.dbg.spill, align 8
  call void @llvm.dbg.declare(metadata i8** %self.dbg.spill, metadata !548, metadata !DIExpression()), !dbg !549
  %0 = load i8, i8* %self, align 1, !dbg !550, !range !168
  %1 = trunc i8 %0 to i1, !dbg !550
  ret i1 %1, !dbg !551
}

; alloc::rc::RcInnerPtr::dec_strong
; Function Attrs: inlinehint nounwind
define void @_ZN5alloc2rc10RcInnerPtr10dec_strong17h9537d706912c3393E(%"std::rc::RcBox<std::cell::RefCell<&mut [u8]>>"* align 8 dereferenceable(40) %self) unnamed_addr #0 !dbg !552 {
start:
  %self.dbg.spill.i = alloca %"std::rc::RcBox<std::cell::RefCell<&mut [u8]>>"*, align 8
  %self.dbg.spill = alloca %"std::rc::RcBox<std::cell::RefCell<&mut [u8]>>"*, align 8
  store %"std::rc::RcBox<std::cell::RefCell<&mut [u8]>>"* %self, %"std::rc::RcBox<std::cell::RefCell<&mut [u8]>>"** %self.dbg.spill, align 8
  call void @llvm.dbg.declare(metadata %"std::rc::RcBox<std::cell::RefCell<&mut [u8]>>"** %self.dbg.spill, metadata !558, metadata !DIExpression()), !dbg !561
  store %"std::rc::RcBox<std::cell::RefCell<&mut [u8]>>"* %self, %"std::rc::RcBox<std::cell::RefCell<&mut [u8]>>"** %self.dbg.spill.i, align 8
  call void @llvm.dbg.declare(metadata %"std::rc::RcBox<std::cell::RefCell<&mut [u8]>>"** %self.dbg.spill.i, metadata !562, metadata !DIExpression()), !dbg !569
  %0 = bitcast %"std::rc::RcBox<std::cell::RefCell<&mut [u8]>>"* %self to i64*, !dbg !571
  br label %bb1, !dbg !572

bb1:                                              ; preds = %start
; call alloc::rc::RcInnerPtr::strong
  %_7 = call i64 @_ZN5alloc2rc10RcInnerPtr6strong17h65e9a0364c86b592E(%"std::rc::RcBox<std::cell::RefCell<&mut [u8]>>"* align 8 dereferenceable(40) %self), !dbg !573
  br label %bb2, !dbg !573

bb2:                                              ; preds = %bb1
  %_6 = sub i64 %_7, 1, !dbg !573
; call core::cell::Cell<T>::set
  call void @"_ZN4core4cell13Cell$LT$T$GT$3set17h01ef1ebcdc3b2a3aE"(i64* align 8 dereferenceable(8) %0, i64 %_6), !dbg !572
  br label %bb3, !dbg !572

bb3:                                              ; preds = %bb2
  ret void, !dbg !574
}

; alloc::rc::RcInnerPtr::dec_strong
; Function Attrs: inlinehint nounwind
define void @_ZN5alloc2rc10RcInnerPtr10dec_strong17heb9263d8b36249f8E(%"std::rc::RcBox<std::cell::RefCell<&mut u64>>"* align 8 dereferenceable(32) %self) unnamed_addr #0 !dbg !575 {
start:
  %self.dbg.spill.i = alloca %"std::rc::RcBox<std::cell::RefCell<&mut u64>>"*, align 8
  %self.dbg.spill = alloca %"std::rc::RcBox<std::cell::RefCell<&mut u64>>"*, align 8
  store %"std::rc::RcBox<std::cell::RefCell<&mut u64>>"* %self, %"std::rc::RcBox<std::cell::RefCell<&mut u64>>"** %self.dbg.spill, align 8
  call void @llvm.dbg.declare(metadata %"std::rc::RcBox<std::cell::RefCell<&mut u64>>"** %self.dbg.spill, metadata !579, metadata !DIExpression()), !dbg !582
  store %"std::rc::RcBox<std::cell::RefCell<&mut u64>>"* %self, %"std::rc::RcBox<std::cell::RefCell<&mut u64>>"** %self.dbg.spill.i, align 8
  call void @llvm.dbg.declare(metadata %"std::rc::RcBox<std::cell::RefCell<&mut u64>>"** %self.dbg.spill.i, metadata !583, metadata !DIExpression()), !dbg !588
  %0 = bitcast %"std::rc::RcBox<std::cell::RefCell<&mut u64>>"* %self to i64*, !dbg !590
  br label %bb1, !dbg !591

bb1:                                              ; preds = %start
; call alloc::rc::RcInnerPtr::strong
  %_7 = call i64 @_ZN5alloc2rc10RcInnerPtr6strong17h18c88c935c8c4718E(%"std::rc::RcBox<std::cell::RefCell<&mut u64>>"* align 8 dereferenceable(32) %self), !dbg !592
  br label %bb2, !dbg !592

bb2:                                              ; preds = %bb1
  %_6 = sub i64 %_7, 1, !dbg !592
; call core::cell::Cell<T>::set
  call void @"_ZN4core4cell13Cell$LT$T$GT$3set17h01ef1ebcdc3b2a3aE"(i64* align 8 dereferenceable(8) %0, i64 %_6), !dbg !591
  br label %bb3, !dbg !591

bb3:                                              ; preds = %bb2
  ret void, !dbg !593
}

; alloc::rc::RcInnerPtr::weak
; Function Attrs: inlinehint nounwind
define i64 @_ZN5alloc2rc10RcInnerPtr4weak17h8cd4a361e91ca30fE(%"std::rc::RcBox<std::cell::RefCell<&mut u64>>"* align 8 dereferenceable(32) %self) unnamed_addr #0 !dbg !594 {
start:
  %self.dbg.spill.i = alloca %"std::rc::RcBox<std::cell::RefCell<&mut u64>>"*, align 8
  %self.dbg.spill = alloca %"std::rc::RcBox<std::cell::RefCell<&mut u64>>"*, align 8
  store %"std::rc::RcBox<std::cell::RefCell<&mut u64>>"* %self, %"std::rc::RcBox<std::cell::RefCell<&mut u64>>"** %self.dbg.spill, align 8
  call void @llvm.dbg.declare(metadata %"std::rc::RcBox<std::cell::RefCell<&mut u64>>"** %self.dbg.spill, metadata !596, metadata !DIExpression()), !dbg !597
  store %"std::rc::RcBox<std::cell::RefCell<&mut u64>>"* %self, %"std::rc::RcBox<std::cell::RefCell<&mut u64>>"** %self.dbg.spill.i, align 8
  call void @llvm.dbg.declare(metadata %"std::rc::RcBox<std::cell::RefCell<&mut u64>>"** %self.dbg.spill.i, metadata !598, metadata !DIExpression()), !dbg !601
  %0 = getelementptr inbounds %"std::rc::RcBox<std::cell::RefCell<&mut u64>>", %"std::rc::RcBox<std::cell::RefCell<&mut u64>>"* %self, i32 0, i32 1, !dbg !603
  br label %bb1, !dbg !604

bb1:                                              ; preds = %start
; call core::cell::Cell<T>::get
  %1 = call i64 @"_ZN4core4cell13Cell$LT$T$GT$3get17hc2b686bca4fbbbc1E"(i64* align 8 dereferenceable(8) %0), !dbg !604
  br label %bb2, !dbg !604

bb2:                                              ; preds = %bb1
  ret i64 %1, !dbg !605
}

; alloc::rc::RcInnerPtr::weak
; Function Attrs: inlinehint nounwind
define i64 @_ZN5alloc2rc10RcInnerPtr4weak17he565c31e04bccffcE(%"std::rc::RcBox<std::cell::RefCell<&mut [u8]>>"* align 8 dereferenceable(40) %self) unnamed_addr #0 !dbg !606 {
start:
  %self.dbg.spill.i = alloca %"std::rc::RcBox<std::cell::RefCell<&mut [u8]>>"*, align 8
  %self.dbg.spill = alloca %"std::rc::RcBox<std::cell::RefCell<&mut [u8]>>"*, align 8
  store %"std::rc::RcBox<std::cell::RefCell<&mut [u8]>>"* %self, %"std::rc::RcBox<std::cell::RefCell<&mut [u8]>>"** %self.dbg.spill, align 8
  call void @llvm.dbg.declare(metadata %"std::rc::RcBox<std::cell::RefCell<&mut [u8]>>"** %self.dbg.spill, metadata !608, metadata !DIExpression()), !dbg !609
  store %"std::rc::RcBox<std::cell::RefCell<&mut [u8]>>"* %self, %"std::rc::RcBox<std::cell::RefCell<&mut [u8]>>"** %self.dbg.spill.i, align 8
  call void @llvm.dbg.declare(metadata %"std::rc::RcBox<std::cell::RefCell<&mut [u8]>>"** %self.dbg.spill.i, metadata !610, metadata !DIExpression()), !dbg !613
  %0 = getelementptr inbounds %"std::rc::RcBox<std::cell::RefCell<&mut [u8]>>", %"std::rc::RcBox<std::cell::RefCell<&mut [u8]>>"* %self, i32 0, i32 1, !dbg !615
  br label %bb1, !dbg !616

bb1:                                              ; preds = %start
; call core::cell::Cell<T>::get
  %1 = call i64 @"_ZN4core4cell13Cell$LT$T$GT$3get17hc2b686bca4fbbbc1E"(i64* align 8 dereferenceable(8) %0), !dbg !616
  br label %bb2, !dbg !616

bb2:                                              ; preds = %bb1
  ret i64 %1, !dbg !617
}

; alloc::rc::RcInnerPtr::dec_weak
; Function Attrs: inlinehint nounwind
define void @_ZN5alloc2rc10RcInnerPtr8dec_weak17h398c1264ba5aebffE(%"std::rc::RcBox<std::cell::RefCell<&mut u64>>"* align 8 dereferenceable(32) %self) unnamed_addr #0 !dbg !618 {
start:
  %self.dbg.spill.i = alloca %"std::rc::RcBox<std::cell::RefCell<&mut u64>>"*, align 8
  %self.dbg.spill = alloca %"std::rc::RcBox<std::cell::RefCell<&mut u64>>"*, align 8
  store %"std::rc::RcBox<std::cell::RefCell<&mut u64>>"* %self, %"std::rc::RcBox<std::cell::RefCell<&mut u64>>"** %self.dbg.spill, align 8
  call void @llvm.dbg.declare(metadata %"std::rc::RcBox<std::cell::RefCell<&mut u64>>"** %self.dbg.spill, metadata !620, metadata !DIExpression()), !dbg !621
  store %"std::rc::RcBox<std::cell::RefCell<&mut u64>>"* %self, %"std::rc::RcBox<std::cell::RefCell<&mut u64>>"** %self.dbg.spill.i, align 8
  call void @llvm.dbg.declare(metadata %"std::rc::RcBox<std::cell::RefCell<&mut u64>>"** %self.dbg.spill.i, metadata !598, metadata !DIExpression()), !dbg !622
  %0 = getelementptr inbounds %"std::rc::RcBox<std::cell::RefCell<&mut u64>>", %"std::rc::RcBox<std::cell::RefCell<&mut u64>>"* %self, i32 0, i32 1, !dbg !624
  br label %bb1, !dbg !625

bb1:                                              ; preds = %start
; call alloc::rc::RcInnerPtr::weak
  %_7 = call i64 @_ZN5alloc2rc10RcInnerPtr4weak17h8cd4a361e91ca30fE(%"std::rc::RcBox<std::cell::RefCell<&mut u64>>"* align 8 dereferenceable(32) %self), !dbg !626
  br label %bb2, !dbg !626

bb2:                                              ; preds = %bb1
  %_6 = sub i64 %_7, 1, !dbg !626
; call core::cell::Cell<T>::set
  call void @"_ZN4core4cell13Cell$LT$T$GT$3set17h01ef1ebcdc3b2a3aE"(i64* align 8 dereferenceable(8) %0, i64 %_6), !dbg !625
  br label %bb3, !dbg !625

bb3:                                              ; preds = %bb2
  ret void, !dbg !627
}

; alloc::rc::RcInnerPtr::dec_weak
; Function Attrs: inlinehint nounwind
define void @_ZN5alloc2rc10RcInnerPtr8dec_weak17hf22bcc184caca90eE(%"std::rc::RcBox<std::cell::RefCell<&mut [u8]>>"* align 8 dereferenceable(40) %self) unnamed_addr #0 !dbg !628 {
start:
  %self.dbg.spill.i = alloca %"std::rc::RcBox<std::cell::RefCell<&mut [u8]>>"*, align 8
  %self.dbg.spill = alloca %"std::rc::RcBox<std::cell::RefCell<&mut [u8]>>"*, align 8
  store %"std::rc::RcBox<std::cell::RefCell<&mut [u8]>>"* %self, %"std::rc::RcBox<std::cell::RefCell<&mut [u8]>>"** %self.dbg.spill, align 8
  call void @llvm.dbg.declare(metadata %"std::rc::RcBox<std::cell::RefCell<&mut [u8]>>"** %self.dbg.spill, metadata !630, metadata !DIExpression()), !dbg !631
  store %"std::rc::RcBox<std::cell::RefCell<&mut [u8]>>"* %self, %"std::rc::RcBox<std::cell::RefCell<&mut [u8]>>"** %self.dbg.spill.i, align 8
  call void @llvm.dbg.declare(metadata %"std::rc::RcBox<std::cell::RefCell<&mut [u8]>>"** %self.dbg.spill.i, metadata !610, metadata !DIExpression()), !dbg !632
  %0 = getelementptr inbounds %"std::rc::RcBox<std::cell::RefCell<&mut [u8]>>", %"std::rc::RcBox<std::cell::RefCell<&mut [u8]>>"* %self, i32 0, i32 1, !dbg !634
  br label %bb1, !dbg !635

bb1:                                              ; preds = %start
; call alloc::rc::RcInnerPtr::weak
  %_7 = call i64 @_ZN5alloc2rc10RcInnerPtr4weak17he565c31e04bccffcE(%"std::rc::RcBox<std::cell::RefCell<&mut [u8]>>"* align 8 dereferenceable(40) %self), !dbg !636
  br label %bb2, !dbg !636

bb2:                                              ; preds = %bb1
  %_6 = sub i64 %_7, 1, !dbg !636
; call core::cell::Cell<T>::set
  call void @"_ZN4core4cell13Cell$LT$T$GT$3set17h01ef1ebcdc3b2a3aE"(i64* align 8 dereferenceable(8) %0, i64 %_6), !dbg !635
  br label %bb3, !dbg !635

bb3:                                              ; preds = %bb2
  ret void, !dbg !637
}

; alloc::rc::Rc<T>::get_mut_unchecked
; Function Attrs: inlinehint nounwind
define align 8 dereferenceable(24) %"std::cell::RefCell<&mut [u8]>"* @"_ZN5alloc2rc11Rc$LT$T$GT$17get_mut_unchecked17h51d2b3bdaf0c0fc5E"(i64** align 8 dereferenceable(8) %this) unnamed_addr #0 !dbg !638 {
start:
  %this.dbg.spill = alloca i64**, align 8
  store i64** %this, i64*** %this.dbg.spill, align 8
  call void @llvm.dbg.declare(metadata i64*** %this.dbg.spill, metadata !644, metadata !DIExpression()), !dbg !645
  %_6 = load i64*, i64** %this, align 8, !dbg !646, !nonnull !14
; call core::ptr::non_null::NonNull<T>::as_ptr
  %_5 = call %"std::rc::RcBox<std::cell::RefCell<&mut [u8]>>"* @"_ZN4core3ptr8non_null16NonNull$LT$T$GT$6as_ptr17h0b66173b9da55845E"(i64* nonnull %_6), !dbg !646
  br label %bb1, !dbg !646

bb1:                                              ; preds = %start
  %_4 = getelementptr inbounds %"std::rc::RcBox<std::cell::RefCell<&mut [u8]>>", %"std::rc::RcBox<std::cell::RefCell<&mut [u8]>>"* %_5, i32 0, i32 2, !dbg !647
  ret %"std::cell::RefCell<&mut [u8]>"* %_4, !dbg !648
}

; alloc::rc::Rc<T>::get_mut_unchecked
; Function Attrs: inlinehint nounwind
define align 8 dereferenceable(16) { i64, i64* }* @"_ZN5alloc2rc11Rc$LT$T$GT$17get_mut_unchecked17h6f6d10d6bf7db71cE"(i64** align 8 dereferenceable(8) %this) unnamed_addr #0 !dbg !649 {
start:
  %this.dbg.spill = alloca i64**, align 8
  store i64** %this, i64*** %this.dbg.spill, align 8
  call void @llvm.dbg.declare(metadata i64*** %this.dbg.spill, metadata !655, metadata !DIExpression()), !dbg !656
  %_6 = load i64*, i64** %this, align 8, !dbg !657, !nonnull !14
; call core::ptr::non_null::NonNull<T>::as_ptr
  %_5 = call %"std::rc::RcBox<std::cell::RefCell<&mut u64>>"* @"_ZN4core3ptr8non_null16NonNull$LT$T$GT$6as_ptr17h1afb809caeed42d2E"(i64* nonnull %_6), !dbg !657
  br label %bb1, !dbg !657

bb1:                                              ; preds = %start
  %_4 = getelementptr inbounds %"std::rc::RcBox<std::cell::RefCell<&mut u64>>", %"std::rc::RcBox<std::cell::RefCell<&mut u64>>"* %_5, i32 0, i32 2, !dbg !658
  ret { i64, i64* }* %_4, !dbg !659
}

; alloc::alloc::alloc_zeroed
; Function Attrs: inlinehint nounwind
define internal i8* @_ZN5alloc5alloc12alloc_zeroed17hf0e90702c1913d94E(i64 %0, i64 %1) unnamed_addr #0 !dbg !660 {
start:
  %layout = alloca { i64, i64 }, align 8
  %2 = getelementptr inbounds { i64, i64 }, { i64, i64 }* %layout, i32 0, i32 0
  store i64 %0, i64* %2, align 8
  %3 = getelementptr inbounds { i64, i64 }, { i64, i64 }* %layout, i32 0, i32 1
  store i64 %1, i64* %3, align 8
  call void @llvm.dbg.declare(metadata { i64, i64 }* %layout, metadata !666, metadata !DIExpression()), !dbg !667
; call core::alloc::layout::Layout::size
  %_2 = call i64 @_ZN4core5alloc6layout6Layout4size17h00cb0d58d5742e6aE({ i64, i64 }* align 8 dereferenceable(16) %layout), !dbg !668
  br label %bb1, !dbg !668

bb1:                                              ; preds = %start
; call core::alloc::layout::Layout::align
  %_4 = call i64 @_ZN4core5alloc6layout6Layout5align17h3f04d24bdbb1a133E({ i64, i64 }* align 8 dereferenceable(16) %layout), !dbg !669
  br label %bb2, !dbg !669

bb2:                                              ; preds = %bb1
  %4 = call i8* @__rust_alloc_zeroed(i64 %_2, i64 %_4), !dbg !670
  br label %bb3, !dbg !670

bb3:                                              ; preds = %bb2
  ret i8* %4, !dbg !671
}

; alloc::alloc::exchange_malloc
; Function Attrs: inlinehint nounwind
define internal i8* @_ZN5alloc5alloc15exchange_malloc17h6be4ae8884f79930E(i64 %size, i64 %align) unnamed_addr #0 !dbg !672 {
start:
  %ptr.dbg.spill = alloca { i8*, i64 }, align 8
  %layout.dbg.spill = alloca { i64, i64 }, align 8
  %align.dbg.spill = alloca i64, align 8
  %size.dbg.spill = alloca i64, align 8
  %_6 = alloca { i8*, i64 }, align 8
  store i64 %size, i64* %size.dbg.spill, align 8
  call void @llvm.dbg.declare(metadata i64* %size.dbg.spill, metadata !676, metadata !DIExpression()), !dbg !694
  store i64 %align, i64* %align.dbg.spill, align 8
  call void @llvm.dbg.declare(metadata i64* %align.dbg.spill, metadata !677, metadata !DIExpression()), !dbg !695
; call core::alloc::layout::Layout::from_size_align_unchecked
  %0 = call { i64, i64 } @_ZN4core5alloc6layout6Layout25from_size_align_unchecked17h2537ed472a10668eE(i64 %size, i64 %align), !dbg !696
  %layout.0 = extractvalue { i64, i64 } %0, 0, !dbg !696
  %layout.1 = extractvalue { i64, i64 } %0, 1, !dbg !696
  %1 = getelementptr inbounds { i64, i64 }, { i64, i64 }* %layout.dbg.spill, i32 0, i32 0, !dbg !696
  store i64 %layout.0, i64* %1, align 8, !dbg !696
  %2 = getelementptr inbounds { i64, i64 }, { i64, i64 }* %layout.dbg.spill, i32 0, i32 1, !dbg !696
  store i64 %layout.1, i64* %2, align 8, !dbg !696
  call void @llvm.dbg.declare(metadata { i64, i64 }* %layout.dbg.spill, metadata !678, metadata !DIExpression()), !dbg !697
  br label %bb1, !dbg !696

bb1:                                              ; preds = %start
; call <alloc::alloc::Global as core::alloc::Allocator>::allocate
  %3 = call { i8*, i64 } @"_ZN63_$LT$alloc..alloc..Global$u20$as$u20$core..alloc..Allocator$GT$8allocate17hde6bb3b1019cdbb1E"(%"std::alloc::Global"* nonnull align 1 bitcast (<{ [0 x i8] }>* @alloc30 to %"std::alloc::Global"*), i64 %layout.0, i64 %layout.1), !dbg !698
  store { i8*, i64 } %3, { i8*, i64 }* %_6, align 8, !dbg !698
  br label %bb2, !dbg !698

bb2:                                              ; preds = %bb1
  %4 = bitcast { i8*, i64 }* %_6 to {}**, !dbg !698
  %5 = load {}*, {}** %4, align 8, !dbg !698
  %6 = icmp eq {}* %5, null, !dbg !698
  %_9 = select i1 %6, i64 1, i64 0, !dbg !698
  switch i64 %_9, label %bb4 [
    i64 0, label %bb5
    i64 1, label %bb3
  ], !dbg !699

bb4:                                              ; preds = %bb2
  unreachable, !dbg !698

bb5:                                              ; preds = %bb2
  %7 = getelementptr inbounds { i8*, i64 }, { i8*, i64 }* %_6, i32 0, i32 0, !dbg !700
  %ptr.0 = load i8*, i8** %7, align 8, !dbg !700, !nonnull !14
  %8 = getelementptr inbounds { i8*, i64 }, { i8*, i64 }* %_6, i32 0, i32 1, !dbg !700
  %ptr.1 = load i64, i64* %8, align 8, !dbg !700
  %9 = getelementptr inbounds { i8*, i64 }, { i8*, i64 }* %ptr.dbg.spill, i32 0, i32 0, !dbg !700
  store i8* %ptr.0, i8** %9, align 8, !dbg !700
  %10 = getelementptr inbounds { i8*, i64 }, { i8*, i64 }* %ptr.dbg.spill, i32 0, i32 1, !dbg !700
  store i64 %ptr.1, i64* %10, align 8, !dbg !700
  call void @llvm.dbg.declare(metadata { i8*, i64 }* %ptr.dbg.spill, metadata !680, metadata !DIExpression()), !dbg !701
; call core::ptr::non_null::NonNull<[T]>::as_mut_ptr
  %11 = call i8* @"_ZN4core3ptr8non_null26NonNull$LT$$u5b$T$u5d$$GT$10as_mut_ptr17h2a3b59e4385a7594E"(i8* nonnull %ptr.0, i64 %ptr.1), !dbg !702
  br label %bb6, !dbg !702

bb3:                                              ; preds = %bb2
; call alloc::alloc::handle_alloc_error
  call void @_ZN5alloc5alloc18handle_alloc_error17hc3aabe6032ee3c5aE(i64 %layout.0, i64 %layout.1), !dbg !703
  unreachable, !dbg !703

bb6:                                              ; preds = %bb5
  ret i8* %11, !dbg !704
}

; alloc::alloc::alloc
; Function Attrs: inlinehint nounwind
define internal i8* @_ZN5alloc5alloc5alloc17h4be24777ee938fc2E(i64 %0, i64 %1) unnamed_addr #0 !dbg !705 {
start:
  %layout = alloca { i64, i64 }, align 8
  %2 = getelementptr inbounds { i64, i64 }, { i64, i64 }* %layout, i32 0, i32 0
  store i64 %0, i64* %2, align 8
  %3 = getelementptr inbounds { i64, i64 }, { i64, i64 }* %layout, i32 0, i32 1
  store i64 %1, i64* %3, align 8
  call void @llvm.dbg.declare(metadata { i64, i64 }* %layout, metadata !707, metadata !DIExpression()), !dbg !708
; call core::alloc::layout::Layout::size
  %_2 = call i64 @_ZN4core5alloc6layout6Layout4size17h00cb0d58d5742e6aE({ i64, i64 }* align 8 dereferenceable(16) %layout), !dbg !709
  br label %bb1, !dbg !709

bb1:                                              ; preds = %start
; call core::alloc::layout::Layout::align
  %_4 = call i64 @_ZN4core5alloc6layout6Layout5align17h3f04d24bdbb1a133E({ i64, i64 }* align 8 dereferenceable(16) %layout), !dbg !710
  br label %bb2, !dbg !710

bb2:                                              ; preds = %bb1
  %4 = call i8* @__rust_alloc(i64 %_2, i64 %_4), !dbg !711
  br label %bb3, !dbg !711

bb3:                                              ; preds = %bb2
  ret i8* %4, !dbg !712
}

; alloc::alloc::Global::alloc_impl
; Function Attrs: inlinehint nounwind
define internal { i8*, i64 } @_ZN5alloc5alloc6Global10alloc_impl17h1be140c5b24697faE(%"std::alloc::Global"* nonnull align 1 %self, i64 %0, i64 %1, i1 zeroext %zeroed) unnamed_addr #0 !dbg !713 {
start:
  %ptr.dbg.spill = alloca i8*, align 8
  %val.dbg.spill = alloca i8*, align 8
  %size.dbg.spill = alloca i64, align 8
  %residual.dbg.spill = alloca %"std::result::Result<std::convert::Infallible, std::alloc::AllocError>::Err", align 1
  %zeroed.dbg.spill = alloca i8, align 1
  %self.dbg.spill = alloca %"std::alloc::Global"*, align 8
  %_15 = alloca i8*, align 8
  %raw_ptr = alloca i8*, align 8
  %2 = alloca { i8*, i64 }, align 8
  %layout = alloca { i64, i64 }, align 8
  %3 = getelementptr inbounds { i64, i64 }, { i64, i64 }* %layout, i32 0, i32 0
  store i64 %0, i64* %3, align 8
  %4 = getelementptr inbounds { i64, i64 }, { i64, i64 }* %layout, i32 0, i32 1
  store i64 %1, i64* %4, align 8
  store %"std::alloc::Global"* %self, %"std::alloc::Global"** %self.dbg.spill, align 8
  call void @llvm.dbg.declare(metadata %"std::alloc::Global"** %self.dbg.spill, metadata !736, metadata !DIExpression()), !dbg !763
  call void @llvm.dbg.declare(metadata { i64, i64 }* %layout, metadata !737, metadata !DIExpression()), !dbg !764
  %5 = zext i1 %zeroed to i8
  store i8 %5, i8* %zeroed.dbg.spill, align 1
  call void @llvm.dbg.declare(metadata i8* %zeroed.dbg.spill, metadata !738, metadata !DIExpression()), !dbg !765
  call void @llvm.dbg.declare(metadata i8** %raw_ptr, metadata !741, metadata !DIExpression()), !dbg !766
  call void @llvm.dbg.declare(metadata %"std::result::Result<std::convert::Infallible, std::alloc::AllocError>::Err"* %residual.dbg.spill, metadata !745, metadata !DIExpression()), !dbg !767
; call core::alloc::layout::Layout::size
  %_4 = call i64 @_ZN4core5alloc6layout6Layout4size17h00cb0d58d5742e6aE({ i64, i64 }* align 8 dereferenceable(16) %layout), !dbg !768
  br label %bb1, !dbg !768

bb1:                                              ; preds = %start
  %6 = icmp eq i64 %_4, 0, !dbg !769
  br i1 %6, label %bb3, label %bb2, !dbg !769

bb3:                                              ; preds = %bb1
; call core::alloc::layout::Layout::dangling
  %_7 = call nonnull i8* @_ZN4core5alloc6layout6Layout8dangling17h98e3341a10e22ee0E({ i64, i64 }* align 8 dereferenceable(16) %layout), !dbg !770
  br label %bb4, !dbg !770

bb2:                                              ; preds = %bb1
  store i64 %_4, i64* %size.dbg.spill, align 8, !dbg !771
  call void @llvm.dbg.declare(metadata i64* %size.dbg.spill, metadata !739, metadata !DIExpression()), !dbg !772
  br i1 %zeroed, label %bb6, label %bb8, !dbg !773

bb8:                                              ; preds = %bb2
  %7 = getelementptr inbounds { i64, i64 }, { i64, i64 }* %layout, i32 0, i32 0, !dbg !774
  %_13.0 = load i64, i64* %7, align 8, !dbg !774
  %8 = getelementptr inbounds { i64, i64 }, { i64, i64 }* %layout, i32 0, i32 1, !dbg !774
  %_13.1 = load i64, i64* %8, align 8, !dbg !774, !range !278
; call alloc::alloc::alloc
  %9 = call i8* @_ZN5alloc5alloc5alloc17h4be24777ee938fc2E(i64 %_13.0, i64 %_13.1), !dbg !775
  store i8* %9, i8** %raw_ptr, align 8, !dbg !775
  br label %bb9, !dbg !775

bb6:                                              ; preds = %bb2
  %10 = getelementptr inbounds { i64, i64 }, { i64, i64 }* %layout, i32 0, i32 0, !dbg !776
  %_12.0 = load i64, i64* %10, align 8, !dbg !776
  %11 = getelementptr inbounds { i64, i64 }, { i64, i64 }* %layout, i32 0, i32 1, !dbg !776
  %_12.1 = load i64, i64* %11, align 8, !dbg !776, !range !278
; call alloc::alloc::alloc_zeroed
  %12 = call i8* @_ZN5alloc5alloc12alloc_zeroed17hf0e90702c1913d94E(i64 %_12.0, i64 %_12.1), !dbg !777
  store i8* %12, i8** %raw_ptr, align 8, !dbg !777
  br label %bb7, !dbg !777

bb7:                                              ; preds = %bb6
  br label %bb10, !dbg !778

bb10:                                             ; preds = %bb9, %bb7
  %_18 = load i8*, i8** %raw_ptr, align 8, !dbg !779
; call core::ptr::non_null::NonNull<T>::new
  %_17 = call i8* @"_ZN4core3ptr8non_null16NonNull$LT$T$GT$3new17h7c90de7dd0009927E"(i8* %_18), !dbg !780
  br label %bb11, !dbg !780

bb9:                                              ; preds = %bb8
  br label %bb10, !dbg !778

bb11:                                             ; preds = %bb10
; call core::option::Option<T>::ok_or
  %_16 = call i8* @"_ZN4core6option15Option$LT$T$GT$5ok_or17heff60f8863cbf4caE"(i8* %_17), !dbg !780
  br label %bb12, !dbg !780

bb12:                                             ; preds = %bb11
; call <core::result::Result<T,E> as core::ops::try_trait::Try>::branch
  %13 = call i8* @"_ZN79_$LT$core..result..Result$LT$T$C$E$GT$$u20$as$u20$core..ops..try_trait..Try$GT$6branch17h6a00143b2e5ebea7E"(i8* %_16), !dbg !780
  store i8* %13, i8** %_15, align 8, !dbg !780
  br label %bb13, !dbg !780

bb13:                                             ; preds = %bb12
  %14 = bitcast i8** %_15 to {}**, !dbg !780
  %15 = load {}*, {}** %14, align 8, !dbg !780
  %16 = icmp eq {}* %15, null, !dbg !780
  %_20 = select i1 %16, i64 1, i64 0, !dbg !780
  switch i64 %_20, label %bb15 [
    i64 0, label %bb14
    i64 1, label %bb16
  ], !dbg !780

bb15:                                             ; preds = %bb13
  unreachable, !dbg !780

bb14:                                             ; preds = %bb13
  %val = load i8*, i8** %_15, align 8, !dbg !780, !nonnull !14
  store i8* %val, i8** %val.dbg.spill, align 8, !dbg !780
  call void @llvm.dbg.declare(metadata i8** %val.dbg.spill, metadata !761, metadata !DIExpression()), !dbg !781
  store i8* %val, i8** %ptr.dbg.spill, align 8, !dbg !781
  call void @llvm.dbg.declare(metadata i8** %ptr.dbg.spill, metadata !743, metadata !DIExpression()), !dbg !782
; call core::ptr::non_null::NonNull<[T]>::slice_from_raw_parts
  %17 = call { i8*, i64 } @"_ZN4core3ptr8non_null26NonNull$LT$$u5b$T$u5d$$GT$20slice_from_raw_parts17h320140499ae14144E"(i8* nonnull %val, i64 %_4), !dbg !783
  %_24.0 = extractvalue { i8*, i64 } %17, 0, !dbg !783
  %_24.1 = extractvalue { i8*, i64 } %17, 1, !dbg !783
  br label %bb18, !dbg !783

bb16:                                             ; preds = %bb13
; call <core::result::Result<T,F> as core::ops::try_trait::FromResidual<core::result::Result<core::convert::Infallible,E>>>::from_residual
  %18 = call { i8*, i64 } @"_ZN153_$LT$core..result..Result$LT$T$C$F$GT$$u20$as$u20$core..ops..try_trait..FromResidual$LT$core..result..Result$LT$core..convert..Infallible$C$E$GT$$GT$$GT$13from_residual17hd49052d9436d8ffbE"(), !dbg !784
  store { i8*, i64 } %18, { i8*, i64 }* %2, align 8, !dbg !784
  br label %bb17, !dbg !784

bb17:                                             ; preds = %bb16
  br label %bb20, !dbg !785

bb20:                                             ; preds = %bb19, %bb17
  %19 = getelementptr inbounds { i8*, i64 }, { i8*, i64 }* %2, i32 0, i32 0, !dbg !785
  %20 = load i8*, i8** %19, align 8, !dbg !785
  %21 = getelementptr inbounds { i8*, i64 }, { i8*, i64 }* %2, i32 0, i32 1, !dbg !785
  %22 = load i64, i64* %21, align 8, !dbg !785
  %23 = insertvalue { i8*, i64 } undef, i8* %20, 0, !dbg !785
  %24 = insertvalue { i8*, i64 } %23, i64 %22, 1, !dbg !785
  ret { i8*, i64 } %24, !dbg !785

bb18:                                             ; preds = %bb14
  %25 = getelementptr inbounds { i8*, i64 }, { i8*, i64 }* %2, i32 0, i32 0, !dbg !786
  store i8* %_24.0, i8** %25, align 8, !dbg !786
  %26 = getelementptr inbounds { i8*, i64 }, { i8*, i64 }* %2, i32 0, i32 1, !dbg !786
  store i64 %_24.1, i64* %26, align 8, !dbg !786
  br label %bb19, !dbg !787

bb19:                                             ; preds = %bb5, %bb18
  br label %bb20, !dbg !785

bb4:                                              ; preds = %bb3
; call core::ptr::non_null::NonNull<[T]>::slice_from_raw_parts
  %27 = call { i8*, i64 } @"_ZN4core3ptr8non_null26NonNull$LT$$u5b$T$u5d$$GT$20slice_from_raw_parts17h320140499ae14144E"(i8* nonnull %_7, i64 0), !dbg !788
  %_6.0 = extractvalue { i8*, i64 } %27, 0, !dbg !788
  %_6.1 = extractvalue { i8*, i64 } %27, 1, !dbg !788
  br label %bb5, !dbg !788

bb5:                                              ; preds = %bb4
  %28 = getelementptr inbounds { i8*, i64 }, { i8*, i64 }* %2, i32 0, i32 0, !dbg !789
  store i8* %_6.0, i8** %28, align 8, !dbg !789
  %29 = getelementptr inbounds { i8*, i64 }, { i8*, i64 }* %2, i32 0, i32 1, !dbg !789
  store i64 %_6.1, i64* %29, align 8, !dbg !789
  br label %bb19, !dbg !790
}

; alloc::alloc::dealloc
; Function Attrs: inlinehint nounwind
define internal void @_ZN5alloc5alloc7dealloc17h99726bf1ad36d1e9E(i8* %ptr, i64 %0, i64 %1) unnamed_addr #0 !dbg !791 {
start:
  %ptr.dbg.spill = alloca i8*, align 8
  %layout = alloca { i64, i64 }, align 8
  %2 = getelementptr inbounds { i64, i64 }, { i64, i64 }* %layout, i32 0, i32 0
  store i64 %0, i64* %2, align 8
  %3 = getelementptr inbounds { i64, i64 }, { i64, i64 }* %layout, i32 0, i32 1
  store i64 %1, i64* %3, align 8
  store i8* %ptr, i8** %ptr.dbg.spill, align 8
  call void @llvm.dbg.declare(metadata i8** %ptr.dbg.spill, metadata !795, metadata !DIExpression()), !dbg !797
  call void @llvm.dbg.declare(metadata { i64, i64 }* %layout, metadata !796, metadata !DIExpression()), !dbg !798
; call core::alloc::layout::Layout::size
  %_4 = call i64 @_ZN4core5alloc6layout6Layout4size17h00cb0d58d5742e6aE({ i64, i64 }* align 8 dereferenceable(16) %layout), !dbg !799
  br label %bb1, !dbg !799

bb1:                                              ; preds = %start
; call core::alloc::layout::Layout::align
  %_6 = call i64 @_ZN4core5alloc6layout6Layout5align17h3f04d24bdbb1a133E({ i64, i64 }* align 8 dereferenceable(16) %layout), !dbg !800
  br label %bb2, !dbg !800

bb2:                                              ; preds = %bb1
  call void @__rust_dealloc(i8* %ptr, i64 %_4, i64 %_6), !dbg !801
  br label %bb3, !dbg !801

bb3:                                              ; preds = %bb2
  ret void, !dbg !802
}

; <alloc::alloc::Global as core::alloc::Allocator>::deallocate
; Function Attrs: inlinehint nounwind
define internal void @"_ZN63_$LT$alloc..alloc..Global$u20$as$u20$core..alloc..Allocator$GT$10deallocate17h6cf1e8ef64aa276dE"(%"std::alloc::Global"* nonnull align 1 %self, i8* nonnull %ptr, i64 %0, i64 %1) unnamed_addr #0 !dbg !803 {
start:
  %ptr.dbg.spill = alloca i8*, align 8
  %self.dbg.spill = alloca %"std::alloc::Global"*, align 8
  %layout = alloca { i64, i64 }, align 8
  %2 = getelementptr inbounds { i64, i64 }, { i64, i64 }* %layout, i32 0, i32 0
  store i64 %0, i64* %2, align 8
  %3 = getelementptr inbounds { i64, i64 }, { i64, i64 }* %layout, i32 0, i32 1
  store i64 %1, i64* %3, align 8
  store %"std::alloc::Global"* %self, %"std::alloc::Global"** %self.dbg.spill, align 8
  call void @llvm.dbg.declare(metadata %"std::alloc::Global"** %self.dbg.spill, metadata !808, metadata !DIExpression()), !dbg !811
  store i8* %ptr, i8** %ptr.dbg.spill, align 8
  call void @llvm.dbg.declare(metadata i8** %ptr.dbg.spill, metadata !809, metadata !DIExpression()), !dbg !812
  call void @llvm.dbg.declare(metadata { i64, i64 }* %layout, metadata !810, metadata !DIExpression()), !dbg !813
; call core::alloc::layout::Layout::size
  %_4 = call i64 @_ZN4core5alloc6layout6Layout4size17h00cb0d58d5742e6aE({ i64, i64 }* align 8 dereferenceable(16) %layout), !dbg !814
  br label %bb1, !dbg !814

bb1:                                              ; preds = %start
  %4 = icmp eq i64 %_4, 0, !dbg !814
  br i1 %4, label %bb5, label %bb2, !dbg !814

bb5:                                              ; preds = %bb1
  br label %bb6, !dbg !815

bb2:                                              ; preds = %bb1
; call core::ptr::non_null::NonNull<T>::as_ptr
  %_6 = call i8* @"_ZN4core3ptr8non_null16NonNull$LT$T$GT$6as_ptr17he9f4ac41c8ef8b16E"(i8* nonnull %ptr), !dbg !816
  br label %bb3, !dbg !816

bb3:                                              ; preds = %bb2
  %5 = getelementptr inbounds { i64, i64 }, { i64, i64 }* %layout, i32 0, i32 0, !dbg !817
  %_8.0 = load i64, i64* %5, align 8, !dbg !817
  %6 = getelementptr inbounds { i64, i64 }, { i64, i64 }* %layout, i32 0, i32 1, !dbg !817
  %_8.1 = load i64, i64* %6, align 8, !dbg !817, !range !278
; call alloc::alloc::dealloc
  call void @_ZN5alloc5alloc7dealloc17h99726bf1ad36d1e9E(i8* %_6, i64 %_8.0, i64 %_8.1), !dbg !818
  br label %bb4, !dbg !818

bb4:                                              ; preds = %bb3
  br label %bb6, !dbg !815

bb6:                                              ; preds = %bb5, %bb4
  ret void, !dbg !819
}

; <alloc::alloc::Global as core::alloc::Allocator>::allocate
; Function Attrs: inlinehint nounwind
define internal { i8*, i64 } @"_ZN63_$LT$alloc..alloc..Global$u20$as$u20$core..alloc..Allocator$GT$8allocate17hde6bb3b1019cdbb1E"(%"std::alloc::Global"* nonnull align 1 %self, i64 %layout.0, i64 %layout.1) unnamed_addr #0 !dbg !820 {
start:
  %layout.dbg.spill = alloca { i64, i64 }, align 8
  %self.dbg.spill = alloca %"std::alloc::Global"*, align 8
  store %"std::alloc::Global"* %self, %"std::alloc::Global"** %self.dbg.spill, align 8
  call void @llvm.dbg.declare(metadata %"std::alloc::Global"** %self.dbg.spill, metadata !824, metadata !DIExpression()), !dbg !826
  %0 = getelementptr inbounds { i64, i64 }, { i64, i64 }* %layout.dbg.spill, i32 0, i32 0
  store i64 %layout.0, i64* %0, align 8
  %1 = getelementptr inbounds { i64, i64 }, { i64, i64 }* %layout.dbg.spill, i32 0, i32 1
  store i64 %layout.1, i64* %1, align 8
  call void @llvm.dbg.declare(metadata { i64, i64 }* %layout.dbg.spill, metadata !825, metadata !DIExpression()), !dbg !827
; call alloc::alloc::Global::alloc_impl
  %2 = call { i8*, i64 } @_ZN5alloc5alloc6Global10alloc_impl17h1be140c5b24697faE(%"std::alloc::Global"* nonnull align 1 %self, i64 %layout.0, i64 %layout.1, i1 zeroext false), !dbg !828
  %3 = extractvalue { i8*, i64 } %2, 0, !dbg !828
  %4 = extractvalue { i8*, i64 } %2, 1, !dbg !828
  br label %bb1, !dbg !828

bb1:                                              ; preds = %start
  %5 = insertvalue { i8*, i64 } undef, i8* %3, 0, !dbg !829
  %6 = insertvalue { i8*, i64 } %5, i64 %4, 1, !dbg !829
  ret { i8*, i64 } %6, !dbg !829
}

; <alloc::rc::Rc<T> as core::ops::drop::Drop>::drop
; Function Attrs: nounwind
define void @"_ZN64_$LT$alloc..rc..Rc$LT$T$GT$$u20$as$u20$core..ops..drop..Drop$GT$4drop17h1ef059a0cb1016f9E"(i64** align 8 dereferenceable(8) %self) unnamed_addr #1 !dbg !830 {
start:
  %self.dbg.spill.i3 = alloca i64**, align 8
  %self.dbg.spill.i2 = alloca i64**, align 8
  %self.dbg.spill.i1 = alloca i64**, align 8
  %self.dbg.spill.i = alloca i64**, align 8
  %self.dbg.spill = alloca i64**, align 8
  store i64** %self, i64*** %self.dbg.spill, align 8
  call void @llvm.dbg.declare(metadata i64*** %self.dbg.spill, metadata !835, metadata !DIExpression()), !dbg !836
  store i64** %self, i64*** %self.dbg.spill.i, align 8
  call void @llvm.dbg.declare(metadata i64*** %self.dbg.spill.i, metadata !837, metadata !DIExpression()) #6, !dbg !843
; call core::ptr::non_null::NonNull<T>::as_ref
  %0 = call align 8 dereferenceable(32) %"std::rc::RcBox<std::cell::RefCell<&mut u64>>"* @"_ZN4core3ptr8non_null16NonNull$LT$T$GT$6as_ref17hbbd1fafb216900a2E"(i64** align 8 dereferenceable(8) %self) #6, !dbg !845
  br label %bb1, !dbg !846

bb1:                                              ; preds = %start
; call alloc::rc::RcInnerPtr::dec_strong
  call void @_ZN5alloc2rc10RcInnerPtr10dec_strong17heb9263d8b36249f8E(%"std::rc::RcBox<std::cell::RefCell<&mut u64>>"* align 8 dereferenceable(32) %0), !dbg !846
  br label %bb2, !dbg !846

bb2:                                              ; preds = %bb1
  store i64** %self, i64*** %self.dbg.spill.i1, align 8
  call void @llvm.dbg.declare(metadata i64*** %self.dbg.spill.i1, metadata !837, metadata !DIExpression()) #6, !dbg !847
; call core::ptr::non_null::NonNull<T>::as_ref
  %1 = call align 8 dereferenceable(32) %"std::rc::RcBox<std::cell::RefCell<&mut u64>>"* @"_ZN4core3ptr8non_null16NonNull$LT$T$GT$6as_ref17hbbd1fafb216900a2E"(i64** align 8 dereferenceable(8) %self) #6, !dbg !849
  br label %bb3, !dbg !850

bb3:                                              ; preds = %bb2
; call alloc::rc::RcInnerPtr::strong
  %_6 = call i64 @_ZN5alloc2rc10RcInnerPtr6strong17h18c88c935c8c4718E(%"std::rc::RcBox<std::cell::RefCell<&mut u64>>"* align 8 dereferenceable(32) %1), !dbg !850
  br label %bb4, !dbg !850

bb4:                                              ; preds = %bb3
  %2 = icmp eq i64 %_6, 0, !dbg !850
  br i1 %2, label %bb5, label %bb19, !dbg !850

bb5:                                              ; preds = %bb4
; call alloc::rc::Rc<T>::get_mut_unchecked
  %_12 = call align 8 dereferenceable(16) { i64, i64* }* @"_ZN5alloc2rc11Rc$LT$T$GT$17get_mut_unchecked17h6f6d10d6bf7db71cE"(i64** align 8 dereferenceable(8) %self), !dbg !851
  br label %bb6, !dbg !851

bb19:                                             ; preds = %bb4
  br label %bb20, !dbg !852

bb20:                                             ; preds = %bb18, %bb19
  ret void, !dbg !853

bb6:                                              ; preds = %bb5
  br label %bb7, !dbg !854

bb7:                                              ; preds = %bb6
  store i64** %self, i64*** %self.dbg.spill.i2, align 8
  call void @llvm.dbg.declare(metadata i64*** %self.dbg.spill.i2, metadata !837, metadata !DIExpression()) #6, !dbg !855
; call core::ptr::non_null::NonNull<T>::as_ref
  %3 = call align 8 dereferenceable(32) %"std::rc::RcBox<std::cell::RefCell<&mut u64>>"* @"_ZN4core3ptr8non_null16NonNull$LT$T$GT$6as_ref17hbbd1fafb216900a2E"(i64** align 8 dereferenceable(8) %self) #6, !dbg !857
  br label %bb8, !dbg !858

bb8:                                              ; preds = %bb7
; call alloc::rc::RcInnerPtr::dec_weak
  call void @_ZN5alloc2rc10RcInnerPtr8dec_weak17h398c1264ba5aebffE(%"std::rc::RcBox<std::cell::RefCell<&mut u64>>"* align 8 dereferenceable(32) %3), !dbg !858
  br label %bb9, !dbg !858

bb9:                                              ; preds = %bb8
  store i64** %self, i64*** %self.dbg.spill.i3, align 8
  call void @llvm.dbg.declare(metadata i64*** %self.dbg.spill.i3, metadata !837, metadata !DIExpression()) #6, !dbg !859
; call core::ptr::non_null::NonNull<T>::as_ref
  %4 = call align 8 dereferenceable(32) %"std::rc::RcBox<std::cell::RefCell<&mut u64>>"* @"_ZN4core3ptr8non_null16NonNull$LT$T$GT$6as_ref17hbbd1fafb216900a2E"(i64** align 8 dereferenceable(8) %self) #6, !dbg !861
  br label %bb10, !dbg !862

bb10:                                             ; preds = %bb9
; call alloc::rc::RcInnerPtr::weak
  %_18 = call i64 @_ZN5alloc2rc10RcInnerPtr4weak17h8cd4a361e91ca30fE(%"std::rc::RcBox<std::cell::RefCell<&mut u64>>"* align 8 dereferenceable(32) %4), !dbg !862
  br label %bb11, !dbg !862

bb11:                                             ; preds = %bb10
  %5 = icmp eq i64 %_18, 0, !dbg !862
  br i1 %5, label %bb12, label %bb17, !dbg !862

bb12:                                             ; preds = %bb11
  %_25 = load i64*, i64** %self, align 8, !dbg !863, !nonnull !14
; call core::ptr::non_null::NonNull<T>::cast
  %_24 = call nonnull i8* @"_ZN4core3ptr8non_null16NonNull$LT$T$GT$4cast17h61290d8d78e2d207E"(i64* nonnull %_25), !dbg !863
  br label %bb13, !dbg !863

bb17:                                             ; preds = %bb11
  br label %bb18, !dbg !864

bb18:                                             ; preds = %bb16, %bb17
  br label %bb20, !dbg !852

bb13:                                             ; preds = %bb12
; call core::ptr::non_null::NonNull<T>::as_ref
  %_28 = call align 8 dereferenceable(32) %"std::rc::RcBox<std::cell::RefCell<&mut u64>>"* @"_ZN4core3ptr8non_null16NonNull$LT$T$GT$6as_ref17hbbd1fafb216900a2E"(i64** align 8 dereferenceable(8) %self), !dbg !865
  br label %bb14, !dbg !865

bb14:                                             ; preds = %bb13
; call core::alloc::layout::Layout::for_value
  %6 = call { i64, i64 } @_ZN4core5alloc6layout6Layout9for_value17ha4d5ad40d0571d99E(%"std::rc::RcBox<std::cell::RefCell<&mut u64>>"* align 8 dereferenceable(32) %_28), !dbg !866
  %_26.0 = extractvalue { i64, i64 } %6, 0, !dbg !866
  %_26.1 = extractvalue { i64, i64 } %6, 1, !dbg !866
  br label %bb15, !dbg !866

bb15:                                             ; preds = %bb14
; call <alloc::alloc::Global as core::alloc::Allocator>::deallocate
  call void @"_ZN63_$LT$alloc..alloc..Global$u20$as$u20$core..alloc..Allocator$GT$10deallocate17h6cf1e8ef64aa276dE"(%"std::alloc::Global"* nonnull align 1 bitcast (<{ [0 x i8] }>* @alloc30 to %"std::alloc::Global"*), i8* nonnull %_24, i64 %_26.0, i64 %_26.1), !dbg !867
  br label %bb16, !dbg !867

bb16:                                             ; preds = %bb15
  br label %bb18, !dbg !864
}

; <alloc::rc::Rc<T> as core::ops::drop::Drop>::drop
; Function Attrs: nounwind
define void @"_ZN64_$LT$alloc..rc..Rc$LT$T$GT$$u20$as$u20$core..ops..drop..Drop$GT$4drop17hda8257b871f78805E"(i64** align 8 dereferenceable(8) %self) unnamed_addr #1 !dbg !868 {
start:
  %self.dbg.spill.i3 = alloca i64**, align 8
  %self.dbg.spill.i2 = alloca i64**, align 8
  %self.dbg.spill.i1 = alloca i64**, align 8
  %self.dbg.spill.i = alloca i64**, align 8
  %self.dbg.spill = alloca i64**, align 8
  store i64** %self, i64*** %self.dbg.spill, align 8
  call void @llvm.dbg.declare(metadata i64*** %self.dbg.spill, metadata !872, metadata !DIExpression()), !dbg !873
  store i64** %self, i64*** %self.dbg.spill.i, align 8
  call void @llvm.dbg.declare(metadata i64*** %self.dbg.spill.i, metadata !874, metadata !DIExpression()) #6, !dbg !880
; call core::ptr::non_null::NonNull<T>::as_ref
  %0 = call align 8 dereferenceable(40) %"std::rc::RcBox<std::cell::RefCell<&mut [u8]>>"* @"_ZN4core3ptr8non_null16NonNull$LT$T$GT$6as_ref17hfbfc29fe9efe6e51E"(i64** align 8 dereferenceable(8) %self) #6, !dbg !882
  br label %bb1, !dbg !883

bb1:                                              ; preds = %start
; call alloc::rc::RcInnerPtr::dec_strong
  call void @_ZN5alloc2rc10RcInnerPtr10dec_strong17h9537d706912c3393E(%"std::rc::RcBox<std::cell::RefCell<&mut [u8]>>"* align 8 dereferenceable(40) %0), !dbg !883
  br label %bb2, !dbg !883

bb2:                                              ; preds = %bb1
  store i64** %self, i64*** %self.dbg.spill.i1, align 8
  call void @llvm.dbg.declare(metadata i64*** %self.dbg.spill.i1, metadata !874, metadata !DIExpression()) #6, !dbg !884
; call core::ptr::non_null::NonNull<T>::as_ref
  %1 = call align 8 dereferenceable(40) %"std::rc::RcBox<std::cell::RefCell<&mut [u8]>>"* @"_ZN4core3ptr8non_null16NonNull$LT$T$GT$6as_ref17hfbfc29fe9efe6e51E"(i64** align 8 dereferenceable(8) %self) #6, !dbg !886
  br label %bb3, !dbg !887

bb3:                                              ; preds = %bb2
; call alloc::rc::RcInnerPtr::strong
  %_6 = call i64 @_ZN5alloc2rc10RcInnerPtr6strong17h65e9a0364c86b592E(%"std::rc::RcBox<std::cell::RefCell<&mut [u8]>>"* align 8 dereferenceable(40) %1), !dbg !887
  br label %bb4, !dbg !887

bb4:                                              ; preds = %bb3
  %2 = icmp eq i64 %_6, 0, !dbg !887
  br i1 %2, label %bb5, label %bb19, !dbg !887

bb5:                                              ; preds = %bb4
; call alloc::rc::Rc<T>::get_mut_unchecked
  %_12 = call align 8 dereferenceable(24) %"std::cell::RefCell<&mut [u8]>"* @"_ZN5alloc2rc11Rc$LT$T$GT$17get_mut_unchecked17h51d2b3bdaf0c0fc5E"(i64** align 8 dereferenceable(8) %self), !dbg !888
  br label %bb6, !dbg !888

bb19:                                             ; preds = %bb4
  br label %bb20, !dbg !889

bb20:                                             ; preds = %bb18, %bb19
  ret void, !dbg !890

bb6:                                              ; preds = %bb5
  br label %bb7, !dbg !891

bb7:                                              ; preds = %bb6
  store i64** %self, i64*** %self.dbg.spill.i2, align 8
  call void @llvm.dbg.declare(metadata i64*** %self.dbg.spill.i2, metadata !874, metadata !DIExpression()) #6, !dbg !892
; call core::ptr::non_null::NonNull<T>::as_ref
  %3 = call align 8 dereferenceable(40) %"std::rc::RcBox<std::cell::RefCell<&mut [u8]>>"* @"_ZN4core3ptr8non_null16NonNull$LT$T$GT$6as_ref17hfbfc29fe9efe6e51E"(i64** align 8 dereferenceable(8) %self) #6, !dbg !894
  br label %bb8, !dbg !895

bb8:                                              ; preds = %bb7
; call alloc::rc::RcInnerPtr::dec_weak
  call void @_ZN5alloc2rc10RcInnerPtr8dec_weak17hf22bcc184caca90eE(%"std::rc::RcBox<std::cell::RefCell<&mut [u8]>>"* align 8 dereferenceable(40) %3), !dbg !895
  br label %bb9, !dbg !895

bb9:                                              ; preds = %bb8
  store i64** %self, i64*** %self.dbg.spill.i3, align 8
  call void @llvm.dbg.declare(metadata i64*** %self.dbg.spill.i3, metadata !874, metadata !DIExpression()) #6, !dbg !896
; call core::ptr::non_null::NonNull<T>::as_ref
  %4 = call align 8 dereferenceable(40) %"std::rc::RcBox<std::cell::RefCell<&mut [u8]>>"* @"_ZN4core3ptr8non_null16NonNull$LT$T$GT$6as_ref17hfbfc29fe9efe6e51E"(i64** align 8 dereferenceable(8) %self) #6, !dbg !898
  br label %bb10, !dbg !899

bb10:                                             ; preds = %bb9
; call alloc::rc::RcInnerPtr::weak
  %_18 = call i64 @_ZN5alloc2rc10RcInnerPtr4weak17he565c31e04bccffcE(%"std::rc::RcBox<std::cell::RefCell<&mut [u8]>>"* align 8 dereferenceable(40) %4), !dbg !899
  br label %bb11, !dbg !899

bb11:                                             ; preds = %bb10
  %5 = icmp eq i64 %_18, 0, !dbg !899
  br i1 %5, label %bb12, label %bb17, !dbg !899

bb12:                                             ; preds = %bb11
  %_25 = load i64*, i64** %self, align 8, !dbg !900, !nonnull !14
; call core::ptr::non_null::NonNull<T>::cast
  %_24 = call nonnull i8* @"_ZN4core3ptr8non_null16NonNull$LT$T$GT$4cast17h8fc04eef3cfa594dE"(i64* nonnull %_25), !dbg !900
  br label %bb13, !dbg !900

bb17:                                             ; preds = %bb11
  br label %bb18, !dbg !901

bb18:                                             ; preds = %bb16, %bb17
  br label %bb20, !dbg !889

bb13:                                             ; preds = %bb12
; call core::ptr::non_null::NonNull<T>::as_ref
  %_28 = call align 8 dereferenceable(40) %"std::rc::RcBox<std::cell::RefCell<&mut [u8]>>"* @"_ZN4core3ptr8non_null16NonNull$LT$T$GT$6as_ref17hfbfc29fe9efe6e51E"(i64** align 8 dereferenceable(8) %self), !dbg !902
  br label %bb14, !dbg !902

bb14:                                             ; preds = %bb13
; call core::alloc::layout::Layout::for_value
  %6 = call { i64, i64 } @_ZN4core5alloc6layout6Layout9for_value17h41801a0e0fe7e5afE(%"std::rc::RcBox<std::cell::RefCell<&mut [u8]>>"* align 8 dereferenceable(40) %_28), !dbg !903
  %_26.0 = extractvalue { i64, i64 } %6, 0, !dbg !903
  %_26.1 = extractvalue { i64, i64 } %6, 1, !dbg !903
  br label %bb15, !dbg !903

bb15:                                             ; preds = %bb14
; call <alloc::alloc::Global as core::alloc::Allocator>::deallocate
  call void @"_ZN63_$LT$alloc..alloc..Global$u20$as$u20$core..alloc..Allocator$GT$10deallocate17h6cf1e8ef64aa276dE"(%"std::alloc::Global"* nonnull align 1 bitcast (<{ [0 x i8] }>* @alloc30 to %"std::alloc::Global"*), i8* nonnull %_24, i64 %_26.0, i64 %_26.1), !dbg !904
  br label %bb16, !dbg !904

bb16:                                             ; preds = %bb15
  br label %bb18, !dbg !901
}

; <alloc::string::String as core::ops::deref::Deref>::deref
; Function Attrs: inlinehint nounwind
define internal { [0 x i8]*, i64 } @"_ZN65_$LT$alloc..string..String$u20$as$u20$core..ops..deref..Deref$GT$5deref17h230183e43db16589E"(%"std::string::String"* align 8 dereferenceable(24) %self) unnamed_addr #0 !dbg !905 {
start:
  %self.dbg.spill = alloca %"std::string::String"*, align 8
  store %"std::string::String"* %self, %"std::string::String"** %self.dbg.spill, align 8
  call void @llvm.dbg.declare(metadata %"std::string::String"** %self.dbg.spill, metadata !935, metadata !DIExpression()), !dbg !936
  %_5 = bitcast %"std::string::String"* %self to %"std::vec::Vec<u8>"*, !dbg !937
; call <alloc::vec::Vec<T,A> as core::ops::deref::Deref>::deref
  %0 = call { [0 x i8]*, i64 } @"_ZN72_$LT$alloc..vec..Vec$LT$T$C$A$GT$$u20$as$u20$core..ops..deref..Deref$GT$5deref17h773f7302148d4228E"(%"std::vec::Vec<u8>"* align 8 dereferenceable(24) %_5), !dbg !937
  %_3.0 = extractvalue { [0 x i8]*, i64 } %0, 0, !dbg !937
  %_3.1 = extractvalue { [0 x i8]*, i64 } %0, 1, !dbg !937
  br label %bb1, !dbg !937

bb1:                                              ; preds = %start
; call core::str::converts::from_utf8_unchecked
  %1 = call { [0 x i8]*, i64 } @_ZN4core3str8converts19from_utf8_unchecked17hbc928ea3cf4b1972E([0 x i8]* nonnull align 1 %_3.0, i64 %_3.1), !dbg !938
  %2 = extractvalue { [0 x i8]*, i64 } %1, 0, !dbg !938
  %3 = extractvalue { [0 x i8]*, i64 } %1, 1, !dbg !938
  br label %bb2, !dbg !938

bb2:                                              ; preds = %bb1
  %4 = insertvalue { [0 x i8]*, i64 } undef, [0 x i8]* %2, 0, !dbg !939
  %5 = insertvalue { [0 x i8]*, i64 } %4, i64 %3, 1, !dbg !939
  ret { [0 x i8]*, i64 } %5, !dbg !939
}

; <solana_program::pubkey::Pubkey as core::cmp::PartialEq>::ne
; Function Attrs: inlinehint nounwind
define internal zeroext i1 @"_ZN71_$LT$solana_program..pubkey..Pubkey$u20$as$u20$core..cmp..PartialEq$GT$2ne17hca50db9177622a10E"(%"solana_program::pubkey::Pubkey"* align 1 dereferenceable(32) %self, %"solana_program::pubkey::Pubkey"* align 1 dereferenceable(32) %other) unnamed_addr #0 !dbg !940 {
start:
  %__self_0_0.dbg.spill = alloca [32 x i8]*, align 8
  %__self_1_0.dbg.spill = alloca [32 x i8]*, align 8
  %other.dbg.spill = alloca %"solana_program::pubkey::Pubkey"*, align 8
  %self.dbg.spill = alloca %"solana_program::pubkey::Pubkey"*, align 8
  store %"solana_program::pubkey::Pubkey"* %self, %"solana_program::pubkey::Pubkey"** %self.dbg.spill, align 8
  call void @llvm.dbg.declare(metadata %"solana_program::pubkey::Pubkey"** %self.dbg.spill, metadata !946, metadata !DIExpression()), !dbg !953
  store %"solana_program::pubkey::Pubkey"* %other, %"solana_program::pubkey::Pubkey"** %other.dbg.spill, align 8
  call void @llvm.dbg.declare(metadata %"solana_program::pubkey::Pubkey"** %other.dbg.spill, metadata !947, metadata !DIExpression()), !dbg !953
  %__self_1_0 = bitcast %"solana_program::pubkey::Pubkey"* %other to [32 x i8]*, !dbg !954
  store [32 x i8]* %__self_1_0, [32 x i8]** %__self_1_0.dbg.spill, align 8, !dbg !954
  call void @llvm.dbg.declare(metadata [32 x i8]** %__self_1_0.dbg.spill, metadata !948, metadata !DIExpression()), !dbg !955
  %__self_0_0 = bitcast %"solana_program::pubkey::Pubkey"* %self to [32 x i8]*, !dbg !955
  store [32 x i8]* %__self_0_0, [32 x i8]** %__self_0_0.dbg.spill, align 8, !dbg !955
  call void @llvm.dbg.declare(metadata [32 x i8]** %__self_0_0.dbg.spill, metadata !951, metadata !DIExpression()), !dbg !956
; call core::array::equality::<impl core::cmp::PartialEq<[B; N]> for [A; N]>::ne
  %0 = call zeroext i1 @"_ZN4core5array8equality103_$LT$impl$u20$core..cmp..PartialEq$LT$$u5b$B$u3b$$u20$N$u5d$$GT$$u20$for$u20$$u5b$A$u3b$$u20$N$u5d$$GT$2ne17h1b9858dac58b5be2E"([32 x i8]* align 1 dereferenceable(32) %__self_0_0, [32 x i8]* align 1 dereferenceable(32) %__self_1_0), !dbg !956
  br label %bb1, !dbg !956

bb1:                                              ; preds = %start
  ret i1 %0, !dbg !957
}

; <core::result::Result<T,E> as core::ops::try_trait::Try>::branch
; Function Attrs: inlinehint nounwind
define void @"_ZN79_$LT$core..result..Result$LT$T$C$E$GT$$u20$as$u20$core..ops..try_trait..Try$GT$6branch17h3def47bdc39c2a57E"(%"std::ops::ControlFlow<std::result::Result<std::convert::Infallible, solana_program::program_error::ProgramError>, solana_program::instruction::Instruction>"* noalias nocapture sret(%"std::ops::ControlFlow<std::result::Result<std::convert::Infallible, solana_program::program_error::ProgramError>, solana_program::instruction::Instruction>") dereferenceable(88) %0, %"std::result::Result<solana_program::instruction::Instruction, solana_program::program_error::ProgramError>"* noalias nocapture dereferenceable(88) %self) unnamed_addr #0 !dbg !958 {
start:
  %_7 = alloca %"solana_program::program_error::ProgramError", align 8
  %_6 = alloca %"std::result::Result<std::convert::Infallible, solana_program::program_error::ProgramError>::Err", align 8
  %e = alloca %"solana_program::program_error::ProgramError", align 8
  %_4 = alloca %"solana_program::instruction::Instruction", align 8
  %v = alloca %"solana_program::instruction::Instruction", align 8
  call void @llvm.dbg.declare(metadata %"std::result::Result<solana_program::instruction::Instruction, solana_program::program_error::ProgramError>"* %self, metadata !1085, metadata !DIExpression()), !dbg !1090
  call void @llvm.dbg.declare(metadata %"solana_program::instruction::Instruction"* %v, metadata !1086, metadata !DIExpression()), !dbg !1091
  call void @llvm.dbg.declare(metadata %"solana_program::program_error::ProgramError"* %e, metadata !1088, metadata !DIExpression()), !dbg !1092
  %1 = bitcast %"std::result::Result<solana_program::instruction::Instruction, solana_program::program_error::ProgramError>"* %self to i64*, !dbg !1093
  %_2 = load i64, i64* %1, align 8, !dbg !1093, !range !1094
  switch i64 %_2, label %bb2 [
    i64 0, label %bb3
    i64 1, label %bb1
  ], !dbg !1095

bb2:                                              ; preds = %start
  unreachable, !dbg !1093

bb3:                                              ; preds = %start
  %2 = bitcast %"std::result::Result<solana_program::instruction::Instruction, solana_program::program_error::ProgramError>"* %self to %"std::result::Result<solana_program::instruction::Instruction, solana_program::program_error::ProgramError>::Ok"*, !dbg !1096
  %3 = getelementptr inbounds %"std::result::Result<solana_program::instruction::Instruction, solana_program::program_error::ProgramError>::Ok", %"std::result::Result<solana_program::instruction::Instruction, solana_program::program_error::ProgramError>::Ok"* %2, i32 0, i32 1, !dbg !1096
  %4 = bitcast %"solana_program::instruction::Instruction"* %v to i8*, !dbg !1096
  %5 = bitcast %"solana_program::instruction::Instruction"* %3 to i8*, !dbg !1096
  call void @llvm.memcpy.p0i8.p0i8.i64(i8* align 8 %4, i8* align 8 %5, i64 80, i1 false), !dbg !1096
  %6 = bitcast %"solana_program::instruction::Instruction"* %_4 to i8*, !dbg !1097
  %7 = bitcast %"solana_program::instruction::Instruction"* %v to i8*, !dbg !1097
  call void @llvm.memcpy.p0i8.p0i8.i64(i8* align 8 %6, i8* align 8 %7, i64 80, i1 false), !dbg !1097
  %8 = bitcast %"std::ops::ControlFlow<std::result::Result<std::convert::Infallible, solana_program::program_error::ProgramError>, solana_program::instruction::Instruction>"* %0 to %"std::ops::ControlFlow<std::result::Result<std::convert::Infallible, solana_program::program_error::ProgramError>, solana_program::instruction::Instruction>::Continue"*, !dbg !1098
  %9 = getelementptr inbounds %"std::ops::ControlFlow<std::result::Result<std::convert::Infallible, solana_program::program_error::ProgramError>, solana_program::instruction::Instruction>::Continue", %"std::ops::ControlFlow<std::result::Result<std::convert::Infallible, solana_program::program_error::ProgramError>, solana_program::instruction::Instruction>::Continue"* %8, i32 0, i32 1, !dbg !1098
  %10 = bitcast %"solana_program::instruction::Instruction"* %9 to i8*, !dbg !1098
  %11 = bitcast %"solana_program::instruction::Instruction"* %_4 to i8*, !dbg !1098
  call void @llvm.memcpy.p0i8.p0i8.i64(i8* align 8 %10, i8* align 8 %11, i64 80, i1 false), !dbg !1098
  %12 = bitcast %"std::ops::ControlFlow<std::result::Result<std::convert::Infallible, solana_program::program_error::ProgramError>, solana_program::instruction::Instruction>"* %0 to i64*, !dbg !1098
  store i64 0, i64* %12, align 8, !dbg !1098
  br label %bb4, !dbg !1099

bb1:                                              ; preds = %start
  %13 = bitcast %"std::result::Result<solana_program::instruction::Instruction, solana_program::program_error::ProgramError>"* %self to %"std::result::Result<solana_program::instruction::Instruction, solana_program::program_error::ProgramError>::Err"*, !dbg !1100
  %14 = getelementptr inbounds %"std::result::Result<solana_program::instruction::Instruction, solana_program::program_error::ProgramError>::Err", %"std::result::Result<solana_program::instruction::Instruction, solana_program::program_error::ProgramError>::Err"* %13, i32 0, i32 1, !dbg !1100
  %15 = bitcast %"solana_program::program_error::ProgramError"* %e to i8*, !dbg !1100
  %16 = bitcast %"solana_program::program_error::ProgramError"* %14 to i8*, !dbg !1100
  call void @llvm.memcpy.p0i8.p0i8.i64(i8* align 8 %15, i8* align 8 %16, i64 32, i1 false), !dbg !1100
  %17 = bitcast %"solana_program::program_error::ProgramError"* %_7 to i8*, !dbg !1101
  %18 = bitcast %"solana_program::program_error::ProgramError"* %e to i8*, !dbg !1101
  call void @llvm.memcpy.p0i8.p0i8.i64(i8* align 8 %17, i8* align 8 %18, i64 32, i1 false), !dbg !1101
  %19 = bitcast %"std::result::Result<std::convert::Infallible, solana_program::program_error::ProgramError>::Err"* %_6 to %"solana_program::program_error::ProgramError"*, !dbg !1102
  %20 = bitcast %"solana_program::program_error::ProgramError"* %19 to i8*, !dbg !1102
  %21 = bitcast %"solana_program::program_error::ProgramError"* %_7 to i8*, !dbg !1102
  call void @llvm.memcpy.p0i8.p0i8.i64(i8* align 8 %20, i8* align 8 %21, i64 32, i1 false), !dbg !1102
  %22 = bitcast %"std::ops::ControlFlow<std::result::Result<std::convert::Infallible, solana_program::program_error::ProgramError>, solana_program::instruction::Instruction>"* %0 to %"std::ops::ControlFlow<std::result::Result<std::convert::Infallible, solana_program::program_error::ProgramError>, solana_program::instruction::Instruction>::Break"*, !dbg !1103
  %23 = getelementptr inbounds %"std::ops::ControlFlow<std::result::Result<std::convert::Infallible, solana_program::program_error::ProgramError>, solana_program::instruction::Instruction>::Break", %"std::ops::ControlFlow<std::result::Result<std::convert::Infallible, solana_program::program_error::ProgramError>, solana_program::instruction::Instruction>::Break"* %22, i32 0, i32 1, !dbg !1103
  %24 = bitcast %"std::result::Result<std::convert::Infallible, solana_program::program_error::ProgramError>::Err"* %23 to i8*, !dbg !1103
  %25 = bitcast %"std::result::Result<std::convert::Infallible, solana_program::program_error::ProgramError>::Err"* %_6 to i8*, !dbg !1103
  call void @llvm.memcpy.p0i8.p0i8.i64(i8* align 8 %24, i8* align 8 %25, i64 32, i1 false), !dbg !1103
  %26 = bitcast %"std::ops::ControlFlow<std::result::Result<std::convert::Infallible, solana_program::program_error::ProgramError>, solana_program::instruction::Instruction>"* %0 to i64*, !dbg !1103
  store i64 1, i64* %26, align 8, !dbg !1103
  br label %bb4, !dbg !1104

bb4:                                              ; preds = %bb3, %bb1
  ret void, !dbg !1105
}

; <solana_program::account_info::AccountInfo as core::clone::Clone>::clone
; Function Attrs: inlinehint nounwind
define internal void @"_ZN80_$LT$solana_program..account_info..AccountInfo$u20$as$u20$core..clone..Clone$GT$5clone17hd96943ae67127b53E"(%"solana_program::account_info::AccountInfo"* noalias nocapture sret(%"solana_program::account_info::AccountInfo") dereferenceable(48) %0, %"solana_program::account_info::AccountInfo"* align 8 dereferenceable(48) %self) unnamed_addr #0 !dbg !1106 {
start:
  %__self_0_7.dbg.spill = alloca i64*, align 8
  %__self_0_6.dbg.spill = alloca i8*, align 8
  %__self_0_5.dbg.spill = alloca %"solana_program::pubkey::Pubkey"**, align 8
  %__self_0_4.dbg.spill = alloca i64**, align 8
  %__self_0_3.dbg.spill = alloca i64**, align 8
  %__self_0_2.dbg.spill = alloca i8*, align 8
  %__self_0_1.dbg.spill = alloca i8*, align 8
  %__self_0_0.dbg.spill = alloca %"solana_program::pubkey::Pubkey"**, align 8
  %self.dbg.spill = alloca %"solana_program::account_info::AccountInfo"*, align 8
  store %"solana_program::account_info::AccountInfo"* %self, %"solana_program::account_info::AccountInfo"** %self.dbg.spill, align 8
  call void @llvm.dbg.declare(metadata %"solana_program::account_info::AccountInfo"** %self.dbg.spill, metadata !1113, metadata !DIExpression()), !dbg !1124
  %__self_0_0 = bitcast %"solana_program::account_info::AccountInfo"* %self to %"solana_program::pubkey::Pubkey"**, !dbg !1125
  store %"solana_program::pubkey::Pubkey"** %__self_0_0, %"solana_program::pubkey::Pubkey"*** %__self_0_0.dbg.spill, align 8, !dbg !1125
  call void @llvm.dbg.declare(metadata %"solana_program::pubkey::Pubkey"*** %__self_0_0.dbg.spill, metadata !1114, metadata !DIExpression()), !dbg !1126
  %__self_0_1 = getelementptr inbounds %"solana_program::account_info::AccountInfo", %"solana_program::account_info::AccountInfo"* %self, i32 0, i32 5, !dbg !1127
  store i8* %__self_0_1, i8** %__self_0_1.dbg.spill, align 8, !dbg !1127
  call void @llvm.dbg.declare(metadata i8** %__self_0_1.dbg.spill, metadata !1117, metadata !DIExpression()), !dbg !1128
  %__self_0_2 = getelementptr inbounds %"solana_program::account_info::AccountInfo", %"solana_program::account_info::AccountInfo"* %self, i32 0, i32 6, !dbg !1129
  store i8* %__self_0_2, i8** %__self_0_2.dbg.spill, align 8, !dbg !1129
  call void @llvm.dbg.declare(metadata i8** %__self_0_2.dbg.spill, metadata !1118, metadata !DIExpression()), !dbg !1130
  %__self_0_3 = getelementptr inbounds %"solana_program::account_info::AccountInfo", %"solana_program::account_info::AccountInfo"* %self, i32 0, i32 1, !dbg !1131
  store i64** %__self_0_3, i64*** %__self_0_3.dbg.spill, align 8, !dbg !1131
  call void @llvm.dbg.declare(metadata i64*** %__self_0_3.dbg.spill, metadata !1119, metadata !DIExpression()), !dbg !1132
  %__self_0_4 = getelementptr inbounds %"solana_program::account_info::AccountInfo", %"solana_program::account_info::AccountInfo"* %self, i32 0, i32 2, !dbg !1133
  store i64** %__self_0_4, i64*** %__self_0_4.dbg.spill, align 8, !dbg !1133
  call void @llvm.dbg.declare(metadata i64*** %__self_0_4.dbg.spill, metadata !1120, metadata !DIExpression()), !dbg !1134
  %__self_0_5 = getelementptr inbounds %"solana_program::account_info::AccountInfo", %"solana_program::account_info::AccountInfo"* %self, i32 0, i32 3, !dbg !1135
  store %"solana_program::pubkey::Pubkey"** %__self_0_5, %"solana_program::pubkey::Pubkey"*** %__self_0_5.dbg.spill, align 8, !dbg !1135
  call void @llvm.dbg.declare(metadata %"solana_program::pubkey::Pubkey"*** %__self_0_5.dbg.spill, metadata !1121, metadata !DIExpression()), !dbg !1136
  %__self_0_6 = getelementptr inbounds %"solana_program::account_info::AccountInfo", %"solana_program::account_info::AccountInfo"* %self, i32 0, i32 7, !dbg !1137
  store i8* %__self_0_6, i8** %__self_0_6.dbg.spill, align 8, !dbg !1137
  call void @llvm.dbg.declare(metadata i8** %__self_0_6.dbg.spill, metadata !1122, metadata !DIExpression()), !dbg !1138
  %__self_0_7 = getelementptr inbounds %"solana_program::account_info::AccountInfo", %"solana_program::account_info::AccountInfo"* %self, i32 0, i32 4, !dbg !1139
  store i64* %__self_0_7, i64** %__self_0_7.dbg.spill, align 8, !dbg !1139
  call void @llvm.dbg.declare(metadata i64** %__self_0_7.dbg.spill, metadata !1123, metadata !DIExpression()), !dbg !1140
; call core::clone::impls::<impl core::clone::Clone for &T>::clone
  %_11 = call align 1 dereferenceable(32) %"solana_program::pubkey::Pubkey"* @"_ZN4core5clone5impls54_$LT$impl$u20$core..clone..Clone$u20$for$u20$$RF$T$GT$5clone17h0a5b1dd28fe9dd60E"(%"solana_program::pubkey::Pubkey"** align 8 dereferenceable(8) %__self_0_0), !dbg !1126
  br label %bb1, !dbg !1126

bb1:                                              ; preds = %start
; call core::clone::impls::<impl core::clone::Clone for bool>::clone
  %_14 = call zeroext i1 @"_ZN4core5clone5impls53_$LT$impl$u20$core..clone..Clone$u20$for$u20$bool$GT$5clone17hc26a1d181c9115dfE"(i8* align 1 dereferenceable(1) %__self_0_1), !dbg !1128
  br label %bb2, !dbg !1128

bb2:                                              ; preds = %bb1
; call core::clone::impls::<impl core::clone::Clone for bool>::clone
  %_17 = call zeroext i1 @"_ZN4core5clone5impls53_$LT$impl$u20$core..clone..Clone$u20$for$u20$bool$GT$5clone17hc26a1d181c9115dfE"(i8* align 1 dereferenceable(1) %__self_0_2), !dbg !1130
  br label %bb3, !dbg !1130

bb3:                                              ; preds = %bb2
; call <alloc::rc::Rc<T> as core::clone::Clone>::clone
  %_20 = call nonnull i64* @"_ZN61_$LT$alloc..rc..Rc$LT$T$GT$$u20$as$u20$core..clone..Clone$GT$5clone17h132dc2f6b08a34c7E"(i64** align 8 dereferenceable(8) %__self_0_3), !dbg !1132
  br label %bb4, !dbg !1132

bb4:                                              ; preds = %bb3
; call <alloc::rc::Rc<T> as core::clone::Clone>::clone
  %_23 = call nonnull i64* @"_ZN61_$LT$alloc..rc..Rc$LT$T$GT$$u20$as$u20$core..clone..Clone$GT$5clone17hcf1e438353667e7dE"(i64** align 8 dereferenceable(8) %__self_0_4), !dbg !1134
  br label %bb5, !dbg !1134

bb5:                                              ; preds = %bb4
; call core::clone::impls::<impl core::clone::Clone for &T>::clone
  %_27 = call align 1 dereferenceable(32) %"solana_program::pubkey::Pubkey"* @"_ZN4core5clone5impls54_$LT$impl$u20$core..clone..Clone$u20$for$u20$$RF$T$GT$5clone17h0a5b1dd28fe9dd60E"(%"solana_program::pubkey::Pubkey"** align 8 dereferenceable(8) %__self_0_5), !dbg !1136
  br label %bb6, !dbg !1136

bb6:                                              ; preds = %bb5
; call core::clone::impls::<impl core::clone::Clone for bool>::clone
  %_30 = call zeroext i1 @"_ZN4core5clone5impls53_$LT$impl$u20$core..clone..Clone$u20$for$u20$bool$GT$5clone17hc26a1d181c9115dfE"(i8* align 1 dereferenceable(1) %__self_0_6), !dbg !1138
  br label %bb7, !dbg !1138

bb7:                                              ; preds = %bb6
; call core::clone::impls::<impl core::clone::Clone for u64>::clone
  %_33 = call i64 @"_ZN4core5clone5impls52_$LT$impl$u20$core..clone..Clone$u20$for$u20$u64$GT$5clone17h84dda90b874ac1b3E"(i64* align 8 dereferenceable(8) %__self_0_7), !dbg !1140
  br label %bb8, !dbg !1140

bb8:                                              ; preds = %bb7
  %1 = bitcast %"solana_program::account_info::AccountInfo"* %0 to %"solana_program::pubkey::Pubkey"**, !dbg !1141
  store %"solana_program::pubkey::Pubkey"* %_11, %"solana_program::pubkey::Pubkey"** %1, align 8, !dbg !1141
  %2 = getelementptr inbounds %"solana_program::account_info::AccountInfo", %"solana_program::account_info::AccountInfo"* %0, i32 0, i32 5, !dbg !1141
  %3 = zext i1 %_14 to i8, !dbg !1141
  store i8 %3, i8* %2, align 8, !dbg !1141
  %4 = getelementptr inbounds %"solana_program::account_info::AccountInfo", %"solana_program::account_info::AccountInfo"* %0, i32 0, i32 6, !dbg !1141
  %5 = zext i1 %_17 to i8, !dbg !1141
  store i8 %5, i8* %4, align 1, !dbg !1141
  %6 = getelementptr inbounds %"solana_program::account_info::AccountInfo", %"solana_program::account_info::AccountInfo"* %0, i32 0, i32 1, !dbg !1141
  store i64* %_20, i64** %6, align 8, !dbg !1141
  %7 = getelementptr inbounds %"solana_program::account_info::AccountInfo", %"solana_program::account_info::AccountInfo"* %0, i32 0, i32 2, !dbg !1141
  store i64* %_23, i64** %7, align 8, !dbg !1141
  %8 = getelementptr inbounds %"solana_program::account_info::AccountInfo", %"solana_program::account_info::AccountInfo"* %0, i32 0, i32 3, !dbg !1141
  store %"solana_program::pubkey::Pubkey"* %_27, %"solana_program::pubkey::Pubkey"** %8, align 8, !dbg !1141
  %9 = getelementptr inbounds %"solana_program::account_info::AccountInfo", %"solana_program::account_info::AccountInfo"* %0, i32 0, i32 7, !dbg !1141
  %10 = zext i1 %_30 to i8, !dbg !1141
  store i8 %10, i8* %9, align 2, !dbg !1141
  %11 = getelementptr inbounds %"solana_program::account_info::AccountInfo", %"solana_program::account_info::AccountInfo"* %0, i32 0, i32 4, !dbg !1141
  store i64 %_33, i64* %11, align 8, !dbg !1141
  ret void, !dbg !1142
}

; spl_associated_token_account::processor::process_instruction
; Function Attrs: nounwind
define void @_ZN28spl_associated_token_account9processor19process_instruction17h5097c04ad254c7e4E(%"std::result::Result<(), solana_program::program_error::ProgramError>"* noalias nocapture sret(%"std::result::Result<(), solana_program::program_error::ProgramError>") dereferenceable(32) %0, %"solana_program::pubkey::Pubkey"* align 1 dereferenceable(32) %program_id, [0 x %"solana_program::account_info::AccountInfo"]* nonnull align 8 %accounts.0, i64 %accounts.1, [0 x i8]* nonnull align 1 %_input.0, i64 %_input.1) unnamed_addr #1 !dbg !1143 {
start:
  %1 = alloca i64, align 8
  %rhs.dbg.spill.i = alloca i64, align 8
  %self.dbg.spill.i = alloca i64, align 8
  %args.dbg.spill = alloca [1 x { i8*, i64* }]*, align 8
  %arg0.dbg.spill = alloca i64*, align 8
  %rent.dbg.spill = alloca %"solana_program::rent::Rent"*, align 8
  %associated_token_account_signer_seeds.dbg.spill = alloca { [0 x { [0 x i8]*, i64 }]*, i64 }, align 8
  %bump_seed.dbg.spill = alloca i8, align 1
  %rent_sysvar_info.dbg.spill = alloca %"solana_program::account_info::AccountInfo"*, align 8
  %val.dbg.spill28 = alloca %"solana_program::account_info::AccountInfo"*, align 8
  %spl_token_program_id.dbg.spill = alloca %"solana_program::pubkey::Pubkey"*, align 8
  %spl_token_program_info.dbg.spill = alloca %"solana_program::account_info::AccountInfo"*, align 8
  %val.dbg.spill26 = alloca %"solana_program::account_info::AccountInfo"*, align 8
  %system_program_info.dbg.spill = alloca %"solana_program::account_info::AccountInfo"*, align 8
  %val.dbg.spill24 = alloca %"solana_program::account_info::AccountInfo"*, align 8
  %spl_token_mint_info.dbg.spill = alloca %"solana_program::account_info::AccountInfo"*, align 8
  %val.dbg.spill22 = alloca %"solana_program::account_info::AccountInfo"*, align 8
  %wallet_account_info.dbg.spill = alloca %"solana_program::account_info::AccountInfo"*, align 8
  %val.dbg.spill20 = alloca %"solana_program::account_info::AccountInfo"*, align 8
  %associated_token_account_info.dbg.spill = alloca %"solana_program::account_info::AccountInfo"*, align 8
  %val.dbg.spill18 = alloca %"solana_program::account_info::AccountInfo"*, align 8
  %funder_info.dbg.spill = alloca %"solana_program::account_info::AccountInfo"*, align 8
  %val.dbg.spill16 = alloca %"solana_program::account_info::AccountInfo"*, align 8
  %account_info_iter.dbg.spill = alloca { i64*, i64* }*, align 8
  %val.dbg.spill12 = alloca {}, align 1
  %val.dbg.spill10 = alloca {}, align 1
  %val.dbg.spill = alloca {}, align 1
  %_input.dbg.spill = alloca { [0 x i8]*, i64 }, align 8
  %accounts.dbg.spill = alloca { [0 x %"solana_program::account_info::AccountInfo"]*, i64 }, align 8
  %program_id.dbg.spill = alloca %"solana_program::pubkey::Pubkey"*, align 8
  %_244 = alloca %"solana_program::account_info::AccountInfo", align 8
  %_242 = alloca %"solana_program::account_info::AccountInfo", align 8
  %_240 = alloca %"solana_program::account_info::AccountInfo", align 8
  %_238 = alloca %"solana_program::account_info::AccountInfo", align 8
  %_236 = alloca %"solana_program::account_info::AccountInfo", align 8
  %_235 = alloca [5 x %"solana_program::account_info::AccountInfo"], align 8
  %val14 = alloca %"solana_program::instruction::Instruction", align 8
  %_230 = alloca %"std::result::Result<std::convert::Infallible, solana_program::program_error::ProgramError>::Err", align 8
  %residual13 = alloca %"std::result::Result<std::convert::Infallible, solana_program::program_error::ProgramError>::Err", align 8
  %_223 = alloca %"std::result::Result<solana_program::instruction::Instruction, solana_program::program_error::ProgramError>", align 8
  %_222 = alloca %"std::ops::ControlFlow<std::result::Result<std::convert::Infallible, solana_program::program_error::ProgramError>, solana_program::instruction::Instruction>", align 8
  %_221 = alloca %"solana_program::instruction::Instruction", align 8
  %_214 = alloca %"std::result::Result<std::convert::Infallible, solana_program::program_error::ProgramError>::Err", align 8
  %residual11 = alloca %"std::result::Result<std::convert::Infallible, solana_program::program_error::ProgramError>::Err", align 8
  %_210 = alloca [1 x { [0 x { [0 x i8]*, i64 }]*, i64 }], align 8
  %_205 = alloca %"solana_program::account_info::AccountInfo", align 8
  %_203 = alloca %"solana_program::account_info::AccountInfo", align 8
  %_202 = alloca [2 x %"solana_program::account_info::AccountInfo"], align 8
  %_196 = alloca %"solana_program::instruction::Instruction", align 8
  %_193 = alloca %"std::result::Result<(), solana_program::program_error::ProgramError>", align 8
  %_192 = alloca %"std::ops::ControlFlow<std::result::Result<std::convert::Infallible, solana_program::program_error::ProgramError>>", align 8
  %_187 = alloca %"std::result::Result<std::convert::Infallible, solana_program::program_error::ProgramError>::Err", align 8
  %residual9 = alloca %"std::result::Result<std::convert::Infallible, solana_program::program_error::ProgramError>::Err", align 8
  %_183 = alloca [1 x { [0 x { [0 x i8]*, i64 }]*, i64 }], align 8
  %_178 = alloca %"solana_program::account_info::AccountInfo", align 8
  %_176 = alloca %"solana_program::account_info::AccountInfo", align 8
  %_175 = alloca [2 x %"solana_program::account_info::AccountInfo"], align 8
  %_169 = alloca %"solana_program::instruction::Instruction", align 8
  %_166 = alloca %"std::result::Result<(), solana_program::program_error::ProgramError>", align 8
  %_165 = alloca %"std::ops::ControlFlow<std::result::Result<std::convert::Infallible, solana_program::program_error::ProgramError>>", align 8
  %_160 = alloca %"std::result::Result<std::convert::Infallible, solana_program::program_error::ProgramError>::Err", align 8
  %residual8 = alloca %"std::result::Result<std::convert::Infallible, solana_program::program_error::ProgramError>::Err", align 8
  %_156 = alloca %"solana_program::account_info::AccountInfo", align 8
  %_154 = alloca %"solana_program::account_info::AccountInfo", align 8
  %_152 = alloca %"solana_program::account_info::AccountInfo", align 8
  %_151 = alloca [3 x %"solana_program::account_info::AccountInfo"], align 8
  %_144 = alloca %"solana_program::instruction::Instruction", align 8
  %_141 = alloca %"std::result::Result<(), solana_program::program_error::ProgramError>", align 8
  %_140 = alloca %"std::ops::ControlFlow<std::result::Result<std::convert::Infallible, solana_program::program_error::ProgramError>>", align 8
  %_128 = alloca i64*, align 8
  %_127 = alloca [1 x { i8*, i64* }], align 8
  %_126 = alloca %"std::fmt::Arguments", align 8
  %res = alloca %"std::string::String", align 8
  %_124 = alloca %"std::string::String", align 8
  %required_lamports = alloca i64, align 8
  %val = alloca %"solana_program::rent::Rent", align 8
  %_109 = alloca %"std::result::Result<std::convert::Infallible, solana_program::program_error::ProgramError>::Err", align 8
  %residual7 = alloca %"std::result::Result<std::convert::Infallible, solana_program::program_error::ProgramError>::Err", align 8
  %_105 = alloca %"std::result::Result<solana_program::rent::Rent, solana_program::program_error::ProgramError>", align 8
  %_104 = alloca %"std::ops::ControlFlow<std::result::Result<std::convert::Infallible, solana_program::program_error::ProgramError>, solana_program::rent::Rent>", align 8
  %_103 = alloca %"solana_program::rent::Rent", align 8
  %_100 = alloca [1 x i8], align 1
  %_96 = alloca %"solana_program::pubkey::Pubkey", align 1
  %_95 = alloca [32 x i8], align 1
  %_91 = alloca %"solana_program::pubkey::Pubkey", align 1
  %_90 = alloca [32 x i8], align 1
  %_86 = alloca %"solana_program::pubkey::Pubkey", align 1
  %_85 = alloca [32 x i8], align 1
  %_81 = alloca [4 x { [0 x i8]*, i64 }], align 8
  %_77 = alloca %"solana_program::program_error::ProgramError", align 8
  %_66 = alloca { %"solana_program::pubkey::Pubkey", i8 }, align 1
  %associated_token_address = alloca %"solana_program::pubkey::Pubkey", align 1
  %_62 = alloca %"std::result::Result<std::convert::Infallible, solana_program::program_error::ProgramError>::Err", align 8
  %residual6 = alloca %"std::result::Result<std::convert::Infallible, solana_program::program_error::ProgramError>::Err", align 8
  %_58 = alloca %"std::result::Result<&solana_program::account_info::AccountInfo, solana_program::program_error::ProgramError>", align 8
  %_57 = alloca %"std::ops::ControlFlow<std::result::Result<std::convert::Infallible, solana_program::program_error::ProgramError>, &solana_program::account_info::AccountInfo>", align 8
  %_53 = alloca %"std::result::Result<std::convert::Infallible, solana_program::program_error::ProgramError>::Err", align 8
  %residual5 = alloca %"std::result::Result<std::convert::Infallible, solana_program::program_error::ProgramError>::Err", align 8
  %_49 = alloca %"std::result::Result<&solana_program::account_info::AccountInfo, solana_program::program_error::ProgramError>", align 8
  %_48 = alloca %"std::ops::ControlFlow<std::result::Result<std::convert::Infallible, solana_program::program_error::ProgramError>, &solana_program::account_info::AccountInfo>", align 8
  %_45 = alloca %"std::result::Result<std::convert::Infallible, solana_program::program_error::ProgramError>::Err", align 8
  %residual4 = alloca %"std::result::Result<std::convert::Infallible, solana_program::program_error::ProgramError>::Err", align 8
  %_41 = alloca %"std::result::Result<&solana_program::account_info::AccountInfo, solana_program::program_error::ProgramError>", align 8
  %_40 = alloca %"std::ops::ControlFlow<std::result::Result<std::convert::Infallible, solana_program::program_error::ProgramError>, &solana_program::account_info::AccountInfo>", align 8
  %_37 = alloca %"std::result::Result<std::convert::Infallible, solana_program::program_error::ProgramError>::Err", align 8
  %residual3 = alloca %"std::result::Result<std::convert::Infallible, solana_program::program_error::ProgramError>::Err", align 8
  %_33 = alloca %"std::result::Result<&solana_program::account_info::AccountInfo, solana_program::program_error::ProgramError>", align 8
  %_32 = alloca %"std::ops::ControlFlow<std::result::Result<std::convert::Infallible, solana_program::program_error::ProgramError>, &solana_program::account_info::AccountInfo>", align 8
  %_29 = alloca %"std::result::Result<std::convert::Infallible, solana_program::program_error::ProgramError>::Err", align 8
  %residual2 = alloca %"std::result::Result<std::convert::Infallible, solana_program::program_error::ProgramError>::Err", align 8
  %_25 = alloca %"std::result::Result<&solana_program::account_info::AccountInfo, solana_program::program_error::ProgramError>", align 8
  %_24 = alloca %"std::ops::ControlFlow<std::result::Result<std::convert::Infallible, solana_program::program_error::ProgramError>, &solana_program::account_info::AccountInfo>", align 8
  %_21 = alloca %"std::result::Result<std::convert::Infallible, solana_program::program_error::ProgramError>::Err", align 8
  %residual1 = alloca %"std::result::Result<std::convert::Infallible, solana_program::program_error::ProgramError>::Err", align 8
  %_17 = alloca %"std::result::Result<&solana_program::account_info::AccountInfo, solana_program::program_error::ProgramError>", align 8
  %_16 = alloca %"std::ops::ControlFlow<std::result::Result<std::convert::Infallible, solana_program::program_error::ProgramError>, &solana_program::account_info::AccountInfo>", align 8
  %_13 = alloca %"std::result::Result<std::convert::Infallible, solana_program::program_error::ProgramError>::Err", align 8
  %residual = alloca %"std::result::Result<std::convert::Infallible, solana_program::program_error::ProgramError>::Err", align 8
  %_9 = alloca %"std::result::Result<&solana_program::account_info::AccountInfo, solana_program::program_error::ProgramError>", align 8
  %_8 = alloca %"std::ops::ControlFlow<std::result::Result<std::convert::Infallible, solana_program::program_error::ProgramError>, &solana_program::account_info::AccountInfo>", align 8
  %_5 = alloca { i64*, i64* }, align 8
  store %"solana_program::pubkey::Pubkey"* %program_id, %"solana_program::pubkey::Pubkey"** %program_id.dbg.spill, align 8
  call void @llvm.dbg.declare(metadata %"solana_program::pubkey::Pubkey"** %program_id.dbg.spill, metadata !1170, metadata !DIExpression()), !dbg !1289
  %2 = getelementptr inbounds { [0 x %"solana_program::account_info::AccountInfo"]*, i64 }, { [0 x %"solana_program::account_info::AccountInfo"]*, i64 }* %accounts.dbg.spill, i32 0, i32 0
  store [0 x %"solana_program::account_info::AccountInfo"]* %accounts.0, [0 x %"solana_program::account_info::AccountInfo"]** %2, align 8
  %3 = getelementptr inbounds { [0 x %"solana_program::account_info::AccountInfo"]*, i64 }, { [0 x %"solana_program::account_info::AccountInfo"]*, i64 }* %accounts.dbg.spill, i32 0, i32 1
  store i64 %accounts.1, i64* %3, align 8
  call void @llvm.dbg.declare(metadata { [0 x %"solana_program::account_info::AccountInfo"]*, i64 }* %accounts.dbg.spill, metadata !1171, metadata !DIExpression()), !dbg !1290
  %4 = getelementptr inbounds { [0 x i8]*, i64 }, { [0 x i8]*, i64 }* %_input.dbg.spill, i32 0, i32 0
  store [0 x i8]* %_input.0, [0 x i8]** %4, align 8
  %5 = getelementptr inbounds { [0 x i8]*, i64 }, { [0 x i8]*, i64 }* %_input.dbg.spill, i32 0, i32 1
  store i64 %_input.1, i64* %5, align 8
  call void @llvm.dbg.declare(metadata { [0 x i8]*, i64 }* %_input.dbg.spill, metadata !1172, metadata !DIExpression()), !dbg !1291
  call void @llvm.dbg.declare(metadata %"std::result::Result<std::convert::Infallible, solana_program::program_error::ProgramError>::Err"* %residual, metadata !1191, metadata !DIExpression()), !dbg !1292
  call void @llvm.dbg.declare(metadata %"std::result::Result<std::convert::Infallible, solana_program::program_error::ProgramError>::Err"* %residual1, metadata !1197, metadata !DIExpression()), !dbg !1293
  call void @llvm.dbg.declare(metadata %"std::result::Result<std::convert::Infallible, solana_program::program_error::ProgramError>::Err"* %residual2, metadata !1203, metadata !DIExpression()), !dbg !1294
  call void @llvm.dbg.declare(metadata %"std::result::Result<std::convert::Infallible, solana_program::program_error::ProgramError>::Err"* %residual3, metadata !1209, metadata !DIExpression()), !dbg !1295
  call void @llvm.dbg.declare(metadata %"std::result::Result<std::convert::Infallible, solana_program::program_error::ProgramError>::Err"* %residual4, metadata !1215, metadata !DIExpression()), !dbg !1296
  call void @llvm.dbg.declare(metadata %"std::result::Result<std::convert::Infallible, solana_program::program_error::ProgramError>::Err"* %residual5, metadata !1221, metadata !DIExpression()), !dbg !1297
  call void @llvm.dbg.declare(metadata %"std::result::Result<std::convert::Infallible, solana_program::program_error::ProgramError>::Err"* %residual6, metadata !1229, metadata !DIExpression()), !dbg !1298
  call void @llvm.dbg.declare(metadata %"solana_program::pubkey::Pubkey"* %associated_token_address, metadata !1233, metadata !DIExpression()), !dbg !1299
  call void @llvm.dbg.declare(metadata %"std::result::Result<std::convert::Infallible, solana_program::program_error::ProgramError>::Err"* %residual7, metadata !1253, metadata !DIExpression()), !dbg !1300
  call void @llvm.dbg.declare(metadata %"solana_program::rent::Rent"* %val, metadata !1255, metadata !DIExpression()), !dbg !1301
  call void @llvm.dbg.declare(metadata i64* %required_lamports, metadata !1257, metadata !DIExpression()), !dbg !1302
  call void @llvm.dbg.declare(metadata %"std::string::String"* %res, metadata !1259, metadata !DIExpression()), !dbg !1303
  call void @llvm.dbg.declare(metadata %"std::result::Result<std::convert::Infallible, solana_program::program_error::ProgramError>::Err"* %residual8, metadata !1273, metadata !DIExpression()), !dbg !1304
  call void @llvm.dbg.declare(metadata {}* %val.dbg.spill, metadata !1275, metadata !DIExpression()), !dbg !1305
  call void @llvm.dbg.declare(metadata %"std::result::Result<std::convert::Infallible, solana_program::program_error::ProgramError>::Err"* %residual9, metadata !1277, metadata !DIExpression()), !dbg !1306
  call void @llvm.dbg.declare(metadata {}* %val.dbg.spill10, metadata !1279, metadata !DIExpression()), !dbg !1307
  call void @llvm.dbg.declare(metadata %"std::result::Result<std::convert::Infallible, solana_program::program_error::ProgramError>::Err"* %residual11, metadata !1281, metadata !DIExpression()), !dbg !1308
  call void @llvm.dbg.declare(metadata {}* %val.dbg.spill12, metadata !1283, metadata !DIExpression()), !dbg !1309
  call void @llvm.dbg.declare(metadata %"std::result::Result<std::convert::Infallible, solana_program::program_error::ProgramError>::Err"* %residual13, metadata !1285, metadata !DIExpression()), !dbg !1310
  call void @llvm.dbg.declare(metadata %"solana_program::instruction::Instruction"* %val14, metadata !1287, metadata !DIExpression()), !dbg !1311
; call core::slice::<impl [T]>::iter
  %6 = call { i64*, i64* } @"_ZN4core5slice29_$LT$impl$u20$$u5b$T$u5d$$GT$4iter17h537a6715a3110a8dE"([0 x %"solana_program::account_info::AccountInfo"]* nonnull align 8 %accounts.0, i64 %accounts.1), !dbg !1312
  store { i64*, i64* } %6, { i64*, i64* }* %_5, align 8, !dbg !1312
  br label %bb1, !dbg !1312

bb1:                                              ; preds = %start
  store { i64*, i64* }* %_5, { i64*, i64* }** %account_info_iter.dbg.spill, align 8, !dbg !1313
  call void @llvm.dbg.declare(metadata { i64*, i64* }** %account_info_iter.dbg.spill, metadata !1173, metadata !DIExpression()), !dbg !1314
; call solana_program::account_info::next_account_info
  call void @_ZN14solana_program12account_info17next_account_info17hc7c88bfc33d50f00E(%"std::result::Result<&solana_program::account_info::AccountInfo, solana_program::program_error::ProgramError>"* noalias nocapture sret(%"std::result::Result<&solana_program::account_info::AccountInfo, solana_program::program_error::ProgramError>") dereferenceable(40) %_9, { i64*, i64* }* align 8 dereferenceable(16) %_5), !dbg !1315
  br label %bb2, !dbg !1315

bb2:                                              ; preds = %bb1
; call <core::result::Result<T,E> as core::ops::try_trait::Try>::branch
  call void @"_ZN79_$LT$core..result..Result$LT$T$C$E$GT$$u20$as$u20$core..ops..try_trait..Try$GT$6branch17h374ddd8577caa0a0E"(%"std::ops::ControlFlow<std::result::Result<std::convert::Infallible, solana_program::program_error::ProgramError>, &solana_program::account_info::AccountInfo>"* noalias nocapture sret(%"std::ops::ControlFlow<std::result::Result<std::convert::Infallible, solana_program::program_error::ProgramError>, &solana_program::account_info::AccountInfo>") dereferenceable(40) %_8, %"std::result::Result<&solana_program::account_info::AccountInfo, solana_program::program_error::ProgramError>"* noalias nocapture dereferenceable(40) %_9), !dbg !1315
  br label %bb3, !dbg !1315

bb3:                                              ; preds = %bb2
  %7 = bitcast %"std::ops::ControlFlow<std::result::Result<std::convert::Infallible, solana_program::program_error::ProgramError>, &solana_program::account_info::AccountInfo>"* %_8 to i64*, !dbg !1315
  %_11 = load i64, i64* %7, align 8, !dbg !1315, !range !1094
  switch i64 %_11, label %bb5 [
    i64 0, label %bb4
    i64 1, label %bb6
  ], !dbg !1315

bb5:                                              ; preds = %bb3
  unreachable, !dbg !1315

bb4:                                              ; preds = %bb3
  %8 = bitcast %"std::ops::ControlFlow<std::result::Result<std::convert::Infallible, solana_program::program_error::ProgramError>, &solana_program::account_info::AccountInfo>"* %_8 to %"std::ops::ControlFlow<std::result::Result<std::convert::Infallible, solana_program::program_error::ProgramError>, &solana_program::account_info::AccountInfo>::Continue"*, !dbg !1315
  %9 = getelementptr inbounds %"std::ops::ControlFlow<std::result::Result<std::convert::Infallible, solana_program::program_error::ProgramError>, &solana_program::account_info::AccountInfo>::Continue", %"std::ops::ControlFlow<std::result::Result<std::convert::Infallible, solana_program::program_error::ProgramError>, &solana_program::account_info::AccountInfo>::Continue"* %8, i32 0, i32 1, !dbg !1315
  %val15 = load %"solana_program::account_info::AccountInfo"*, %"solana_program::account_info::AccountInfo"** %9, align 8, !dbg !1315, !nonnull !14
  store %"solana_program::account_info::AccountInfo"* %val15, %"solana_program::account_info::AccountInfo"** %val.dbg.spill16, align 8, !dbg !1315
  call void @llvm.dbg.declare(metadata %"solana_program::account_info::AccountInfo"** %val.dbg.spill16, metadata !1193, metadata !DIExpression()), !dbg !1316
  store %"solana_program::account_info::AccountInfo"* %val15, %"solana_program::account_info::AccountInfo"** %funder_info.dbg.spill, align 8, !dbg !1316
  call void @llvm.dbg.declare(metadata %"solana_program::account_info::AccountInfo"** %funder_info.dbg.spill, metadata !1189, metadata !DIExpression()), !dbg !1317
; call solana_program::account_info::next_account_info
  call void @_ZN14solana_program12account_info17next_account_info17hc7c88bfc33d50f00E(%"std::result::Result<&solana_program::account_info::AccountInfo, solana_program::program_error::ProgramError>"* noalias nocapture sret(%"std::result::Result<&solana_program::account_info::AccountInfo, solana_program::program_error::ProgramError>") dereferenceable(40) %_17, { i64*, i64* }* align 8 dereferenceable(16) %_5), !dbg !1318
  br label %bb8, !dbg !1318

bb6:                                              ; preds = %bb3
  %10 = bitcast %"std::ops::ControlFlow<std::result::Result<std::convert::Infallible, solana_program::program_error::ProgramError>, &solana_program::account_info::AccountInfo>"* %_8 to %"std::ops::ControlFlow<std::result::Result<std::convert::Infallible, solana_program::program_error::ProgramError>, &solana_program::account_info::AccountInfo>::Break"*, !dbg !1319
  %11 = getelementptr inbounds %"std::ops::ControlFlow<std::result::Result<std::convert::Infallible, solana_program::program_error::ProgramError>, &solana_program::account_info::AccountInfo>::Break", %"std::ops::ControlFlow<std::result::Result<std::convert::Infallible, solana_program::program_error::ProgramError>, &solana_program::account_info::AccountInfo>::Break"* %10, i32 0, i32 1, !dbg !1319
  %12 = bitcast %"std::result::Result<std::convert::Infallible, solana_program::program_error::ProgramError>::Err"* %residual to i8*, !dbg !1319
  %13 = bitcast %"std::result::Result<std::convert::Infallible, solana_program::program_error::ProgramError>::Err"* %11 to i8*, !dbg !1319
  call void @llvm.memcpy.p0i8.p0i8.i64(i8* align 8 %12, i8* align 8 %13, i64 32, i1 false), !dbg !1319
  %14 = bitcast %"std::result::Result<std::convert::Infallible, solana_program::program_error::ProgramError>::Err"* %_13 to i8*, !dbg !1292
  %15 = bitcast %"std::result::Result<std::convert::Infallible, solana_program::program_error::ProgramError>::Err"* %residual to i8*, !dbg !1292
  call void @llvm.memcpy.p0i8.p0i8.i64(i8* align 8 %14, i8* align 8 %15, i64 32, i1 false), !dbg !1292
; call <core::result::Result<T,F> as core::ops::try_trait::FromResidual<core::result::Result<core::convert::Infallible,E>>>::from_residual
  call void @"_ZN153_$LT$core..result..Result$LT$T$C$F$GT$$u20$as$u20$core..ops..try_trait..FromResidual$LT$core..result..Result$LT$core..convert..Infallible$C$E$GT$$GT$$GT$13from_residual17h8798c99f7e99c356E"(%"std::result::Result<(), solana_program::program_error::ProgramError>"* noalias nocapture sret(%"std::result::Result<(), solana_program::program_error::ProgramError>") dereferenceable(32) %0, %"std::result::Result<std::convert::Infallible, solana_program::program_error::ProgramError>::Err"* noalias nocapture dereferenceable(32) %_13), !dbg !1320
  br label %bb7, !dbg !1320

bb7:                                              ; preds = %bb6
  br label %bb122, !dbg !1321

bb122:                                            ; preds = %bb123, %bb111, %bb119, %bb120, %bb121, %bb57, %bb47, %bb43, %bb37, %bb31, %bb25, %bb19, %bb13, %bb7
  ret void, !dbg !1323

bb8:                                              ; preds = %bb4
; call <core::result::Result<T,E> as core::ops::try_trait::Try>::branch
  call void @"_ZN79_$LT$core..result..Result$LT$T$C$E$GT$$u20$as$u20$core..ops..try_trait..Try$GT$6branch17h374ddd8577caa0a0E"(%"std::ops::ControlFlow<std::result::Result<std::convert::Infallible, solana_program::program_error::ProgramError>, &solana_program::account_info::AccountInfo>"* noalias nocapture sret(%"std::ops::ControlFlow<std::result::Result<std::convert::Infallible, solana_program::program_error::ProgramError>, &solana_program::account_info::AccountInfo>") dereferenceable(40) %_16, %"std::result::Result<&solana_program::account_info::AccountInfo, solana_program::program_error::ProgramError>"* noalias nocapture dereferenceable(40) %_17), !dbg !1318
  br label %bb9, !dbg !1318

bb9:                                              ; preds = %bb8
  %16 = bitcast %"std::ops::ControlFlow<std::result::Result<std::convert::Infallible, solana_program::program_error::ProgramError>, &solana_program::account_info::AccountInfo>"* %_16 to i64*, !dbg !1318
  %_19 = load i64, i64* %16, align 8, !dbg !1318, !range !1094
  switch i64 %_19, label %bb11 [
    i64 0, label %bb10
    i64 1, label %bb12
  ], !dbg !1318

bb11:                                             ; preds = %bb9
  unreachable, !dbg !1318

bb10:                                             ; preds = %bb9
  %17 = bitcast %"std::ops::ControlFlow<std::result::Result<std::convert::Infallible, solana_program::program_error::ProgramError>, &solana_program::account_info::AccountInfo>"* %_16 to %"std::ops::ControlFlow<std::result::Result<std::convert::Infallible, solana_program::program_error::ProgramError>, &solana_program::account_info::AccountInfo>::Continue"*, !dbg !1318
  %18 = getelementptr inbounds %"std::ops::ControlFlow<std::result::Result<std::convert::Infallible, solana_program::program_error::ProgramError>, &solana_program::account_info::AccountInfo>::Continue", %"std::ops::ControlFlow<std::result::Result<std::convert::Infallible, solana_program::program_error::ProgramError>, &solana_program::account_info::AccountInfo>::Continue"* %17, i32 0, i32 1, !dbg !1318
  %val17 = load %"solana_program::account_info::AccountInfo"*, %"solana_program::account_info::AccountInfo"** %18, align 8, !dbg !1318, !nonnull !14
  store %"solana_program::account_info::AccountInfo"* %val17, %"solana_program::account_info::AccountInfo"** %val.dbg.spill18, align 8, !dbg !1318
  call void @llvm.dbg.declare(metadata %"solana_program::account_info::AccountInfo"** %val.dbg.spill18, metadata !1199, metadata !DIExpression()), !dbg !1324
  store %"solana_program::account_info::AccountInfo"* %val17, %"solana_program::account_info::AccountInfo"** %associated_token_account_info.dbg.spill, align 8, !dbg !1324
  call void @llvm.dbg.declare(metadata %"solana_program::account_info::AccountInfo"** %associated_token_account_info.dbg.spill, metadata !1195, metadata !DIExpression()), !dbg !1325
; call solana_program::account_info::next_account_info
  call void @_ZN14solana_program12account_info17next_account_info17hc7c88bfc33d50f00E(%"std::result::Result<&solana_program::account_info::AccountInfo, solana_program::program_error::ProgramError>"* noalias nocapture sret(%"std::result::Result<&solana_program::account_info::AccountInfo, solana_program::program_error::ProgramError>") dereferenceable(40) %_25, { i64*, i64* }* align 8 dereferenceable(16) %_5), !dbg !1326
  br label %bb14, !dbg !1326

bb12:                                             ; preds = %bb9
  %19 = bitcast %"std::ops::ControlFlow<std::result::Result<std::convert::Infallible, solana_program::program_error::ProgramError>, &solana_program::account_info::AccountInfo>"* %_16 to %"std::ops::ControlFlow<std::result::Result<std::convert::Infallible, solana_program::program_error::ProgramError>, &solana_program::account_info::AccountInfo>::Break"*, !dbg !1327
  %20 = getelementptr inbounds %"std::ops::ControlFlow<std::result::Result<std::convert::Infallible, solana_program::program_error::ProgramError>, &solana_program::account_info::AccountInfo>::Break", %"std::ops::ControlFlow<std::result::Result<std::convert::Infallible, solana_program::program_error::ProgramError>, &solana_program::account_info::AccountInfo>::Break"* %19, i32 0, i32 1, !dbg !1327
  %21 = bitcast %"std::result::Result<std::convert::Infallible, solana_program::program_error::ProgramError>::Err"* %residual1 to i8*, !dbg !1327
  %22 = bitcast %"std::result::Result<std::convert::Infallible, solana_program::program_error::ProgramError>::Err"* %20 to i8*, !dbg !1327
  call void @llvm.memcpy.p0i8.p0i8.i64(i8* align 8 %21, i8* align 8 %22, i64 32, i1 false), !dbg !1327
  %23 = bitcast %"std::result::Result<std::convert::Infallible, solana_program::program_error::ProgramError>::Err"* %_21 to i8*, !dbg !1293
  %24 = bitcast %"std::result::Result<std::convert::Infallible, solana_program::program_error::ProgramError>::Err"* %residual1 to i8*, !dbg !1293
  call void @llvm.memcpy.p0i8.p0i8.i64(i8* align 8 %23, i8* align 8 %24, i64 32, i1 false), !dbg !1293
; call <core::result::Result<T,F> as core::ops::try_trait::FromResidual<core::result::Result<core::convert::Infallible,E>>>::from_residual
  call void @"_ZN153_$LT$core..result..Result$LT$T$C$F$GT$$u20$as$u20$core..ops..try_trait..FromResidual$LT$core..result..Result$LT$core..convert..Infallible$C$E$GT$$GT$$GT$13from_residual17h8798c99f7e99c356E"(%"std::result::Result<(), solana_program::program_error::ProgramError>"* noalias nocapture sret(%"std::result::Result<(), solana_program::program_error::ProgramError>") dereferenceable(32) %0, %"std::result::Result<std::convert::Infallible, solana_program::program_error::ProgramError>::Err"* noalias nocapture dereferenceable(32) %_21), !dbg !1328
  br label %bb13, !dbg !1328

bb13:                                             ; preds = %bb12
  br label %bb122, !dbg !1329

bb14:                                             ; preds = %bb10
; call <core::result::Result<T,E> as core::ops::try_trait::Try>::branch
  call void @"_ZN79_$LT$core..result..Result$LT$T$C$E$GT$$u20$as$u20$core..ops..try_trait..Try$GT$6branch17h374ddd8577caa0a0E"(%"std::ops::ControlFlow<std::result::Result<std::convert::Infallible, solana_program::program_error::ProgramError>, &solana_program::account_info::AccountInfo>"* noalias nocapture sret(%"std::ops::ControlFlow<std::result::Result<std::convert::Infallible, solana_program::program_error::ProgramError>, &solana_program::account_info::AccountInfo>") dereferenceable(40) %_24, %"std::result::Result<&solana_program::account_info::AccountInfo, solana_program::program_error::ProgramError>"* noalias nocapture dereferenceable(40) %_25), !dbg !1326
  br label %bb15, !dbg !1326

bb15:                                             ; preds = %bb14
  %25 = bitcast %"std::ops::ControlFlow<std::result::Result<std::convert::Infallible, solana_program::program_error::ProgramError>, &solana_program::account_info::AccountInfo>"* %_24 to i64*, !dbg !1326
  %_27 = load i64, i64* %25, align 8, !dbg !1326, !range !1094
  switch i64 %_27, label %bb17 [
    i64 0, label %bb16
    i64 1, label %bb18
  ], !dbg !1326

bb17:                                             ; preds = %bb15
  unreachable, !dbg !1326

bb16:                                             ; preds = %bb15
  %26 = bitcast %"std::ops::ControlFlow<std::result::Result<std::convert::Infallible, solana_program::program_error::ProgramError>, &solana_program::account_info::AccountInfo>"* %_24 to %"std::ops::ControlFlow<std::result::Result<std::convert::Infallible, solana_program::program_error::ProgramError>, &solana_program::account_info::AccountInfo>::Continue"*, !dbg !1326
  %27 = getelementptr inbounds %"std::ops::ControlFlow<std::result::Result<std::convert::Infallible, solana_program::program_error::ProgramError>, &solana_program::account_info::AccountInfo>::Continue", %"std::ops::ControlFlow<std::result::Result<std::convert::Infallible, solana_program::program_error::ProgramError>, &solana_program::account_info::AccountInfo>::Continue"* %26, i32 0, i32 1, !dbg !1326
  %val19 = load %"solana_program::account_info::AccountInfo"*, %"solana_program::account_info::AccountInfo"** %27, align 8, !dbg !1326, !nonnull !14
  store %"solana_program::account_info::AccountInfo"* %val19, %"solana_program::account_info::AccountInfo"** %val.dbg.spill20, align 8, !dbg !1326
  call void @llvm.dbg.declare(metadata %"solana_program::account_info::AccountInfo"** %val.dbg.spill20, metadata !1205, metadata !DIExpression()), !dbg !1331
  store %"solana_program::account_info::AccountInfo"* %val19, %"solana_program::account_info::AccountInfo"** %wallet_account_info.dbg.spill, align 8, !dbg !1331
  call void @llvm.dbg.declare(metadata %"solana_program::account_info::AccountInfo"** %wallet_account_info.dbg.spill, metadata !1201, metadata !DIExpression()), !dbg !1332
; call solana_program::account_info::next_account_info
  call void @_ZN14solana_program12account_info17next_account_info17hc7c88bfc33d50f00E(%"std::result::Result<&solana_program::account_info::AccountInfo, solana_program::program_error::ProgramError>"* noalias nocapture sret(%"std::result::Result<&solana_program::account_info::AccountInfo, solana_program::program_error::ProgramError>") dereferenceable(40) %_33, { i64*, i64* }* align 8 dereferenceable(16) %_5), !dbg !1333
  br label %bb20, !dbg !1333

bb18:                                             ; preds = %bb15
  %28 = bitcast %"std::ops::ControlFlow<std::result::Result<std::convert::Infallible, solana_program::program_error::ProgramError>, &solana_program::account_info::AccountInfo>"* %_24 to %"std::ops::ControlFlow<std::result::Result<std::convert::Infallible, solana_program::program_error::ProgramError>, &solana_program::account_info::AccountInfo>::Break"*, !dbg !1334
  %29 = getelementptr inbounds %"std::ops::ControlFlow<std::result::Result<std::convert::Infallible, solana_program::program_error::ProgramError>, &solana_program::account_info::AccountInfo>::Break", %"std::ops::ControlFlow<std::result::Result<std::convert::Infallible, solana_program::program_error::ProgramError>, &solana_program::account_info::AccountInfo>::Break"* %28, i32 0, i32 1, !dbg !1334
  %30 = bitcast %"std::result::Result<std::convert::Infallible, solana_program::program_error::ProgramError>::Err"* %residual2 to i8*, !dbg !1334
  %31 = bitcast %"std::result::Result<std::convert::Infallible, solana_program::program_error::ProgramError>::Err"* %29 to i8*, !dbg !1334
  call void @llvm.memcpy.p0i8.p0i8.i64(i8* align 8 %30, i8* align 8 %31, i64 32, i1 false), !dbg !1334
  %32 = bitcast %"std::result::Result<std::convert::Infallible, solana_program::program_error::ProgramError>::Err"* %_29 to i8*, !dbg !1294
  %33 = bitcast %"std::result::Result<std::convert::Infallible, solana_program::program_error::ProgramError>::Err"* %residual2 to i8*, !dbg !1294
  call void @llvm.memcpy.p0i8.p0i8.i64(i8* align 8 %32, i8* align 8 %33, i64 32, i1 false), !dbg !1294
; call <core::result::Result<T,F> as core::ops::try_trait::FromResidual<core::result::Result<core::convert::Infallible,E>>>::from_residual
  call void @"_ZN153_$LT$core..result..Result$LT$T$C$F$GT$$u20$as$u20$core..ops..try_trait..FromResidual$LT$core..result..Result$LT$core..convert..Infallible$C$E$GT$$GT$$GT$13from_residual17h8798c99f7e99c356E"(%"std::result::Result<(), solana_program::program_error::ProgramError>"* noalias nocapture sret(%"std::result::Result<(), solana_program::program_error::ProgramError>") dereferenceable(32) %0, %"std::result::Result<std::convert::Infallible, solana_program::program_error::ProgramError>::Err"* noalias nocapture dereferenceable(32) %_29), !dbg !1335
  br label %bb19, !dbg !1335

bb19:                                             ; preds = %bb18
  br label %bb122, !dbg !1336

bb20:                                             ; preds = %bb16
; call <core::result::Result<T,E> as core::ops::try_trait::Try>::branch
  call void @"_ZN79_$LT$core..result..Result$LT$T$C$E$GT$$u20$as$u20$core..ops..try_trait..Try$GT$6branch17h374ddd8577caa0a0E"(%"std::ops::ControlFlow<std::result::Result<std::convert::Infallible, solana_program::program_error::ProgramError>, &solana_program::account_info::AccountInfo>"* noalias nocapture sret(%"std::ops::ControlFlow<std::result::Result<std::convert::Infallible, solana_program::program_error::ProgramError>, &solana_program::account_info::AccountInfo>") dereferenceable(40) %_32, %"std::result::Result<&solana_program::account_info::AccountInfo, solana_program::program_error::ProgramError>"* noalias nocapture dereferenceable(40) %_33), !dbg !1333
  br label %bb21, !dbg !1333

bb21:                                             ; preds = %bb20
  %34 = bitcast %"std::ops::ControlFlow<std::result::Result<std::convert::Infallible, solana_program::program_error::ProgramError>, &solana_program::account_info::AccountInfo>"* %_32 to i64*, !dbg !1333
  %_35 = load i64, i64* %34, align 8, !dbg !1333, !range !1094
  switch i64 %_35, label %bb23 [
    i64 0, label %bb22
    i64 1, label %bb24
  ], !dbg !1333

bb23:                                             ; preds = %bb21
  unreachable, !dbg !1333

bb22:                                             ; preds = %bb21
  %35 = bitcast %"std::ops::ControlFlow<std::result::Result<std::convert::Infallible, solana_program::program_error::ProgramError>, &solana_program::account_info::AccountInfo>"* %_32 to %"std::ops::ControlFlow<std::result::Result<std::convert::Infallible, solana_program::program_error::ProgramError>, &solana_program::account_info::AccountInfo>::Continue"*, !dbg !1333
  %36 = getelementptr inbounds %"std::ops::ControlFlow<std::result::Result<std::convert::Infallible, solana_program::program_error::ProgramError>, &solana_program::account_info::AccountInfo>::Continue", %"std::ops::ControlFlow<std::result::Result<std::convert::Infallible, solana_program::program_error::ProgramError>, &solana_program::account_info::AccountInfo>::Continue"* %35, i32 0, i32 1, !dbg !1333
  %val21 = load %"solana_program::account_info::AccountInfo"*, %"solana_program::account_info::AccountInfo"** %36, align 8, !dbg !1333, !nonnull !14
  store %"solana_program::account_info::AccountInfo"* %val21, %"solana_program::account_info::AccountInfo"** %val.dbg.spill22, align 8, !dbg !1333
  call void @llvm.dbg.declare(metadata %"solana_program::account_info::AccountInfo"** %val.dbg.spill22, metadata !1211, metadata !DIExpression()), !dbg !1338
  store %"solana_program::account_info::AccountInfo"* %val21, %"solana_program::account_info::AccountInfo"** %spl_token_mint_info.dbg.spill, align 8, !dbg !1338
  call void @llvm.dbg.declare(metadata %"solana_program::account_info::AccountInfo"** %spl_token_mint_info.dbg.spill, metadata !1207, metadata !DIExpression()), !dbg !1339
; call solana_program::account_info::next_account_info
  call void @_ZN14solana_program12account_info17next_account_info17hc7c88bfc33d50f00E(%"std::result::Result<&solana_program::account_info::AccountInfo, solana_program::program_error::ProgramError>"* noalias nocapture sret(%"std::result::Result<&solana_program::account_info::AccountInfo, solana_program::program_error::ProgramError>") dereferenceable(40) %_41, { i64*, i64* }* align 8 dereferenceable(16) %_5), !dbg !1340
  br label %bb26, !dbg !1340

bb24:                                             ; preds = %bb21
  %37 = bitcast %"std::ops::ControlFlow<std::result::Result<std::convert::Infallible, solana_program::program_error::ProgramError>, &solana_program::account_info::AccountInfo>"* %_32 to %"std::ops::ControlFlow<std::result::Result<std::convert::Infallible, solana_program::program_error::ProgramError>, &solana_program::account_info::AccountInfo>::Break"*, !dbg !1341
  %38 = getelementptr inbounds %"std::ops::ControlFlow<std::result::Result<std::convert::Infallible, solana_program::program_error::ProgramError>, &solana_program::account_info::AccountInfo>::Break", %"std::ops::ControlFlow<std::result::Result<std::convert::Infallible, solana_program::program_error::ProgramError>, &solana_program::account_info::AccountInfo>::Break"* %37, i32 0, i32 1, !dbg !1341
  %39 = bitcast %"std::result::Result<std::convert::Infallible, solana_program::program_error::ProgramError>::Err"* %residual3 to i8*, !dbg !1341
  %40 = bitcast %"std::result::Result<std::convert::Infallible, solana_program::program_error::ProgramError>::Err"* %38 to i8*, !dbg !1341
  call void @llvm.memcpy.p0i8.p0i8.i64(i8* align 8 %39, i8* align 8 %40, i64 32, i1 false), !dbg !1341
  %41 = bitcast %"std::result::Result<std::convert::Infallible, solana_program::program_error::ProgramError>::Err"* %_37 to i8*, !dbg !1295
  %42 = bitcast %"std::result::Result<std::convert::Infallible, solana_program::program_error::ProgramError>::Err"* %residual3 to i8*, !dbg !1295
  call void @llvm.memcpy.p0i8.p0i8.i64(i8* align 8 %41, i8* align 8 %42, i64 32, i1 false), !dbg !1295
; call <core::result::Result<T,F> as core::ops::try_trait::FromResidual<core::result::Result<core::convert::Infallible,E>>>::from_residual
  call void @"_ZN153_$LT$core..result..Result$LT$T$C$F$GT$$u20$as$u20$core..ops..try_trait..FromResidual$LT$core..result..Result$LT$core..convert..Infallible$C$E$GT$$GT$$GT$13from_residual17h8798c99f7e99c356E"(%"std::result::Result<(), solana_program::program_error::ProgramError>"* noalias nocapture sret(%"std::result::Result<(), solana_program::program_error::ProgramError>") dereferenceable(32) %0, %"std::result::Result<std::convert::Infallible, solana_program::program_error::ProgramError>::Err"* noalias nocapture dereferenceable(32) %_37), !dbg !1342
  br label %bb25, !dbg !1342

bb25:                                             ; preds = %bb24
  br label %bb122, !dbg !1343

bb26:                                             ; preds = %bb22
; call <core::result::Result<T,E> as core::ops::try_trait::Try>::branch
  call void @"_ZN79_$LT$core..result..Result$LT$T$C$E$GT$$u20$as$u20$core..ops..try_trait..Try$GT$6branch17h374ddd8577caa0a0E"(%"std::ops::ControlFlow<std::result::Result<std::convert::Infallible, solana_program::program_error::ProgramError>, &solana_program::account_info::AccountInfo>"* noalias nocapture sret(%"std::ops::ControlFlow<std::result::Result<std::convert::Infallible, solana_program::program_error::ProgramError>, &solana_program::account_info::AccountInfo>") dereferenceable(40) %_40, %"std::result::Result<&solana_program::account_info::AccountInfo, solana_program::program_error::ProgramError>"* noalias nocapture dereferenceable(40) %_41), !dbg !1340
  br label %bb27, !dbg !1340

bb27:                                             ; preds = %bb26
  %43 = bitcast %"std::ops::ControlFlow<std::result::Result<std::convert::Infallible, solana_program::program_error::ProgramError>, &solana_program::account_info::AccountInfo>"* %_40 to i64*, !dbg !1340
  %_43 = load i64, i64* %43, align 8, !dbg !1340, !range !1094
  switch i64 %_43, label %bb29 [
    i64 0, label %bb28
    i64 1, label %bb30
  ], !dbg !1340

bb29:                                             ; preds = %bb27
  unreachable, !dbg !1340

bb28:                                             ; preds = %bb27
  %44 = bitcast %"std::ops::ControlFlow<std::result::Result<std::convert::Infallible, solana_program::program_error::ProgramError>, &solana_program::account_info::AccountInfo>"* %_40 to %"std::ops::ControlFlow<std::result::Result<std::convert::Infallible, solana_program::program_error::ProgramError>, &solana_program::account_info::AccountInfo>::Continue"*, !dbg !1340
  %45 = getelementptr inbounds %"std::ops::ControlFlow<std::result::Result<std::convert::Infallible, solana_program::program_error::ProgramError>, &solana_program::account_info::AccountInfo>::Continue", %"std::ops::ControlFlow<std::result::Result<std::convert::Infallible, solana_program::program_error::ProgramError>, &solana_program::account_info::AccountInfo>::Continue"* %44, i32 0, i32 1, !dbg !1340
  %val23 = load %"solana_program::account_info::AccountInfo"*, %"solana_program::account_info::AccountInfo"** %45, align 8, !dbg !1340, !nonnull !14
  store %"solana_program::account_info::AccountInfo"* %val23, %"solana_program::account_info::AccountInfo"** %val.dbg.spill24, align 8, !dbg !1340
  call void @llvm.dbg.declare(metadata %"solana_program::account_info::AccountInfo"** %val.dbg.spill24, metadata !1217, metadata !DIExpression()), !dbg !1345
  store %"solana_program::account_info::AccountInfo"* %val23, %"solana_program::account_info::AccountInfo"** %system_program_info.dbg.spill, align 8, !dbg !1345
  call void @llvm.dbg.declare(metadata %"solana_program::account_info::AccountInfo"** %system_program_info.dbg.spill, metadata !1213, metadata !DIExpression()), !dbg !1346
; call solana_program::account_info::next_account_info
  call void @_ZN14solana_program12account_info17next_account_info17hc7c88bfc33d50f00E(%"std::result::Result<&solana_program::account_info::AccountInfo, solana_program::program_error::ProgramError>"* noalias nocapture sret(%"std::result::Result<&solana_program::account_info::AccountInfo, solana_program::program_error::ProgramError>") dereferenceable(40) %_49, { i64*, i64* }* align 8 dereferenceable(16) %_5), !dbg !1347
  br label %bb32, !dbg !1347

bb30:                                             ; preds = %bb27
  %46 = bitcast %"std::ops::ControlFlow<std::result::Result<std::convert::Infallible, solana_program::program_error::ProgramError>, &solana_program::account_info::AccountInfo>"* %_40 to %"std::ops::ControlFlow<std::result::Result<std::convert::Infallible, solana_program::program_error::ProgramError>, &solana_program::account_info::AccountInfo>::Break"*, !dbg !1348
  %47 = getelementptr inbounds %"std::ops::ControlFlow<std::result::Result<std::convert::Infallible, solana_program::program_error::ProgramError>, &solana_program::account_info::AccountInfo>::Break", %"std::ops::ControlFlow<std::result::Result<std::convert::Infallible, solana_program::program_error::ProgramError>, &solana_program::account_info::AccountInfo>::Break"* %46, i32 0, i32 1, !dbg !1348
  %48 = bitcast %"std::result::Result<std::convert::Infallible, solana_program::program_error::ProgramError>::Err"* %residual4 to i8*, !dbg !1348
  %49 = bitcast %"std::result::Result<std::convert::Infallible, solana_program::program_error::ProgramError>::Err"* %47 to i8*, !dbg !1348
  call void @llvm.memcpy.p0i8.p0i8.i64(i8* align 8 %48, i8* align 8 %49, i64 32, i1 false), !dbg !1348
  %50 = bitcast %"std::result::Result<std::convert::Infallible, solana_program::program_error::ProgramError>::Err"* %_45 to i8*, !dbg !1296
  %51 = bitcast %"std::result::Result<std::convert::Infallible, solana_program::program_error::ProgramError>::Err"* %residual4 to i8*, !dbg !1296
  call void @llvm.memcpy.p0i8.p0i8.i64(i8* align 8 %50, i8* align 8 %51, i64 32, i1 false), !dbg !1296
; call <core::result::Result<T,F> as core::ops::try_trait::FromResidual<core::result::Result<core::convert::Infallible,E>>>::from_residual
  call void @"_ZN153_$LT$core..result..Result$LT$T$C$F$GT$$u20$as$u20$core..ops..try_trait..FromResidual$LT$core..result..Result$LT$core..convert..Infallible$C$E$GT$$GT$$GT$13from_residual17h8798c99f7e99c356E"(%"std::result::Result<(), solana_program::program_error::ProgramError>"* noalias nocapture sret(%"std::result::Result<(), solana_program::program_error::ProgramError>") dereferenceable(32) %0, %"std::result::Result<std::convert::Infallible, solana_program::program_error::ProgramError>::Err"* noalias nocapture dereferenceable(32) %_45), !dbg !1349
  br label %bb31, !dbg !1349

bb31:                                             ; preds = %bb30
  br label %bb122, !dbg !1350

bb32:                                             ; preds = %bb28
; call <core::result::Result<T,E> as core::ops::try_trait::Try>::branch
  call void @"_ZN79_$LT$core..result..Result$LT$T$C$E$GT$$u20$as$u20$core..ops..try_trait..Try$GT$6branch17h374ddd8577caa0a0E"(%"std::ops::ControlFlow<std::result::Result<std::convert::Infallible, solana_program::program_error::ProgramError>, &solana_program::account_info::AccountInfo>"* noalias nocapture sret(%"std::ops::ControlFlow<std::result::Result<std::convert::Infallible, solana_program::program_error::ProgramError>, &solana_program::account_info::AccountInfo>") dereferenceable(40) %_48, %"std::result::Result<&solana_program::account_info::AccountInfo, solana_program::program_error::ProgramError>"* noalias nocapture dereferenceable(40) %_49), !dbg !1347
  br label %bb33, !dbg !1347

bb33:                                             ; preds = %bb32
  %52 = bitcast %"std::ops::ControlFlow<std::result::Result<std::convert::Infallible, solana_program::program_error::ProgramError>, &solana_program::account_info::AccountInfo>"* %_48 to i64*, !dbg !1347
  %_51 = load i64, i64* %52, align 8, !dbg !1347, !range !1094
  switch i64 %_51, label %bb35 [
    i64 0, label %bb34
    i64 1, label %bb36
  ], !dbg !1347

bb35:                                             ; preds = %bb33
  unreachable, !dbg !1347

bb34:                                             ; preds = %bb33
  %53 = bitcast %"std::ops::ControlFlow<std::result::Result<std::convert::Infallible, solana_program::program_error::ProgramError>, &solana_program::account_info::AccountInfo>"* %_48 to %"std::ops::ControlFlow<std::result::Result<std::convert::Infallible, solana_program::program_error::ProgramError>, &solana_program::account_info::AccountInfo>::Continue"*, !dbg !1347
  %54 = getelementptr inbounds %"std::ops::ControlFlow<std::result::Result<std::convert::Infallible, solana_program::program_error::ProgramError>, &solana_program::account_info::AccountInfo>::Continue", %"std::ops::ControlFlow<std::result::Result<std::convert::Infallible, solana_program::program_error::ProgramError>, &solana_program::account_info::AccountInfo>::Continue"* %53, i32 0, i32 1, !dbg !1347
  %val25 = load %"solana_program::account_info::AccountInfo"*, %"solana_program::account_info::AccountInfo"** %54, align 8, !dbg !1347, !nonnull !14
  store %"solana_program::account_info::AccountInfo"* %val25, %"solana_program::account_info::AccountInfo"** %val.dbg.spill26, align 8, !dbg !1347
  call void @llvm.dbg.declare(metadata %"solana_program::account_info::AccountInfo"** %val.dbg.spill26, metadata !1223, metadata !DIExpression()), !dbg !1352
  store %"solana_program::account_info::AccountInfo"* %val25, %"solana_program::account_info::AccountInfo"** %spl_token_program_info.dbg.spill, align 8, !dbg !1352
  call void @llvm.dbg.declare(metadata %"solana_program::account_info::AccountInfo"** %spl_token_program_info.dbg.spill, metadata !1219, metadata !DIExpression()), !dbg !1353
  %55 = bitcast %"solana_program::account_info::AccountInfo"* %val25 to %"solana_program::pubkey::Pubkey"**, !dbg !1354
  %spl_token_program_id = load %"solana_program::pubkey::Pubkey"*, %"solana_program::pubkey::Pubkey"** %55, align 8, !dbg !1354, !nonnull !14
  store %"solana_program::pubkey::Pubkey"* %spl_token_program_id, %"solana_program::pubkey::Pubkey"** %spl_token_program_id.dbg.spill, align 8, !dbg !1354
  call void @llvm.dbg.declare(metadata %"solana_program::pubkey::Pubkey"** %spl_token_program_id.dbg.spill, metadata !1225, metadata !DIExpression()), !dbg !1355
; call solana_program::account_info::next_account_info
  call void @_ZN14solana_program12account_info17next_account_info17hc7c88bfc33d50f00E(%"std::result::Result<&solana_program::account_info::AccountInfo, solana_program::program_error::ProgramError>"* noalias nocapture sret(%"std::result::Result<&solana_program::account_info::AccountInfo, solana_program::program_error::ProgramError>") dereferenceable(40) %_58, { i64*, i64* }* align 8 dereferenceable(16) %_5), !dbg !1356
  br label %bb38, !dbg !1356

bb36:                                             ; preds = %bb33
  %56 = bitcast %"std::ops::ControlFlow<std::result::Result<std::convert::Infallible, solana_program::program_error::ProgramError>, &solana_program::account_info::AccountInfo>"* %_48 to %"std::ops::ControlFlow<std::result::Result<std::convert::Infallible, solana_program::program_error::ProgramError>, &solana_program::account_info::AccountInfo>::Break"*, !dbg !1357
  %57 = getelementptr inbounds %"std::ops::ControlFlow<std::result::Result<std::convert::Infallible, solana_program::program_error::ProgramError>, &solana_program::account_info::AccountInfo>::Break", %"std::ops::ControlFlow<std::result::Result<std::convert::Infallible, solana_program::program_error::ProgramError>, &solana_program::account_info::AccountInfo>::Break"* %56, i32 0, i32 1, !dbg !1357
  %58 = bitcast %"std::result::Result<std::convert::Infallible, solana_program::program_error::ProgramError>::Err"* %residual5 to i8*, !dbg !1357
  %59 = bitcast %"std::result::Result<std::convert::Infallible, solana_program::program_error::ProgramError>::Err"* %57 to i8*, !dbg !1357
  call void @llvm.memcpy.p0i8.p0i8.i64(i8* align 8 %58, i8* align 8 %59, i64 32, i1 false), !dbg !1357
  %60 = bitcast %"std::result::Result<std::convert::Infallible, solana_program::program_error::ProgramError>::Err"* %_53 to i8*, !dbg !1297
  %61 = bitcast %"std::result::Result<std::convert::Infallible, solana_program::program_error::ProgramError>::Err"* %residual5 to i8*, !dbg !1297
  call void @llvm.memcpy.p0i8.p0i8.i64(i8* align 8 %60, i8* align 8 %61, i64 32, i1 false), !dbg !1297
; call <core::result::Result<T,F> as core::ops::try_trait::FromResidual<core::result::Result<core::convert::Infallible,E>>>::from_residual
  call void @"_ZN153_$LT$core..result..Result$LT$T$C$F$GT$$u20$as$u20$core..ops..try_trait..FromResidual$LT$core..result..Result$LT$core..convert..Infallible$C$E$GT$$GT$$GT$13from_residual17h8798c99f7e99c356E"(%"std::result::Result<(), solana_program::program_error::ProgramError>"* noalias nocapture sret(%"std::result::Result<(), solana_program::program_error::ProgramError>") dereferenceable(32) %0, %"std::result::Result<std::convert::Infallible, solana_program::program_error::ProgramError>::Err"* noalias nocapture dereferenceable(32) %_53), !dbg !1358
  br label %bb37, !dbg !1358

bb37:                                             ; preds = %bb36
  br label %bb122, !dbg !1359

bb38:                                             ; preds = %bb34
; call <core::result::Result<T,E> as core::ops::try_trait::Try>::branch
  call void @"_ZN79_$LT$core..result..Result$LT$T$C$E$GT$$u20$as$u20$core..ops..try_trait..Try$GT$6branch17h374ddd8577caa0a0E"(%"std::ops::ControlFlow<std::result::Result<std::convert::Infallible, solana_program::program_error::ProgramError>, &solana_program::account_info::AccountInfo>"* noalias nocapture sret(%"std::ops::ControlFlow<std::result::Result<std::convert::Infallible, solana_program::program_error::ProgramError>, &solana_program::account_info::AccountInfo>") dereferenceable(40) %_57, %"std::result::Result<&solana_program::account_info::AccountInfo, solana_program::program_error::ProgramError>"* noalias nocapture dereferenceable(40) %_58), !dbg !1356
  br label %bb39, !dbg !1356

bb39:                                             ; preds = %bb38
  %62 = bitcast %"std::ops::ControlFlow<std::result::Result<std::convert::Infallible, solana_program::program_error::ProgramError>, &solana_program::account_info::AccountInfo>"* %_57 to i64*, !dbg !1356
  %_60 = load i64, i64* %62, align 8, !dbg !1356, !range !1094
  switch i64 %_60, label %bb41 [
    i64 0, label %bb40
    i64 1, label %bb42
  ], !dbg !1356

bb41:                                             ; preds = %bb39
  unreachable, !dbg !1356

bb40:                                             ; preds = %bb39
  %63 = bitcast %"std::ops::ControlFlow<std::result::Result<std::convert::Infallible, solana_program::program_error::ProgramError>, &solana_program::account_info::AccountInfo>"* %_57 to %"std::ops::ControlFlow<std::result::Result<std::convert::Infallible, solana_program::program_error::ProgramError>, &solana_program::account_info::AccountInfo>::Continue"*, !dbg !1356
  %64 = getelementptr inbounds %"std::ops::ControlFlow<std::result::Result<std::convert::Infallible, solana_program::program_error::ProgramError>, &solana_program::account_info::AccountInfo>::Continue", %"std::ops::ControlFlow<std::result::Result<std::convert::Infallible, solana_program::program_error::ProgramError>, &solana_program::account_info::AccountInfo>::Continue"* %63, i32 0, i32 1, !dbg !1356
  %val27 = load %"solana_program::account_info::AccountInfo"*, %"solana_program::account_info::AccountInfo"** %64, align 8, !dbg !1356, !nonnull !14
  store %"solana_program::account_info::AccountInfo"* %val27, %"solana_program::account_info::AccountInfo"** %val.dbg.spill28, align 8, !dbg !1356
  call void @llvm.dbg.declare(metadata %"solana_program::account_info::AccountInfo"** %val.dbg.spill28, metadata !1231, metadata !DIExpression()), !dbg !1361
  store %"solana_program::account_info::AccountInfo"* %val27, %"solana_program::account_info::AccountInfo"** %rent_sysvar_info.dbg.spill, align 8, !dbg !1361
  call void @llvm.dbg.declare(metadata %"solana_program::account_info::AccountInfo"** %rent_sysvar_info.dbg.spill, metadata !1227, metadata !DIExpression()), !dbg !1362
  %65 = bitcast %"solana_program::account_info::AccountInfo"* %val19 to %"solana_program::pubkey::Pubkey"**, !dbg !1363
  %_67 = load %"solana_program::pubkey::Pubkey"*, %"solana_program::pubkey::Pubkey"** %65, align 8, !dbg !1363, !nonnull !14
  %66 = bitcast %"solana_program::account_info::AccountInfo"* %val21 to %"solana_program::pubkey::Pubkey"**, !dbg !1364
  %_68 = load %"solana_program::pubkey::Pubkey"*, %"solana_program::pubkey::Pubkey"** %66, align 8, !dbg !1364, !nonnull !14
; call spl_associated_token_account::get_associated_token_address_and_bump_seed_internal
  call void @_ZN28spl_associated_token_account51get_associated_token_address_and_bump_seed_internal17hd9fe6503ebde6066E({ %"solana_program::pubkey::Pubkey", i8 }* noalias nocapture sret({ %"solana_program::pubkey::Pubkey", i8 }) dereferenceable(33) %_66, %"solana_program::pubkey::Pubkey"* align 1 dereferenceable(32) %_67, %"solana_program::pubkey::Pubkey"* align 1 dereferenceable(32) %_68, %"solana_program::pubkey::Pubkey"* align 1 dereferenceable(32) %program_id, %"solana_program::pubkey::Pubkey"* align 1 dereferenceable(32) %spl_token_program_id), !dbg !1365
  br label %bb44, !dbg !1365

bb42:                                             ; preds = %bb39
  %67 = bitcast %"std::ops::ControlFlow<std::result::Result<std::convert::Infallible, solana_program::program_error::ProgramError>, &solana_program::account_info::AccountInfo>"* %_57 to %"std::ops::ControlFlow<std::result::Result<std::convert::Infallible, solana_program::program_error::ProgramError>, &solana_program::account_info::AccountInfo>::Break"*, !dbg !1366
  %68 = getelementptr inbounds %"std::ops::ControlFlow<std::result::Result<std::convert::Infallible, solana_program::program_error::ProgramError>, &solana_program::account_info::AccountInfo>::Break", %"std::ops::ControlFlow<std::result::Result<std::convert::Infallible, solana_program::program_error::ProgramError>, &solana_program::account_info::AccountInfo>::Break"* %67, i32 0, i32 1, !dbg !1366
  %69 = bitcast %"std::result::Result<std::convert::Infallible, solana_program::program_error::ProgramError>::Err"* %residual6 to i8*, !dbg !1366
  %70 = bitcast %"std::result::Result<std::convert::Infallible, solana_program::program_error::ProgramError>::Err"* %68 to i8*, !dbg !1366
  call void @llvm.memcpy.p0i8.p0i8.i64(i8* align 8 %69, i8* align 8 %70, i64 32, i1 false), !dbg !1366
  %71 = bitcast %"std::result::Result<std::convert::Infallible, solana_program::program_error::ProgramError>::Err"* %_62 to i8*, !dbg !1298
  %72 = bitcast %"std::result::Result<std::convert::Infallible, solana_program::program_error::ProgramError>::Err"* %residual6 to i8*, !dbg !1298
  call void @llvm.memcpy.p0i8.p0i8.i64(i8* align 8 %71, i8* align 8 %72, i64 32, i1 false), !dbg !1298
; call <core::result::Result<T,F> as core::ops::try_trait::FromResidual<core::result::Result<core::convert::Infallible,E>>>::from_residual
  call void @"_ZN153_$LT$core..result..Result$LT$T$C$F$GT$$u20$as$u20$core..ops..try_trait..FromResidual$LT$core..result..Result$LT$core..convert..Infallible$C$E$GT$$GT$$GT$13from_residual17h8798c99f7e99c356E"(%"std::result::Result<(), solana_program::program_error::ProgramError>"* noalias nocapture sret(%"std::result::Result<(), solana_program::program_error::ProgramError>") dereferenceable(32) %0, %"std::result::Result<std::convert::Infallible, solana_program::program_error::ProgramError>::Err"* noalias nocapture dereferenceable(32) %_62), !dbg !1367
  br label %bb43, !dbg !1367

bb43:                                             ; preds = %bb42
  br label %bb122, !dbg !1368

bb44:                                             ; preds = %bb40
  %73 = bitcast { %"solana_program::pubkey::Pubkey", i8 }* %_66 to %"solana_program::pubkey::Pubkey"*, !dbg !1370
  %74 = bitcast %"solana_program::pubkey::Pubkey"* %associated_token_address to i8*, !dbg !1370
  %75 = bitcast %"solana_program::pubkey::Pubkey"* %73 to i8*, !dbg !1370
  call void @llvm.memcpy.p0i8.p0i8.i64(i8* align 1 %74, i8* align 1 %75, i64 32, i1 false), !dbg !1370
  %76 = getelementptr inbounds { %"solana_program::pubkey::Pubkey", i8 }, { %"solana_program::pubkey::Pubkey", i8 }* %_66, i32 0, i32 1, !dbg !1371
  %bump_seed = load i8, i8* %76, align 1, !dbg !1371
  store i8 %bump_seed, i8* %bump_seed.dbg.spill, align 1, !dbg !1371
  call void @llvm.dbg.declare(metadata i8* %bump_seed.dbg.spill, metadata !1235, metadata !DIExpression()), !dbg !1372
  %77 = bitcast %"solana_program::account_info::AccountInfo"* %val17 to %"solana_program::pubkey::Pubkey"**, !dbg !1373
  %_73 = load %"solana_program::pubkey::Pubkey"*, %"solana_program::pubkey::Pubkey"** %77, align 8, !dbg !1373, !nonnull !14
; call <solana_program::pubkey::Pubkey as core::cmp::PartialEq>::ne
  %_71 = call zeroext i1 @"_ZN71_$LT$solana_program..pubkey..Pubkey$u20$as$u20$core..cmp..PartialEq$GT$2ne17hca50db9177622a10E"(%"solana_program::pubkey::Pubkey"* align 1 dereferenceable(32) %associated_token_address, %"solana_program::pubkey::Pubkey"* align 1 dereferenceable(32) %_73), !dbg !1374
  br label %bb45, !dbg !1374

bb45:                                             ; preds = %bb44
  br i1 %_71, label %bb46, label %bb48, !dbg !1374

bb48:                                             ; preds = %bb45
  %78 = bitcast %"solana_program::account_info::AccountInfo"* %val19 to %"solana_program::pubkey::Pubkey"**, !dbg !1375
  %79 = load %"solana_program::pubkey::Pubkey"*, %"solana_program::pubkey::Pubkey"** %78, align 8, !dbg !1375, !nonnull !14
  %80 = bitcast %"solana_program::pubkey::Pubkey"* %_86 to i8*, !dbg !1375
  %81 = bitcast %"solana_program::pubkey::Pubkey"* %79 to i8*, !dbg !1375
  call void @llvm.memcpy.p0i8.p0i8.i64(i8* align 1 %80, i8* align 1 %81, i64 32, i1 false), !dbg !1375
; call solana_program::pubkey::Pubkey::to_bytes
  call void @_ZN14solana_program6pubkey6Pubkey8to_bytes17h76bde7ccb0c6f68eE([32 x i8]* noalias nocapture sret([32 x i8]) dereferenceable(32) %_85, %"solana_program::pubkey::Pubkey"* noalias nocapture dereferenceable(32) %_86), !dbg !1375
  br label %bb49, !dbg !1375

bb46:                                             ; preds = %bb45
; call solana_program::log::sol_log
  call void @_ZN14solana_program3log7sol_log17h4d8401486258f67dE([0 x i8]* nonnull align 1 bitcast (<{ [56 x i8] }>* @alloc45 to [0 x i8]*), i64 56), !dbg !1376
  br label %bb47, !dbg !1376

bb47:                                             ; preds = %bb46
  %82 = bitcast %"solana_program::program_error::ProgramError"* %_77 to i32*, !dbg !1377
  store i32 13, i32* %82, align 8, !dbg !1377
  %83 = bitcast %"std::result::Result<(), solana_program::program_error::ProgramError>"* %0 to %"std::result::Result<(), solana_program::program_error::ProgramError>::Err"*, !dbg !1378
  %84 = bitcast %"std::result::Result<(), solana_program::program_error::ProgramError>::Err"* %83 to %"solana_program::program_error::ProgramError"*, !dbg !1378
  %85 = bitcast %"solana_program::program_error::ProgramError"* %84 to i8*, !dbg !1378
  %86 = bitcast %"solana_program::program_error::ProgramError"* %_77 to i8*, !dbg !1378
  call void @llvm.memcpy.p0i8.p0i8.i64(i8* align 8 %85, i8* align 8 %86, i64 32, i1 false), !dbg !1378
  br label %bb122, !dbg !1379

bb49:                                             ; preds = %bb48
  %_82.0 = bitcast [32 x i8]* %_85 to [0 x i8]*, !dbg !1381
  %87 = bitcast %"solana_program::pubkey::Pubkey"* %_91 to i8*, !dbg !1382
  %88 = bitcast %"solana_program::pubkey::Pubkey"* %spl_token_program_id to i8*, !dbg !1382
  call void @llvm.memcpy.p0i8.p0i8.i64(i8* align 1 %87, i8* align 1 %88, i64 32, i1 false), !dbg !1382
; call solana_program::pubkey::Pubkey::to_bytes
  call void @_ZN14solana_program6pubkey6Pubkey8to_bytes17h76bde7ccb0c6f68eE([32 x i8]* noalias nocapture sret([32 x i8]) dereferenceable(32) %_90, %"solana_program::pubkey::Pubkey"* noalias nocapture dereferenceable(32) %_91), !dbg !1382
  br label %bb50, !dbg !1382

bb50:                                             ; preds = %bb49
  %_87.0 = bitcast [32 x i8]* %_90 to [0 x i8]*, !dbg !1383
  %89 = bitcast %"solana_program::account_info::AccountInfo"* %val21 to %"solana_program::pubkey::Pubkey"**, !dbg !1384
  %90 = load %"solana_program::pubkey::Pubkey"*, %"solana_program::pubkey::Pubkey"** %89, align 8, !dbg !1384, !nonnull !14
  %91 = bitcast %"solana_program::pubkey::Pubkey"* %_96 to i8*, !dbg !1384
  %92 = bitcast %"solana_program::pubkey::Pubkey"* %90 to i8*, !dbg !1384
  call void @llvm.memcpy.p0i8.p0i8.i64(i8* align 1 %91, i8* align 1 %92, i64 32, i1 false), !dbg !1384
; call solana_program::pubkey::Pubkey::to_bytes
  call void @_ZN14solana_program6pubkey6Pubkey8to_bytes17h76bde7ccb0c6f68eE([32 x i8]* noalias nocapture sret([32 x i8]) dereferenceable(32) %_95, %"solana_program::pubkey::Pubkey"* noalias nocapture dereferenceable(32) %_96), !dbg !1384
  br label %bb51, !dbg !1384

bb51:                                             ; preds = %bb50
  %_92.0 = bitcast [32 x i8]* %_95 to [0 x i8]*, !dbg !1385
  %93 = bitcast [1 x i8]* %_100 to i8*, !dbg !1386
  store i8 %bump_seed, i8* %93, align 1, !dbg !1386
  %_97.0 = bitcast [1 x i8]* %_100 to [0 x i8]*, !dbg !1387
  %94 = bitcast [4 x { [0 x i8]*, i64 }]* %_81 to { [0 x i8]*, i64 }*, !dbg !1388
  %95 = getelementptr inbounds { [0 x i8]*, i64 }, { [0 x i8]*, i64 }* %94, i32 0, i32 0, !dbg !1388
  store [0 x i8]* %_82.0, [0 x i8]** %95, align 8, !dbg !1388
  %96 = getelementptr inbounds { [0 x i8]*, i64 }, { [0 x i8]*, i64 }* %94, i32 0, i32 1, !dbg !1388
  store i64 32, i64* %96, align 8, !dbg !1388
  %97 = getelementptr inbounds [4 x { [0 x i8]*, i64 }], [4 x { [0 x i8]*, i64 }]* %_81, i32 0, i32 1, !dbg !1388
  %98 = getelementptr inbounds { [0 x i8]*, i64 }, { [0 x i8]*, i64 }* %97, i32 0, i32 0, !dbg !1388
  store [0 x i8]* %_87.0, [0 x i8]** %98, align 8, !dbg !1388
  %99 = getelementptr inbounds { [0 x i8]*, i64 }, { [0 x i8]*, i64 }* %97, i32 0, i32 1, !dbg !1388
  store i64 32, i64* %99, align 8, !dbg !1388
  %100 = getelementptr inbounds [4 x { [0 x i8]*, i64 }], [4 x { [0 x i8]*, i64 }]* %_81, i32 0, i32 2, !dbg !1388
  %101 = getelementptr inbounds { [0 x i8]*, i64 }, { [0 x i8]*, i64 }* %100, i32 0, i32 0, !dbg !1388
  store [0 x i8]* %_92.0, [0 x i8]** %101, align 8, !dbg !1388
  %102 = getelementptr inbounds { [0 x i8]*, i64 }, { [0 x i8]*, i64 }* %100, i32 0, i32 1, !dbg !1388
  store i64 32, i64* %102, align 8, !dbg !1388
  %103 = getelementptr inbounds [4 x { [0 x i8]*, i64 }], [4 x { [0 x i8]*, i64 }]* %_81, i32 0, i32 3, !dbg !1388
  %104 = getelementptr inbounds { [0 x i8]*, i64 }, { [0 x i8]*, i64 }* %103, i32 0, i32 0, !dbg !1388
  store [0 x i8]* %_97.0, [0 x i8]** %104, align 8, !dbg !1388
  %105 = getelementptr inbounds { [0 x i8]*, i64 }, { [0 x i8]*, i64 }* %103, i32 0, i32 1, !dbg !1388
  store i64 1, i64* %105, align 8, !dbg !1388
  %associated_token_account_signer_seeds.0 = bitcast [4 x { [0 x i8]*, i64 }]* %_81 to [0 x { [0 x i8]*, i64 }]*, !dbg !1389
  %106 = getelementptr inbounds { [0 x { [0 x i8]*, i64 }]*, i64 }, { [0 x { [0 x i8]*, i64 }]*, i64 }* %associated_token_account_signer_seeds.dbg.spill, i32 0, i32 0, !dbg !1389
  store [0 x { [0 x i8]*, i64 }]* %associated_token_account_signer_seeds.0, [0 x { [0 x i8]*, i64 }]** %106, align 8, !dbg !1389
  %107 = getelementptr inbounds { [0 x { [0 x i8]*, i64 }]*, i64 }, { [0 x { [0 x i8]*, i64 }]*, i64 }* %associated_token_account_signer_seeds.dbg.spill, i32 0, i32 1, !dbg !1389
  store i64 4, i64* %107, align 8, !dbg !1389
  call void @llvm.dbg.declare(metadata { [0 x { [0 x i8]*, i64 }]*, i64 }* %associated_token_account_signer_seeds.dbg.spill, metadata !1236, metadata !DIExpression()), !dbg !1390
; call solana_program::sysvar::Sysvar::from_account_info
  call void @_ZN14solana_program6sysvar6Sysvar17from_account_info17h7cd2cbe074a6a7ebE(%"std::result::Result<solana_program::rent::Rent, solana_program::program_error::ProgramError>"* noalias nocapture sret(%"std::result::Result<solana_program::rent::Rent, solana_program::program_error::ProgramError>") dereferenceable(40) %_105, %"solana_program::account_info::AccountInfo"* align 8 dereferenceable(48) %val27), !dbg !1391
  br label %bb52, !dbg !1391

bb52:                                             ; preds = %bb51
; call <core::result::Result<T,E> as core::ops::try_trait::Try>::branch
  call void @"_ZN79_$LT$core..result..Result$LT$T$C$E$GT$$u20$as$u20$core..ops..try_trait..Try$GT$6branch17hd37ccf14e1b76717E"(%"std::ops::ControlFlow<std::result::Result<std::convert::Infallible, solana_program::program_error::ProgramError>, solana_program::rent::Rent>"* noalias nocapture sret(%"std::ops::ControlFlow<std::result::Result<std::convert::Infallible, solana_program::program_error::ProgramError>, solana_program::rent::Rent>") dereferenceable(40) %_104, %"std::result::Result<solana_program::rent::Rent, solana_program::program_error::ProgramError>"* noalias nocapture dereferenceable(40) %_105), !dbg !1391
  br label %bb53, !dbg !1391

bb53:                                             ; preds = %bb52
  %108 = bitcast %"std::ops::ControlFlow<std::result::Result<std::convert::Infallible, solana_program::program_error::ProgramError>, solana_program::rent::Rent>"* %_104 to i64*, !dbg !1391
  %_107 = load i64, i64* %108, align 8, !dbg !1391, !range !1094
  switch i64 %_107, label %bb55 [
    i64 0, label %bb54
    i64 1, label %bb56
  ], !dbg !1391

bb55:                                             ; preds = %bb53
  unreachable, !dbg !1391

bb54:                                             ; preds = %bb53
  %109 = bitcast %"std::ops::ControlFlow<std::result::Result<std::convert::Infallible, solana_program::program_error::ProgramError>, solana_program::rent::Rent>"* %_104 to %"std::ops::ControlFlow<std::result::Result<std::convert::Infallible, solana_program::program_error::ProgramError>, solana_program::rent::Rent>::Continue"*, !dbg !1391
  %110 = getelementptr inbounds %"std::ops::ControlFlow<std::result::Result<std::convert::Infallible, solana_program::program_error::ProgramError>, solana_program::rent::Rent>::Continue", %"std::ops::ControlFlow<std::result::Result<std::convert::Infallible, solana_program::program_error::ProgramError>, solana_program::rent::Rent>::Continue"* %109, i32 0, i32 1, !dbg !1391
  %111 = bitcast %"solana_program::rent::Rent"* %val to i8*, !dbg !1391
  %112 = bitcast %"solana_program::rent::Rent"* %110 to i8*, !dbg !1391
  call void @llvm.memcpy.p0i8.p0i8.i64(i8* align 8 %111, i8* align 8 %112, i64 24, i1 false), !dbg !1391
  %113 = bitcast %"solana_program::rent::Rent"* %_103 to i8*, !dbg !1301
  %114 = bitcast %"solana_program::rent::Rent"* %val to i8*, !dbg !1301
  call void @llvm.memcpy.p0i8.p0i8.i64(i8* align 8 %113, i8* align 8 %114, i64 24, i1 false), !dbg !1301
  store %"solana_program::rent::Rent"* %_103, %"solana_program::rent::Rent"** %rent.dbg.spill, align 8, !dbg !1392
  call void @llvm.dbg.declare(metadata %"solana_program::rent::Rent"** %rent.dbg.spill, metadata !1243, metadata !DIExpression()), !dbg !1393
; call solana_program::rent::Rent::minimum_balance
  %_113 = call i64 @_ZN14solana_program4rent4Rent15minimum_balance17ha401871e9447db34E(%"solana_program::rent::Rent"* align 8 dereferenceable(24) %_103, i64 165), !dbg !1394
  br label %bb58, !dbg !1394

bb56:                                             ; preds = %bb53
  %115 = bitcast %"std::ops::ControlFlow<std::result::Result<std::convert::Infallible, solana_program::program_error::ProgramError>, solana_program::rent::Rent>"* %_104 to %"std::ops::ControlFlow<std::result::Result<std::convert::Infallible, solana_program::program_error::ProgramError>, solana_program::rent::Rent>::Break"*, !dbg !1395
  %116 = getelementptr inbounds %"std::ops::ControlFlow<std::result::Result<std::convert::Infallible, solana_program::program_error::ProgramError>, solana_program::rent::Rent>::Break", %"std::ops::ControlFlow<std::result::Result<std::convert::Infallible, solana_program::program_error::ProgramError>, solana_program::rent::Rent>::Break"* %115, i32 0, i32 1, !dbg !1395
  %117 = bitcast %"std::result::Result<std::convert::Infallible, solana_program::program_error::ProgramError>::Err"* %residual7 to i8*, !dbg !1395
  %118 = bitcast %"std::result::Result<std::convert::Infallible, solana_program::program_error::ProgramError>::Err"* %116 to i8*, !dbg !1395
  call void @llvm.memcpy.p0i8.p0i8.i64(i8* align 8 %117, i8* align 8 %118, i64 32, i1 false), !dbg !1395
  %119 = bitcast %"std::result::Result<std::convert::Infallible, solana_program::program_error::ProgramError>::Err"* %_109 to i8*, !dbg !1300
  %120 = bitcast %"std::result::Result<std::convert::Infallible, solana_program::program_error::ProgramError>::Err"* %residual7 to i8*, !dbg !1300
  call void @llvm.memcpy.p0i8.p0i8.i64(i8* align 8 %119, i8* align 8 %120, i64 32, i1 false), !dbg !1300
; call <core::result::Result<T,F> as core::ops::try_trait::FromResidual<core::result::Result<core::convert::Infallible,E>>>::from_residual
  call void @"_ZN153_$LT$core..result..Result$LT$T$C$F$GT$$u20$as$u20$core..ops..try_trait..FromResidual$LT$core..result..Result$LT$core..convert..Infallible$C$E$GT$$GT$$GT$13from_residual17h8798c99f7e99c356E"(%"std::result::Result<(), solana_program::program_error::ProgramError>"* noalias nocapture sret(%"std::result::Result<(), solana_program::program_error::ProgramError>") dereferenceable(32) %0, %"std::result::Result<std::convert::Infallible, solana_program::program_error::ProgramError>::Err"* noalias nocapture dereferenceable(32) %_109), !dbg !1396
  br label %bb57, !dbg !1396

bb57:                                             ; preds = %bb56
  br label %bb122, !dbg !1397

bb58:                                             ; preds = %bb54
; call core::cmp::Ord::max
  %_112 = call i64 @_ZN4core3cmp3Ord3max17h54cf0c95681b1793E(i64 %_113, i64 1), !dbg !1394
  br label %bb59, !dbg !1394

bb59:                                             ; preds = %bb58
; call solana_program::account_info::AccountInfo::lamports
  %_115 = call i64 @_ZN14solana_program12account_info11AccountInfo8lamports17h484abddebb35fde4E(%"solana_program::account_info::AccountInfo"* align 8 dereferenceable(48) %val17), !dbg !1399
  br label %bb60, !dbg !1399

bb60:                                             ; preds = %bb59
  store i64 %_112, i64* %self.dbg.spill.i, align 8
  call void @llvm.dbg.declare(metadata i64* %self.dbg.spill.i, metadata !1400, metadata !DIExpression()) #6, !dbg !1408
  store i64 %_115, i64* %rhs.dbg.spill.i, align 8
  call void @llvm.dbg.declare(metadata i64* %rhs.dbg.spill.i, metadata !1407, metadata !DIExpression()) #6, !dbg !1410
  %121 = call i64 @llvm.usub.sat.i64(i64 %_112, i64 %_115) #6, !dbg !1411
  store i64 %121, i64* %1, align 8, !dbg !1411
  %122 = load i64, i64* %1, align 8, !dbg !1411
  store i64 %122, i64* %required_lamports, align 8, !dbg !1394
  br label %bb61, !dbg !1394

bb61:                                             ; preds = %bb60
  %_118 = load i64, i64* %required_lamports, align 8, !dbg !1412
  %_117 = icmp ugt i64 %_118, 0, !dbg !1412
  br i1 %_117, label %bb62, label %bb80, !dbg !1412

bb80:                                             ; preds = %bb79, %bb61
; call solana_program::log::sol_log
  call void @_ZN14solana_program3log7sol_log17h4d8401486258f67dE([0 x i8]* nonnull align 1 bitcast (<{ [47 x i8] }>* @alloc46 to [0 x i8]*), i64 47), !dbg !1413
  br label %bb81, !dbg !1413

bb62:                                             ; preds = %bb61
  store i64* %required_lamports, i64** %_128, align 8, !dbg !1414
  %arg0 = load i64*, i64** %_128, align 8, !dbg !1414, !nonnull !14
  store i64* %arg0, i64** %arg0.dbg.spill, align 8, !dbg !1414
  call void @llvm.dbg.declare(metadata i64** %arg0.dbg.spill, metadata !1263, metadata !DIExpression()), !dbg !1415
; call core::fmt::ArgumentV1::new
  %123 = call { i8*, i64* } @_ZN4core3fmt10ArgumentV13new17h63286f6db1ca2cd7E(i64* align 8 dereferenceable(8) %arg0, i1 (i64*, %"std::fmt::Formatter"*)* nonnull @"_ZN4core3fmt3num3imp52_$LT$impl$u20$core..fmt..Display$u20$for$u20$u64$GT$3fmt17h1b454a7df123feb2E"), !dbg !1415
  %_131.0 = extractvalue { i8*, i64* } %123, 0, !dbg !1415
  %_131.1 = extractvalue { i8*, i64* } %123, 1, !dbg !1415
  br label %bb63, !dbg !1415

bb63:                                             ; preds = %bb62
  %124 = bitcast [1 x { i8*, i64* }]* %_127 to { i8*, i64* }*, !dbg !1415
  %125 = getelementptr inbounds { i8*, i64* }, { i8*, i64* }* %124, i32 0, i32 0, !dbg !1415
  store i8* %_131.0, i8** %125, align 8, !dbg !1415
  %126 = getelementptr inbounds { i8*, i64* }, { i8*, i64* }* %124, i32 0, i32 1, !dbg !1415
  store i64* %_131.1, i64** %126, align 8, !dbg !1415
  store [1 x { i8*, i64* }]* %_127, [1 x { i8*, i64* }]** %args.dbg.spill, align 8, !dbg !1414
  call void @llvm.dbg.declare(metadata [1 x { i8*, i64* }]** %args.dbg.spill, metadata !1266, metadata !DIExpression()), !dbg !1416
  %_138.0 = bitcast [1 x { i8*, i64* }]* %_127 to [0 x { i8*, i64* }]*, !dbg !1416
; call core::fmt::Arguments::new_v1
  call void @_ZN4core3fmt9Arguments6new_v117hb6c89b68d17ccadaE(%"std::fmt::Arguments"* noalias nocapture sret(%"std::fmt::Arguments") dereferenceable(48) %_126, [0 x { [0 x i8]*, i64 }]* nonnull align 8 bitcast (<{ i8*, [8 x i8], i8*, [8 x i8] }>* @alloc18 to [0 x { [0 x i8]*, i64 }]*), i64 2, [0 x { i8*, i64* }]* nonnull align 8 %_138.0, i64 1), !dbg !1416
  br label %bb64, !dbg !1416

bb64:                                             ; preds = %bb63
; call alloc::fmt::format
  call void @_ZN5alloc3fmt6format17h7dfe3119da20d486E(%"std::string::String"* noalias nocapture sret(%"std::string::String") dereferenceable(24) %res, %"std::fmt::Arguments"* noalias nocapture dereferenceable(48) %_126), !dbg !1414
  br label %bb65, !dbg !1414

bb65:                                             ; preds = %bb64
  %127 = bitcast %"std::string::String"* %_124 to i8*, !dbg !1303
  %128 = bitcast %"std::string::String"* %res to i8*, !dbg !1303
  call void @llvm.memcpy.p0i8.p0i8.i64(i8* align 8 %127, i8* align 8 %128, i64 24, i1 false), !dbg !1303
; call <alloc::string::String as core::ops::deref::Deref>::deref
  %129 = call { [0 x i8]*, i64 } @"_ZN65_$LT$alloc..string..String$u20$as$u20$core..ops..deref..Deref$GT$5deref17h230183e43db16589E"(%"std::string::String"* align 8 dereferenceable(24) %_124), !dbg !1414
  %_121.0 = extractvalue { [0 x i8]*, i64 } %129, 0, !dbg !1414
  %_121.1 = extractvalue { [0 x i8]*, i64 } %129, 1, !dbg !1414
  br label %bb66, !dbg !1414

bb66:                                             ; preds = %bb65
; call solana_program::log::sol_log
  call void @_ZN14solana_program3log7sol_log17h4d8401486258f67dE([0 x i8]* nonnull align 1 %_121.0, i64 %_121.1), !dbg !1414
  br label %bb67, !dbg !1414

bb67:                                             ; preds = %bb66
; call core::ptr::drop_in_place<alloc::string::String>
  call void @"_ZN4core3ptr42drop_in_place$LT$alloc..string..String$GT$17hd10f26f49069dc78E"(%"std::string::String"* %_124), !dbg !1414
  br label %bb68, !dbg !1414

bb68:                                             ; preds = %bb67
  %130 = bitcast %"solana_program::account_info::AccountInfo"* %val15 to %"solana_program::pubkey::Pubkey"**, !dbg !1417
  %_145 = load %"solana_program::pubkey::Pubkey"*, %"solana_program::pubkey::Pubkey"** %130, align 8, !dbg !1417, !nonnull !14
  %131 = bitcast %"solana_program::account_info::AccountInfo"* %val17 to %"solana_program::pubkey::Pubkey"**, !dbg !1418
  %_146 = load %"solana_program::pubkey::Pubkey"*, %"solana_program::pubkey::Pubkey"** %131, align 8, !dbg !1418, !nonnull !14
  %_147 = load i64, i64* %required_lamports, align 8, !dbg !1419
; call solana_program::system_instruction::transfer
  call void @_ZN14solana_program18system_instruction8transfer17he6bc8f06d02c906dE(%"solana_program::instruction::Instruction"* noalias nocapture sret(%"solana_program::instruction::Instruction") dereferenceable(80) %_144, %"solana_program::pubkey::Pubkey"* align 1 dereferenceable(32) %_145, %"solana_program::pubkey::Pubkey"* align 1 dereferenceable(32) %_146, i64 %_147), !dbg !1420
  br label %bb69, !dbg !1420

bb69:                                             ; preds = %bb68
; call <solana_program::account_info::AccountInfo as core::clone::Clone>::clone
  call void @"_ZN80_$LT$solana_program..account_info..AccountInfo$u20$as$u20$core..clone..Clone$GT$5clone17hd96943ae67127b53E"(%"solana_program::account_info::AccountInfo"* noalias nocapture sret(%"solana_program::account_info::AccountInfo") dereferenceable(48) %_152, %"solana_program::account_info::AccountInfo"* align 8 dereferenceable(48) %val15), !dbg !1421
  br label %bb70, !dbg !1421

bb70:                                             ; preds = %bb69
; call <solana_program::account_info::AccountInfo as core::clone::Clone>::clone
  call void @"_ZN80_$LT$solana_program..account_info..AccountInfo$u20$as$u20$core..clone..Clone$GT$5clone17hd96943ae67127b53E"(%"solana_program::account_info::AccountInfo"* noalias nocapture sret(%"solana_program::account_info::AccountInfo") dereferenceable(48) %_154, %"solana_program::account_info::AccountInfo"* align 8 dereferenceable(48) %val17), !dbg !1422
  br label %bb71, !dbg !1422

bb71:                                             ; preds = %bb70
; call <solana_program::account_info::AccountInfo as core::clone::Clone>::clone
  call void @"_ZN80_$LT$solana_program..account_info..AccountInfo$u20$as$u20$core..clone..Clone$GT$5clone17hd96943ae67127b53E"(%"solana_program::account_info::AccountInfo"* noalias nocapture sret(%"solana_program::account_info::AccountInfo") dereferenceable(48) %_156, %"solana_program::account_info::AccountInfo"* align 8 dereferenceable(48) %val23), !dbg !1423
  br label %bb72, !dbg !1423

bb72:                                             ; preds = %bb71
  %132 = bitcast [3 x %"solana_program::account_info::AccountInfo"]* %_151 to %"solana_program::account_info::AccountInfo"*, !dbg !1424
  %133 = bitcast %"solana_program::account_info::AccountInfo"* %132 to i8*, !dbg !1424
  %134 = bitcast %"solana_program::account_info::AccountInfo"* %_152 to i8*, !dbg !1424
  call void @llvm.memcpy.p0i8.p0i8.i64(i8* align 8 %133, i8* align 8 %134, i64 48, i1 false), !dbg !1424
  %135 = getelementptr inbounds [3 x %"solana_program::account_info::AccountInfo"], [3 x %"solana_program::account_info::AccountInfo"]* %_151, i32 0, i32 1, !dbg !1424
  %136 = bitcast %"solana_program::account_info::AccountInfo"* %135 to i8*, !dbg !1424
  %137 = bitcast %"solana_program::account_info::AccountInfo"* %_154 to i8*, !dbg !1424
  call void @llvm.memcpy.p0i8.p0i8.i64(i8* align 8 %136, i8* align 8 %137, i64 48, i1 false), !dbg !1424
  %138 = getelementptr inbounds [3 x %"solana_program::account_info::AccountInfo"], [3 x %"solana_program::account_info::AccountInfo"]* %_151, i32 0, i32 2, !dbg !1424
  %139 = bitcast %"solana_program::account_info::AccountInfo"* %138 to i8*, !dbg !1424
  %140 = bitcast %"solana_program::account_info::AccountInfo"* %_156 to i8*, !dbg !1424
  call void @llvm.memcpy.p0i8.p0i8.i64(i8* align 8 %139, i8* align 8 %140, i64 48, i1 false), !dbg !1424
  %_148.0 = bitcast [3 x %"solana_program::account_info::AccountInfo"]* %_151 to [0 x %"solana_program::account_info::AccountInfo"]*, !dbg !1425
; call solana_program::program::invoke
  call void @_ZN14solana_program7program6invoke17h8700ad57c0bdcbb8E(%"std::result::Result<(), solana_program::program_error::ProgramError>"* noalias nocapture sret(%"std::result::Result<(), solana_program::program_error::ProgramError>") dereferenceable(32) %_141, %"solana_program::instruction::Instruction"* align 8 dereferenceable(80) %_144, [0 x %"solana_program::account_info::AccountInfo"]* nonnull align 8 %_148.0, i64 3), !dbg !1426
  br label %bb73, !dbg !1426

bb73:                                             ; preds = %bb72
; call <core::result::Result<T,E> as core::ops::try_trait::Try>::branch
  call void @"_ZN79_$LT$core..result..Result$LT$T$C$E$GT$$u20$as$u20$core..ops..try_trait..Try$GT$6branch17h5bbc5a68ec79a6a3E"(%"std::ops::ControlFlow<std::result::Result<std::convert::Infallible, solana_program::program_error::ProgramError>>"* noalias nocapture sret(%"std::ops::ControlFlow<std::result::Result<std::convert::Infallible, solana_program::program_error::ProgramError>>") dereferenceable(32) %_140, %"std::result::Result<(), solana_program::program_error::ProgramError>"* noalias nocapture dereferenceable(32) %_141), !dbg !1426
  br label %bb74, !dbg !1426

bb74:                                             ; preds = %bb73
  %141 = bitcast %"std::ops::ControlFlow<std::result::Result<std::convert::Infallible, solana_program::program_error::ProgramError>>"* %_140 to i32*, !dbg !1426
  %142 = load i32, i32* %141, align 8, !dbg !1426, !range !1427
  %143 = sub i32 %142, 20, !dbg !1426
  %144 = icmp eq i32 %143, 0, !dbg !1426
  %_158 = select i1 %144, i64 0, i64 1, !dbg !1426
  switch i64 %_158, label %bb76 [
    i64 0, label %bb75
    i64 1, label %bb77
  ], !dbg !1426

bb76:                                             ; preds = %bb74
  unreachable, !dbg !1426

bb75:                                             ; preds = %bb74
; call core::ptr::drop_in_place<[solana_program::account_info::AccountInfo; 3]>
  call void @"_ZN4core3ptr83drop_in_place$LT$$u5b$solana_program..account_info..AccountInfo$u3b$$u20$3$u5d$$GT$17h2da496a9fe420cbbE"([3 x %"solana_program::account_info::AccountInfo"]* %_151), !dbg !1428
  br label %bb79, !dbg !1428

bb77:                                             ; preds = %bb74
  %145 = bitcast %"std::ops::ControlFlow<std::result::Result<std::convert::Infallible, solana_program::program_error::ProgramError>>"* %_140 to %"std::ops::ControlFlow<std::result::Result<std::convert::Infallible, solana_program::program_error::ProgramError>>::Break"*, !dbg !1429
  %146 = bitcast %"std::ops::ControlFlow<std::result::Result<std::convert::Infallible, solana_program::program_error::ProgramError>>::Break"* %145 to %"std::result::Result<std::convert::Infallible, solana_program::program_error::ProgramError>::Err"*, !dbg !1429
  %147 = bitcast %"std::result::Result<std::convert::Infallible, solana_program::program_error::ProgramError>::Err"* %residual8 to i8*, !dbg !1429
  %148 = bitcast %"std::result::Result<std::convert::Infallible, solana_program::program_error::ProgramError>::Err"* %146 to i8*, !dbg !1429
  call void @llvm.memcpy.p0i8.p0i8.i64(i8* align 8 %147, i8* align 8 %148, i64 32, i1 false), !dbg !1429
  %149 = bitcast %"std::result::Result<std::convert::Infallible, solana_program::program_error::ProgramError>::Err"* %_160 to i8*, !dbg !1304
  %150 = bitcast %"std::result::Result<std::convert::Infallible, solana_program::program_error::ProgramError>::Err"* %residual8 to i8*, !dbg !1304
  call void @llvm.memcpy.p0i8.p0i8.i64(i8* align 8 %149, i8* align 8 %150, i64 32, i1 false), !dbg !1304
; call <core::result::Result<T,F> as core::ops::try_trait::FromResidual<core::result::Result<core::convert::Infallible,E>>>::from_residual
  call void @"_ZN153_$LT$core..result..Result$LT$T$C$F$GT$$u20$as$u20$core..ops..try_trait..FromResidual$LT$core..result..Result$LT$core..convert..Infallible$C$E$GT$$GT$$GT$13from_residual17h8798c99f7e99c356E"(%"std::result::Result<(), solana_program::program_error::ProgramError>"* noalias nocapture sret(%"std::result::Result<(), solana_program::program_error::ProgramError>") dereferenceable(32) %0, %"std::result::Result<std::convert::Infallible, solana_program::program_error::ProgramError>::Err"* noalias nocapture dereferenceable(32) %_160), !dbg !1430
  br label %bb78, !dbg !1430

bb78:                                             ; preds = %bb77
; call core::ptr::drop_in_place<[solana_program::account_info::AccountInfo; 3]>
  call void @"_ZN4core3ptr83drop_in_place$LT$$u5b$solana_program..account_info..AccountInfo$u3b$$u20$3$u5d$$GT$17h2da496a9fe420cbbE"([3 x %"solana_program::account_info::AccountInfo"]* %_151), !dbg !1428
  br label %bb121, !dbg !1428

bb121:                                            ; preds = %bb78
; call core::ptr::drop_in_place<solana_program::instruction::Instruction>
  call void @"_ZN4core3ptr61drop_in_place$LT$solana_program..instruction..Instruction$GT$17hb61c090086fb18c2E"(%"solana_program::instruction::Instruction"* %_144), !dbg !1428
  br label %bb122, !dbg !1428

bb79:                                             ; preds = %bb75
; call core::ptr::drop_in_place<solana_program::instruction::Instruction>
  call void @"_ZN4core3ptr61drop_in_place$LT$solana_program..instruction..Instruction$GT$17hb61c090086fb18c2E"(%"solana_program::instruction::Instruction"* %_144), !dbg !1428
  br label %bb80, !dbg !1428

bb81:                                             ; preds = %bb80
  %151 = bitcast %"solana_program::account_info::AccountInfo"* %val17 to %"solana_program::pubkey::Pubkey"**, !dbg !1431
  %_170 = load %"solana_program::pubkey::Pubkey"*, %"solana_program::pubkey::Pubkey"** %151, align 8, !dbg !1431, !nonnull !14
; call solana_program::system_instruction::allocate
  call void @_ZN14solana_program18system_instruction8allocate17h31dd85d2b50f5566E(%"solana_program::instruction::Instruction"* noalias nocapture sret(%"solana_program::instruction::Instruction") dereferenceable(80) %_169, %"solana_program::pubkey::Pubkey"* align 1 dereferenceable(32) %_170, i64 165), !dbg !1432
  br label %bb82, !dbg !1432

bb82:                                             ; preds = %bb81
; call <solana_program::account_info::AccountInfo as core::clone::Clone>::clone
  call void @"_ZN80_$LT$solana_program..account_info..AccountInfo$u20$as$u20$core..clone..Clone$GT$5clone17hd96943ae67127b53E"(%"solana_program::account_info::AccountInfo"* noalias nocapture sret(%"solana_program::account_info::AccountInfo") dereferenceable(48) %_176, %"solana_program::account_info::AccountInfo"* align 8 dereferenceable(48) %val17), !dbg !1433
  br label %bb83, !dbg !1433

bb83:                                             ; preds = %bb82
; call <solana_program::account_info::AccountInfo as core::clone::Clone>::clone
  call void @"_ZN80_$LT$solana_program..account_info..AccountInfo$u20$as$u20$core..clone..Clone$GT$5clone17hd96943ae67127b53E"(%"solana_program::account_info::AccountInfo"* noalias nocapture sret(%"solana_program::account_info::AccountInfo") dereferenceable(48) %_178, %"solana_program::account_info::AccountInfo"* align 8 dereferenceable(48) %val23), !dbg !1434
  br label %bb84, !dbg !1434

bb84:                                             ; preds = %bb83
  %152 = bitcast [2 x %"solana_program::account_info::AccountInfo"]* %_175 to %"solana_program::account_info::AccountInfo"*, !dbg !1435
  %153 = bitcast %"solana_program::account_info::AccountInfo"* %152 to i8*, !dbg !1435
  %154 = bitcast %"solana_program::account_info::AccountInfo"* %_176 to i8*, !dbg !1435
  call void @llvm.memcpy.p0i8.p0i8.i64(i8* align 8 %153, i8* align 8 %154, i64 48, i1 false), !dbg !1435
  %155 = getelementptr inbounds [2 x %"solana_program::account_info::AccountInfo"], [2 x %"solana_program::account_info::AccountInfo"]* %_175, i32 0, i32 1, !dbg !1435
  %156 = bitcast %"solana_program::account_info::AccountInfo"* %155 to i8*, !dbg !1435
  %157 = bitcast %"solana_program::account_info::AccountInfo"* %_178 to i8*, !dbg !1435
  call void @llvm.memcpy.p0i8.p0i8.i64(i8* align 8 %156, i8* align 8 %157, i64 48, i1 false), !dbg !1435
  %_172.0 = bitcast [2 x %"solana_program::account_info::AccountInfo"]* %_175 to [0 x %"solana_program::account_info::AccountInfo"]*, !dbg !1436
  %158 = bitcast [1 x { [0 x { [0 x i8]*, i64 }]*, i64 }]* %_183 to { [0 x { [0 x i8]*, i64 }]*, i64 }*, !dbg !1437
  %159 = getelementptr inbounds { [0 x { [0 x i8]*, i64 }]*, i64 }, { [0 x { [0 x i8]*, i64 }]*, i64 }* %158, i32 0, i32 0, !dbg !1437
  store [0 x { [0 x i8]*, i64 }]* %associated_token_account_signer_seeds.0, [0 x { [0 x i8]*, i64 }]** %159, align 8, !dbg !1437
  %160 = getelementptr inbounds { [0 x { [0 x i8]*, i64 }]*, i64 }, { [0 x { [0 x i8]*, i64 }]*, i64 }* %158, i32 0, i32 1, !dbg !1437
  store i64 4, i64* %160, align 8, !dbg !1437
  %_180.0 = bitcast [1 x { [0 x { [0 x i8]*, i64 }]*, i64 }]* %_183 to [0 x { [0 x { [0 x i8]*, i64 }]*, i64 }]*, !dbg !1438
; call solana_program::program::invoke_signed
  call void @_ZN14solana_program7program13invoke_signed17h7220466fe46e866eE(%"std::result::Result<(), solana_program::program_error::ProgramError>"* noalias nocapture sret(%"std::result::Result<(), solana_program::program_error::ProgramError>") dereferenceable(32) %_166, %"solana_program::instruction::Instruction"* align 8 dereferenceable(80) %_169, [0 x %"solana_program::account_info::AccountInfo"]* nonnull align 8 %_172.0, i64 2, [0 x { [0 x { [0 x i8]*, i64 }]*, i64 }]* nonnull align 8 %_180.0, i64 1), !dbg !1439
  br label %bb85, !dbg !1439

bb85:                                             ; preds = %bb84
; call <core::result::Result<T,E> as core::ops::try_trait::Try>::branch
  call void @"_ZN79_$LT$core..result..Result$LT$T$C$E$GT$$u20$as$u20$core..ops..try_trait..Try$GT$6branch17h5bbc5a68ec79a6a3E"(%"std::ops::ControlFlow<std::result::Result<std::convert::Infallible, solana_program::program_error::ProgramError>>"* noalias nocapture sret(%"std::ops::ControlFlow<std::result::Result<std::convert::Infallible, solana_program::program_error::ProgramError>>") dereferenceable(32) %_165, %"std::result::Result<(), solana_program::program_error::ProgramError>"* noalias nocapture dereferenceable(32) %_166), !dbg !1439
  br label %bb86, !dbg !1439

bb86:                                             ; preds = %bb85
  %161 = bitcast %"std::ops::ControlFlow<std::result::Result<std::convert::Infallible, solana_program::program_error::ProgramError>>"* %_165 to i32*, !dbg !1439
  %162 = load i32, i32* %161, align 8, !dbg !1439, !range !1427
  %163 = sub i32 %162, 20, !dbg !1439
  %164 = icmp eq i32 %163, 0, !dbg !1439
  %_185 = select i1 %164, i64 0, i64 1, !dbg !1439
  switch i64 %_185, label %bb88 [
    i64 0, label %bb87
    i64 1, label %bb89
  ], !dbg !1439

bb88:                                             ; preds = %bb86
  unreachable, !dbg !1439

bb87:                                             ; preds = %bb86
; call core::ptr::drop_in_place<[solana_program::account_info::AccountInfo; 2]>
  call void @"_ZN4core3ptr83drop_in_place$LT$$u5b$solana_program..account_info..AccountInfo$u3b$$u20$2$u5d$$GT$17he42a488fc4b213bcE"([2 x %"solana_program::account_info::AccountInfo"]* %_175), !dbg !1440
  br label %bb91, !dbg !1440

bb89:                                             ; preds = %bb86
  %165 = bitcast %"std::ops::ControlFlow<std::result::Result<std::convert::Infallible, solana_program::program_error::ProgramError>>"* %_165 to %"std::ops::ControlFlow<std::result::Result<std::convert::Infallible, solana_program::program_error::ProgramError>>::Break"*, !dbg !1441
  %166 = bitcast %"std::ops::ControlFlow<std::result::Result<std::convert::Infallible, solana_program::program_error::ProgramError>>::Break"* %165 to %"std::result::Result<std::convert::Infallible, solana_program::program_error::ProgramError>::Err"*, !dbg !1441
  %167 = bitcast %"std::result::Result<std::convert::Infallible, solana_program::program_error::ProgramError>::Err"* %residual9 to i8*, !dbg !1441
  %168 = bitcast %"std::result::Result<std::convert::Infallible, solana_program::program_error::ProgramError>::Err"* %166 to i8*, !dbg !1441
  call void @llvm.memcpy.p0i8.p0i8.i64(i8* align 8 %167, i8* align 8 %168, i64 32, i1 false), !dbg !1441
  %169 = bitcast %"std::result::Result<std::convert::Infallible, solana_program::program_error::ProgramError>::Err"* %_187 to i8*, !dbg !1306
  %170 = bitcast %"std::result::Result<std::convert::Infallible, solana_program::program_error::ProgramError>::Err"* %residual9 to i8*, !dbg !1306
  call void @llvm.memcpy.p0i8.p0i8.i64(i8* align 8 %169, i8* align 8 %170, i64 32, i1 false), !dbg !1306
; call <core::result::Result<T,F> as core::ops::try_trait::FromResidual<core::result::Result<core::convert::Infallible,E>>>::from_residual
  call void @"_ZN153_$LT$core..result..Result$LT$T$C$F$GT$$u20$as$u20$core..ops..try_trait..FromResidual$LT$core..result..Result$LT$core..convert..Infallible$C$E$GT$$GT$$GT$13from_residual17h8798c99f7e99c356E"(%"std::result::Result<(), solana_program::program_error::ProgramError>"* noalias nocapture sret(%"std::result::Result<(), solana_program::program_error::ProgramError>") dereferenceable(32) %0, %"std::result::Result<std::convert::Infallible, solana_program::program_error::ProgramError>::Err"* noalias nocapture dereferenceable(32) %_187), !dbg !1442
  br label %bb90, !dbg !1442

bb90:                                             ; preds = %bb89
; call core::ptr::drop_in_place<[solana_program::account_info::AccountInfo; 2]>
  call void @"_ZN4core3ptr83drop_in_place$LT$$u5b$solana_program..account_info..AccountInfo$u3b$$u20$2$u5d$$GT$17he42a488fc4b213bcE"([2 x %"solana_program::account_info::AccountInfo"]* %_175), !dbg !1440
  br label %bb120, !dbg !1440

bb120:                                            ; preds = %bb90
; call core::ptr::drop_in_place<solana_program::instruction::Instruction>
  call void @"_ZN4core3ptr61drop_in_place$LT$solana_program..instruction..Instruction$GT$17hb61c090086fb18c2E"(%"solana_program::instruction::Instruction"* %_169), !dbg !1440
  br label %bb122, !dbg !1440

bb91:                                             ; preds = %bb87
; call core::ptr::drop_in_place<solana_program::instruction::Instruction>
  call void @"_ZN4core3ptr61drop_in_place$LT$solana_program..instruction..Instruction$GT$17hb61c090086fb18c2E"(%"solana_program::instruction::Instruction"* %_169), !dbg !1440
  br label %bb92, !dbg !1440

bb92:                                             ; preds = %bb91
; call solana_program::log::sol_log
  call void @_ZN14solana_program3log7sol_log17h4d8401486258f67dE([0 x i8]* nonnull align 1 bitcast (<{ [60 x i8] }>* @alloc47 to [0 x i8]*), i64 60), !dbg !1443
  br label %bb93, !dbg !1443

bb93:                                             ; preds = %bb92
  %171 = bitcast %"solana_program::account_info::AccountInfo"* %val17 to %"solana_program::pubkey::Pubkey"**, !dbg !1444
  %_197 = load %"solana_program::pubkey::Pubkey"*, %"solana_program::pubkey::Pubkey"** %171, align 8, !dbg !1444, !nonnull !14
; call solana_program::system_instruction::assign
  call void @_ZN14solana_program18system_instruction6assign17hc774c0028c25bdfcE(%"solana_program::instruction::Instruction"* noalias nocapture sret(%"solana_program::instruction::Instruction") dereferenceable(80) %_196, %"solana_program::pubkey::Pubkey"* align 1 dereferenceable(32) %_197, %"solana_program::pubkey::Pubkey"* align 1 dereferenceable(32) %spl_token_program_id), !dbg !1445
  br label %bb94, !dbg !1445

bb94:                                             ; preds = %bb93
; call <solana_program::account_info::AccountInfo as core::clone::Clone>::clone
  call void @"_ZN80_$LT$solana_program..account_info..AccountInfo$u20$as$u20$core..clone..Clone$GT$5clone17hd96943ae67127b53E"(%"solana_program::account_info::AccountInfo"* noalias nocapture sret(%"solana_program::account_info::AccountInfo") dereferenceable(48) %_203, %"solana_program::account_info::AccountInfo"* align 8 dereferenceable(48) %val17), !dbg !1446
  br label %bb95, !dbg !1446

bb95:                                             ; preds = %bb94
; call <solana_program::account_info::AccountInfo as core::clone::Clone>::clone
  call void @"_ZN80_$LT$solana_program..account_info..AccountInfo$u20$as$u20$core..clone..Clone$GT$5clone17hd96943ae67127b53E"(%"solana_program::account_info::AccountInfo"* noalias nocapture sret(%"solana_program::account_info::AccountInfo") dereferenceable(48) %_205, %"solana_program::account_info::AccountInfo"* align 8 dereferenceable(48) %val23), !dbg !1447
  br label %bb96, !dbg !1447

bb96:                                             ; preds = %bb95
  %172 = bitcast [2 x %"solana_program::account_info::AccountInfo"]* %_202 to %"solana_program::account_info::AccountInfo"*, !dbg !1448
  %173 = bitcast %"solana_program::account_info::AccountInfo"* %172 to i8*, !dbg !1448
  %174 = bitcast %"solana_program::account_info::AccountInfo"* %_203 to i8*, !dbg !1448
  call void @llvm.memcpy.p0i8.p0i8.i64(i8* align 8 %173, i8* align 8 %174, i64 48, i1 false), !dbg !1448
  %175 = getelementptr inbounds [2 x %"solana_program::account_info::AccountInfo"], [2 x %"solana_program::account_info::AccountInfo"]* %_202, i32 0, i32 1, !dbg !1448
  %176 = bitcast %"solana_program::account_info::AccountInfo"* %175 to i8*, !dbg !1448
  %177 = bitcast %"solana_program::account_info::AccountInfo"* %_205 to i8*, !dbg !1448
  call void @llvm.memcpy.p0i8.p0i8.i64(i8* align 8 %176, i8* align 8 %177, i64 48, i1 false), !dbg !1448
  %_199.0 = bitcast [2 x %"solana_program::account_info::AccountInfo"]* %_202 to [0 x %"solana_program::account_info::AccountInfo"]*, !dbg !1449
  %178 = bitcast [1 x { [0 x { [0 x i8]*, i64 }]*, i64 }]* %_210 to { [0 x { [0 x i8]*, i64 }]*, i64 }*, !dbg !1450
  %179 = getelementptr inbounds { [0 x { [0 x i8]*, i64 }]*, i64 }, { [0 x { [0 x i8]*, i64 }]*, i64 }* %178, i32 0, i32 0, !dbg !1450
  store [0 x { [0 x i8]*, i64 }]* %associated_token_account_signer_seeds.0, [0 x { [0 x i8]*, i64 }]** %179, align 8, !dbg !1450
  %180 = getelementptr inbounds { [0 x { [0 x i8]*, i64 }]*, i64 }, { [0 x { [0 x i8]*, i64 }]*, i64 }* %178, i32 0, i32 1, !dbg !1450
  store i64 4, i64* %180, align 8, !dbg !1450
  %_207.0 = bitcast [1 x { [0 x { [0 x i8]*, i64 }]*, i64 }]* %_210 to [0 x { [0 x { [0 x i8]*, i64 }]*, i64 }]*, !dbg !1451
; call solana_program::program::invoke_signed
  call void @_ZN14solana_program7program13invoke_signed17h7220466fe46e866eE(%"std::result::Result<(), solana_program::program_error::ProgramError>"* noalias nocapture sret(%"std::result::Result<(), solana_program::program_error::ProgramError>") dereferenceable(32) %_193, %"solana_program::instruction::Instruction"* align 8 dereferenceable(80) %_196, [0 x %"solana_program::account_info::AccountInfo"]* nonnull align 8 %_199.0, i64 2, [0 x { [0 x { [0 x i8]*, i64 }]*, i64 }]* nonnull align 8 %_207.0, i64 1), !dbg !1452
  br label %bb97, !dbg !1452

bb97:                                             ; preds = %bb96
; call <core::result::Result<T,E> as core::ops::try_trait::Try>::branch
  call void @"_ZN79_$LT$core..result..Result$LT$T$C$E$GT$$u20$as$u20$core..ops..try_trait..Try$GT$6branch17h5bbc5a68ec79a6a3E"(%"std::ops::ControlFlow<std::result::Result<std::convert::Infallible, solana_program::program_error::ProgramError>>"* noalias nocapture sret(%"std::ops::ControlFlow<std::result::Result<std::convert::Infallible, solana_program::program_error::ProgramError>>") dereferenceable(32) %_192, %"std::result::Result<(), solana_program::program_error::ProgramError>"* noalias nocapture dereferenceable(32) %_193), !dbg !1452
  br label %bb98, !dbg !1452

bb98:                                             ; preds = %bb97
  %181 = bitcast %"std::ops::ControlFlow<std::result::Result<std::convert::Infallible, solana_program::program_error::ProgramError>>"* %_192 to i32*, !dbg !1452
  %182 = load i32, i32* %181, align 8, !dbg !1452, !range !1427
  %183 = sub i32 %182, 20, !dbg !1452
  %184 = icmp eq i32 %183, 0, !dbg !1452
  %_212 = select i1 %184, i64 0, i64 1, !dbg !1452
  switch i64 %_212, label %bb100 [
    i64 0, label %bb99
    i64 1, label %bb101
  ], !dbg !1452

bb100:                                            ; preds = %bb98
  unreachable, !dbg !1452

bb99:                                             ; preds = %bb98
; call core::ptr::drop_in_place<[solana_program::account_info::AccountInfo; 2]>
  call void @"_ZN4core3ptr83drop_in_place$LT$$u5b$solana_program..account_info..AccountInfo$u3b$$u20$2$u5d$$GT$17he42a488fc4b213bcE"([2 x %"solana_program::account_info::AccountInfo"]* %_202), !dbg !1453
  br label %bb103, !dbg !1453

bb101:                                            ; preds = %bb98
  %185 = bitcast %"std::ops::ControlFlow<std::result::Result<std::convert::Infallible, solana_program::program_error::ProgramError>>"* %_192 to %"std::ops::ControlFlow<std::result::Result<std::convert::Infallible, solana_program::program_error::ProgramError>>::Break"*, !dbg !1454
  %186 = bitcast %"std::ops::ControlFlow<std::result::Result<std::convert::Infallible, solana_program::program_error::ProgramError>>::Break"* %185 to %"std::result::Result<std::convert::Infallible, solana_program::program_error::ProgramError>::Err"*, !dbg !1454
  %187 = bitcast %"std::result::Result<std::convert::Infallible, solana_program::program_error::ProgramError>::Err"* %residual11 to i8*, !dbg !1454
  %188 = bitcast %"std::result::Result<std::convert::Infallible, solana_program::program_error::ProgramError>::Err"* %186 to i8*, !dbg !1454
  call void @llvm.memcpy.p0i8.p0i8.i64(i8* align 8 %187, i8* align 8 %188, i64 32, i1 false), !dbg !1454
  %189 = bitcast %"std::result::Result<std::convert::Infallible, solana_program::program_error::ProgramError>::Err"* %_214 to i8*, !dbg !1308
  %190 = bitcast %"std::result::Result<std::convert::Infallible, solana_program::program_error::ProgramError>::Err"* %residual11 to i8*, !dbg !1308
  call void @llvm.memcpy.p0i8.p0i8.i64(i8* align 8 %189, i8* align 8 %190, i64 32, i1 false), !dbg !1308
; call <core::result::Result<T,F> as core::ops::try_trait::FromResidual<core::result::Result<core::convert::Infallible,E>>>::from_residual
  call void @"_ZN153_$LT$core..result..Result$LT$T$C$F$GT$$u20$as$u20$core..ops..try_trait..FromResidual$LT$core..result..Result$LT$core..convert..Infallible$C$E$GT$$GT$$GT$13from_residual17h8798c99f7e99c356E"(%"std::result::Result<(), solana_program::program_error::ProgramError>"* noalias nocapture sret(%"std::result::Result<(), solana_program::program_error::ProgramError>") dereferenceable(32) %0, %"std::result::Result<std::convert::Infallible, solana_program::program_error::ProgramError>::Err"* noalias nocapture dereferenceable(32) %_214), !dbg !1455
  br label %bb102, !dbg !1455

bb102:                                            ; preds = %bb101
; call core::ptr::drop_in_place<[solana_program::account_info::AccountInfo; 2]>
  call void @"_ZN4core3ptr83drop_in_place$LT$$u5b$solana_program..account_info..AccountInfo$u3b$$u20$2$u5d$$GT$17he42a488fc4b213bcE"([2 x %"solana_program::account_info::AccountInfo"]* %_202), !dbg !1453
  br label %bb119, !dbg !1453

bb119:                                            ; preds = %bb102
; call core::ptr::drop_in_place<solana_program::instruction::Instruction>
  call void @"_ZN4core3ptr61drop_in_place$LT$solana_program..instruction..Instruction$GT$17hb61c090086fb18c2E"(%"solana_program::instruction::Instruction"* %_196), !dbg !1453
  br label %bb122, !dbg !1453

bb103:                                            ; preds = %bb99
; call core::ptr::drop_in_place<solana_program::instruction::Instruction>
  call void @"_ZN4core3ptr61drop_in_place$LT$solana_program..instruction..Instruction$GT$17hb61c090086fb18c2E"(%"solana_program::instruction::Instruction"* %_196), !dbg !1453
  br label %bb104, !dbg !1453

bb104:                                            ; preds = %bb103
; call solana_program::log::sol_log
  call void @_ZN14solana_program3log7sol_log17h4d8401486258f67dE([0 x i8]* nonnull align 1 bitcast (<{ [39 x i8] }>* @alloc48 to [0 x i8]*), i64 39), !dbg !1456
  br label %bb105, !dbg !1456

bb105:                                            ; preds = %bb104
  %191 = bitcast %"solana_program::account_info::AccountInfo"* %val17 to %"solana_program::pubkey::Pubkey"**, !dbg !1457
  %_225 = load %"solana_program::pubkey::Pubkey"*, %"solana_program::pubkey::Pubkey"** %191, align 8, !dbg !1457, !nonnull !14
  %192 = bitcast %"solana_program::account_info::AccountInfo"* %val21 to %"solana_program::pubkey::Pubkey"**, !dbg !1458
  %_226 = load %"solana_program::pubkey::Pubkey"*, %"solana_program::pubkey::Pubkey"** %192, align 8, !dbg !1458, !nonnull !14
  %193 = bitcast %"solana_program::account_info::AccountInfo"* %val19 to %"solana_program::pubkey::Pubkey"**, !dbg !1459
  %_227 = load %"solana_program::pubkey::Pubkey"*, %"solana_program::pubkey::Pubkey"** %193, align 8, !dbg !1459, !nonnull !14
; call spl_token::instruction::initialize_account
  call void @_ZN9spl_token11instruction18initialize_account17ha963ebb57c38d797E(%"std::result::Result<solana_program::instruction::Instruction, solana_program::program_error::ProgramError>"* noalias nocapture sret(%"std::result::Result<solana_program::instruction::Instruction, solana_program::program_error::ProgramError>") dereferenceable(88) %_223, %"solana_program::pubkey::Pubkey"* align 1 dereferenceable(32) %spl_token_program_id, %"solana_program::pubkey::Pubkey"* align 1 dereferenceable(32) %_225, %"solana_program::pubkey::Pubkey"* align 1 dereferenceable(32) %_226, %"solana_program::pubkey::Pubkey"* align 1 dereferenceable(32) %_227), !dbg !1460
  br label %bb106, !dbg !1460

bb106:                                            ; preds = %bb105
; call <core::result::Result<T,E> as core::ops::try_trait::Try>::branch
  call void @"_ZN79_$LT$core..result..Result$LT$T$C$E$GT$$u20$as$u20$core..ops..try_trait..Try$GT$6branch17h3def47bdc39c2a57E"(%"std::ops::ControlFlow<std::result::Result<std::convert::Infallible, solana_program::program_error::ProgramError>, solana_program::instruction::Instruction>"* noalias nocapture sret(%"std::ops::ControlFlow<std::result::Result<std::convert::Infallible, solana_program::program_error::ProgramError>, solana_program::instruction::Instruction>") dereferenceable(88) %_222, %"std::result::Result<solana_program::instruction::Instruction, solana_program::program_error::ProgramError>"* noalias nocapture dereferenceable(88) %_223), !dbg !1460
  br label %bb107, !dbg !1460

bb107:                                            ; preds = %bb106
  %194 = bitcast %"std::ops::ControlFlow<std::result::Result<std::convert::Infallible, solana_program::program_error::ProgramError>, solana_program::instruction::Instruction>"* %_222 to i64*, !dbg !1460
  %_228 = load i64, i64* %194, align 8, !dbg !1460, !range !1094
  switch i64 %_228, label %bb109 [
    i64 0, label %bb108
    i64 1, label %bb110
  ], !dbg !1460

bb109:                                            ; preds = %bb107
  unreachable, !dbg !1460

bb108:                                            ; preds = %bb107
  %195 = bitcast %"std::ops::ControlFlow<std::result::Result<std::convert::Infallible, solana_program::program_error::ProgramError>, solana_program::instruction::Instruction>"* %_222 to %"std::ops::ControlFlow<std::result::Result<std::convert::Infallible, solana_program::program_error::ProgramError>, solana_program::instruction::Instruction>::Continue"*, !dbg !1460
  %196 = getelementptr inbounds %"std::ops::ControlFlow<std::result::Result<std::convert::Infallible, solana_program::program_error::ProgramError>, solana_program::instruction::Instruction>::Continue", %"std::ops::ControlFlow<std::result::Result<std::convert::Infallible, solana_program::program_error::ProgramError>, solana_program::instruction::Instruction>::Continue"* %195, i32 0, i32 1, !dbg !1460
  %197 = bitcast %"solana_program::instruction::Instruction"* %val14 to i8*, !dbg !1460
  %198 = bitcast %"solana_program::instruction::Instruction"* %196 to i8*, !dbg !1460
  call void @llvm.memcpy.p0i8.p0i8.i64(i8* align 8 %197, i8* align 8 %198, i64 80, i1 false), !dbg !1460
  %199 = bitcast %"solana_program::instruction::Instruction"* %_221 to i8*, !dbg !1311
  %200 = bitcast %"solana_program::instruction::Instruction"* %val14 to i8*, !dbg !1311
  call void @llvm.memcpy.p0i8.p0i8.i64(i8* align 8 %199, i8* align 8 %200, i64 80, i1 false), !dbg !1311
; call <solana_program::account_info::AccountInfo as core::clone::Clone>::clone
  call void @"_ZN80_$LT$solana_program..account_info..AccountInfo$u20$as$u20$core..clone..Clone$GT$5clone17hd96943ae67127b53E"(%"solana_program::account_info::AccountInfo"* noalias nocapture sret(%"solana_program::account_info::AccountInfo") dereferenceable(48) %_236, %"solana_program::account_info::AccountInfo"* align 8 dereferenceable(48) %val17), !dbg !1461
  br label %bb112, !dbg !1461

bb110:                                            ; preds = %bb107
  %201 = bitcast %"std::ops::ControlFlow<std::result::Result<std::convert::Infallible, solana_program::program_error::ProgramError>, solana_program::instruction::Instruction>"* %_222 to %"std::ops::ControlFlow<std::result::Result<std::convert::Infallible, solana_program::program_error::ProgramError>, solana_program::instruction::Instruction>::Break"*, !dbg !1462
  %202 = getelementptr inbounds %"std::ops::ControlFlow<std::result::Result<std::convert::Infallible, solana_program::program_error::ProgramError>, solana_program::instruction::Instruction>::Break", %"std::ops::ControlFlow<std::result::Result<std::convert::Infallible, solana_program::program_error::ProgramError>, solana_program::instruction::Instruction>::Break"* %201, i32 0, i32 1, !dbg !1462
  %203 = bitcast %"std::result::Result<std::convert::Infallible, solana_program::program_error::ProgramError>::Err"* %residual13 to i8*, !dbg !1462
  %204 = bitcast %"std::result::Result<std::convert::Infallible, solana_program::program_error::ProgramError>::Err"* %202 to i8*, !dbg !1462
  call void @llvm.memcpy.p0i8.p0i8.i64(i8* align 8 %203, i8* align 8 %204, i64 32, i1 false), !dbg !1462
  %205 = bitcast %"std::result::Result<std::convert::Infallible, solana_program::program_error::ProgramError>::Err"* %_230 to i8*, !dbg !1310
  %206 = bitcast %"std::result::Result<std::convert::Infallible, solana_program::program_error::ProgramError>::Err"* %residual13 to i8*, !dbg !1310
  call void @llvm.memcpy.p0i8.p0i8.i64(i8* align 8 %205, i8* align 8 %206, i64 32, i1 false), !dbg !1310
; call <core::result::Result<T,F> as core::ops::try_trait::FromResidual<core::result::Result<core::convert::Infallible,E>>>::from_residual
  call void @"_ZN153_$LT$core..result..Result$LT$T$C$F$GT$$u20$as$u20$core..ops..try_trait..FromResidual$LT$core..result..Result$LT$core..convert..Infallible$C$E$GT$$GT$$GT$13from_residual17h8798c99f7e99c356E"(%"std::result::Result<(), solana_program::program_error::ProgramError>"* noalias nocapture sret(%"std::result::Result<(), solana_program::program_error::ProgramError>") dereferenceable(32) %0, %"std::result::Result<std::convert::Infallible, solana_program::program_error::ProgramError>::Err"* noalias nocapture dereferenceable(32) %_230), !dbg !1463
  br label %bb111, !dbg !1463

bb111:                                            ; preds = %bb110
  br label %bb122, !dbg !1464

bb112:                                            ; preds = %bb108
; call <solana_program::account_info::AccountInfo as core::clone::Clone>::clone
  call void @"_ZN80_$LT$solana_program..account_info..AccountInfo$u20$as$u20$core..clone..Clone$GT$5clone17hd96943ae67127b53E"(%"solana_program::account_info::AccountInfo"* noalias nocapture sret(%"solana_program::account_info::AccountInfo") dereferenceable(48) %_238, %"solana_program::account_info::AccountInfo"* align 8 dereferenceable(48) %val21), !dbg !1466
  br label %bb113, !dbg !1466

bb113:                                            ; preds = %bb112
; call <solana_program::account_info::AccountInfo as core::clone::Clone>::clone
  call void @"_ZN80_$LT$solana_program..account_info..AccountInfo$u20$as$u20$core..clone..Clone$GT$5clone17hd96943ae67127b53E"(%"solana_program::account_info::AccountInfo"* noalias nocapture sret(%"solana_program::account_info::AccountInfo") dereferenceable(48) %_240, %"solana_program::account_info::AccountInfo"* align 8 dereferenceable(48) %val19), !dbg !1467
  br label %bb114, !dbg !1467

bb114:                                            ; preds = %bb113
; call <solana_program::account_info::AccountInfo as core::clone::Clone>::clone
  call void @"_ZN80_$LT$solana_program..account_info..AccountInfo$u20$as$u20$core..clone..Clone$GT$5clone17hd96943ae67127b53E"(%"solana_program::account_info::AccountInfo"* noalias nocapture sret(%"solana_program::account_info::AccountInfo") dereferenceable(48) %_242, %"solana_program::account_info::AccountInfo"* align 8 dereferenceable(48) %val27), !dbg !1468
  br label %bb115, !dbg !1468

bb115:                                            ; preds = %bb114
; call <solana_program::account_info::AccountInfo as core::clone::Clone>::clone
  call void @"_ZN80_$LT$solana_program..account_info..AccountInfo$u20$as$u20$core..clone..Clone$GT$5clone17hd96943ae67127b53E"(%"solana_program::account_info::AccountInfo"* noalias nocapture sret(%"solana_program::account_info::AccountInfo") dereferenceable(48) %_244, %"solana_program::account_info::AccountInfo"* align 8 dereferenceable(48) %val25), !dbg !1469
  br label %bb116, !dbg !1469

bb116:                                            ; preds = %bb115
  %207 = bitcast [5 x %"solana_program::account_info::AccountInfo"]* %_235 to %"solana_program::account_info::AccountInfo"*, !dbg !1470
  %208 = bitcast %"solana_program::account_info::AccountInfo"* %207 to i8*, !dbg !1470
  %209 = bitcast %"solana_program::account_info::AccountInfo"* %_236 to i8*, !dbg !1470
  call void @llvm.memcpy.p0i8.p0i8.i64(i8* align 8 %208, i8* align 8 %209, i64 48, i1 false), !dbg !1470
  %210 = getelementptr inbounds [5 x %"solana_program::account_info::AccountInfo"], [5 x %"solana_program::account_info::AccountInfo"]* %_235, i32 0, i32 1, !dbg !1470
  %211 = bitcast %"solana_program::account_info::AccountInfo"* %210 to i8*, !dbg !1470
  %212 = bitcast %"solana_program::account_info::AccountInfo"* %_238 to i8*, !dbg !1470
  call void @llvm.memcpy.p0i8.p0i8.i64(i8* align 8 %211, i8* align 8 %212, i64 48, i1 false), !dbg !1470
  %213 = getelementptr inbounds [5 x %"solana_program::account_info::AccountInfo"], [5 x %"solana_program::account_info::AccountInfo"]* %_235, i32 0, i32 2, !dbg !1470
  %214 = bitcast %"solana_program::account_info::AccountInfo"* %213 to i8*, !dbg !1470
  %215 = bitcast %"solana_program::account_info::AccountInfo"* %_240 to i8*, !dbg !1470
  call void @llvm.memcpy.p0i8.p0i8.i64(i8* align 8 %214, i8* align 8 %215, i64 48, i1 false), !dbg !1470
  %216 = getelementptr inbounds [5 x %"solana_program::account_info::AccountInfo"], [5 x %"solana_program::account_info::AccountInfo"]* %_235, i32 0, i32 3, !dbg !1470
  %217 = bitcast %"solana_program::account_info::AccountInfo"* %216 to i8*, !dbg !1470
  %218 = bitcast %"solana_program::account_info::AccountInfo"* %_242 to i8*, !dbg !1470
  call void @llvm.memcpy.p0i8.p0i8.i64(i8* align 8 %217, i8* align 8 %218, i64 48, i1 false), !dbg !1470
  %219 = getelementptr inbounds [5 x %"solana_program::account_info::AccountInfo"], [5 x %"solana_program::account_info::AccountInfo"]* %_235, i32 0, i32 4, !dbg !1470
  %220 = bitcast %"solana_program::account_info::AccountInfo"* %219 to i8*, !dbg !1470
  %221 = bitcast %"solana_program::account_info::AccountInfo"* %_244 to i8*, !dbg !1470
  call void @llvm.memcpy.p0i8.p0i8.i64(i8* align 8 %220, i8* align 8 %221, i64 48, i1 false), !dbg !1470
  %_232.0 = bitcast [5 x %"solana_program::account_info::AccountInfo"]* %_235 to [0 x %"solana_program::account_info::AccountInfo"]*, !dbg !1471
; call solana_program::program::invoke
  call void @_ZN14solana_program7program6invoke17h8700ad57c0bdcbb8E(%"std::result::Result<(), solana_program::program_error::ProgramError>"* noalias nocapture sret(%"std::result::Result<(), solana_program::program_error::ProgramError>") dereferenceable(32) %0, %"solana_program::instruction::Instruction"* align 8 dereferenceable(80) %_221, [0 x %"solana_program::account_info::AccountInfo"]* nonnull align 8 %_232.0, i64 5), !dbg !1472
  br label %bb117, !dbg !1472

bb117:                                            ; preds = %bb116
; call core::ptr::drop_in_place<[solana_program::account_info::AccountInfo; 5]>
  call void @"_ZN4core3ptr83drop_in_place$LT$$u5b$solana_program..account_info..AccountInfo$u3b$$u20$5$u5d$$GT$17he0260c0930f58f8dE"([5 x %"solana_program::account_info::AccountInfo"]* %_235), !dbg !1473
  br label %bb118, !dbg !1473

bb118:                                            ; preds = %bb117
; call core::ptr::drop_in_place<solana_program::instruction::Instruction>
  call void @"_ZN4core3ptr61drop_in_place$LT$solana_program..instruction..Instruction$GT$17hb61c090086fb18c2E"(%"solana_program::instruction::Instruction"* %_221), !dbg !1473
  br label %bb123, !dbg !1473

bb123:                                            ; preds = %bb118
  br label %bb122, !dbg !1323
}

; spl_associated_token_account::get_associated_token_address_and_bump_seed
; Function Attrs: nounwind
define internal void @_ZN28spl_associated_token_account42get_associated_token_address_and_bump_seed17hf47d1114af8a5bd0E({ %"solana_program::pubkey::Pubkey", i8 }* noalias nocapture sret({ %"solana_program::pubkey::Pubkey", i8 }) dereferenceable(33) %0, %"solana_program::pubkey::Pubkey"* align 1 dereferenceable(32) %wallet_address, %"solana_program::pubkey::Pubkey"* align 1 dereferenceable(32) %spl_token_mint_address, %"solana_program::pubkey::Pubkey"* align 1 dereferenceable(32) %program_id) unnamed_addr #1 !dbg !1474 {
start:
  %program_id.dbg.spill = alloca %"solana_program::pubkey::Pubkey"*, align 8
  %spl_token_mint_address.dbg.spill = alloca %"solana_program::pubkey::Pubkey"*, align 8
  %wallet_address.dbg.spill = alloca %"solana_program::pubkey::Pubkey"*, align 8
  %_9 = alloca %"solana_program::pubkey::Pubkey", align 1
  store %"solana_program::pubkey::Pubkey"* %wallet_address, %"solana_program::pubkey::Pubkey"** %wallet_address.dbg.spill, align 8
  call void @llvm.dbg.declare(metadata %"solana_program::pubkey::Pubkey"** %wallet_address.dbg.spill, metadata !1482, metadata !DIExpression()), !dbg !1485
  store %"solana_program::pubkey::Pubkey"* %spl_token_mint_address, %"solana_program::pubkey::Pubkey"** %spl_token_mint_address.dbg.spill, align 8
  call void @llvm.dbg.declare(metadata %"solana_program::pubkey::Pubkey"** %spl_token_mint_address.dbg.spill, metadata !1483, metadata !DIExpression()), !dbg !1486
  store %"solana_program::pubkey::Pubkey"* %program_id, %"solana_program::pubkey::Pubkey"** %program_id.dbg.spill, align 8
  call void @llvm.dbg.declare(metadata %"solana_program::pubkey::Pubkey"** %program_id.dbg.spill, metadata !1484, metadata !DIExpression()), !dbg !1487
; call spl_token::id
  call void @_ZN9spl_token2id17h2d6719f25f3fd178E(%"solana_program::pubkey::Pubkey"* noalias nocapture sret(%"solana_program::pubkey::Pubkey") dereferenceable(32) %_9), !dbg !1488
  br label %bb1, !dbg !1488

bb1:                                              ; preds = %start
; call spl_associated_token_account::get_associated_token_address_and_bump_seed_internal
  call void @_ZN28spl_associated_token_account51get_associated_token_address_and_bump_seed_internal17hd9fe6503ebde6066E({ %"solana_program::pubkey::Pubkey", i8 }* noalias nocapture sret({ %"solana_program::pubkey::Pubkey", i8 }) dereferenceable(33) %0, %"solana_program::pubkey::Pubkey"* align 1 dereferenceable(32) %wallet_address, %"solana_program::pubkey::Pubkey"* align 1 dereferenceable(32) %spl_token_mint_address, %"solana_program::pubkey::Pubkey"* align 1 dereferenceable(32) %program_id, %"solana_program::pubkey::Pubkey"* align 1 dereferenceable(32) %_9), !dbg !1489
  br label %bb2, !dbg !1489

bb2:                                              ; preds = %bb1
  ret void, !dbg !1490
}

; spl_associated_token_account::get_associated_token_address
; Function Attrs: nounwind
define void @_ZN28spl_associated_token_account28get_associated_token_address17h5c5394828a274268E(%"solana_program::pubkey::Pubkey"* noalias nocapture sret(%"solana_program::pubkey::Pubkey") dereferenceable(32) %0, %"solana_program::pubkey::Pubkey"* align 1 dereferenceable(32) %wallet_address, %"solana_program::pubkey::Pubkey"* align 1 dereferenceable(32) %spl_token_mint_address) unnamed_addr #1 !dbg !1491 {
start:
  %spl_token_mint_address.dbg.spill = alloca %"solana_program::pubkey::Pubkey"*, align 8
  %wallet_address.dbg.spill = alloca %"solana_program::pubkey::Pubkey"*, align 8
  %_8 = alloca %"solana_program::pubkey::Pubkey", align 1
  %_3 = alloca { %"solana_program::pubkey::Pubkey", i8 }, align 1
  store %"solana_program::pubkey::Pubkey"* %wallet_address, %"solana_program::pubkey::Pubkey"** %wallet_address.dbg.spill, align 8
  call void @llvm.dbg.declare(metadata %"solana_program::pubkey::Pubkey"** %wallet_address.dbg.spill, metadata !1495, metadata !DIExpression()), !dbg !1497
  store %"solana_program::pubkey::Pubkey"* %spl_token_mint_address, %"solana_program::pubkey::Pubkey"** %spl_token_mint_address.dbg.spill, align 8
  call void @llvm.dbg.declare(metadata %"solana_program::pubkey::Pubkey"** %spl_token_mint_address.dbg.spill, metadata !1496, metadata !DIExpression()), !dbg !1498
; call spl_associated_token_account::id
  call void @_ZN28spl_associated_token_account2id17h36f025b48a5fc54aE(%"solana_program::pubkey::Pubkey"* noalias nocapture sret(%"solana_program::pubkey::Pubkey") dereferenceable(32) %_8), !dbg !1499
  br label %bb1, !dbg !1499

bb1:                                              ; preds = %start
; call spl_associated_token_account::get_associated_token_address_and_bump_seed
  call void @_ZN28spl_associated_token_account42get_associated_token_address_and_bump_seed17hf47d1114af8a5bd0E({ %"solana_program::pubkey::Pubkey", i8 }* noalias nocapture sret({ %"solana_program::pubkey::Pubkey", i8 }) dereferenceable(33) %_3, %"solana_program::pubkey::Pubkey"* align 1 dereferenceable(32) %wallet_address, %"solana_program::pubkey::Pubkey"* align 1 dereferenceable(32) %spl_token_mint_address, %"solana_program::pubkey::Pubkey"* align 1 dereferenceable(32) %_8), !dbg !1500
  br label %bb2, !dbg !1500

bb2:                                              ; preds = %bb1
  %1 = bitcast { %"solana_program::pubkey::Pubkey", i8 }* %_3 to %"solana_program::pubkey::Pubkey"*, !dbg !1500
  %2 = bitcast %"solana_program::pubkey::Pubkey"* %0 to i8*, !dbg !1500
  %3 = bitcast %"solana_program::pubkey::Pubkey"* %1 to i8*, !dbg !1500
  call void @llvm.memcpy.p0i8.p0i8.i64(i8* align 1 %2, i8* align 1 %3, i64 32, i1 false), !dbg !1500
  ret void, !dbg !1501
}

; spl_associated_token_account::get_associated_token_address_and_bump_seed_internal
; Function Attrs: nounwind
define internal void @_ZN28spl_associated_token_account51get_associated_token_address_and_bump_seed_internal17hd9fe6503ebde6066E({ %"solana_program::pubkey::Pubkey", i8 }* noalias nocapture sret({ %"solana_program::pubkey::Pubkey", i8 }) dereferenceable(33) %0, %"solana_program::pubkey::Pubkey"* align 1 dereferenceable(32) %wallet_address, %"solana_program::pubkey::Pubkey"* align 1 dereferenceable(32) %spl_token_mint_address, %"solana_program::pubkey::Pubkey"* align 1 dereferenceable(32) %program_id, %"solana_program::pubkey::Pubkey"* align 1 dereferenceable(32) %token_program_id) unnamed_addr #1 !dbg !1502 {
start:
  %token_program_id.dbg.spill = alloca %"solana_program::pubkey::Pubkey"*, align 8
  %program_id.dbg.spill = alloca %"solana_program::pubkey::Pubkey"*, align 8
  %spl_token_mint_address.dbg.spill = alloca %"solana_program::pubkey::Pubkey"*, align 8
  %wallet_address.dbg.spill = alloca %"solana_program::pubkey::Pubkey"*, align 8
  %_23 = alloca %"solana_program::pubkey::Pubkey", align 1
  %_22 = alloca [32 x i8], align 1
  %_18 = alloca %"solana_program::pubkey::Pubkey", align 1
  %_17 = alloca [32 x i8], align 1
  %_13 = alloca %"solana_program::pubkey::Pubkey", align 1
  %_12 = alloca [32 x i8], align 1
  %_8 = alloca [3 x { [0 x i8]*, i64 }], align 8
  store %"solana_program::pubkey::Pubkey"* %wallet_address, %"solana_program::pubkey::Pubkey"** %wallet_address.dbg.spill, align 8
  call void @llvm.dbg.declare(metadata %"solana_program::pubkey::Pubkey"** %wallet_address.dbg.spill, metadata !1506, metadata !DIExpression()), !dbg !1510
  store %"solana_program::pubkey::Pubkey"* %spl_token_mint_address, %"solana_program::pubkey::Pubkey"** %spl_token_mint_address.dbg.spill, align 8
  call void @llvm.dbg.declare(metadata %"solana_program::pubkey::Pubkey"** %spl_token_mint_address.dbg.spill, metadata !1507, metadata !DIExpression()), !dbg !1511
  store %"solana_program::pubkey::Pubkey"* %program_id, %"solana_program::pubkey::Pubkey"** %program_id.dbg.spill, align 8
  call void @llvm.dbg.declare(metadata %"solana_program::pubkey::Pubkey"** %program_id.dbg.spill, metadata !1508, metadata !DIExpression()), !dbg !1512
  store %"solana_program::pubkey::Pubkey"* %token_program_id, %"solana_program::pubkey::Pubkey"** %token_program_id.dbg.spill, align 8
  call void @llvm.dbg.declare(metadata %"solana_program::pubkey::Pubkey"** %token_program_id.dbg.spill, metadata !1509, metadata !DIExpression()), !dbg !1513
  %1 = bitcast %"solana_program::pubkey::Pubkey"* %_13 to i8*, !dbg !1514
  %2 = bitcast %"solana_program::pubkey::Pubkey"* %wallet_address to i8*, !dbg !1514
  call void @llvm.memcpy.p0i8.p0i8.i64(i8* align 1 %1, i8* align 1 %2, i64 32, i1 false), !dbg !1514
; call solana_program::pubkey::Pubkey::to_bytes
  call void @_ZN14solana_program6pubkey6Pubkey8to_bytes17h76bde7ccb0c6f68eE([32 x i8]* noalias nocapture sret([32 x i8]) dereferenceable(32) %_12, %"solana_program::pubkey::Pubkey"* noalias nocapture dereferenceable(32) %_13), !dbg !1514
  br label %bb1, !dbg !1514

bb1:                                              ; preds = %start
  %_9.0 = bitcast [32 x i8]* %_12 to [0 x i8]*, !dbg !1515
  %3 = bitcast %"solana_program::pubkey::Pubkey"* %_18 to i8*, !dbg !1516
  %4 = bitcast %"solana_program::pubkey::Pubkey"* %token_program_id to i8*, !dbg !1516
  call void @llvm.memcpy.p0i8.p0i8.i64(i8* align 1 %3, i8* align 1 %4, i64 32, i1 false), !dbg !1516
; call solana_program::pubkey::Pubkey::to_bytes
  call void @_ZN14solana_program6pubkey6Pubkey8to_bytes17h76bde7ccb0c6f68eE([32 x i8]* noalias nocapture sret([32 x i8]) dereferenceable(32) %_17, %"solana_program::pubkey::Pubkey"* noalias nocapture dereferenceable(32) %_18), !dbg !1516
  br label %bb2, !dbg !1516

bb2:                                              ; preds = %bb1
  %_14.0 = bitcast [32 x i8]* %_17 to [0 x i8]*, !dbg !1517
  %5 = bitcast %"solana_program::pubkey::Pubkey"* %_23 to i8*, !dbg !1518
  %6 = bitcast %"solana_program::pubkey::Pubkey"* %spl_token_mint_address to i8*, !dbg !1518
  call void @llvm.memcpy.p0i8.p0i8.i64(i8* align 1 %5, i8* align 1 %6, i64 32, i1 false), !dbg !1518
; call solana_program::pubkey::Pubkey::to_bytes
  call void @_ZN14solana_program6pubkey6Pubkey8to_bytes17h76bde7ccb0c6f68eE([32 x i8]* noalias nocapture sret([32 x i8]) dereferenceable(32) %_22, %"solana_program::pubkey::Pubkey"* noalias nocapture dereferenceable(32) %_23), !dbg !1518
  br label %bb3, !dbg !1518

bb3:                                              ; preds = %bb2
  %_19.0 = bitcast [32 x i8]* %_22 to [0 x i8]*, !dbg !1519
  %7 = bitcast [3 x { [0 x i8]*, i64 }]* %_8 to { [0 x i8]*, i64 }*, !dbg !1520
